
work/bin/out_pg_excep10_00000.riscv:     file format elf64-littleriscv


Disassembly of section .text.init:

0000000080000000 <_start>:
    80000000:	000e0117          	auipc	sp,0xe0
    80000004:	00010113          	mv	sp,sp
    80000008:	6082                	ld	ra,0(sp)
    8000000a:	61a2                	ld	gp,8(sp)
    8000000c:	6242                	ld	tp,16(sp)
    8000000e:	62e2                	ld	t0,24(sp)
    80000010:	7302                	ld	t1,32(sp)
    80000012:	73a2                	ld	t2,40(sp)
    80000014:	7442                	ld	s0,48(sp)
    80000016:	74e2                	ld	s1,56(sp)
    80000018:	6506                	ld	a0,64(sp)
    8000001a:	65a6                	ld	a1,72(sp)
    8000001c:	6646                	ld	a2,80(sp)
    8000001e:	66e6                	ld	a3,88(sp)
    80000020:	7706                	ld	a4,96(sp)
    80000022:	77a6                	ld	a5,104(sp)
    80000024:	7846                	ld	a6,112(sp)
    80000026:	78e6                	ld	a7,120(sp)
    80000028:	690a                	ld	s2,128(sp)
    8000002a:	69aa                	ld	s3,136(sp)
    8000002c:	6a4a                	ld	s4,144(sp)
    8000002e:	6aea                	ld	s5,152(sp)
    80000030:	7b0a                	ld	s6,160(sp)
    80000032:	7baa                	ld	s7,168(sp)
    80000034:	7c4a                	ld	s8,176(sp)
    80000036:	7cea                	ld	s9,184(sp)
    80000038:	6d0e                	ld	s10,192(sp)
    8000003a:	6dae                	ld	s11,200(sp)
    8000003c:	6e4e                	ld	t3,208(sp)
    8000003e:	6eee                	ld	t4,216(sp)
    80000040:	7f0e                	ld	t5,224(sp)
    80000042:	7fae                	ld	t6,232(sp)
    80000044:	62f9                	lui	t0,0x1e
    80000046:	3002a073          	csrs	mstatus,t0
    8000004a:	4285                	li	t0,1
    8000004c:	02fe                	sll	t0,t0,0x1f
    8000004e:	0002d863          	bgez	t0,8000005e <_start+0x5e>
    80000052:	4505                	li	a0,1
    80000054:	000f2297          	auipc	t0,0xf2
    80000058:	faa2a623          	sw	a0,-84(t0) # 800f2000 <tohost>
    8000005c:	bfdd                	j	80000052 <_start+0x52>
    8000005e:	00000297          	auipc	t0,0x0
    80000062:	09228293          	add	t0,t0,146 # 800000f0 <_start+0xf0>
    80000066:	30529073          	csrw	mtvec,t0
    8000006a:	00301073          	fscsr	zero
    8000006e:	f2008053          	fmv.d.x	ft0,ra
    80000072:	f20080d3          	fmv.d.x	ft1,ra
    80000076:	f2010153          	fmv.d.x	ft2,sp
    8000007a:	f20181d3          	fmv.d.x	ft3,gp
    8000007e:	f2020253          	fmv.d.x	ft4,tp
    80000082:	f20282d3          	fmv.d.x	ft5,t0
    80000086:	f2030353          	fmv.d.x	ft6,t1
    8000008a:	f20383d3          	fmv.d.x	ft7,t2
    8000008e:	f2040453          	fmv.d.x	fs0,s0
    80000092:	f20484d3          	fmv.d.x	fs1,s1
    80000096:	f2050553          	fmv.d.x	fa0,a0
    8000009a:	f20585d3          	fmv.d.x	fa1,a1
    8000009e:	f2060653          	fmv.d.x	fa2,a2
    800000a2:	f20686d3          	fmv.d.x	fa3,a3
    800000a6:	f2070753          	fmv.d.x	fa4,a4
    800000aa:	f20787d3          	fmv.d.x	fa5,a5
    800000ae:	f2080853          	fmv.d.x	fa6,a6
    800000b2:	f20888d3          	fmv.d.x	fa7,a7
    800000b6:	f2090953          	fmv.d.x	fs2,s2
    800000ba:	f20989d3          	fmv.d.x	fs3,s3
    800000be:	f20a0a53          	fmv.d.x	fs4,s4
    800000c2:	f20a8ad3          	fmv.d.x	fs5,s5
    800000c6:	f20b0b53          	fmv.d.x	fs6,s6
    800000ca:	f20b8bd3          	fmv.d.x	fs7,s7
    800000ce:	f20c0c53          	fmv.d.x	fs8,s8
    800000d2:	f20c8cd3          	fmv.d.x	fs9,s9
    800000d6:	f20d0d53          	fmv.d.x	fs10,s10
    800000da:	f20d8dd3          	fmv.d.x	fs11,s11
    800000de:	f20e0e53          	fmv.d.x	ft8,t3
    800000e2:	f20e8ed3          	fmv.d.x	ft9,t4
    800000e6:	f20f0f53          	fmv.d.x	ft10,t5
    800000ea:	f20f8fd3          	fmv.d.x	ft11,t6
    800000ee:	0001                	nop
    800000f0:	00000297          	auipc	t0,0x0
    800000f4:	03428293          	add	t0,t0,52 # 80000124 <trap_entry>
    800000f8:	30529073          	csrw	mtvec,t0
    800000fc:	000f3217          	auipc	tp,0xf3
    80000100:	84420213          	add	tp,tp,-1980 # 800f2940 <_end+0x3f>
    80000104:	fc027213          	and	tp,tp,-64
    80000108:	f1402573          	csrr	a0,mhartid
    8000010c:	4585                	li	a1,1
    8000010e:	00b57063          	bgeu	a0,a1,8000010e <_start+0x10e>
    80000112:	01151613          	sll	a2,a0,0x11
    80000116:	9232                	add	tp,tp,a2
    80000118:	00150113          	add	sp,a0,1
    8000011c:	0146                	sll	sp,sp,0x11
    8000011e:	9112                	add	sp,sp,tp
    80000120:	2400006f          	j	80000360 <main>

0000000080000124 <trap_entry>:
    80000124:	716d                	add	sp,sp,-272
    80000126:	e406                	sd	ra,8(sp)
    80000128:	e80a                	sd	sp,16(sp)
    8000012a:	ec0e                	sd	gp,24(sp)
    8000012c:	f012                	sd	tp,32(sp)
    8000012e:	f416                	sd	t0,40(sp)
    80000130:	f81a                	sd	t1,48(sp)
    80000132:	fc1e                	sd	t2,56(sp)
    80000134:	e0a2                	sd	s0,64(sp)
    80000136:	e4a6                	sd	s1,72(sp)
    80000138:	e8aa                	sd	a0,80(sp)
    8000013a:	ecae                	sd	a1,88(sp)
    8000013c:	f0b2                	sd	a2,96(sp)
    8000013e:	f4b6                	sd	a3,104(sp)
    80000140:	f8ba                	sd	a4,112(sp)
    80000142:	fcbe                	sd	a5,120(sp)
    80000144:	e142                	sd	a6,128(sp)
    80000146:	e546                	sd	a7,136(sp)
    80000148:	e94a                	sd	s2,144(sp)
    8000014a:	ed4e                	sd	s3,152(sp)
    8000014c:	f152                	sd	s4,160(sp)
    8000014e:	f556                	sd	s5,168(sp)
    80000150:	f95a                	sd	s6,176(sp)
    80000152:	fd5e                	sd	s7,184(sp)
    80000154:	e1e2                	sd	s8,192(sp)
    80000156:	e5e6                	sd	s9,200(sp)
    80000158:	e9ea                	sd	s10,208(sp)
    8000015a:	edee                	sd	s11,216(sp)
    8000015c:	f1f2                	sd	t3,224(sp)
    8000015e:	f5f6                	sd	t4,232(sp)
    80000160:	f9fa                	sd	t5,240(sp)
    80000162:	fdfe                	sd	t6,248(sp)
    80000164:	34202573          	csrr	a0,mcause
    80000168:	341025f3          	csrr	a1,mepc
    8000016c:	0005d603          	lhu	a2,0(a1)
    80000170:	8a0d                	and	a2,a2,3
    80000172:	428d                	li	t0,3
    80000174:	00561563          	bne	a2,t0,8000017e <inst16>

0000000080000178 <inst32>:
    80000178:	0591                	add	a1,a1,4
    8000017a:	00000363          	beqz	zero,80000180 <inst16+0x2>

000000008000017e <inst16>:
    8000017e:	0589                	add	a1,a1,2
    80000180:	34159073          	csrw	mepc,a1
    80000184:	6289                	lui	t0,0x2
    80000186:	8002829b          	addw	t0,t0,-2048 # 1800 <_tbss_end+0x1800>
    8000018a:	3002a073          	csrs	mstatus,t0
    8000018e:	60a2                	ld	ra,8(sp)
    80000190:	6142                	ld	sp,16(sp)
    80000192:	61e2                	ld	gp,24(sp)
    80000194:	7202                	ld	tp,32(sp)
    80000196:	72a2                	ld	t0,40(sp)
    80000198:	7342                	ld	t1,48(sp)
    8000019a:	73e2                	ld	t2,56(sp)
    8000019c:	6406                	ld	s0,64(sp)
    8000019e:	64a6                	ld	s1,72(sp)
    800001a0:	6546                	ld	a0,80(sp)
    800001a2:	65e6                	ld	a1,88(sp)
    800001a4:	7606                	ld	a2,96(sp)
    800001a6:	76a6                	ld	a3,104(sp)
    800001a8:	7746                	ld	a4,112(sp)
    800001aa:	77e6                	ld	a5,120(sp)
    800001ac:	680a                	ld	a6,128(sp)
    800001ae:	68aa                	ld	a7,136(sp)
    800001b0:	694a                	ld	s2,144(sp)
    800001b2:	69ea                	ld	s3,152(sp)
    800001b4:	7a0a                	ld	s4,160(sp)
    800001b6:	7aaa                	ld	s5,168(sp)
    800001b8:	7b4a                	ld	s6,176(sp)
    800001ba:	7bea                	ld	s7,184(sp)
    800001bc:	6c0e                	ld	s8,192(sp)
    800001be:	6cae                	ld	s9,200(sp)
    800001c0:	6d4e                	ld	s10,208(sp)
    800001c2:	6dee                	ld	s11,216(sp)
    800001c4:	7e0e                	ld	t3,224(sp)
    800001c6:	7eae                	ld	t4,232(sp)
    800001c8:	7f4e                	ld	t5,240(sp)
    800001ca:	7fee                	ld	t6,248(sp)
    800001cc:	6151                	add	sp,sp,272
    800001ce:	30200073          	mret

Disassembly of section .text:

00000000800001e0 <custom_trap_handler_s>:
    800001e0:	7129                	add	sp,sp,-320
    800001e2:	e406                	sd	ra,8(sp)
    800001e4:	ec0e                	sd	gp,24(sp)
    800001e6:	f012                	sd	tp,32(sp)
    800001e8:	f416                	sd	t0,40(sp)
    800001ea:	f81a                	sd	t1,48(sp)
    800001ec:	fc1e                	sd	t2,56(sp)
    800001ee:	e0a2                	sd	s0,64(sp)
    800001f0:	e4a6                	sd	s1,72(sp)
    800001f2:	e8aa                	sd	a0,80(sp)
    800001f4:	ecae                	sd	a1,88(sp)
    800001f6:	f0b2                	sd	a2,96(sp)
    800001f8:	f4b6                	sd	a3,104(sp)
    800001fa:	f8ba                	sd	a4,112(sp)
    800001fc:	fcbe                	sd	a5,120(sp)
    800001fe:	e142                	sd	a6,128(sp)
    80000200:	e546                	sd	a7,136(sp)
    80000202:	e94a                	sd	s2,144(sp)
    80000204:	ed4e                	sd	s3,152(sp)
    80000206:	f152                	sd	s4,160(sp)
    80000208:	f556                	sd	s5,168(sp)
    8000020a:	f95a                	sd	s6,176(sp)
    8000020c:	fd5e                	sd	s7,184(sp)
    8000020e:	e1e2                	sd	s8,192(sp)
    80000210:	e5e6                	sd	s9,200(sp)
    80000212:	e9ea                	sd	s10,208(sp)
    80000214:	edee                	sd	s11,216(sp)
    80000216:	f1f2                	sd	t3,224(sp)
    80000218:	f5f6                	sd	t4,232(sp)
    8000021a:	f9fa                	sd	t5,240(sp)
    8000021c:	fdfe                	sd	t6,248(sp)
    8000021e:	10002573          	csrr	a0,sstatus
    80000222:	14102573          	csrr	a0,sepc
    80000226:	10502573          	csrr	a0,stvec
    8000022a:	14202573          	csrr	a0,scause
    8000022e:	4601                	li	a2,0
    80000230:	00c50763          	beq	a0,a2,8000023e <custom_trap_handler_s+0x5e>
    80000234:	4605                	li	a2,1
    80000236:	00c50463          	beq	a0,a2,8000023e <custom_trap_handler_s+0x5e>
    8000023a:	141025f3          	csrr	a1,sepc
    8000023e:	00059603          	lh	a2,0(a1)
    80000242:	8a0d                	and	a2,a2,3
    80000244:	428d                	li	t0,3
    80000246:	00561563          	bne	a2,t0,80000250 <inst16_s>

000000008000024a <inst32_s>:
    8000024a:	0591                	add	a1,a1,4
    8000024c:	00000363          	beqz	zero,80000252 <inst16_s+0x2>

0000000080000250 <inst16_s>:
    80000250:	0589                	add	a1,a1,2
    80000252:	14159073          	csrw	sepc,a1
    80000256:	60a2                	ld	ra,8(sp)
    80000258:	61e2                	ld	gp,24(sp)
    8000025a:	7202                	ld	tp,32(sp)
    8000025c:	72a2                	ld	t0,40(sp)
    8000025e:	7342                	ld	t1,48(sp)
    80000260:	73e2                	ld	t2,56(sp)
    80000262:	6406                	ld	s0,64(sp)
    80000264:	64a6                	ld	s1,72(sp)
    80000266:	6546                	ld	a0,80(sp)
    80000268:	65e6                	ld	a1,88(sp)
    8000026a:	7606                	ld	a2,96(sp)
    8000026c:	76a6                	ld	a3,104(sp)
    8000026e:	7746                	ld	a4,112(sp)
    80000270:	77e6                	ld	a5,120(sp)
    80000272:	680a                	ld	a6,128(sp)
    80000274:	68aa                	ld	a7,136(sp)
    80000276:	694a                	ld	s2,144(sp)
    80000278:	69ea                	ld	s3,152(sp)
    8000027a:	7a0a                	ld	s4,160(sp)
    8000027c:	7aaa                	ld	s5,168(sp)
    8000027e:	7b4a                	ld	s6,176(sp)
    80000280:	7bea                	ld	s7,184(sp)
    80000282:	6c0e                	ld	s8,192(sp)
    80000284:	6cae                	ld	s9,200(sp)
    80000286:	6d4e                	ld	s10,208(sp)
    80000288:	6dee                	ld	s11,216(sp)
    8000028a:	7e0e                	ld	t3,224(sp)
    8000028c:	7eae                	ld	t4,232(sp)
    8000028e:	7f4e                	ld	t5,240(sp)
    80000290:	7fee                	ld	t6,248(sp)
    80000292:	6131                	add	sp,sp,320
    80000294:	10200073          	sret

0000000080000298 <custom_trap_handler>:
    80000298:	7129                	add	sp,sp,-320
    8000029a:	e406                	sd	ra,8(sp)
    8000029c:	ec0e                	sd	gp,24(sp)
    8000029e:	f012                	sd	tp,32(sp)
    800002a0:	f416                	sd	t0,40(sp)
    800002a2:	f81a                	sd	t1,48(sp)
    800002a4:	fc1e                	sd	t2,56(sp)
    800002a6:	e0a2                	sd	s0,64(sp)
    800002a8:	e4a6                	sd	s1,72(sp)
    800002aa:	e8aa                	sd	a0,80(sp)
    800002ac:	ecae                	sd	a1,88(sp)
    800002ae:	f0b2                	sd	a2,96(sp)
    800002b0:	f4b6                	sd	a3,104(sp)
    800002b2:	f8ba                	sd	a4,112(sp)
    800002b4:	fcbe                	sd	a5,120(sp)
    800002b6:	e142                	sd	a6,128(sp)
    800002b8:	e546                	sd	a7,136(sp)
    800002ba:	e94a                	sd	s2,144(sp)
    800002bc:	ed4e                	sd	s3,152(sp)
    800002be:	f152                	sd	s4,160(sp)
    800002c0:	f556                	sd	s5,168(sp)
    800002c2:	f95a                	sd	s6,176(sp)
    800002c4:	fd5e                	sd	s7,184(sp)
    800002c6:	e1e2                	sd	s8,192(sp)
    800002c8:	e5e6                	sd	s9,200(sp)
    800002ca:	e9ea                	sd	s10,208(sp)
    800002cc:	edee                	sd	s11,216(sp)
    800002ce:	f1f2                	sd	t3,224(sp)
    800002d0:	f5f6                	sd	t4,232(sp)
    800002d2:	f9fa                	sd	t5,240(sp)
    800002d4:	fdfe                	sd	t6,248(sp)
    800002d6:	30002573          	csrr	a0,mstatus
    800002da:	34102573          	csrr	a0,mepc
    800002de:	30502573          	csrr	a0,mtvec
    800002e2:	34202573          	csrr	a0,mcause
    800002e6:	4601                	li	a2,0
    800002e8:	00c50763          	beq	a0,a2,800002f6 <custom_trap_handler+0x5e>
    800002ec:	4605                	li	a2,1
    800002ee:	00c50463          	beq	a0,a2,800002f6 <custom_trap_handler+0x5e>
    800002f2:	341025f3          	csrr	a1,mepc
    800002f6:	00059603          	lh	a2,0(a1)
    800002fa:	8a0d                	and	a2,a2,3
    800002fc:	428d                	li	t0,3
    800002fe:	00561563          	bne	a2,t0,80000308 <inst16>

0000000080000302 <inst32>:
    80000302:	0591                	add	a1,a1,4
    80000304:	00000363          	beqz	zero,8000030a <inst16+0x2>

0000000080000308 <inst16>:
    80000308:	0589                	add	a1,a1,2
    8000030a:	34159073          	csrw	mepc,a1
    8000030e:	60a2                	ld	ra,8(sp)
    80000310:	61e2                	ld	gp,24(sp)
    80000312:	7202                	ld	tp,32(sp)
    80000314:	72a2                	ld	t0,40(sp)
    80000316:	7342                	ld	t1,48(sp)
    80000318:	73e2                	ld	t2,56(sp)
    8000031a:	6406                	ld	s0,64(sp)
    8000031c:	64a6                	ld	s1,72(sp)
    8000031e:	6546                	ld	a0,80(sp)
    80000320:	65e6                	ld	a1,88(sp)
    80000322:	7606                	ld	a2,96(sp)
    80000324:	76a6                	ld	a3,104(sp)
    80000326:	7746                	ld	a4,112(sp)
    80000328:	77e6                	ld	a5,120(sp)
    8000032a:	680a                	ld	a6,128(sp)
    8000032c:	68aa                	ld	a7,136(sp)
    8000032e:	694a                	ld	s2,144(sp)
    80000330:	69ea                	ld	s3,152(sp)
    80000332:	7a0a                	ld	s4,160(sp)
    80000334:	7aaa                	ld	s5,168(sp)
    80000336:	7b4a                	ld	s6,176(sp)
    80000338:	7bea                	ld	s7,184(sp)
    8000033a:	6c0e                	ld	s8,192(sp)
    8000033c:	6cae                	ld	s9,200(sp)
    8000033e:	6d4e                	ld	s10,208(sp)
    80000340:	6dee                	ld	s11,216(sp)
    80000342:	7e0e                	ld	t3,224(sp)
    80000344:	7eae                	ld	t4,232(sp)
    80000346:	7f4e                	ld	t5,240(sp)
    80000348:	7fee                	ld	t6,248(sp)
    8000034a:	6131                	add	sp,sp,320
    8000034c:	30200073          	mret

0000000080000350 <func1>:
    80000350:	00000033          	add	zero,zero,zero
    80000354:	8082                	ret
    80000356:	00000013          	nop
    8000035a:	00000013          	nop
    8000035e:	0001                	nop

0000000080000360 <main>:
    80000360:	00000033          	add	zero,zero,zero
    80000364:	00000297          	auipc	t0,0x0
    80000368:	f3428293          	add	t0,t0,-204 # 80000298 <custom_trap_handler>
    8000036c:	30529073          	csrw	mtvec,t0
    80000370:	000e0117          	auipc	sp,0xe0
    80000374:	c9010113          	add	sp,sp,-880 # 800e0000 <begin_signature>
    80000378:	6315                	lui	t1,0x5
    8000037a:	2683031b          	addw	t1,t1,616 # 5268 <_tbss_end+0x5268>
    8000037e:	911a                	add	sp,sp,t1

0000000080000380 <i0000000000>:
    80000380:	4aa9                	li	s5,10

0000000080000382 <i0000000001>:
    80000382:	0ff0000f          	fence

0000000080000386 <i0000000002>:
    80000386:	a9215503          	lhu	a0,-1390(sp)

000000008000038a <i0000000003>:
    8000038a:	1599                	add	a1,a1,-26

000000008000038c <i0000000004>:
    8000038c:	40912e2f          	amoor.w	t3,s1,(sp)

0000000080000390 <i0000000005>:
    80000390:	6191                	lui	gp,0x4

0000000080000392 <i0000000006>:
    80000392:	6105                	add	sp,sp,32

0000000080000394 <i0000000007>:
    80000394:	00235073          	fsrmi	zero,6

0000000080000398 <i0000000008>:
    80000398:	a2408453          	fle.d	s0,ft1,ft4

000000008000039c <i0000000009>:
    8000039c:	c0052bd3          	fcvt.w.s	s7,fa0,rdn

00000000800003a0 <i000000000a>:
    800003a0:	fb813487          	fld	fs1,-72(sp)

00000000800003a4 <i000000000b>:
    800003a4:	cc96                	sw	t0,88(sp)
    800003a6:	48a9                	li	a7,10
    800003a8:	000e0117          	auipc	sp,0xe0
    800003ac:	c5810113          	add	sp,sp,-936 # 800e0000 <begin_signature>
    800003b0:	6325                	lui	t1,0x9
    800003b2:	9383031b          	addw	t1,t1,-1736 # 8938 <_tbss_end+0x8938>
    800003b6:	911a                	add	sp,sp,t1
    800003b8:	f112                	sd	tp,160(sp)
    800003ba:	0000100f          	fence.i
    800003be:	01a25033          	srl	zero,tp,s10
    800003c2:	e2091c53          	fclass.d	s8,fs2
    800003c6:	256e                	fld	fa0,216(sp)
    800003c8:	e774871b          	addw	a4,s1,-393
    800003cc:	7149                	add	sp,sp,-368

00000000800003ce <b000000000c>:
    800003ce:	011a8463          	beq	s5,a7,800003d6 <b000000000c+0x8>
    800003d2:	fc3ff06f          	j	80000394 <i0000000007>
    800003d6:	4aa9                	li	s5,10
    800003d8:	004134af          	amoadd.d	s1,tp,(sp)
    800003dc:	fc3a                	sd	a4,56(sp)
    800003de:	d072                	sw	t3,32(sp)
    800003e0:	f1f6                	sd	t4,224(sp)
    800003e2:	00a0                	add	s0,sp,72
    800003e4:	506fcb13          	xor	s6,t6,1286
    800003e8:	e20201d3          	fmv.x.d	gp,ft4

00000000800003ec <i000000000c>:
    800003ec:	0023d073          	fsrmi	zero,7

00000000800003f0 <i000000000d>:
    800003f0:	c2227253          	fcvt.l.d	tp,ft4

00000000800003f4 <i000000000e>:
    800003f4:	41c1302f          	amoor.d	zero,t3,(sp)

00000000800003f8 <i000000000f>:
    800003f8:	d2207253          	fcvt.d.l	ft4,zero
    800003fc:	000e0117          	auipc	sp,0xe0
    80000400:	c0410113          	add	sp,sp,-1020 # 800e0000 <begin_signature>
    80000404:	632d                	lui	t1,0xb
    80000406:	6a83031b          	addw	t1,t1,1704 # b6a8 <_tbss_end+0xb6a8>
    8000040a:	911a                	add	sp,sp,t1

000000008000040c <i0000000010>:
    8000040c:	24e15e03          	lhu	t3,590(sp)

0000000080000410 <i0000000011>:
    80000410:	03c01e33          	mulh	t3,zero,t3

0000000080000414 <i0000000012>:
    80000414:	02454eb3          	div	t4,a0,tp

0000000080000418 <i0000000013>:
    80000418:	0196d93b          	srlw	s2,a3,s9

000000008000041c <i0000000014>:
    8000041c:	09e1302f          	amoswap.d	zero,t5,(sp)

0000000080000420 <i0000000015>:
    80000420:	8ccd                	or	s1,s1,a1

0000000080000422 <i0000000016>:
    80000422:	1e412f03          	lw	t5,484(sp)
    80000426:	492d                	li	s2,11
    80000428:	0a85                	add	s5,s5,1
    8000042a:	98728c4b          	fnmsub.s	fs8,ft5,ft7,fs3,rne
    8000042e:	7746                	ld	a4,112(sp)
    80000430:	0ff0000f          	fence
    80000434:	c22574d3          	fcvt.l.d	s1,fa0
    80000438:	420f0d53          	fcvt.d.s	fs10,ft10
    8000043c:	a83e                	fsd	fa5,16(sp)
    8000043e:	e94b0993          	add	s3,s6,-364

0000000080000442 <b0000000017>:
    80000442:	00000033          	add	zero,zero,zero
    80000446:	fd2a87e3          	beq	s5,s2,80000414 <i0000000012>
    8000044a:	00000033          	add	zero,zero,zero
    8000044e:	4137803b          	subw	zero,a5,s3
    80000452:	000e5213          	srl	tp,t3,0x0
    80000456:	d3816003          	lwu	zero,-712(sp)
    8000045a:	029053bb          	divuw	t2,zero,s1
    8000045e:	1a9c                	add	a5,sp,368
    80000460:	80ed                	srl	s1,s1,0x1b
    80000462:	be013823          	sd	zero,-1040(sp)
    80000466:	4aa9                	li	s5,10

0000000080000468 <i0000000017>:
    80000468:	20513e2f          	amoxor.d	t3,t0,(sp)

000000008000046c <i0000000018>:
    8000046c:	9d8d                	subw	a1,a1,a1

000000008000046e <i0000000019>:
    8000046e:	e1e139af          	amomaxu.d	s3,t5,(sp)

0000000080000472 <i000000001a>:
    80000472:	02937c53          	fadd.d	fs8,ft6,fs1

0000000080000476 <i000000001b>:
    80000476:	8419                	sra	s0,s0,0x6

0000000080000478 <i000000001c>:
    80000478:	2a2e                	fld	fs4,200(sp)

000000008000047a <i000000001d>:
    8000047a:	0066883b          	addw	a6,a3,t1

000000008000047e <i000000001e>:
    8000047e:	13f10423          	sb	t6,296(sp)

0000000080000482 <i000000001f>:
    80000482:	9d05                	subw	a0,a0,s1

0000000080000484 <i0000000020>:
    80000484:	0000100f          	fence.i
    80000488:	4d29                	li	s10,10
    8000048a:	02a4                	add	s1,sp,328
    8000048c:	9c25                	addw	s0,s0,s1
    8000048e:	f6f14483          	lbu	s1,-145(sp)
    80000492:	0ec16a03          	lwu	s4,236(sp)
    80000496:	037b823b          	mulw	tp,s7,s7
    8000049a:	27a1                	addw	a5,a5,8
    8000049c:	c2317a53          	fcvt.lu.d	s4,ft2

00000000800004a0 <b0000000021>:
    800004a0:	01aa8863          	beq	s5,s10,800004b0 <b0000000021+0x10>
    800004a4:	00000d17          	auipc	s10,0x0
    800004a8:	fd4d0d13          	add	s10,s10,-44 # 80000478 <i000000001c>
    800004ac:	000d00e7          	jalr	s10
    800004b0:	4aa9                	li	s5,10
    800004b2:	ade2                	fsd	fs8,216(sp)
    800004b4:	224a2153          	fsgnjx.d	ft2,fs4,ft4
    800004b8:	fb04794b          	fnmsub.d	fs2,fs0,fa6,ft11
    800004bc:	03c4f4bb          	remuw	s1,s1,t3
    800004c0:	3785                	addw	a5,a5,-31
    800004c2:	edba                	sd	a4,216(sp)
    800004c4:	0000100f          	fence.i

00000000800004c8 <i0000000021>:
    800004c8:	00235073          	fsrmi	zero,6

00000000800004cc <i0000000022>:
    800004cc:	d22d7353          	fcvt.d.l	ft6,s10
    800004d0:	000e0117          	auipc	sp,0xe0
    800004d4:	b3010113          	add	sp,sp,-1232 # 800e0000 <begin_signature>
    800004d8:	6335                	lui	t1,0xd
    800004da:	7983031b          	addw	t1,t1,1944 # d798 <_tbss_end+0xd798>
    800004de:	911a                	add	sp,sp,t1

00000000800004e0 <i0000000023>:
    800004e0:	8a215883          	lhu	a7,-1886(sp)

00000000800004e4 <i0000000024>:
    800004e4:	9c95                	subw	s1,s1,a3

00000000800004e6 <i0000000025>:
    800004e6:	8e0d                	sub	a2,a2,a1

00000000800004e8 <i0000000026>:
    800004e8:	a2080d53          	fle.d	s10,fa6,ft0

00000000800004ec <i0000000027>:
    800004ec:	d0342853          	fcvt.s.lu	fa6,s0,rdn

00000000800004f0 <i0000000028>:
    800004f0:	9e31                	addw	a2,a2,a2

00000000800004f2 <i0000000029>:
    800004f2:	c141282f          	amominu.w	a6,s4,(sp)

00000000800004f6 <i000000002a>:
    800004f6:	6542                	ld	a0,16(sp)

00000000800004f8 <i000000002b>:
    800004f8:	f20e8253          	fmv.d.x	ft4,t4
    800004fc:	4981                	li	s3,0
    800004fe:	000e0117          	auipc	sp,0xe0
    80000502:	b0210113          	add	sp,sp,-1278 # 800e0000 <begin_signature>
    80000506:	6315                	lui	t1,0x5
    80000508:	4183031b          	addw	t1,t1,1048 # 5418 <_tbss_end+0x5418>
    8000050c:	911a                	add	sp,sp,t1
    8000050e:	0000100f          	fence.i
    80000512:	ca016b83          	lwu	s7,-864(sp)
    80000516:	5782                	lw	a5,32(sp)
    80000518:	84a2                	mv	s1,s0
    8000051a:	02000e3b          	mulw	t3,zero,zero
    8000051e:	00601d13          	sll	s10,zero,0x6
    80000522:	41a1322f          	amoor.d	tp,s10,(sp)

0000000080000526 <b000000002c>:
    80000526:	00000033          	add	zero,zero,zero
    8000052a:	053a8263          	beq	s5,s3,8000056e <i0000000031>
    8000052e:	00000033          	add	zero,zero,zero
    80000532:	1a637653          	fdiv.d	fa2,ft6,ft6
    80000536:	00980433          	add	s0,a6,s1
    8000053a:	9c85                	subw	s1,s1,s1
    8000053c:	e5e11483          	lh	s1,-418(sp)
    80000540:	41ce543b          	sraw	s0,t3,t3
    80000544:	70013e03          	ld	t3,1792(sp)
    80000548:	57e2                	lw	a5,56(sp)
    8000054a:	4aa9                	li	s5,10

000000008000054c <i000000002c>:
    8000054c:	40c4d6bb          	sraw	a3,s1,a2

0000000080000550 <i000000002d>:
    80000550:	03013003          	ld	zero,48(sp)

0000000080000554 <i000000002e>:
    80000554:	01a51713          	sll	a4,a0,0x1a

0000000080000558 <i000000002f>:
    80000558:	0ff0000f          	fence

000000008000055c <i0000000030>:
    8000055c:	370d                	addw	a4,a4,-29
    8000055e:	000e0117          	auipc	sp,0xe0
    80000562:	aa210113          	add	sp,sp,-1374 # 800e0000 <begin_signature>
    80000566:	6331                	lui	t1,0xc
    80000568:	7583031b          	addw	t1,t1,1880 # c758 <_tbss_end+0xc758>
    8000056c:	911a                	add	sp,sp,t1

000000008000056e <i0000000031>:
    8000056e:	c3010f83          	lb	t6,-976(sp)

0000000080000572 <i0000000032>:
    80000572:	0ff0000f          	fence

0000000080000576 <i0000000033>:
    80000576:	2f314d03          	lbu	s10,755(sp)

000000008000057a <i0000000034>:
    8000057a:	def54593          	xor	a1,a0,-529

000000008000057e <i0000000035>:
    8000057e:	d0241253          	fcvt.s.l	ft4,s0,rtz
    80000582:	4e01                	li	t3,0
    80000584:	000e0117          	auipc	sp,0xe0
    80000588:	a7c10113          	add	sp,sp,-1412 # 800e0000 <begin_signature>
    8000058c:	6319                	lui	t1,0x6
    8000058e:	3903031b          	addw	t1,t1,912 # 6390 <_tbss_end+0x6390>
    80000592:	911a                	add	sp,sp,t1
    80000594:	21f13a2f          	amoxor.d	s4,t6,(sp)
    80000598:	93ba                	add	t2,t2,a4
    8000059a:	0000100f          	fence.i
    8000059e:	4b384713          	xor	a4,a6,1203
    800005a2:	03fb58bb          	divuw	a7,s6,t6
    800005a6:	a5fdef93          	or	t6,s11,-1441
    800005aa:	146d                	add	s0,s0,-5

00000000800005ac <b0000000036>:
    800005ac:	00000033          	add	zero,zero,zero
    800005b0:	03ca8a63          	beq	s5,t3,800005e4 <i000000003b>
    800005b4:	00000033          	add	zero,zero,zero
    800005b8:	0ff0000f          	fence
    800005bc:	a0812b2f          	amomax.w	s6,s0,(sp)
    800005c0:	02e02433          	mulhsu	s0,zero,a4
    800005c4:	d86e                	sw	s11,48(sp)
    800005c6:	318e                	fld	ft3,224(sp)
    800005c8:	21ce8353          	fsgnj.s	ft6,ft9,ft8
    800005cc:	a2739253          	flt.d	tp,ft7,ft7
    800005d0:	4aa9                	li	s5,10

00000000800005d2 <i0000000036>:
    800005d2:	61c1262f          	amoand.w	a2,t3,(sp)

00000000800005d6 <i0000000037>:
    800005d6:	7121                	add	sp,sp,-448

00000000800005d8 <i0000000038>:
    800005d8:	0ff0000f          	fence

00000000800005dc <i0000000039>:
    800005dc:	01b1262f          	amoadd.w	a2,s11,(sp)

00000000800005e0 <i000000003a>:
    800005e0:	0000100f          	fence.i

00000000800005e4 <i000000003b>:
    800005e4:	c21bf1d3          	fcvt.wu.d	gp,fs7

00000000800005e8 <i000000003c>:
    800005e8:	0339653b          	remw	a0,s2,s3

00000000800005ec <i000000003d>:
    800005ec:	8385                	srl	a5,a5,0x1

00000000800005ee <i000000003e>:
    800005ee:	02c5733b          	remuw	t1,a0,a2

00000000800005f2 <i000000003f>:
    800005f2:	1161                	add	sp,sp,-8
    800005f4:	e416                	sd	t0,8(sp)
    800005f6:	4281                	li	t0,0
    800005f8:	0002c283          	lbu	t0,0(t0)
    800005fc:	62a2                	ld	t0,8(sp)
    800005fe:	0121                	add	sp,sp,8

0000000080000600 <i0000000040>:
    80000600:	40f6d6b3          	sra	a3,a3,a5
    80000604:	4f81                	li	t6,0
    80000606:	000e0117          	auipc	sp,0xe0
    8000060a:	9fa10113          	add	sp,sp,-1542 # 800e0000 <begin_signature>
    8000060e:	6329                	lui	t1,0xa
    80000610:	1383031b          	addw	t1,t1,312 # a138 <_tbss_end+0xa138>
    80000614:	911a                	add	sp,sp,t1
    80000616:	d21b0453          	fcvt.d.wu	fs0,s6
    8000061a:	40fd5d1b          	sraw	s10,s10,0xf
    8000061e:	01412e2f          	amoadd.w	t3,s4,(sp)
    80000622:	00dc9993          	sll	s3,s9,0xd
    80000626:	fb5a                	sd	s6,432(sp)
    80000628:	34f9                	addw	s1,s1,-2
    8000062a:	d03e3053          	fcvt.s.lu	ft0,t3,rup

000000008000062e <b0000000041>:
    8000062e:	00000033          	add	zero,zero,zero
    80000632:	03fa8763          	beq	s5,t6,80000660 <i0000000046>
    80000636:	00000033          	add	zero,zero,zero
    8000063a:	4f610c23          	sb	s6,1272(sp)
    8000063e:	9c3d                	addw	s0,s0,a5
    80000640:	5a0df453          	fsqrt.d	fs0,fs11
    80000644:	bc2a                	fsd	fa0,56(sp)
    80000646:	1421                	add	s0,s0,-24
    80000648:	29813087          	fld	ft1,664(sp)
    8000064c:	c172                	sw	t3,128(sp)
    8000064e:	4aa9                	li	s5,10

0000000080000650 <i0000000041>:
    80000650:	0000100f          	fence.i

0000000080000654 <i0000000042>:
    80000654:	ecba                	sd	a4,88(sp)

0000000080000656 <i0000000043>:
    80000656:	b092                	fsd	ft4,96(sp)

0000000080000658 <i0000000044>:
    80000658:	c2237f53          	fcvt.l.d	t5,ft6

000000008000065c <i0000000045>:
    8000065c:	a23c94d3          	flt.d	s1,fs9,ft3

0000000080000660 <i0000000046>:
    80000660:	081c9f43          	fmadd.s	ft10,fs9,ft1,ft1,rtz

0000000080000664 <i0000000047>:
    80000664:	02d8f83b          	remuw	a6,a7,a3

0000000080000668 <i0000000048>:
    80000668:	02a644bb          	divw	s1,a2,a0

000000008000066c <i0000000049>:
    8000066c:	c024a653          	fcvt.l.s	a2,fs1,rdn

0000000080000670 <i000000004a>:
    80000670:	0266c4bb          	divw	s1,a3,t1
    80000674:	4c31                	li	s8,12
    80000676:	0a85                	add	s5,s5,1
    80000678:	000e0117          	auipc	sp,0xe0
    8000067c:	98810113          	add	sp,sp,-1656 # 800e0000 <begin_signature>
    80000680:	632d                	lui	t1,0xb
    80000682:	c603031b          	addw	t1,t1,-928 # ac60 <_tbss_end+0xac60>
    80000686:	911a                	add	sp,sp,t1
    80000688:	72013e03          	ld	t3,1824(sp)
    8000068c:	2a826413          	or	s0,tp,680
    80000690:	87f5                	sra	a5,a5,0x1d
    80000692:	ebc11623          	sh	t3,-340(sp)
    80000696:	000e17bb          	sllw	a5,t3,zero
    8000069a:	23559cd3          	fsgnjn.d	fs9,fa1,fs5
    8000069e:	c0288fd3          	fcvt.l.s	t6,fa7,rne

00000000800006a2 <b000000004b>:
    800006a2:	00000033          	add	zero,zero,zero
    800006a6:	fb8a9de3          	bne	s5,s8,80000660 <i0000000046>
    800006aa:	00000033          	add	zero,zero,zero
    800006ae:	09e32b53          	fsub.s	fs6,ft6,ft10,rdn
    800006b2:	0000100f          	fence.i
    800006b6:	3322                	fld	ft6,40(sp)
    800006b8:	408138af          	amoor.d	a7,s0,(sp)
    800006bc:	5a08f5d3          	fsqrt.d	fa1,fa7
    800006c0:	32c16483          	lwu	s1,812(sp)
    800006c4:	0ff0000f          	fence
    800006c8:	4aa9                	li	s5,10

00000000800006ca <i000000004b>:
    800006ca:	029e4033          	div	zero,t3,s1

00000000800006ce <i000000004c>:
    800006ce:	408cd63b          	sraw	a2,s9,s0

00000000800006d2 <i000000004d>:
    800006d2:	02167d53          	fadd.d	fs10,fa2,ft1

00000000800006d6 <i000000004e>:
    800006d6:	c0322553          	fcvt.lu.s	a0,ft4,rdn

00000000800006da <i000000004f>:
    800006da:	ed412c27          	fsw	fs4,-296(sp)

00000000800006de <i0000000050>:
    800006de:	0000100f          	fence.i

00000000800006e2 <i0000000051>:
    800006e2:	400bd59b          	sraw	a1,s7,0x0

00000000800006e6 <i0000000052>:
    800006e6:	7131                	add	sp,sp,-192

00000000800006e8 <i0000000053>:
    800006e8:	02d7d93b          	divuw	s2,a5,a3

00000000800006ec <i0000000054>:
    800006ec:	0021d073          	fsrmi	zero,3

00000000800006f0 <i0000000055>:
    800006f0:	fcaa                	sd	a0,120(sp)
    800006f2:	4dad                	li	s11,11
    800006f4:	4aa9                	li	s5,10
    800006f6:	000e0117          	auipc	sp,0xe0
    800006fa:	90a10113          	add	sp,sp,-1782 # 800e0000 <begin_signature>
    800006fe:	632d                	lui	t1,0xb
    80000700:	7103031b          	addw	t1,t1,1808 # b710 <_tbss_end+0xb710>
    80000704:	911a                	add	sp,sp,t1
    80000706:	0ff0000f          	fence
    8000070a:	c0273cd3          	fcvt.l.s	s9,fa4,rup
    8000070e:	023c2e33          	mulhsu	t3,s8,gp
    80000712:	f20484d3          	fmv.d.x	fs1,s1
    80000716:	1344fc53          	fmul.d	fs8,fs1,fs4
    8000071a:	c23e7453          	fcvt.lu.d	s0,ft8
    8000071e:	a126                	fsd	fs1,128(sp)

0000000080000720 <b0000000056>:
    80000720:	00000033          	add	zero,zero,zero
    80000724:	03ba9b63          	bne	s5,s11,8000075a <i000000005b>
    80000728:	00000033          	add	zero,zero,zero
    8000072c:	00f8d713          	srl	a4,a7,0xf
    80000730:	c03c1253          	fcvt.lu.s	tp,fs8,rtz
    80000734:	0294c933          	div	s2,s1,s1
    80000738:	e6012e03          	lw	t3,-416(sp)
    8000073c:	b8c6                	fsd	fa7,112(sp)
    8000073e:	23a5a253          	fsgnjx.d	ft4,fa1,fs10
    80000742:	c22c74d3          	fcvt.l.d	s1,fs8
    80000746:	4aa9                	li	s5,10

0000000080000748 <i0000000056>:
    80000748:	77e29617          	auipc	a2,0x77e29

000000008000074c <i0000000057>:
    8000074c:	c02822d3          	fcvt.l.s	t0,fa6,rdn

0000000080000750 <i0000000058>:
    80000750:	e1a139af          	amomaxu.d	s3,s10,(sp)

0000000080000754 <i0000000059>:
    80000754:	00c4b633          	sltu	a2,s1,a2

0000000080000758 <i000000005a>:
    80000758:	da26                	sw	s1,52(sp)

000000008000075a <i000000005b>:
    8000075a:	cb110723          	sb	a7,-850(sp)

000000008000075e <i000000005c>:
    8000075e:	c23efcd3          	fcvt.lu.d	s9,ft9

0000000080000762 <i000000005d>:
    80000762:	a2dd8ed3          	fle.d	t4,fs11,fa3

0000000080000766 <i000000005e>:
    80000766:	028bcfb3          	div	t6,s7,s0

000000008000076a <i000000005f>:
    8000076a:	d004bcd3          	fcvt.s.w	fs9,s1,rup
    8000076e:	4bb1                	li	s7,12
    80000770:	0a85                	add	s5,s5,1
    80000772:	000e0117          	auipc	sp,0xe0
    80000776:	88e10113          	add	sp,sp,-1906 # 800e0000 <begin_signature>
    8000077a:	6331                	lui	t1,0xc
    8000077c:	cf83031b          	addw	t1,t1,-776 # bcf8 <_tbss_end+0xbcf8>
    80000780:	911a                	add	sp,sp,t1
    80000782:	031e5497          	auipc	s1,0x31e5
    80000786:	03c481b3          	mul	gp,s1,t3
    8000078a:	6121                	add	sp,sp,64
    8000078c:	c0f12a2f          	amominu.w	s4,a5,(sp)
    80000790:	03b8d93b          	divuw	s2,a7,s11
    80000794:	622a                	ld	tp,136(sp)
    80000796:	00905933          	srl	s2,zero,s1

000000008000079a <b0000000060>:
    8000079a:	00000033          	add	zero,zero,zero
    8000079e:	fb7acee3          	blt	s5,s7,8000075a <i000000005b>
    800007a2:	00000033          	add	zero,zero,zero
    800007a6:	144d                	add	s0,s0,-13
    800007a8:	03bdc93b          	divw	s2,s11,s11
    800007ac:	00e3ed33          	or	s10,t2,a4
    800007b0:	08b8                	add	a4,sp,88
    800007b2:	803121af          	amomin.w	gp,gp,(sp)
    800007b6:	e2028e53          	fmv.x.d	t3,ft5
    800007ba:	029e5433          	divu	s0,t3,s1
    800007be:	4aa9                	li	s5,10

00000000800007c0 <i0000000060>:
    800007c0:	00f60f93          	add	t6,a2,15 # f7e29757 <_end+0x77d36e56>
    800007c4:	000e0117          	auipc	sp,0xe0
    800007c8:	83c10113          	add	sp,sp,-1988 # 800e0000 <begin_signature>
    800007cc:	6305                	lui	t1,0x1
    800007ce:	5f03031b          	addw	t1,t1,1520 # 15f0 <_tbss_end+0x15f0>
    800007d2:	911a                	add	sp,sp,t1

00000000800007d4 <i0000000061>:
    800007d4:	b4a6                	fsd	fs1,104(sp)

00000000800007d6 <i0000000062>:
    800007d6:	844e                	mv	s0,s3

00000000800007d8 <i0000000063>:
    800007d8:	009132af          	amoadd.d	t0,s1,(sp)

00000000800007dc <i0000000064>:
    800007dc:	e20484d3          	fmv.x.d	s1,fs1

00000000800007e0 <i0000000065>:
    800007e0:	03af0633          	mul	a2,t5,s10

00000000800007e4 <i0000000066>:
    800007e4:	18fb86d3          	fdiv.s	fa3,fs7,fa5,rne

00000000800007e8 <i0000000067>:
    800007e8:	00b127af          	amoadd.w	a5,a1,(sp)

00000000800007ec <i0000000068>:
    800007ec:	9a412d03          	lw	s10,-1628(sp)

00000000800007f0 <i0000000069>:
    800007f0:	11309953          	fmul.s	fs2,ft1,fs3,rtz
    800007f4:	4e31                	li	t3,12
    800007f6:	0a85                	add	s5,s5,1
    800007f8:	000e0117          	auipc	sp,0xe0
    800007fc:	80810113          	add	sp,sp,-2040 # 800e0000 <begin_signature>
    80000800:	6339                	lui	t1,0xe
    80000802:	7d03031b          	addw	t1,t1,2000 # e7d0 <_tbss_end+0xe7d0>
    80000806:	911a                	add	sp,sp,t1
    80000808:	0000100f          	fence.i
    8000080c:	e00d0d53          	fmv.x.w	s10,fs10
    80000810:	e526                	sd	s1,136(sp)
    80000812:	e026                	sd	s1,0(sp)
    80000814:	fc66                	sd	s9,56(sp)
    80000816:	8fa5                	xor	a5,a5,s1
    80000818:	7e913c23          	sd	s1,2040(sp)

000000008000081c <b000000006a>:
    8000081c:	00000033          	add	zero,zero,zero
    80000820:	fdca90e3          	bne	s5,t3,800007e0 <i0000000065>
    80000824:	00000033          	add	zero,zero,zero
    80000828:	f826                	sd	s1,48(sp)
    8000082a:	6782                	ld	a5,0(sp)
    8000082c:	8fea                	mv	t6,s10
    8000082e:	272e                	fld	fa4,200(sp)
    80000830:	81311c23          	sh	s3,-2024(sp)
    80000834:	02ffa4b3          	mulhsu	s1,t6,a5
    80000838:	034cedb3          	rem	s11,s9,s4
    8000083c:	4aa9                	li	s5,10

000000008000083e <i000000006a>:
    8000083e:	021d1313          	sll	t1,s10,0x21

0000000080000842 <i000000006b>:
    80000842:	8f76                	mv	t5,t4

0000000080000844 <i000000006c>:
    80000844:	00a4993b          	sllw	s2,s1,a0

0000000080000848 <i000000006d>:
    80000848:	0000100f          	fence.i

000000008000084c <i000000006e>:
    8000084c:	26a5                	addw	a3,a3,9

000000008000084e <i000000006f>:
    8000084e:	d23577d3          	fcvt.d.lu	fa5,a0

0000000080000852 <i0000000070>:
    80000852:	8f65                	and	a4,a4,s1

0000000080000854 <i0000000071>:
    80000854:	03bffc3b          	remuw	s8,t6,s11

0000000080000858 <i0000000072>:
    80000858:	80d9                	srl	s1,s1,0x16

000000008000085a <i0000000073>:
    8000085a:	11f0                	add	a2,sp,236
    8000085c:	4a01                	li	s4,0
    8000085e:	000df117          	auipc	sp,0xdf
    80000862:	7a210113          	add	sp,sp,1954 # 800e0000 <begin_signature>
    80000866:	6331                	lui	t1,0xc
    80000868:	4103031b          	addw	t1,t1,1040 # c410 <_tbss_end+0xc410>
    8000086c:	911a                	add	sp,sp,t1
    8000086e:	59c6                	lw	s3,112(sp)
    80000870:	8b25                	and	a4,a4,9
    80000872:	80e123af          	amomin.w	t2,a4,(sp)
    80000876:	40778b33          	sub	s6,a5,t2
    8000087a:	0000100f          	fence.i
    8000087e:	a041292f          	amomax.w	s2,tp,(sp)
    80000882:	1998                	add	a4,sp,240

0000000080000884 <b0000000074>:
    80000884:	00000033          	add	zero,zero,zero
    80000888:	034a8c63          	beq	s5,s4,800008c0 <i0000000079>
    8000088c:	00000033          	add	zero,zero,zero
    80000890:	a10134af          	amomax.d	s1,a6,(sp)
    80000894:	01c1272f          	amoadd.w	a4,t3,(sp)
    80000898:	d03072d3          	fcvt.s.lu	ft5,zero
    8000089c:	c1b12eaf          	amominu.w	t4,s11,(sp)
    800008a0:	87411e03          	lh	t3,-1932(sp)
    800008a4:	0010501b          	srlw	zero,zero,0x1
    800008a8:	409e0e3b          	subw	t3,t3,s1
    800008ac:	4aa9                	li	s5,10

00000000800008ae <i0000000074>:
    800008ae:	98f13c23          	sd	a5,-1640(sp)

00000000800008b2 <i0000000075>:
    800008b2:	08c13daf          	amoswap.d	s11,a2,(sp)

00000000800008b6 <i0000000076>:
    800008b6:	42090753          	fcvt.d.s	fa4,fs2

00000000800008ba <i0000000077>:
    800008ba:	8271                	srl	a2,a2,0x1c

00000000800008bc <i0000000078>:
    800008bc:	03976533          	rem	a0,a4,s9

00000000800008c0 <i0000000079>:
    800008c0:	a091232f          	amomax.w	t1,s1,(sp)

00000000800008c4 <i000000007a>:
    800008c4:	9526                	add	a0,a0,s1

00000000800008c6 <i000000007b>:
    800008c6:	3206                	fld	ft4,96(sp)

00000000800008c8 <i000000007c>:
    800008c8:	8fdd                	or	a5,a5,a5

00000000800008ca <i000000007d>:
    800008ca:	7119                	add	sp,sp,-128
    800008cc:	4ba9                	li	s7,10
    800008ce:	209137af          	amoxor.d	a5,s1,(sp)
    800008d2:	d024b153          	fcvt.s.l	ft2,s1,rup
    800008d6:	a00b0453          	fle.s	s0,fs6,ft0
    800008da:	c22d7d53          	fcvt.l.d	s10,fs10
    800008de:	0920                	add	s0,sp,152
    800008e0:	c0713eaf          	amominu.d	t4,t2,(sp)
    800008e4:	c26a                	sw	s10,4(sp)

00000000800008e6 <b000000007e>:
    800008e6:	017a8863          	beq	s5,s7,800008f6 <b000000007e+0x10>
    800008ea:	00000b97          	auipc	s7,0x0
    800008ee:	fd6b8b93          	add	s7,s7,-42 # 800008c0 <i0000000079>
    800008f2:	000b80e7          	jalr	s7
    800008f6:	4aa9                	li	s5,10
    800008f8:	6105                	add	sp,sp,32
    800008fa:	c025bd53          	fcvt.l.s	s10,fa1,rup
    800008fe:	c0337753          	fcvt.lu.s	a4,ft6
    80000902:	c030fd53          	fcvt.lu.s	s10,ft1
    80000906:	03c219b3          	mulh	s3,tp,t3
    8000090a:	23c16e03          	lwu	t3,572(sp)
    8000090e:	3befbf97          	auipc	t6,0x3befb

0000000080000912 <i000000007e>:
    80000912:	4692                	lw	a3,4(sp)

0000000080000914 <i000000007f>:
    80000914:	1af4                	add	a3,sp,380

0000000080000916 <i0000000080>:
    80000916:	c422                	sw	s0,8(sp)

0000000080000918 <i0000000081>:
    80000918:	0af4                	add	a3,sp,348

000000008000091a <i0000000082>:
    8000091a:	e20382d3          	fmv.x.d	t0,ft7

000000008000091e <i0000000083>:
    8000091e:	6a22                	ld	s4,8(sp)
    80000920:	000df117          	auipc	sp,0xdf
    80000924:	6e010113          	add	sp,sp,1760 # 800e0000 <begin_signature>
    80000928:	632d                	lui	t1,0xb
    8000092a:	9803031b          	addw	t1,t1,-1664 # a980 <_tbss_end+0xa980>
    8000092e:	911a                	add	sp,sp,t1

0000000080000930 <i0000000084>:
    80000930:	b9816503          	lwu	a0,-1128(sp)

0000000080000934 <i0000000085>:
    80000934:	350d                	addw	a0,a0,-29

0000000080000936 <i0000000086>:
    80000936:	28018053          	fmin.s	ft0,ft3,ft0

000000008000093a <i0000000087>:
    8000093a:	65ea                	ld	a1,152(sp)
    8000093c:	4c31                	li	s8,12
    8000093e:	4aa9                	li	s5,10
    80000940:	01183033          	sltu	zero,a6,a7
    80000944:	c0004ed3          	fcvt.w.s	t4,ft0,rmm
    80000948:	81c1382f          	amomin.d	a6,t3,(sp)
    8000094c:	a02a                	fsd	fa0,0(sp)
    8000094e:	2606                	fld	fa2,64(sp)
    80000950:	0078                	add	a4,sp,12
    80000952:	075a                	sll	a4,a4,0x16

0000000080000954 <b0000000088>:
    80000954:	00000033          	add	zero,zero,zero
    80000958:	058ac163          	blt	s5,s8,8000099a <i000000008d>
    8000095c:	00000033          	add	zero,zero,zero
    80000960:	e426                	sd	s1,8(sp)
    80000962:	d03770d3          	fcvt.s.lu	ft1,a4
    80000966:	20813faf          	amoxor.d	t6,s0,(sp)
    8000096a:	02900933          	mul	s2,zero,s1
    8000096e:	c02c8953          	fcvt.l.s	s2,fs9,rne
    80000972:	19614883          	lbu	a7,406(sp)
    80000976:	812127af          	amomin.w	a5,s2,(sp)
    8000097a:	4aa9                	li	s5,10

000000008000097c <i0000000088>:
    8000097c:	6446                	ld	s0,80(sp)
    8000097e:	000df117          	auipc	sp,0xdf
    80000982:	68210113          	add	sp,sp,1666 # 800e0000 <begin_signature>
    80000986:	6335                	lui	t1,0xd
    80000988:	b483031b          	addw	t1,t1,-1208 # cb48 <_tbss_end+0xcb48>
    8000098c:	911a                	add	sp,sp,t1

000000008000098e <i0000000089>:
    8000098e:	46d2                	lw	a3,20(sp)

0000000080000990 <i000000008a>:
    80000990:	02c481bb          	mulw	gp,s1,a2

0000000080000994 <i000000008b>:
    80000994:	29a49253          	fmax.s	ft4,fs1,fs10

0000000080000998 <i000000008c>:
    80000998:	85e1                	sra	a1,a1,0x18

000000008000099a <i000000008d>:
    8000099a:	02e24533          	div	a0,tp,a4

000000008000099e <i000000008e>:
    8000099e:	25ad                	addw	a1,a1,11

00000000800009a0 <i000000008f>:
    800009a0:	41da90cf          	fnmadd.s	ft1,fs5,ft9,fs0,rtz

00000000800009a4 <i0000000090>:
    800009a4:	19d8                	add	a4,sp,244

00000000800009a6 <i0000000091>:
    800009a6:	6051262f          	amoand.w	a2,t0,(sp)
    800009aa:	48b1                	li	a7,12
    800009ac:	0a85                	add	s5,s5,1
    800009ae:	000df117          	auipc	sp,0xdf
    800009b2:	65210113          	add	sp,sp,1618 # 800e0000 <begin_signature>
    800009b6:	6339                	lui	t1,0xe
    800009b8:	4d83031b          	addw	t1,t1,1240 # e4d8 <_tbss_end+0xe4d8>
    800009bc:	911a                	add	sp,sp,t1
    800009be:	4e56                	lw	t3,84(sp)
    800009c0:	412124af          	amoor.w	s1,s2,(sp)
    800009c4:	f20400d3          	fmv.d.x	ft1,s0
    800009c8:	6382                	ld	t2,0(sp)
    800009ca:	7141                	add	sp,sp,-496
    800009cc:	0000100f          	fence.i
    800009d0:	c2397fd3          	fcvt.lu.d	t6,fs2

00000000800009d4 <b0000000092>:
    800009d4:	011a8463          	beq	s5,a7,800009dc <b0000000092+0x8>
    800009d8:	fc3ff56f          	jal	a0,8000099a <i000000008d>
    800009dc:	4aa9                	li	s5,10
    800009de:	0ff0000f          	fence
    800009e2:	e7215d03          	lhu	s10,-398(sp)
    800009e6:	6419                	lui	s0,0x6
    800009e8:	6a013827          	fsd	ft0,1712(sp)
    800009ec:	c0122b53          	fcvt.wu.s	s6,ft4,rdn
    800009f0:	a2889c53          	flt.d	s8,fa7,fs0
    800009f4:	0ff0000f          	fence

00000000800009f8 <i0000000092>:
    800009f8:	fcaa                	sd	a0,120(sp)

00000000800009fa <i0000000093>:
    800009fa:	49816503          	lwu	a0,1176(sp)

00000000800009fe <i0000000094>:
    800009fe:	8ca1                	xor	s1,s1,s0

0000000080000a00 <i0000000095>:
    80000a00:	6602                	ld	a2,0(sp)

0000000080000a02 <i0000000096>:
    80000a02:	a422                	fsd	fs0,8(sp)

0000000080000a04 <i0000000097>:
    80000a04:	02e353bb          	divuw	t2,t1,a4

0000000080000a08 <i0000000098>:
    80000a08:	2d0a                	fld	fs10,128(sp)

0000000080000a0a <i0000000099>:
    80000a0a:	02746633          	rem	a2,s0,t2

0000000080000a0e <i000000009a>:
    80000a0e:	a0a13eaf          	amomax.d	t4,a0,(sp)

0000000080000a12 <i000000009b>:
    80000a12:	d2267853          	fcvt.d.l	fa6,a2
    80000a16:	4e2d                	li	t3,11
    80000a18:	4aa9                	li	s5,10
    80000a1a:	000df117          	auipc	sp,0xdf
    80000a1e:	5e610113          	add	sp,sp,1510 # 800e0000 <begin_signature>
    80000a22:	6311                	lui	t1,0x4
    80000a24:	6603031b          	addw	t1,t1,1632 # 4660 <_tbss_end+0x4660>
    80000a28:	911a                	add	sp,sp,t1
    80000a2a:	0a80                	add	s0,sp,336
    80000a2c:	8111242f          	amomin.w	s0,a7,(sp)
    80000a30:	33013e83          	ld	t4,816(sp)
    80000a34:	c6013023          	sd	zero,-928(sp)
    80000a38:	c08138af          	amominu.d	a7,s0,(sp)
    80000a3c:	d7013823          	sd	a6,-656(sp)
    80000a40:	27816203          	lwu	tp,632(sp)

0000000080000a44 <b000000009c>:
    80000a44:	00000033          	add	zero,zero,zero
    80000a48:	05ca9263          	bne	s5,t3,80000a8c <i00000000a1>
    80000a4c:	00000033          	add	zero,zero,zero
    80000a50:	d5a13423          	sd	s10,-696(sp)
    80000a54:	d01c1253          	fcvt.s.wu	ft4,s8,rtz
    80000a58:	d229f4d3          	fcvt.d.l	fs1,s3
    80000a5c:	0338a3b3          	mulhsu	t2,a7,s3
    80000a60:	83f1                	srl	a5,a5,0x1c
    80000a62:	711d                	add	sp,sp,-96
    80000a64:	0314db13          	srl	s6,s1,0x31
    80000a68:	4aa9                	li	s5,10

0000000080000a6a <i000000009c>:
    80000a6a:	34e2                	fld	fs1,56(sp)

0000000080000a6c <i000000009d>:
    80000a6c:	d02610d3          	fcvt.s.l	ft1,a2,rtz

0000000080000a70 <i000000009e>:
    80000a70:	02427153          	fadd.d	ft2,ft4,ft4
    80000a74:	000df117          	auipc	sp,0xdf
    80000a78:	58c10113          	add	sp,sp,1420 # 800e0000 <begin_signature>
    80000a7c:	6315                	lui	t1,0x5
    80000a7e:	1203031b          	addw	t1,t1,288 # 5120 <_tbss_end+0x5120>
    80000a82:	911a                	add	sp,sp,t1

0000000080000a84 <i000000009f>:
    80000a84:	e3013483          	ld	s1,-464(sp)

0000000080000a88 <i00000000a0>:
    80000a88:	ec864513          	xor	a0,a2,-312

0000000080000a8c <i00000000a1>:
    80000a8c:	4a90f0c7          	fmsub.d	ft1,ft1,fs1,fs1

0000000080000a90 <i00000000a2>:
    80000a90:	ea2a                	sd	a0,272(sp)

0000000080000a92 <i00000000a3>:
    80000a92:	7175                	add	sp,sp,-144
    80000a94:	000df117          	auipc	sp,0xdf
    80000a98:	56c10113          	add	sp,sp,1388 # 800e0000 <begin_signature>
    80000a9c:	6325                	lui	t1,0x9
    80000a9e:	5a03031b          	addw	t1,t1,1440 # 95a0 <_tbss_end+0x95a0>
    80000aa2:	911a                	add	sp,sp,t1

0000000080000aa4 <i00000000a4>:
    80000aa4:	268a                	fld	fa3,128(sp)

0000000080000aa6 <i00000000a5>:
    80000aa6:	d02cbdd3          	fcvt.s.l	fs11,s9,rup
    80000aaa:	48b1                	li	a7,12
    80000aac:	4aa9                	li	s5,10
    80000aae:	00ff24d3          	fadd.s	fs1,ft10,fa5,rdn
    80000ab2:	c0394c53          	fcvt.lu.s	s8,fs2,rmm
    80000ab6:	00001713          	sll	a4,zero,0x0
    80000aba:	41912faf          	amoor.w	t6,s9,(sp)
    80000abe:	c03484d3          	fcvt.lu.s	s1,fs1,rne
    80000ac2:	8f05                	sub	a4,a4,s1
    80000ac4:	e1313047          	fmsub.s	ft0,ft2,fs3,ft8,rup

0000000080000ac8 <b00000000a6>:
    80000ac8:	00000033          	add	zero,zero,zero
    80000acc:	031ac863          	blt	s5,a7,80000afc <i00000000ab>
    80000ad0:	00000033          	add	zero,zero,zero
    80000ad4:	0981242f          	amoswap.w	s0,s8,(sp)
    80000ad8:	72f11223          	sh	a5,1828(sp)
    80000adc:	58014483          	lbu	s1,1408(sp)
    80000ae0:	d23474d3          	fcvt.d.lu	fs1,s0
    80000ae4:	3482                	fld	fs1,32(sp)
    80000ae6:	dcc16783          	lwu	a5,-564(sp)
    80000aea:	a592                	fsd	ft4,200(sp)
    80000aec:	4aa9                	li	s5,10

0000000080000aee <i00000000a6>:
    80000aee:	5402                	lw	s0,32(sp)

0000000080000af0 <i00000000a7>:
    80000af0:	6c61                	lui	s8,0x18

0000000080000af2 <i00000000a8>:
    80000af2:	00021493          	sll	s1,tp,0x0

0000000080000af6 <i00000000a9>:
    80000af6:	22122c53          	fsgnjx.d	fs8,ft4,ft1

0000000080000afa <i00000000aa>:
    80000afa:	5626                	lw	a2,104(sp)

0000000080000afc <i00000000ab>:
    80000afc:	c1a1262f          	amominu.w	a2,s10,(sp)

0000000080000b00 <i00000000ac>:
    80000b00:	9a7e7e13          	and	t3,t3,-1625

0000000080000b04 <i00000000ad>:
    80000b04:	f026                	sd	s1,32(sp)

0000000080000b06 <i00000000ae>:
    80000b06:	0848                	add	a0,sp,20

0000000080000b08 <i00000000af>:
    80000b08:	1121                	add	sp,sp,-24
    80000b0a:	e42e                	sd	a1,8(sp)
    80000b0c:	e806                	sd	ra,16(sp)
    80000b0e:	ec22                	sd	s0,24(sp)
    80000b10:	00000097          	auipc	ra,0x0
    80000b14:	01408093          	add	ra,ra,20 # 80000b24 <i00000000af+0x1c>
    80000b18:	00000597          	auipc	a1,0x0
    80000b1c:	00858593          	add	a1,a1,8 # 80000b20 <i00000000af+0x18>
    80000b20:	00208467          	jalr	s0,2(ra)
    80000b24:	0001                	nop
    80000b26:	0001                	nop
    80000b28:	65a2                	ld	a1,8(sp)
    80000b2a:	60c2                	ld	ra,16(sp)
    80000b2c:	6462                	ld	s0,24(sp)
    80000b2e:	0161                	add	sp,sp,24

0000000080000b30 <i00000000b0>:
    80000b30:	0101262f          	amoadd.w	a2,a6,(sp)
    80000b34:	000df117          	auipc	sp,0xdf
    80000b38:	4cc10113          	add	sp,sp,1228 # 800e0000 <begin_signature>
    80000b3c:	6339                	lui	t1,0xe
    80000b3e:	6d83031b          	addw	t1,t1,1752 # e6d8 <_tbss_end+0xe6d8>
    80000b42:	911a                	add	sp,sp,t1
    80000b44:	d626                	sw	s1,44(sp)
    80000b46:	028434b3          	mulhu	s1,s0,s0
    80000b4a:	8f85                	sub	a5,a5,s1
    80000b4c:	e20718d3          	fclass.d	a7,fa4
    80000b50:	40012d2f          	amoor.w	s10,zero,(sp)
    80000b54:	9851                	and	s0,s0,-12
    80000b56:	01ce57bb          	srlw	a5,t3,t3

0000000080000b5a <b00000000b1>:
    80000b5a:	02c0006f          	j	80000b86 <i00000000b6>
    80000b5e:	8fc5                	or	a5,a5,s1
    80000b60:	03ae0d3b          	mulw	s10,t3,s10
    80000b64:	08812faf          	amoswap.w	t6,s0,(sp)
    80000b68:	8f79                	and	a4,a4,a4
    80000b6a:	0ff0000f          	fence
    80000b6e:	0378043b          	mulw	s0,a6,s7
    80000b72:	2c713c23          	sd	t2,728(sp)

0000000080000b76 <i00000000b1>:
    80000b76:	c026aed3          	fcvt.l.s	t4,fa3,rdn

0000000080000b7a <i00000000b2>:
    80000b7a:	d22576d3          	fcvt.d.l	fa3,a0

0000000080000b7e <i00000000b3>:
    80000b7e:	9c9d                	subw	s1,s1,a5

0000000080000b80 <i00000000b4>:
    80000b80:	9e29                	addw	a2,a2,a0

0000000080000b82 <i00000000b5>:
    80000b82:	e2068553          	fmv.x.d	a0,fa3

0000000080000b86 <i00000000b6>:
    80000b86:	f096                	sd	t0,96(sp)

0000000080000b88 <i00000000b7>:
    80000b88:	dd013b87          	fld	fs7,-560(sp)

0000000080000b8c <i00000000b8>:
    80000b8c:	80a1392f          	amomin.d	s2,a0,(sp)

0000000080000b90 <i00000000b9>:
    80000b90:	87c9                	sra	a5,a5,0x12

0000000080000b92 <i00000000ba>:
    80000b92:	d229f4d3          	fcvt.d.l	fs1,s3
    80000b96:	4fad                	li	t6,11
    80000b98:	0a85                	add	s5,s5,1
    80000b9a:	000df117          	auipc	sp,0xdf
    80000b9e:	46610113          	add	sp,sp,1126 # 800e0000 <begin_signature>
    80000ba2:	6309                	lui	t1,0x2
    80000ba4:	3e83031b          	addw	t1,t1,1000 # 23e8 <_tbss_end+0x23e8>
    80000ba8:	911a                	add	sp,sp,t1
    80000baa:	02840ebb          	mulw	t4,s0,s0
    80000bae:	44f6                	lw	s1,92(sp)
    80000bb0:	f20709d3          	fmv.d.x	fs3,a4
    80000bb4:	028e7e3b          	remuw	t3,t3,s0
    80000bb8:	b86e                	fsd	fs11,48(sp)
    80000bba:	019244b3          	xor	s1,tp,s9
    80000bbe:	877d                	sra	a4,a4,0x1f

0000000080000bc0 <b00000000bb>:
    80000bc0:	00000033          	add	zero,zero,zero
    80000bc4:	fdfa81e3          	beq	s5,t6,80000b86 <i00000000b6>
    80000bc8:	00000033          	add	zero,zero,zero
    80000bcc:	c200fa53          	fcvt.w.d	s4,ft1
    80000bd0:	03d4f9bb          	remuw	s3,s1,t4
    80000bd4:	00e138af          	amoadd.d	a7,a4,(sp)
    80000bd8:	407d5c3b          	sraw	s8,s10,t2
    80000bdc:	02e4a9b3          	mulhsu	s3,s1,a4
    80000be0:	401dfc53          	fcvt.s.d	fs8,fs11
    80000be4:	e17133af          	amomaxu.d	t2,s7,(sp)
    80000be8:	4aa9                	li	s5,10

0000000080000bea <i00000000bb>:
    80000bea:	9d3d                	addw	a0,a0,a5

0000000080000bec <i00000000bc>:
    80000bec:	e8be                	sd	a5,80(sp)

0000000080000bee <i00000000bd>:
    80000bee:	da3a                	sw	a4,52(sp)

0000000080000bf0 <i00000000be>:
    80000bf0:	55813503          	ld	a0,1368(sp)

0000000080000bf4 <i00000000bf>:
    80000bf4:	e026                	sd	s1,0(sp)

0000000080000bf6 <i00000000c0>:
    80000bf6:	c626                	sw	s1,12(sp)

0000000080000bf8 <i00000000c1>:
    80000bf8:	c22df7d3          	fcvt.l.d	a5,fs11

0000000080000bfc <i00000000c2>:
    80000bfc:	1161                	add	sp,sp,-8
    80000bfe:	e40e                	sd	gp,8(sp)
    80000c00:	4181                	li	gp,0
    80000c02:	0031b023          	sd	gp,0(gp) # 4000 <_tbss_end+0x4000>
    80000c06:	61a2                	ld	gp,8(sp)
    80000c08:	0121                	add	sp,sp,8

0000000080000c0a <i00000000c3>:
    80000c0a:	9ca1                	addw	s1,s1,s0

0000000080000c0c <i00000000c4>:
    80000c0c:	54a6                	lw	s1,104(sp)

0000000080000c0e <i00000000c5>:
    80000c0e:	00a4a533          	slt	a0,s1,a0
    80000c12:	4ead                	li	t4,11
    80000c14:	4aa9                	li	s5,10
    80000c16:	64c2                	ld	s1,16(sp)
    80000c18:	408139af          	amoor.d	s3,s0,(sp)
    80000c1c:	00f1342f          	amoadd.d	s0,a5,(sp)
    80000c20:	0ff0000f          	fence
    80000c24:	78f4049b          	addw	s1,s0,1935 # 678f <_tbss_end+0x678f>
    80000c28:	7159                	add	sp,sp,-112
    80000c2a:	209127af          	amoxor.w	a5,s1,(sp)

0000000080000c2e <b00000000c6>:
    80000c2e:	00000033          	add	zero,zero,zero
    80000c32:	035eda63          	bge	t4,s5,80000c66 <i00000000cb>
    80000c36:	00000033          	add	zero,zero,zero
    80000c3a:	0b3ef253          	fsub.d	ft4,ft9,fs3
    80000c3e:	60f1342f          	amoand.d	s0,a5,(sp)
    80000c42:	d03f94d3          	fcvt.s.lu	fs1,t6,rtz
    80000c46:	2435                	addw	s0,s0,13
    80000c48:	ca914803          	lbu	a6,-855(sp)
    80000c4c:	d027b4d3          	fcvt.s.l	fs1,a5,rup
    80000c50:	db80704b          	fnmsub.d	ft0,ft0,fs8,fs11
    80000c54:	4aa9                	li	s5,10

0000000080000c56 <i00000000c6>:
    80000c56:	80416483          	lwu	s1,-2044(sp)

0000000080000c5a <i00000000c7>:
    80000c5a:	e2030553          	fmv.x.d	a0,ft6

0000000080000c5e <i00000000c8>:
    80000c5e:	e2021453          	fclass.d	s0,ft4

0000000080000c62 <i00000000c9>:
    80000c62:	1b54                	add	a3,sp,436

0000000080000c64 <i00000000ca>:
    80000c64:	9cb1                	addw	s1,s1,a2

0000000080000c66 <i00000000cb>:
    80000c66:	7542                	ld	a0,48(sp)

0000000080000c68 <i00000000cc>:
    80000c68:	7149                	add	sp,sp,-368

0000000080000c6a <i00000000cd>:
    80000c6a:	00956e33          	or	t3,a0,s1

0000000080000c6e <i00000000ce>:
    80000c6e:	d23ffb53          	fcvt.d.lu	fs6,t6

0000000080000c72 <i00000000cf>:
    80000c72:	1161                	add	sp,sp,-8
    80000c74:	e42e                	sd	a1,8(sp)
    80000c76:	00000597          	auipc	a1,0x0
    80000c7a:	00858593          	add	a1,a1,8 # 80000c7e <i00000000cf+0xc>
    80000c7e:	00000067          	jr	zero # 0 <_tbss_end>
    80000c82:	65a2                	ld	a1,8(sp)
    80000c84:	0121                	add	sp,sp,8

0000000080000c86 <i00000000d0>:
    80000c86:	04b6                	sll	s1,s1,0xd
    80000c88:	000df117          	auipc	sp,0xdf
    80000c8c:	37810113          	add	sp,sp,888 # 800e0000 <begin_signature>
    80000c90:	632d                	lui	t1,0xb
    80000c92:	ec03031b          	addw	t1,t1,-320 # aec0 <_tbss_end+0xaec0>
    80000c96:	911a                	add	sp,sp,t1
    80000c98:	e412                	sd	tp,8(sp)
    80000c9a:	784df013          	and	zero,s11,1924
    80000c9e:	9f19                	subw	a4,a4,a4
    80000ca0:	a0a72a13          	slti	s4,a4,-1526
    80000ca4:	09e15f83          	lhu	t6,158(sp)
    80000ca8:	0432                	sll	s0,s0,0xc
    80000caa:	54a6                	lw	s1,104(sp)

0000000080000cac <b00000000d1>:
    80000cac:	02a0056f          	jal	a0,80000cd6 <i00000000d6>
    80000cb0:	8cbd                	xor	s1,s1,a5
    80000cb2:	ecba                	sd	a4,88(sp)
    80000cb4:	afb18d9b          	addw	s11,gp,-1285
    80000cb8:	6d813087          	fld	ft1,1752(sp)
    80000cbc:	000c9c33          	sll	s8,s9,zero
    80000cc0:	03f1a4b3          	mulhsu	s1,gp,t6
    80000cc4:	de3e                	sw	a5,60(sp)

0000000080000cc6 <i00000000d1>:
    80000cc6:	00da5a33          	srl	s4,s4,a3

0000000080000cca <i00000000d2>:
    80000cca:	9f29                	addw	a4,a4,a0

0000000080000ccc <i00000000d3>:
    80000ccc:	a3157f43          	fmadd.d	ft10,fa0,fa7,fs4

0000000080000cd0 <i00000000d4>:
    80000cd0:	d23570d3          	fcvt.d.lu	ft1,a0

0000000080000cd4 <i00000000d5>:
    80000cd4:	6492                	ld	s1,256(sp)

0000000080000cd6 <i00000000d6>:
    80000cd6:	f20e8353          	fmv.d.x	ft6,t4

0000000080000cda <i00000000d7>:
    80000cda:	c02d8653          	fcvt.l.s	a2,fs11,rne

0000000080000cde <i00000000d8>:
    80000cde:	8ce9                	and	s1,s1,a0

0000000080000ce0 <i00000000d9>:
    80000ce0:	1ae5f4d3          	fdiv.d	fs1,fa1,fa4
    80000ce4:	000df117          	auipc	sp,0xdf
    80000ce8:	31c10113          	add	sp,sp,796 # 800e0000 <begin_signature>
    80000cec:	6309                	lui	t1,0x2
    80000cee:	9f83031b          	addw	t1,t1,-1544 # 19f8 <_tbss_end+0x19f8>
    80000cf2:	911a                	add	sp,sp,t1

0000000080000cf4 <i00000000da>:
    80000cf4:	cc5a                	sw	s6,24(sp)
    80000cf6:	4d25                	li	s10,9
    80000cf8:	4aa9                	li	s5,10
    80000cfa:	808127af          	amomin.w	a5,s0,(sp)
    80000cfe:	1a14f0d3          	fdiv.d	ft1,fs1,ft1
    80000d02:	ed3e                	sd	a5,152(sp)
    80000d04:	a0980d9b          	addw	s11,a6,-1527
    80000d08:	7131                	add	sp,sp,-192
    80000d0a:	a0f13daf          	amomax.d	s11,a5,(sp)
    80000d0e:	9db12e23          	sw	s11,-1572(sp)

0000000080000d12 <b00000000db>:
    80000d12:	00000033          	add	zero,zero,zero
    80000d16:	03aaca63          	blt	s5,s10,80000d4a <i00000000e0>
    80000d1a:	00000033          	add	zero,zero,zero
    80000d1e:	29928253          	fmin.s	ft4,ft5,fs9
    80000d22:	c234f7d3          	fcvt.lu.d	a5,fs1
    80000d26:	b8a6                	fsd	fs1,112(sp)
    80000d28:	28398253          	fmin.s	ft4,fs3,ft3
    80000d2c:	029e44bb          	divw	s1,t3,s1
    80000d30:	2131392f          	amoxor.d	s2,s3,(sp)
    80000d34:	02d5f353          	fadd.d	ft6,fa1,fa3
    80000d38:	4aa9                	li	s5,10

0000000080000d3a <i00000000db>:
    80000d3a:	c23e74d3          	fcvt.lu.d	s1,ft8

0000000080000d3e <i00000000dc>:
    80000d3e:	614d                	add	sp,sp,176

0000000080000d40 <i00000000dd>:
    80000d40:	0289aa33          	mulhsu	s4,s3,s0

0000000080000d44 <i00000000de>:
    80000d44:	4010fad3          	fcvt.s.d	fs5,ft1

0000000080000d48 <i00000000df>:
    80000d48:	54f2                	lw	s1,60(sp)

0000000080000d4a <i00000000e0>:
    80000d4a:	a3db9653          	flt.d	a2,fs7,ft9

0000000080000d4e <i00000000e1>:
    80000d4e:	13c2f253          	fmul.d	ft4,ft5,ft8

0000000080000d52 <i00000000e2>:
    80000d52:	c034c8d3          	fcvt.lu.s	a7,fs1,rmm

0000000080000d56 <i00000000e3>:
    80000d56:	22fa9d53          	fsgnjn.d	fs10,fs5,fa5

0000000080000d5a <i00000000e4>:
    80000d5a:	00a492b3          	sll	t0,s1,a0
    80000d5e:	4fb1                	li	t6,12
    80000d60:	0a85                	add	s5,s5,1
    80000d62:	409e083b          	subw	a6,t3,s1
    80000d66:	009417bb          	sllw	a5,s0,s1
    80000d6a:	1258                	add	a4,sp,292
    80000d6c:	7171                	add	sp,sp,-176
    80000d6e:	c0f124af          	amominu.w	s1,a5,(sp)
    80000d72:	ca0070cb          	fnmsub.d	ft1,ft0,ft0,fs9
    80000d76:	e0912baf          	amomaxu.w	s7,s1,(sp)

0000000080000d7a <b00000000e5>:
    80000d7a:	01fa8863          	beq	s5,t6,80000d8a <b00000000e5+0x10>
    80000d7e:	00000f97          	auipc	t6,0x0
    80000d82:	fccf8f93          	add	t6,t6,-52 # 80000d4a <i00000000e0>
    80000d86:	000f80e7          	jalr	t6
    80000d8a:	4aa9                	li	s5,10
    80000d8c:	1338                	add	a4,sp,424
    80000d8e:	da813483          	ld	s1,-600(sp)
    80000d92:	80e127af          	amomin.w	a5,a4,(sp)
    80000d96:	47016b83          	lwu	s7,1136(sp)
    80000d9a:	e11124af          	amomaxu.w	s1,a7,(sp)
    80000d9e:	9b49                	and	a4,a4,-14
    80000da0:	00f127af          	amoadd.w	a5,a5,(sp)

0000000080000da4 <i00000000e5>:
    80000da4:	e20a8553          	fmv.x.d	a0,fs5

0000000080000da8 <i00000000e6>:
    80000da8:	6109                	add	sp,sp,128

0000000080000daa <i00000000e7>:
    80000daa:	0022d073          	fsrmi	zero,5

0000000080000dae <i00000000e8>:
    80000dae:	d2347353          	fcvt.d.lu	ft6,s0

0000000080000db2 <i00000000e9>:
    80000db2:	9d0d                	subw	a0,a0,a1

0000000080000db4 <i00000000ea>:
    80000db4:	d38370cf          	fnmadd.d	ft1,ft6,fs8,fs10

0000000080000db8 <i00000000eb>:
    80000db8:	e8a6                	sd	s1,80(sp)

0000000080000dba <i00000000ec>:
    80000dba:	d23a7d53          	fcvt.d.lu	fs10,s4

0000000080000dbe <i00000000ed>:
    80000dbe:	c027add3          	fcvt.l.s	s11,fa5,rdn

0000000080000dc2 <i00000000ee>:
    80000dc2:	13d470c7          	fmsub.d	ft1,fs0,ft9,ft2

0000000080000dc6 <i00000000ef>:
    80000dc6:	9c25                	addw	s0,s0,s1
    80000dc8:	000df117          	auipc	sp,0xdf
    80000dcc:	23810113          	add	sp,sp,568 # 800e0000 <begin_signature>
    80000dd0:	6309                	lui	t1,0x2
    80000dd2:	4003031b          	addw	t1,t1,1024 # 2400 <_tbss_end+0x2400>
    80000dd6:	911a                	add	sp,sp,t1
    80000dd8:	000df117          	auipc	sp,0xdf
    80000ddc:	22810113          	add	sp,sp,552 # 800e0000 <begin_signature>
    80000de0:	6329                	lui	t1,0xa
    80000de2:	4583031b          	addw	t1,t1,1112 # a458 <_tbss_end+0xa458>
    80000de6:	911a                	add	sp,sp,t1
    80000de8:	96813023          	sd	s0,-1696(sp)
    80000dec:	a0a6                	fsd	fs1,64(sp)
    80000dee:	28ce7c13          	and	s8,t3,652
    80000df2:	0000100f          	fence.i
    80000df6:	03ad94b3          	mulh	s1,s11,s10
    80000dfa:	a1612d2f          	amomax.w	s10,s6,(sp)
    80000dfe:	e03a                	sd	a4,0(sp)

0000000080000e00 <b00000000f0>:
    80000e00:	02a0056f          	jal	a0,80000e2a <i00000000f5>
    80000e04:	0ff0000f          	fence
    80000e08:	5eb5                	li	t4,-19
    80000e0a:	03c4b233          	mulhu	tp,s1,t3
    80000e0e:	03c4003b          	mulw	zero,s0,t3
    80000e12:	8726                	mv	a4,s1
    80000e14:	4422                	lw	s0,8(sp)
    80000e16:	d23270d3          	fcvt.d.lu	ft1,tp

0000000080000e1a <i00000000f0>:
    80000e1a:	d03938d3          	fcvt.s.lu	fa7,s2,rup

0000000080000e1e <i00000000f1>:
    80000e1e:	d32ff0ef          	jal	80000350 <func1>

0000000080000e22 <i00000000f2>:
    80000e22:	7109                	add	sp,sp,-384

0000000080000e24 <i00000000f3>:
    80000e24:	f032                	sd	a2,32(sp)

0000000080000e26 <i00000000f4>:
    80000e26:	00a4c633          	xor	a2,s1,a0

0000000080000e2a <i00000000f5>:
    80000e2a:	8f11                	sub	a4,a4,a2

0000000080000e2c <i00000000f6>:
    80000e2c:	c03e1b53          	fcvt.lu.s	s6,ft8,rtz

0000000080000e30 <i00000000f7>:
    80000e30:	12b97e53          	fmul.d	ft8,fs2,fa1

0000000080000e34 <i00000000f8>:
    80000e34:	d035b0d3          	fcvt.s.lu	ft1,a1,rup

0000000080000e38 <i00000000f9>:
    80000e38:	3d6e                	fld	fs10,248(sp)

0000000080000e3a <i00000000fa>:
    80000e3a:	4615                	li	a2,5
    80000e3c:	4fb1                	li	t6,12
    80000e3e:	0a85                	add	s5,s5,1
    80000e40:	0000100f          	fence.i
    80000e44:	2259a253          	fsgnjx.d	ft4,fs3,ft5
    80000e48:	0ff0000f          	fence
    80000e4c:	0000100f          	fence.i
    80000e50:	413124af          	amoor.w	s1,s3,(sp)
    80000e54:	6426                	ld	s0,72(sp)
    80000e56:	b4e6                	fsd	fs9,104(sp)

0000000080000e58 <b00000000fb>:
    80000e58:	00000033          	add	zero,zero,zero
    80000e5c:	fdfa98e3          	bne	s5,t6,80000e2c <i00000000f6>
    80000e60:	00000033          	add	zero,zero,zero
    80000e64:	0a4d724b          	fnmsub.d	ft4,fs10,ft4,ft1
    80000e68:	9bba                	add	s7,s7,a4
    80000e6a:	012ead33          	slt	s10,t4,s2
    80000e6e:	0725                	add	a4,a4,9
    80000e70:	4010f4d3          	fcvt.s.d	fs1,ft1
    80000e74:	a1112d2f          	amomax.w	s10,a7,(sp)
    80000e78:	d231f0d3          	fcvt.d.lu	ft1,gp
    80000e7c:	4aa9                	li	s5,10

0000000080000e7e <i00000000fb>:
    80000e7e:	4c600037          	lui	zero,0x4c600
    80000e82:	000df117          	auipc	sp,0xdf
    80000e86:	17e10113          	add	sp,sp,382 # 800e0000 <begin_signature>
    80000e8a:	633d                	lui	t1,0xf
    80000e8c:	5583031b          	addw	t1,t1,1368 # f558 <_tbss_end+0xf558>
    80000e90:	911a                	add	sp,sp,t1

0000000080000e92 <i00000000fc>:
    80000e92:	a57e                	fsd	ft11,136(sp)
    80000e94:	000df117          	auipc	sp,0xdf
    80000e98:	16c10113          	add	sp,sp,364 # 800e0000 <begin_signature>
    80000e9c:	6321                	lui	t1,0x8
    80000e9e:	9583031b          	addw	t1,t1,-1704 # 7958 <_tbss_end+0x7958>
    80000ea2:	911a                	add	sp,sp,t1

0000000080000ea4 <i00000000fd>:
    80000ea4:	2402                	fld	fs0,0(sp)

0000000080000ea6 <i00000000fe>:
    80000ea6:	1a8c                	add	a1,sp,368

0000000080000ea8 <i00000000ff>:
    80000ea8:	d034fdd3          	fcvt.s.lu	fs11,s1

0000000080000eac <i0000000100>:
    80000eac:	420d02d3          	fcvt.d.s	ft5,fs10

0000000080000eb0 <i0000000101>:
    80000eb0:	4094d633          	sra	a2,s1,s1

0000000080000eb4 <i0000000102>:
    80000eb4:	1141                	add	sp,sp,-16
    80000eb6:	e43a                	sd	a4,8(sp)
    80000eb8:	e822                	sd	s0,16(sp)
    80000eba:	870a                	mv	a4,sp
    80000ebc:	00176403          	lwu	s0,1(a4)
    80000ec0:	6722                	ld	a4,8(sp)
    80000ec2:	6442                	ld	s0,16(sp)
    80000ec4:	0141                	add	sp,sp,16

0000000080000ec6 <i0000000103>:
    80000ec6:	40435433          	sra	s0,t1,tp

0000000080000eca <i0000000104>:
    80000eca:	a3ad0453          	fle.d	s0,fs10,fs10

0000000080000ece <i0000000105>:
    80000ece:	8f45                	or	a4,a4,s1
    80000ed0:	4fa5                	li	t6,9
    80000ed2:	4aa9                	li	s5,10
    80000ed4:	000df117          	auipc	sp,0xdf
    80000ed8:	12c10113          	add	sp,sp,300 # 800e0000 <begin_signature>
    80000edc:	6325                	lui	t1,0x9
    80000ede:	8403031b          	addw	t1,t1,-1984 # 8840 <_tbss_end+0x8840>
    80000ee2:	911a                	add	sp,sp,t1
    80000ee4:	011d17bb          	sllw	a5,s10,a7
    80000ee8:	80f5                	srl	s1,s1,0x1d
    80000eea:	678d                	lui	a5,0x3
    80000eec:	5499                	li	s1,-26
    80000eee:	d027be53          	fcvt.s.l	ft8,a5,rup
    80000ef2:	9cbd                	addw	s1,s1,a5
    80000ef4:	43c12983          	lw	s3,1084(sp)

0000000080000ef8 <b0000000106>:
    80000ef8:	00000033          	add	zero,zero,zero
    80000efc:	03fac763          	blt	s5,t6,80000f2a <i000000010b>
    80000f00:	00000033          	add	zero,zero,zero
    80000f04:	027e14b3          	mulh	s1,t3,t2
    80000f08:	604124af          	amoand.w	s1,tp,(sp)
    80000f0c:	77ae                	ld	a5,232(sp)
    80000f0e:	4452                	lw	s0,20(sp)
    80000f10:	0081242f          	amoadd.w	s0,s0,(sp)
    80000f14:	20f137af          	amoxor.d	a5,a5,(sp)
    80000f18:	01c268b3          	or	a7,tp,t3
    80000f1c:	4aa9                	li	s5,10

0000000080000f1e <i0000000106>:
    80000f1e:	9f0d                	subw	a4,a4,a1

0000000080000f20 <i0000000107>:
    80000f20:	3549                	addw	a0,a0,-14

0000000080000f22 <i0000000108>:
    80000f22:	8d3d                	xor	a0,a0,a5

0000000080000f24 <i0000000109>:
    80000f24:	d20600d3          	fcvt.d.w	ft1,a2

0000000080000f28 <i000000010a>:
    80000f28:	6542                	ld	a0,16(sp)

0000000080000f2a <i000000010b>:
    80000f2a:	9245f7db          	.insn	4, 0x9245f7db

0000000080000f2e <i000000010c>:
    80000f2e:	d02c74d3          	fcvt.s.l	fs1,s8

0000000080000f32 <i000000010d>:
    80000f32:	d037a0d3          	fcvt.s.lu	ft1,a5,rdn

0000000080000f36 <i000000010e>:
    80000f36:	c22b7353          	fcvt.l.d	t1,fs6

0000000080000f3a <i000000010f>:
    80000f3a:	633f7ccb          	fnmsub.d	fs9,ft10,fs3,fa2

0000000080000f3e <i0000000110>:
    80000f3e:	74ce                	ld	s1,240(sp)
    80000f40:	4c29                	li	s8,10
    80000f42:	000df117          	auipc	sp,0xdf
    80000f46:	0be10113          	add	sp,sp,190 # 800e0000 <begin_signature>
    80000f4a:	6311                	lui	t1,0x4
    80000f4c:	f883031b          	addw	t1,t1,-120 # 3f88 <_tbss_end+0x3f88>
    80000f50:	911a                	add	sp,sp,t1
    80000f52:	000df117          	auipc	sp,0xdf
    80000f56:	0ae10113          	add	sp,sp,174 # 800e0000 <begin_signature>
    80000f5a:	6329                	lui	t1,0xa
    80000f5c:	bf83031b          	addw	t1,t1,-1032 # 9bf8 <_tbss_end+0x9bf8>
    80000f60:	911a                	add	sp,sp,t1
    80000f62:	dea6                	sw	s1,124(sp)
    80000f64:	0ff0000f          	fence
    80000f68:	0087543b          	srlw	s0,a4,s0
    80000f6c:	7300744f          	fnmadd.d	fs0,ft0,fa6,fa4
    80000f70:	3622                	fld	fa2,40(sp)
    80000f72:	9fb9                	addw	a5,a5,a4
    80000f74:	00f8                	add	a4,sp,76

0000000080000f76 <b0000000111>:
    80000f76:	00000033          	add	zero,zero,zero
    80000f7a:	fb8a9ae3          	bne	s5,s8,80000f2e <i000000010c>
    80000f7e:	00000033          	add	zero,zero,zero
    80000f82:	0199a233          	slt	tp,s3,s9
    80000f86:	0041242f          	amoadd.w	s0,tp,(sp)
    80000f8a:	d0242253          	fcvt.s.l	ft4,s0,rdn
    80000f8e:	e00407d3          	fmv.x.w	a5,fs0
    80000f92:	94de                	add	s1,s1,s7
    80000f94:	c2257453          	fcvt.l.d	s0,fa0
    80000f98:	77e2                	ld	a5,56(sp)
    80000f9a:	4aa9                	li	s5,10

0000000080000f9c <i0000000111>:
    80000f9c:	8139                	srl	a0,a0,0xe

0000000080000f9e <i0000000112>:
    80000f9e:	c22d7653          	fcvt.l.d	a2,fs10
    80000fa2:	000df117          	auipc	sp,0xdf
    80000fa6:	05e10113          	add	sp,sp,94 # 800e0000 <begin_signature>
    80000faa:	6315                	lui	t1,0x5
    80000fac:	b503031b          	addw	t1,t1,-1200 # 4b50 <_tbss_end+0x4b50>
    80000fb0:	911a                	add	sp,sp,t1

0000000080000fb2 <i0000000113>:
    80000fb2:	c8e6                	sw	s9,80(sp)

0000000080000fb4 <i0000000114>:
    80000fb4:	e036                	sd	a3,0(sp)

0000000080000fb6 <i0000000115>:
    80000fb6:	d866                	sw	s9,48(sp)
    80000fb8:	000df117          	auipc	sp,0xdf
    80000fbc:	04810113          	add	sp,sp,72 # 800e0000 <begin_signature>
    80000fc0:	6305                	lui	t1,0x1
    80000fc2:	9783031b          	addw	t1,t1,-1672 # 978 <_tbss_end+0x978>
    80000fc6:	911a                	add	sp,sp,t1

0000000080000fc8 <i0000000116>:
    80000fc8:	34c2                	fld	fs1,48(sp)

0000000080000fca <i0000000117>:
    80000fca:	740e                	ld	s0,224(sp)

0000000080000fcc <i0000000118>:
    80000fcc:	c82e                	sw	a1,16(sp)

0000000080000fce <i0000000119>:
    80000fce:	1ab874d3          	fdiv.d	fs1,fa6,fa1

0000000080000fd2 <i000000011a>:
    80000fd2:	006ece13          	xor	t3,t4,6
    80000fd6:	4cad                	li	s9,11
    80000fd8:	4aa9                	li	s5,10
    80000fda:	000df117          	auipc	sp,0xdf
    80000fde:	02610113          	add	sp,sp,38 # 800e0000 <begin_signature>
    80000fe2:	6315                	lui	t1,0x5
    80000fe4:	6c83031b          	addw	t1,t1,1736 # 56c8 <_tbss_end+0x56c8>
    80000fe8:	911a                	add	sp,sp,t1
    80000fea:	01bd09b3          	add	s3,s10,s11
    80000fee:	80812faf          	amomin.w	t6,s0,(sp)
    80000ff2:	023e07bb          	mulw	a5,t3,gp
    80000ff6:	d0294953          	fcvt.s.l	fs2,s2,rmm
    80000ffa:	5e812423          	sw	s0,1512(sp)
    80000ffe:	75816403          	lwu	s0,1880(sp)
    80001002:	6129                	add	sp,sp,192

0000000080001004 <b000000011b>:
    80001004:	00000033          	add	zero,zero,zero
    80001008:	055cd863          	bge	s9,s5,80001058 <i0000000120>
    8000100c:	00000033          	add	zero,zero,zero
    80001010:	4009893b          	subw	s2,s3,zero
    80001014:	d0042c53          	fcvt.s.w	fs8,s0,rdn
    80001018:	09613eaf          	amoswap.d	t4,s6,(sp)
    8000101c:	5a017a53          	fsqrt.d	fs4,ft2
    80001020:	24c2                	fld	fs1,16(sp)
    80001022:	e121292f          	amomaxu.w	s2,s2,(sp)
    80001026:	c03fa7d3          	fcvt.lu.s	a5,ft11,rdn
    8000102a:	4aa9                	li	s5,10

000000008000102c <i000000011b>:
    8000102c:	f20f84d3          	fmv.d.x	fs1,t6

0000000080001030 <i000000011c>:
    80001030:	8e69                	and	a2,a2,a0
    80001032:	000df117          	auipc	sp,0xdf
    80001036:	fce10113          	add	sp,sp,-50 # 800e0000 <begin_signature>
    8000103a:	631d                	lui	t1,0x7
    8000103c:	d983031b          	addw	t1,t1,-616 # 6d98 <_tbss_end+0x6d98>
    80001040:	911a                	add	sp,sp,t1

0000000080001042 <i000000011d>:
    80001042:	6462                	ld	s0,24(sp)
    80001044:	000df117          	auipc	sp,0xdf
    80001048:	fbc10113          	add	sp,sp,-68 # 800e0000 <begin_signature>
    8000104c:	6329                	lui	t1,0xa
    8000104e:	6b83031b          	addw	t1,t1,1720 # a6b8 <_tbss_end+0xa6b8>
    80001052:	911a                	add	sp,sp,t1

0000000080001054 <i000000011e>:
    80001054:	ec2a                	sd	a0,24(sp)

0000000080001056 <i000000011f>:
    80001056:	8095                	srl	s1,s1,0x5

0000000080001058 <i0000000120>:
    80001058:	f42a                	sd	a0,40(sp)

000000008000105a <i0000000121>:
    8000105a:	3545                	addw	a0,a0,-15
    8000105c:	000df117          	auipc	sp,0xdf
    80001060:	fa410113          	add	sp,sp,-92 # 800e0000 <begin_signature>
    80001064:	6321                	lui	t1,0x8
    80001066:	7d03031b          	addw	t1,t1,2000 # 87d0 <_tbss_end+0x87d0>
    8000106a:	911a                	add	sp,sp,t1

000000008000106c <i0000000122>:
    8000106c:	f8b6                	sd	a3,112(sp)

000000008000106e <i0000000123>:
    8000106e:	12ec                	add	a1,sp,364

0000000080001070 <i0000000124>:
    80001070:	8d11                	sub	a0,a0,a2
    80001072:	028747bb          	divw	a5,a4,s0
    80001076:	9fbd                	addw	a5,a5,a5
    80001078:	089094d3          	fsub.s	fs1,ft1,fs1,rtz
    8000107c:	c0be                	sw	a5,64(sp)
    8000107e:	ecbe                	sd	a5,88(sp)
    80001080:	bf012403          	lw	s0,-1040(sp)
    80001084:	f0070253          	fmv.w.x	ft4,a4

0000000080001088 <b0000000125>:
    80001088:	00000c17          	auipc	s8,0x0
    8000108c:	030c0c13          	add	s8,s8,48 # 800010b8 <i000000012a>
    80001090:	000c0567          	jalr	a0,s8
    80001094:	0ff0000f          	fence
    80001098:	0000100f          	fence.i
    8000109c:	c03f0b53          	fcvt.lu.s	s6,ft10,rne
    800010a0:	83ad                	srl	a5,a5,0xb
    800010a2:	00e4973b          	sllw	a4,s1,a4
    800010a6:	42048c53          	fcvt.d.s	fs8,fs1
    800010aa:	c23e                	sw	a5,4(sp)

00000000800010ac <i0000000125>:
    800010ac:	5722                	lw	a4,40(sp)

00000000800010ae <i0000000126>:
    800010ae:	d03db9d3          	fcvt.s.lu	fs3,s11,rup

00000000800010b2 <i0000000127>:
    800010b2:	08c0                	add	s0,sp,84

00000000800010b4 <i0000000128>:
    800010b4:	64ee                	ld	s1,216(sp)

00000000800010b6 <i0000000129>:
    800010b6:	7131                	add	sp,sp,-192

00000000800010b8 <i000000012a>:
    800010b8:	d0349353          	fcvt.s.lu	ft6,s1,rtz

00000000800010bc <i000000012b>:
    800010bc:	7131                	add	sp,sp,-192

00000000800010be <i000000012c>:
    800010be:	825d                	srl	a2,a2,0x17

00000000800010c0 <i000000012d>:
    800010c0:	83b1                	srl	a5,a5,0xc

00000000800010c2 <i000000012e>:
    800010c2:	0141                	add	sp,sp,16
    800010c4:	4a2d                	li	s4,11
    800010c6:	0a85                	add	s5,s5,1
    800010c8:	000df117          	auipc	sp,0xdf
    800010cc:	f3810113          	add	sp,sp,-200 # 800e0000 <begin_signature>
    800010d0:	6305                	lui	t1,0x1
    800010d2:	b783031b          	addw	t1,t1,-1160 # b78 <_tbss_end+0xb78>
    800010d6:	911a                	add	sp,sp,t1
    800010d8:	56911323          	sh	s1,1382(sp)
    800010dc:	0844b9d3          	fsub.s	fs3,fs1,ft4,rup
    800010e0:	b3c12903          	lw	s2,-1220(sp)
    800010e4:	221084d3          	fmv.d	fs1,ft1
    800010e8:	284097d3          	fmax.s	fa5,ft1,ft4
    800010ec:	373d                	addw	a4,a4,-17
    800010ee:	54e2                	lw	s1,56(sp)

00000000800010f0 <b000000012f>:
    800010f0:	00000033          	add	zero,zero,zero
    800010f4:	fd4a82e3          	beq	s5,s4,800010b8 <i000000012a>
    800010f8:	00000033          	add	zero,zero,zero
    800010fc:	9b8d                	and	a5,a5,-29
    800010fe:	c00dc453          	fcvt.w.s	s0,fs11,rmm
    80001102:	009407bb          	addw	a5,s0,s1
    80001106:	9b69                	and	a4,a4,-6
    80001108:	03df9b33          	mulh	s6,t6,t4
    8000110c:	02843eb3          	mulhu	t4,s0,s0
    80001110:	028777b3          	remu	a5,a4,s0
    80001114:	4aa9                	li	s5,10

0000000080001116 <i000000012f>:
    80001116:	85dd                	sra	a1,a1,0x17

0000000080001118 <i0000000130>:
    80001118:	22421853          	fneg.d	fa6,ft4

000000008000111c <i0000000131>:
    8000111c:	716d                	add	sp,sp,-272

000000008000111e <i0000000132>:
    8000111e:	c024a4d3          	fcvt.l.s	s1,fs1,rdn

0000000080001122 <i0000000133>:
    80001122:	a42e                	fsd	fa1,8(sp)

0000000080001124 <i0000000134>:
    80001124:	f8b2                	sd	a2,112(sp)

0000000080001126 <i0000000135>:
    80001126:	4502                	lw	a0,0(sp)

0000000080001128 <i0000000136>:
    80001128:	071a                	sll	a4,a4,0x6

000000008000112a <i0000000137>:
    8000112a:	d22674d3          	fcvt.d.l	fs1,a2

000000008000112e <i0000000138>:
    8000112e:	6129                	add	sp,sp,192
    80001130:	4e81                	li	t4,0
    80001132:	000df117          	auipc	sp,0xdf
    80001136:	ece10113          	add	sp,sp,-306 # 800e0000 <begin_signature>
    8000113a:	630d                	lui	t1,0x3
    8000113c:	ea03031b          	addw	t1,t1,-352 # 2ea0 <_tbss_end+0x2ea0>
    80001140:	911a                	add	sp,sp,t1
    80001142:	000df117          	auipc	sp,0xdf
    80001146:	ebe10113          	add	sp,sp,-322 # 800e0000 <begin_signature>
    8000114a:	630d                	lui	t1,0x3
    8000114c:	9f83031b          	addw	t1,t1,-1544 # 29f8 <_tbss_end+0x29f8>
    80001150:	911a                	add	sp,sp,t1
    80001152:	089494d3          	fsub.s	fs1,fs1,fs1,rtz
    80001156:	8cbd                	xor	s1,s1,a5
    80001158:	4786                	lw	a5,64(sp)
    8000115a:	a0e1222f          	amomax.w	tp,a4,(sp)
    8000115e:	4dad                	li	s11,11
    80001160:	dca2                	sw	s0,120(sp)
    80001162:	40912caf          	amoor.w	s9,s1,(sp)

0000000080001166 <b0000000139>:
    80001166:	00000033          	add	zero,zero,zero
    8000116a:	fbda8de3          	beq	s5,t4,80001124 <i0000000134>
    8000116e:	00000033          	add	zero,zero,zero
    80001172:	e11124af          	amomaxu.w	s1,a7,(sp)
    80001176:	284480d3          	fmin.s	ft1,fs1,ft4
    8000117a:	c0221d53          	fcvt.l.s	s10,ft4,rtz
    8000117e:	409d5913          	sra	s2,s10,0x9
    80001182:	c2ce                	sw	s3,68(sp)
    80001184:	024a5cbb          	divuw	s9,s4,tp
    80001188:	30a2                	fld	ft1,40(sp)
    8000118a:	4aa9                	li	s5,10

000000008000118c <i0000000139>:
    8000118c:	ac92                	fsd	ft4,88(sp)

000000008000118e <i000000013a>:
    8000118e:	9c0d                	subw	s0,s0,a1

0000000080001190 <i000000013b>:
    80001190:	b586                	fsd	ft1,232(sp)

0000000080001192 <i000000013c>:
    80001192:	44f2                	lw	s1,28(sp)

0000000080001194 <i000000013d>:
    80001194:	4b96                	lw	s7,68(sp)

0000000080001196 <i000000013e>:
    80001196:	24c2                	fld	fs1,16(sp)

0000000080001198 <i000000013f>:
    80001198:	c237f653          	fcvt.lu.d	a2,fa5

000000008000119c <i0000000140>:
    8000119c:	3486                	fld	fs1,96(sp)

000000008000119e <i0000000141>:
    8000119e:	0304                	add	s1,sp,384

00000000800011a0 <i0000000142>:
    800011a0:	c224f253          	fcvt.l.d	tp,fs1
    800011a4:	ecba                	sd	a4,88(sp)
    800011a6:	01c884bb          	addw	s1,a7,t3
    800011aa:	a0812eaf          	amomax.w	t4,s0,(sp)
    800011ae:	32f970cb          	fnmsub.d	ft1,fs2,fa5,ft6
    800011b2:	81ca                	mv	gp,s2
    800011b4:	f4ba                	sd	a4,104(sp)
    800011b6:	a181242f          	amomax.w	s0,s8,(sp)

00000000800011ba <b0000000143>:
    800011ba:	03c0006f          	j	800011f6 <i0000000148>
    800011be:	b8a2                	fsd	fs0,112(sp)
    800011c0:	8ffd                	and	a5,a5,a5
    800011c2:	009754bb          	srlw	s1,a4,s1
    800011c6:	0ff0000f          	fence
    800011ca:	c1f139af          	amominu.d	s3,t6,(sp)
    800011ce:	209121af          	amoxor.w	gp,s1,(sp)
    800011d2:	98f5                	and	s1,s1,-3

00000000800011d4 <i0000000143>:
    800011d4:	c200ff53          	fcvt.w.d	t5,ft1

00000000800011d8 <i0000000144>:
    800011d8:	978ff0ef          	jal	80000350 <func1>

00000000800011dc <i0000000145>:
    800011dc:	d23574d3          	fcvt.d.lu	fs1,a0
    800011e0:	000df117          	auipc	sp,0xdf
    800011e4:	e2010113          	add	sp,sp,-480 # 800e0000 <begin_signature>
    800011e8:	6321                	lui	t1,0x8
    800011ea:	5b03031b          	addw	t1,t1,1456 # 85b0 <_tbss_end+0x85b0>
    800011ee:	911a                	add	sp,sp,t1

00000000800011f0 <i0000000146>:
    800011f0:	69c6                	ld	s3,80(sp)

00000000800011f2 <i0000000147>:
    800011f2:	01f61a13          	sll	s4,a2,0x1f

00000000800011f6 <i0000000148>:
    800011f6:	02813003          	ld	zero,40(sp)

00000000800011fa <i0000000149>:
    800011fa:	c024f4d3          	fcvt.l.s	s1,fs1

00000000800011fe <i000000014a>:
    800011fe:	d42a                	sw	a0,40(sp)

0000000080001200 <i000000014b>:
    80001200:	4632                	lw	a2,12(sp)

0000000080001202 <i000000014c>:
    80001202:	9002                	ebreak

0000000080001204 <i000000014d>:
    80001204:	b4e6                	fsd	fs9,104(sp)

0000000080001206 <i000000014e>:
    80001206:	b604f513          	and	a0,s1,-1184
    8000120a:	4ba9                	li	s7,10
    8000120c:	000df117          	auipc	sp,0xdf
    80001210:	df410113          	add	sp,sp,-524 # 800e0000 <begin_signature>
    80001214:	6319                	lui	t1,0x6
    80001216:	2303031b          	addw	t1,t1,560 # 6230 <_tbss_end+0x6230>
    8000121a:	911a                	add	sp,sp,t1
    8000121c:	000df117          	auipc	sp,0xdf
    80001220:	de410113          	add	sp,sp,-540 # 800e0000 <begin_signature>
    80001224:	6311                	lui	t1,0x4
    80001226:	bb83031b          	addw	t1,t1,-1096 # 3bb8 <_tbss_end+0x3bb8>
    8000122a:	911a                	add	sp,sp,t1
    8000122c:	02700433          	mul	s0,zero,t2
    80001230:	e022                	sd	s0,0(sp)
    80001232:	b982                	fsd	ft0,240(sp)
    80001234:	03fe9d33          	mulh	s10,t4,t6
    80001238:	f542                	sd	a6,168(sp)
    8000123a:	2486                	fld	fs1,64(sp)
    8000123c:	4890f543          	fmadd.s	fa0,ft1,fs1,fs1

0000000080001240 <b000000014f>:
    80001240:	00000033          	add	zero,zero,zero
    80001244:	fb7a9de3          	bne	s5,s7,800011fe <i000000014a>
    80001248:	00000033          	add	zero,zero,zero
    8000124c:	c020fed3          	fcvt.l.s	t4,ft1
    80001250:	000e54b3          	srl	s1,t3,zero
    80001254:	5a027653          	fsqrt.d	fa2,ft4
    80001258:	07a6                	sll	a5,a5,0x9
    8000125a:	47e2                	lw	a5,24(sp)
    8000125c:	9fbd                	addw	a5,a5,a5
    8000125e:	f9714483          	lbu	s1,-105(sp)
    80001262:	4aa9                	li	s5,10
    80001264:	000df117          	auipc	sp,0xdf
    80001268:	d9c10113          	add	sp,sp,-612 # 800e0000 <begin_signature>
    8000126c:	630d                	lui	t1,0x3
    8000126e:	7683031b          	addw	t1,t1,1896 # 3768 <_tbss_end+0x3768>
    80001272:	911a                	add	sp,sp,t1

0000000080001274 <i000000014f>:
    80001274:	f8a6                	sd	s1,112(sp)

0000000080001276 <i0000000150>:
    80001276:	5a077253          	fsqrt.d	ft4,fa4

000000008000127a <i0000000151>:
    8000127a:	fcb2                	sd	a2,120(sp)

000000008000127c <i0000000152>:
    8000127c:	123c                	add	a5,sp,296

000000008000127e <i0000000153>:
    8000127e:	710d                	add	sp,sp,-352

0000000080001280 <i0000000154>:
    80001280:	8dd5                	or	a1,a1,a3

0000000080001282 <i0000000155>:
    80001282:	e42a                	sd	a0,8(sp)

0000000080001284 <i0000000156>:
    80001284:	8ccff0ef          	jal	80000350 <func1>

0000000080001288 <i0000000157>:
    80001288:	3485                	addw	s1,s1,-31 # ffffffff831e5763 <_end+0xffffffff030f2e62>

000000008000128a <i0000000158>:
    8000128a:	c038cc53          	fcvt.lu.s	s8,fa7,rmm

000000008000128e <i0000000159>:
    8000128e:	550d                	li	a0,-29
    80001290:	000df117          	auipc	sp,0xdf
    80001294:	d7010113          	add	sp,sp,-656 # 800e0000 <begin_signature>
    80001298:	633d                	lui	t1,0xf
    8000129a:	2783031b          	addw	t1,t1,632 # f278 <_tbss_end+0xf278>
    8000129e:	911a                	add	sp,sp,t1
    800012a0:	c0012d2f          	amominu.w	s10,zero,(sp)
    800012a4:	0233abb3          	mulhsu	s7,t2,gp
    800012a8:	019b59b3          	srl	s3,s6,s9
    800012ac:	c03ab7d3          	fcvt.lu.s	a5,fs5,rup
    800012b0:	a0e12baf          	amomax.w	s7,a4,(sp)
    800012b4:	03cf9733          	mulh	a4,t6,t3
    800012b8:	83813823          	sd	s8,-2000(sp)

00000000800012bc <b000000015a>:
    800012bc:	0380056f          	jal	a0,800012f4 <i000000015f>
    800012c0:	03ce6433          	rem	s0,t3,t3
    800012c4:	404bd233          	sra	tp,s7,tp
    800012c8:	f03e                	sd	a5,32(sp)
    800012ca:	a9c14703          	lbu	a4,-1380(sp)
    800012ce:	6722                	ld	a4,8(sp)
    800012d0:	13a4                	add	s1,sp,488
    800012d2:	42088ad3          	fcvt.d.s	fs5,fa7

00000000800012d6 <i000000015a>:
    800012d6:	c224f7d3          	fcvt.l.d	a5,fs1

00000000800012da <i000000015b>:
    800012da:	996e                	add	s2,s2,s11

00000000800012dc <i000000015c>:
    800012dc:	15e9                	add	a1,a1,-6

00000000800012de <i000000015d>:
    800012de:	c03f2553          	fcvt.lu.s	a0,ft10,rdn
    800012e2:	000df117          	auipc	sp,0xdf
    800012e6:	d1e10113          	add	sp,sp,-738 # 800e0000 <begin_signature>
    800012ea:	6321                	lui	t1,0x8
    800012ec:	e683031b          	addw	t1,t1,-408 # 7e68 <_tbss_end+0x7e68>
    800012f0:	911a                	add	sp,sp,t1

00000000800012f2 <i000000015e>:
    800012f2:	652a                	ld	a0,136(sp)

00000000800012f4 <i000000015f>:
    800012f4:	57c2                	lw	a5,48(sp)

00000000800012f6 <i0000000160>:
    800012f6:	18d4                	add	a3,sp,116

00000000800012f8 <i0000000161>:
    800012f8:	b182                	fsd	ft0,224(sp)

00000000800012fa <i0000000162>:
    800012fa:	d2367bd3          	fcvt.d.lu	fs7,a2

00000000800012fe <i0000000163>:
    800012fe:	2fc6                	fld	ft11,80(sp)
    80001300:	000df117          	auipc	sp,0xdf
    80001304:	d0010113          	add	sp,sp,-768 # 800e0000 <begin_signature>
    80001308:	6319                	lui	t1,0x6
    8000130a:	9b03031b          	addw	t1,t1,-1616 # 59b0 <_tbss_end+0x59b0>
    8000130e:	911a                	add	sp,sp,t1
    80001310:	000df117          	auipc	sp,0xdf
    80001314:	cf010113          	add	sp,sp,-784 # 800e0000 <begin_signature>
    80001318:	632d                	lui	t1,0xb
    8000131a:	2303031b          	addw	t1,t1,560 # b230 <_tbss_end+0xb230>
    8000131e:	911a                	add	sp,sp,t1
    80001320:	00413a2f          	amoadd.d	s4,tp,(sp)
    80001324:	00e49bbb          	sllw	s7,s1,a4
    80001328:	c21277d3          	fcvt.wu.d	a5,ft4
    8000132c:	60813e2f          	amoand.d	t3,s0,(sp)
    80001330:	7a912027          	fsw	fs1,1952(sp)
    80001334:	24a2                	fld	fs1,8(sp)
    80001336:	01895493          	srl	s1,s2,0x18

000000008000133a <b0000000164>:
    8000133a:	0300006f          	j	8000136a <i0000000169>
    8000133e:	0393e433          	rem	s0,t2,s9
    80001342:	0284f83b          	remuw	a6,s1,s0
    80001346:	8cb9                	xor	s1,s1,a4
    80001348:	22816d83          	lwu	s11,552(sp)
    8000134c:	031a3433          	mulhu	s0,s4,a7
    80001350:	6101222f          	amoand.w	tp,a6,(sp)
    80001354:	42e4dd13          	sra	s10,s1,0x2e

0000000080001358 <i0000000164>:
    80001358:	065a                	sll	a2,a2,0x16

000000008000135a <i0000000165>:
    8000135a:	228d1253          	fsgnjn.d	ft4,fs10,fs0

000000008000135e <i0000000166>:
    8000135e:	c0309dd3          	fcvt.lu.s	s11,ft1,rtz

0000000080001362 <i0000000167>:
    80001362:	7d960e93          	add	t4,a2,2009

0000000080001366 <i0000000168>:
    80001366:	e2038b53          	fmv.x.d	s6,ft7

000000008000136a <i0000000169>:
    8000136a:	d034ad53          	fcvt.s.lu	fs10,s1,rdn
    8000136e:	000df117          	auipc	sp,0xdf
    80001372:	c9210113          	add	sp,sp,-878 # 800e0000 <begin_signature>
    80001376:	633d                	lui	t1,0xf
    80001378:	3b83031b          	addw	t1,t1,952 # f3b8 <_tbss_end+0xf3b8>
    8000137c:	911a                	add	sp,sp,t1

000000008000137e <i000000016a>:
    8000137e:	6762                	ld	a4,24(sp)

0000000080001380 <i000000016b>:
    80001380:	92f34613          	xor	a2,t1,-1745

0000000080001384 <i000000016c>:
    80001384:	c836                	sw	a3,16(sp)

0000000080001386 <i000000016d>:
    80001386:	74e6                	ld	s1,120(sp)
    80001388:	4e29                	li	t3,10
    8000138a:	02e45d3b          	divuw	s10,s0,a4
    8000138e:	d0310e83          	lb	t4,-765(sp)
    80001392:	e20694d3          	fclass.d	s1,fa3
    80001396:	408124af          	amoor.w	s1,s0,(sp)
    8000139a:	08812b2f          	amoswap.w	s6,s0,(sp)
    8000139e:	c220f453          	fcvt.l.d	s0,ft1
    800013a2:	018d4733          	xor	a4,s10,s8

00000000800013a6 <b000000016e>:
    800013a6:	01ca8863          	beq	s5,t3,800013b6 <b000000016e+0x10>
    800013aa:	00000e17          	auipc	t3,0x0
    800013ae:	fc0e0e13          	add	t3,t3,-64 # 8000136a <i0000000169>
    800013b2:	000e0067          	jr	t3
    800013b6:	4aa9                	li	s5,10
    800013b8:	7131                	add	sp,sp,-192
    800013ba:	d0371a53          	fcvt.s.lu	fs4,a4,rtz
    800013be:	c1f124af          	amominu.w	s1,t6,(sp)
    800013c2:	adc6                	fsd	fa7,216(sp)
    800013c4:	033a443b          	divw	s0,s4,s3
    800013c8:	1810acd3          	fdiv.s	fs9,ft1,ft1,rdn
    800013cc:	02946fbb          	remw	t6,s0,s1

00000000800013d0 <i000000016e>:
    800013d0:	9db9                	addw	a1,a1,a4

00000000800013d2 <i000000016f>:
    800013d2:	d0354253          	fcvt.s.lu	ft4,a0,rmm

00000000800013d6 <i0000000170>:
    800013d6:	9d11                	subw	a0,a0,a2

00000000800013d8 <i0000000171>:
    800013d8:	0157d493          	srl	s1,a5,0x15

00000000800013dc <i0000000172>:
    800013dc:	5572                	lw	a0,60(sp)

00000000800013de <i0000000173>:
    800013de:	20ae                	fld	ft1,200(sp)

00000000800013e0 <i0000000174>:
    800013e0:	34c6                	fld	fs1,112(sp)

00000000800013e2 <i0000000175>:
    800013e2:	5632                	lw	a2,44(sp)

00000000800013e4 <i0000000176>:
    800013e4:	c230f553          	fcvt.lu.d	a0,ft1

00000000800013e8 <i0000000177>:
    800013e8:	b026                	fsd	fs1,32(sp)
    800013ea:	000df117          	auipc	sp,0xdf
    800013ee:	c1610113          	add	sp,sp,-1002 # 800e0000 <begin_signature>
    800013f2:	6325                	lui	t1,0x9
    800013f4:	9503031b          	addw	t1,t1,-1712 # 8950 <_tbss_end+0x8950>
    800013f8:	911a                	add	sp,sp,t1
    800013fa:	006cc0d3          	fadd.s	ft1,fs9,ft6,rmm
    800013fe:	008137af          	amoadd.d	a5,s0,(sp)
    80001402:	0a94f8c7          	fmsub.d	fa7,fs1,fs1,ft1
    80001406:	c23577d3          	fcvt.lu.d	a5,fa0
    8000140a:	0000100f          	fence.i
    8000140e:	a24201d3          	fle.d	gp,ft4,ft4
    80001412:	4842034b          	fnmsub.s	ft6,ft4,ft4,fs1,rne

0000000080001416 <b0000000178>:
    80001416:	0260056f          	jal	a0,8000143c <i000000017d>
    8000141a:	0a14f5c3          	fmadd.d	fa1,fs1,ft1,ft1
    8000141e:	6742                	ld	a4,16(sp)
    80001420:	94da                	add	s1,s1,s6
    80001422:	609129af          	amoand.w	s3,s1,(sp)
    80001426:	7121                	add	sp,sp,-448
    80001428:	07c16883          	lwu	a7,124(sp)
    8000142c:	036d4833          	div	a6,s10,s6

0000000080001430 <i0000000178>:
    80001430:	d8b2                	sw	a2,112(sp)

0000000080001432 <i0000000179>:
    80001432:	6b8a                	ld	s7,128(sp)

0000000080001434 <i000000017a>:
    80001434:	022079d3          	fadd.d	fs3,ft0,ft2

0000000080001438 <i000000017b>:
    80001438:	0a90                	add	a2,sp,336

000000008000143a <i000000017c>:
    8000143a:	9101                	srl	a0,a0,0x20

000000008000143c <i000000017d>:
    8000143c:	80d5                	srl	s1,s1,0x15

000000008000143e <i000000017e>:
    8000143e:	22449853          	fsgnjn.d	fa6,fs1,ft4

0000000080001442 <i000000017f>:
    80001442:	5992                	lw	s3,36(sp)

0000000080001444 <i0000000180>:
    80001444:	b9c6                	fsd	fa7,240(sp)

0000000080001446 <i0000000181>:
    80001446:	2bc07fcb          	fnmsub.d	ft11,ft0,ft8,ft5
    8000144a:	48a9                	li	a7,10
    8000144c:	4aa9                	li	s5,10
    8000144e:	03a7c933          	div	s2,a5,s10
    80001452:	0000100f          	fence.i
    80001456:	02095993          	srl	s3,s2,0x20
    8000145a:	0294ca33          	div	s4,s1,s1
    8000145e:	c131322f          	amominu.d	tp,s3,(sp)
    80001462:	c0f1292f          	amominu.w	s2,a5,(sp)
    80001466:	01b25713          	srl	a4,tp,0x1b

000000008000146a <b0000000182>:
    8000146a:	00000033          	add	zero,zero,zero
    8000146e:	051a9963          	bne	s5,a7,800014c0 <i0000000187>
    80001472:	00000033          	add	zero,zero,zero
    80001476:	e4e11703          	lh	a4,-434(sp)
    8000147a:	61913c2f          	amoand.d	s8,s9,(sp)
    8000147e:	e08124af          	amomaxu.w	s1,s0,(sp)
    80001482:	408457b3          	sra	a5,s0,s0
    80001486:	01b45213          	srl	tp,s0,0x1b
    8000148a:	f0018253          	fmv.w.x	ft4,gp
    8000148e:	c03e                	sw	a5,0(sp)
    80001490:	4aa9                	li	s5,10

0000000080001492 <i0000000182>:
    80001492:	4435                	li	s0,13
    80001494:	000df117          	auipc	sp,0xdf
    80001498:	b6c10113          	add	sp,sp,-1172 # 800e0000 <begin_signature>
    8000149c:	6329                	lui	t1,0xa
    8000149e:	6583031b          	addw	t1,t1,1624 # a658 <_tbss_end+0xa658>
    800014a2:	911a                	add	sp,sp,t1

00000000800014a4 <i0000000183>:
    800014a4:	77e2                	ld	a5,56(sp)

00000000800014a6 <i0000000184>:
    800014a6:	c030b8d3          	fcvt.lu.s	a7,ft1,rup
    800014aa:	000df117          	auipc	sp,0xdf
    800014ae:	b5610113          	add	sp,sp,-1194 # 800e0000 <begin_signature>
    800014b2:	630d                	lui	t1,0x3
    800014b4:	8583031b          	addw	t1,t1,-1960 # 2858 <_tbss_end+0x2858>
    800014b8:	911a                	add	sp,sp,t1

00000000800014ba <i0000000185>:
    800014ba:	f426                	sd	s1,40(sp)

00000000800014bc <i0000000186>:
    800014bc:	00225073          	fsrmi	zero,4

00000000800014c0 <i0000000187>:
    800014c0:	e02e                	sd	a1,0(sp)

00000000800014c2 <i0000000188>:
    800014c2:	34e2                	fld	fs1,56(sp)

00000000800014c4 <i0000000189>:
    800014c4:	6465                	lui	s0,0x19

00000000800014c6 <i000000018a>:
    800014c6:	6192                	ld	gp,256(sp)

00000000800014c8 <i000000018b>:
    800014c8:	d22d7ad3          	fcvt.d.l	fs5,s10

00000000800014cc <i000000018c>:
    800014cc:	870a                	mv	a4,sp
    800014ce:	4b81                	li	s7,0
    800014d0:	000df117          	auipc	sp,0xdf
    800014d4:	b3010113          	add	sp,sp,-1232 # 800e0000 <begin_signature>
    800014d8:	6305                	lui	t1,0x1
    800014da:	b083031b          	addw	t1,t1,-1272 # b08 <_tbss_end+0xb08>
    800014de:	911a                	add	sp,sp,t1
    800014e0:	008717bb          	sllw	a5,a4,s0
    800014e4:	036ff7bb          	remuw	a5,t6,s6
    800014e8:	9a813483          	ld	s1,-1624(sp)
    800014ec:	0287c733          	div	a4,a5,s0
    800014f0:	0321d4b3          	divu	s1,gp,s2
    800014f4:	b126                	fsd	fs1,160(sp)
    800014f6:	60813e2f          	amoand.d	t3,s0,(sp)

00000000800014fa <b000000018d>:
    800014fa:	00000033          	add	zero,zero,zero
    800014fe:	fd7a82e3          	beq	s5,s7,800014c2 <i0000000188>
    80001502:	00000033          	add	zero,zero,zero
    80001506:	9ef2                	add	t4,t4,t3
    80001508:	03cdc7b3          	div	a5,s11,t3
    8000150c:	0ff0000f          	fence
    80001510:	03911023          	sh	s9,32(sp)
    80001514:	03a884bb          	mulw	s1,a7,s10
    80001518:	010e599b          	srlw	s3,t3,0x10
    8000151c:	283580d3          	fmin.s	ft1,fa1,ft3
    80001520:	4aa9                	li	s5,10

0000000080001522 <i000000018d>:
    80001522:	d23f7ed3          	fcvt.d.lu	ft9,t5

0000000080001526 <i000000018e>:
    80001526:	f20504d3          	fmv.d.x	fs1,a0

000000008000152a <i000000018f>:
    8000152a:	d21480d3          	fcvt.d.wu	ft1,s1

000000008000152e <i0000000190>:
    8000152e:	0525                	add	a0,a0,9

0000000080001530 <i0000000191>:
    80001530:	0154                	add	a3,sp,132

0000000080001532 <i0000000192>:
    80001532:	2a1094d3          	fmax.d	fs1,ft1,ft1

0000000080001536 <i0000000193>:
    80001536:	1240f4d3          	fmul.d	fs1,ft1,ft4
    8000153a:	000df117          	auipc	sp,0xdf
    8000153e:	ac610113          	add	sp,sp,-1338 # 800e0000 <begin_signature>
    80001542:	6335                	lui	t1,0xd
    80001544:	0983031b          	addw	t1,t1,152 # d098 <_tbss_end+0xd098>
    80001548:	911a                	add	sp,sp,t1

000000008000154a <i0000000194>:
    8000154a:	ac22                	fsd	fs0,24(sp)

000000008000154c <i0000000195>:
    8000154c:	0b80                	add	s0,sp,464

000000008000154e <i0000000196>:
    8000154e:	22927f4f          	fnmadd.d	ft10,ft4,fs1,ft4
    80001552:	4c29                	li	s8,10
    80001554:	000df117          	auipc	sp,0xdf
    80001558:	aac10113          	add	sp,sp,-1364 # 800e0000 <begin_signature>
    8000155c:	6315                	lui	t1,0x5
    8000155e:	c083031b          	addw	t1,t1,-1016 # 4c08 <_tbss_end+0x4c08>
    80001562:	911a                	add	sp,sp,t1
    80001564:	4bd2                	lw	s7,20(sp)
    80001566:	0a90f247          	fmsub.d	ft4,ft1,fs1,ft1
    8000156a:	0ff0000f          	fence
    8000156e:	9b81                	and	a5,a5,-32
    80001570:	24a2                	fld	fs1,8(sp)
    80001572:	d03024d3          	fcvt.s.lu	fs1,zero,rdn
    80001576:	0ff0000f          	fence

000000008000157a <b0000000197>:
    8000157a:	00000033          	add	zero,zero,zero
    8000157e:	038a8463          	beq	s5,s8,800015a6 <i000000019c>
    80001582:	00000033          	add	zero,zero,zero
    80001586:	e1816003          	lwu	zero,-488(sp)
    8000158a:	810a                	mv	sp,sp
    8000158c:	616d                	add	sp,sp,240
    8000158e:	a406                	fsd	ft1,8(sp)
    80001590:	9f9d                	subw	a5,a5,a5
    80001592:	7155                	add	sp,sp,-208
    80001594:	0294a733          	mulhsu	a4,s1,s1
    80001598:	4aa9                	li	s5,10

000000008000159a <i0000000197>:
    8000159a:	a2949653          	flt.d	a2,fs1,fs1

000000008000159e <i0000000198>:
    8000159e:	0492                	sll	s1,s1,0x4

00000000800015a0 <i0000000199>:
    800015a0:	7121                	add	sp,sp,-448

00000000800015a2 <i000000019a>:
    800015a2:	065e                	sll	a2,a2,0x17

00000000800015a4 <i000000019b>:
    800015a4:	82bd                	srl	a3,a3,0xf

00000000800015a6 <i000000019c>:
    800015a6:	00c4b533          	sltu	a0,s1,a2

00000000800015aa <i000000019d>:
    800015aa:	6105                	add	sp,sp,32

00000000800015ac <i000000019e>:
    800015ac:	8c91                	sub	s1,s1,a2

00000000800015ae <i000000019f>:
    800015ae:	f8aa                	sd	a0,112(sp)

00000000800015b0 <i00000001a0>:
    800015b0:	264a                	fld	fa2,144(sp)
    800015b2:	4831                	li	a6,12
    800015b4:	0a85                	add	s5,s5,1
    800015b6:	000df117          	auipc	sp,0xdf
    800015ba:	a4a10113          	add	sp,sp,-1462 # 800e0000 <begin_signature>
    800015be:	630d                	lui	t1,0x3
    800015c0:	9283031b          	addw	t1,t1,-1752 # 2928 <_tbss_end+0x2928>
    800015c4:	911a                	add	sp,sp,t1
    800015c6:	e08134af          	amomaxu.d	s1,s0,(sp)
    800015ca:	0084                	add	s1,sp,64
    800015cc:	8405                	sra	s0,s0,0x1
    800015ce:	204127af          	amoxor.w	a5,tp,(sp)
    800015d2:	640a                	ld	s0,128(sp)
    800015d4:	6722                	ld	a4,8(sp)
    800015d6:	09f1342f          	amoswap.d	s0,t6,(sp)

00000000800015da <b00000001a1>:
    800015da:	010a8863          	beq	s5,a6,800015ea <b00000001a1+0x10>
    800015de:	00000817          	auipc	a6,0x0
    800015e2:	fc880813          	add	a6,a6,-56 # 800015a6 <i000000019c>
    800015e6:	00080067          	jr	a6
    800015ea:	4aa9                	li	s5,10
    800015ec:	037c6fb3          	rem	t6,s8,s7
    800015f0:	d22473d3          	fcvt.d.l	ft7,s0
    800015f4:	c0323d53          	fcvt.lu.s	s10,ft4,rup
    800015f8:	02e45db3          	divu	s11,s0,a4
    800015fc:	ac2a                	fsd	fa0,24(sp)
    800015fe:	50bf5417          	auipc	s0,0x50bf5
    80001602:	bc32                	fsd	fa2,56(sp)

0000000080001604 <i00000001a1>:
    80001604:	c2327653          	fcvt.lu.d	a2,ft4

0000000080001608 <i00000001a2>:
    80001608:	0020d073          	fsrmi	zero,1
    8000160c:	000df117          	auipc	sp,0xdf
    80001610:	9f410113          	add	sp,sp,-1548 # 800e0000 <begin_signature>
    80001614:	6335                	lui	t1,0xd
    80001616:	fc83031b          	addw	t1,t1,-56 # cfc8 <_tbss_end+0xcfc8>
    8000161a:	911a                	add	sp,sp,t1

000000008000161c <i00000001a3>:
    8000161c:	65c6                	ld	a1,80(sp)
    8000161e:	000df117          	auipc	sp,0xdf
    80001622:	9e210113          	add	sp,sp,-1566 # 800e0000 <begin_signature>
    80001626:	6339                	lui	t1,0xe
    80001628:	8483031b          	addw	t1,t1,-1976 # d848 <_tbss_end+0xd848>
    8000162c:	911a                	add	sp,sp,t1

000000008000162e <i00000001a4>:
    8000162e:	da76                	sw	t4,52(sp)

0000000080001630 <i00000001a5>:
    80001630:	0a5c                	add	a5,sp,276

0000000080001632 <i00000001a6>:
    80001632:	5502                	lw	a0,32(sp)

0000000080001634 <i00000001a7>:
    80001634:	1008                	add	a0,sp,32

0000000080001636 <i00000001a8>:
    80001636:	825ffc47          	fmsub.d	fs8,ft11,ft5,fa6

000000008000163a <i00000001a9>:
    8000163a:	0a04                	add	s1,sp,272

000000008000163c <i00000001aa>:
    8000163c:	01ac2533          	slt	a0,s8,s10

0000000080001640 <i00000001ab>:
    80001640:	715d                	add	sp,sp,-80
    80001642:	4825                	li	a6,9
    80001644:	4aa9                	li	s5,10
    80001646:	000df117          	auipc	sp,0xdf
    8000164a:	9ba10113          	add	sp,sp,-1606 # 800e0000 <begin_signature>
    8000164e:	6335                	lui	t1,0xd
    80001650:	d303031b          	addw	t1,t1,-720 # cd30 <_tbss_end+0xcd30>
    80001654:	911a                	add	sp,sp,t1
    80001656:	712d                	add	sp,sp,-288
    80001658:	028704bb          	mulw	s1,a4,s0
    8000165c:	e2b46793          	or	a5,s0,-469
    80001660:	c03487d3          	fcvt.lu.s	a5,fs1,rne
    80001664:	8f59                	or	a4,a4,a4
    80001666:	0297b4b3          	mulhu	s1,a5,s1
    8000166a:	6742                	ld	a4,16(sp)

000000008000166c <b00000001ac>:
    8000166c:	00000033          	add	zero,zero,zero
    80001670:	030ac563          	blt	s5,a6,8000169a <i00000001b1>
    80001674:	00000033          	add	zero,zero,zero
    80001678:	f49e                	sd	t2,104(sp)
    8000167a:	25c6                	fld	fa1,80(sp)
    8000167c:	9fbd                	addw	a5,a5,a5
    8000167e:	e4a6                	sd	s1,72(sp)
    80001680:	a2908753          	fle.d	a4,ft1,fs1
    80001684:	7466                	ld	s0,120(sp)
    80001686:	d0249b53          	fcvt.s.l	fs6,s1,rtz
    8000168a:	4aa9                	li	s5,10

000000008000168c <i00000001ac>:
    8000168c:	8511                	sra	a0,a0,0x4

000000008000168e <i00000001ad>:
    8000168e:	861a                	mv	a2,t1

0000000080001690 <i00000001ae>:
    80001690:	c2327953          	fcvt.lu.d	s2,ft4

0000000080001694 <i00000001af>:
    80001694:	5626                	lw	a2,104(sp)

0000000080001696 <i00000001b0>:
    80001696:	d02e1cd3          	fcvt.s.l	fs9,t3,rtz

000000008000169a <i00000001b1>:
    8000169a:	9da5                	addw	a1,a1,s1

000000008000169c <i00000001b2>:
    8000169c:	84f1                	sra	s1,s1,0x1c

000000008000169e <i00000001b3>:
    8000169e:	5702                	lw	a4,32(sp)

00000000800016a0 <i00000001b4>:
    800016a0:	41d75633          	sra	a2,a4,t4

00000000800016a4 <i00000001b5>:
    800016a4:	857e                	mv	a0,t6
    800016a6:	000df117          	auipc	sp,0xdf
    800016aa:	95a10113          	add	sp,sp,-1702 # 800e0000 <begin_signature>
    800016ae:	633d                	lui	t1,0xf
    800016b0:	f383031b          	addw	t1,t1,-200 # ef38 <_tbss_end+0xef38>
    800016b4:	911a                	add	sp,sp,t1
    800016b6:	037d5db3          	divu	s11,s10,s7
    800016ba:	01cddfbb          	srlw	t6,s11,t3
    800016be:	bc12                	fsd	ft4,56(sp)
    800016c0:	036ca4b3          	mulhsu	s1,s9,s6
    800016c4:	bda6                	fsd	fs1,248(sp)
    800016c6:	39016a03          	lwu	s4,912(sp)
    800016ca:	d2347253          	fcvt.d.lu	ft4,s0

00000000800016ce <b00000001b6>:
    800016ce:	00000997          	auipc	s3,0x0
    800016d2:	03498993          	add	s3,s3,52 # 80001702 <i00000001bb>
    800016d6:	000980e7          	jalr	s3
    800016da:	e2008753          	fmv.x.d	a4,ft1
    800016de:	8421                	sra	s0,s0,0x8
    800016e0:	d038c253          	fcvt.s.lu	ft4,a7,rmm
    800016e4:	5b844893          	xor	a7,s0,1464
    800016e8:	201090d3          	fneg.s	ft1,ft1
    800016ec:	81ba                	mv	gp,a4
    800016ee:	2a013087          	fld	ft1,672(sp)

00000000800016f2 <i00000001b6>:
    800016f2:	55f2                	lw	a1,60(sp)

00000000800016f4 <i00000001b7>:
    800016f4:	c02044d3          	fcvt.l.s	s1,ft0,rmm

00000000800016f8 <i00000001b8>:
    800016f8:	6165                	add	sp,sp,112

00000000800016fa <i00000001b9>:
    800016fa:	d02900d3          	fcvt.s.l	ft1,s2,rne

00000000800016fe <i00000001ba>:
    800016fe:	d2367653          	fcvt.d.lu	fa2,a2

0000000080001702 <i00000001bb>:
    80001702:	31904397          	auipc	t2,0x31904

0000000080001706 <i00000001bc>:
    80001706:	a49e                	fsd	ft7,72(sp)

0000000080001708 <i00000001bd>:
    80001708:	722a                	ld	tp,168(sp)

000000008000170a <i00000001be>:
    8000170a:	6412                	ld	s0,256(sp)
    8000170c:	000df117          	auipc	sp,0xdf
    80001710:	8f410113          	add	sp,sp,-1804 # 800e0000 <begin_signature>
    80001714:	6339                	lui	t1,0xe
    80001716:	f383031b          	addw	t1,t1,-200 # df38 <_tbss_end+0xdf38>
    8000171a:	911a                	add	sp,sp,t1

000000008000171c <i00000001bf>:
    8000171c:	b9ee                	fsd	fs11,240(sp)
    8000171e:	4b25                	li	s6,9
    80001720:	4aa9                	li	s5,10
    80001722:	000df117          	auipc	sp,0xdf
    80001726:	8de10113          	add	sp,sp,-1826 # 800e0000 <begin_signature>
    8000172a:	6311                	lui	t1,0x4
    8000172c:	4c83031b          	addw	t1,t1,1224 # 44c8 <_tbss_end+0x44c8>
    80001730:	911a                	add	sp,sp,t1
    80001732:	000df117          	auipc	sp,0xdf
    80001736:	8ce10113          	add	sp,sp,-1842 # 800e0000 <begin_signature>
    8000173a:	633d                	lui	t1,0xf
    8000173c:	7e03031b          	addw	t1,t1,2016 # f7e0 <_tbss_end+0xf7e0>
    80001740:	911a                	add	sp,sp,t1
    80001742:	e20487d3          	fmv.x.d	a5,fs1
    80001746:	9f19                	subw	a4,a4,a4
    80001748:	413127af          	amoor.w	a5,s3,(sp)
    8000174c:	4a14f8c3          	fmadd.d	fa7,fs1,ft1,fs1
    80001750:	03d79c33          	mulh	s8,a5,t4
    80001754:	6ac7001b          	addw	zero,a4,1708
    80001758:	02840933          	mul	s2,s0,s0

000000008000175c <b00000001c0>:
    8000175c:	00000033          	add	zero,zero,zero
    80001760:	036ac763          	blt	s5,s6,8000178e <i00000001c5>
    80001764:	00000033          	add	zero,zero,zero
    80001768:	5452                	lw	s0,52(sp)
    8000176a:	0ff0000f          	fence
    8000176e:	36c6                	fld	fa3,112(sp)
    80001770:	e18137af          	amomaxu.d	a5,s8,(sp)
    80001774:	74813423          	sd	s0,1864(sp)
    80001778:	d83a                	sw	a4,48(sp)
    8000177a:	873a                	mv	a4,a4
    8000177c:	4aa9                	li	s5,10

000000008000177e <i00000001c0>:
    8000177e:	f2080253          	fmv.d.x	ft4,a6

0000000080001782 <i00000001c1>:
    80001782:	b4a6                	fsd	fs1,104(sp)

0000000080001784 <i00000001c2>:
    80001784:	d027f0d3          	fcvt.s.l	ft1,a5

0000000080001788 <i00000001c3>:
    80001788:	5d92                	lw	s11,36(sp)

000000008000178a <i00000001c4>:
    8000178a:	f9c4ed13          	or	s10,s1,-100

000000008000178e <i00000001c5>:
    8000178e:	f2048253          	fmv.d.x	ft4,s1

0000000080001792 <i00000001c6>:
    80001792:	c0223fd3          	fcvt.l.s	t6,ft4,rup
    80001796:	000df117          	auipc	sp,0xdf
    8000179a:	86a10113          	add	sp,sp,-1942 # 800e0000 <begin_signature>
    8000179e:	630d                	lui	t1,0x3
    800017a0:	0a83031b          	addw	t1,t1,168 # 30a8 <_tbss_end+0x30a8>
    800017a4:	911a                	add	sp,sp,t1

00000000800017a6 <i00000001c7>:
    800017a6:	bda6                	fsd	fs1,248(sp)

00000000800017a8 <i00000001c8>:
    800017a8:	d23570d3          	fcvt.d.lu	ft1,a0

00000000800017ac <i00000001c9>:
    800017ac:	82b9                	srl	a3,a3,0xe
    800017ae:	4d81                	li	s11,0
    800017b0:	0284f733          	remu	a4,s1,s0
    800017b4:	c234f1d3          	fcvt.lu.d	gp,fs1
    800017b8:	80a9                	srl	s1,s1,0xa
    800017ba:	3739                	addw	a4,a4,-18
    800017bc:	33010023          	sb	a6,800(sp)
    800017c0:	f2173793          	sltiu	a5,a4,-223
    800017c4:	0294f7bb          	remuw	a5,s1,s1

00000000800017c8 <b00000001ca>:
    800017c8:	00000033          	add	zero,zero,zero
    800017cc:	03ba8e63          	beq	s5,s11,80001808 <i00000001cf>
    800017d0:	00000033          	add	zero,zero,zero
    800017d4:	029407b3          	mul	a5,s0,s1
    800017d8:	a0be                	fsd	fa5,64(sp)
    800017da:	0294ae33          	mulhsu	t3,s1,s1
    800017de:	ac36                	fsd	fa3,24(sp)
    800017e0:	f0e13423          	sd	a4,-248(sp)
    800017e4:	a294a453          	feq.d	s0,fs1,fs1
    800017e8:	600129af          	amoand.w	s3,zero,(sp)
    800017ec:	4aa9                	li	s5,10

00000000800017ee <i00000001ca>:
    800017ee:	adc2                	fsd	fa6,216(sp)
    800017f0:	000df117          	auipc	sp,0xdf
    800017f4:	81010113          	add	sp,sp,-2032 # 800e0000 <begin_signature>
    800017f8:	6329                	lui	t1,0xa
    800017fa:	5c83031b          	addw	t1,t1,1480 # a5c8 <_tbss_end+0xa5c8>
    800017fe:	911a                	add	sp,sp,t1

0000000080001800 <i00000001cb>:
    80001800:	33e2                	fld	ft7,56(sp)

0000000080001802 <i00000001cc>:
    80001802:	49f2                	lw	s3,28(sp)

0000000080001804 <i00000001cd>:
    80001804:	8fd5                	or	a5,a5,a3

0000000080001806 <i00000001ce>:
    80001806:	6111                	add	sp,sp,256

0000000080001808 <i00000001cf>:
    80001808:	420f8dd3          	fcvt.d.s	fs11,ft11

000000008000180c <i00000001d0>:
    8000180c:	029c                	add	a5,sp,320

000000008000180e <i00000001d1>:
    8000180e:	7fd62693          	slti	a3,a2,2045

0000000080001812 <i00000001d2>:
    80001812:	04f2                	sll	s1,s1,0x1c

0000000080001814 <i00000001d3>:
    80001814:	00235073          	fsrmi	zero,6

0000000080001818 <i00000001d4>:
    80001818:	fc2a                	sd	a0,56(sp)
    8000181a:	000de117          	auipc	sp,0xde
    8000181e:	7e610113          	add	sp,sp,2022 # 800e0000 <begin_signature>
    80001822:	6321                	lui	t1,0x8
    80001824:	7b83031b          	addw	t1,t1,1976 # 87b8 <_tbss_end+0x87b8>
    80001828:	911a                	add	sp,sp,t1
    8000182a:	000de117          	auipc	sp,0xde
    8000182e:	7d610113          	add	sp,sp,2006 # 800e0000 <begin_signature>
    80001832:	632d                	lui	t1,0xb
    80001834:	3203031b          	addw	t1,t1,800 # b320 <_tbss_end+0xb320>
    80001838:	911a                	add	sp,sp,t1
    8000183a:	27c15e83          	lhu	t4,636(sp)
    8000183e:	64a2                	ld	s1,8(sp)
    80001840:	28416c83          	lwu	s9,644(sp)
    80001844:	8c59                	or	s0,s0,a4
    80001846:	4844a4cb          	fnmsub.s	fs1,fs1,ft4,fs1,rdn
    8000184a:	d0372c53          	fcvt.s.lu	fs8,a4,rdn
    8000184e:	61c1372f          	amoand.d	a4,t3,(sp)

0000000080001852 <b00000001d5>:
    80001852:	00000817          	auipc	a6,0x0
    80001856:	04080813          	add	a6,a6,64 # 80001892 <i00000001da>
    8000185a:	000800e7          	jalr	a6
    8000185e:	9ca5                	addw	s1,s1,s1
    80001860:	e2113c27          	fsd	ft1,-456(sp)
    80001864:	019d94b3          	sll	s1,s11,s9
    80001868:	0000100f          	fence.i
    8000186c:	d1398747          	fmsub.s	fa4,fs3,fs3,fs10,rne
    80001870:	9fbd                	addw	a5,a5,a5
    80001872:	8171392f          	amomin.d	s2,s7,(sp)

0000000080001876 <i00000001d5>:
    80001876:	4641                	li	a2,16

0000000080001878 <i00000001d6>:
    80001878:	3062                	fld	ft0,56(sp)

000000008000187a <i00000001d7>:
    8000187a:	4666                	lw	a2,88(sp)
    8000187c:	000de117          	auipc	sp,0xde
    80001880:	78410113          	add	sp,sp,1924 # 800e0000 <begin_signature>
    80001884:	632d                	lui	t1,0xb
    80001886:	b283031b          	addw	t1,t1,-1240 # ab28 <_tbss_end+0xab28>
    8000188a:	911a                	add	sp,sp,t1

000000008000188c <i00000001d8>:
    8000188c:	7fe2                	ld	t6,56(sp)

000000008000188e <i00000001d9>:
    8000188e:	0094b533          	sltu	a0,s1,s1

0000000080001892 <i00000001da>:
    80001892:	b8a6                	fsd	fs1,112(sp)

0000000080001894 <i00000001db>:
    80001894:	03a4                	add	s1,sp,456

0000000080001896 <i00000001dc>:
    80001896:	e03e                	sd	a5,0(sp)

0000000080001898 <i00000001dd>:
    80001898:	34c5                	addw	s1,s1,-15

000000008000189a <i00000001de>:
    8000189a:	c230f653          	fcvt.lu.d	a2,ft1
    8000189e:	000de117          	auipc	sp,0xde
    800018a2:	76210113          	add	sp,sp,1890 # 800e0000 <begin_signature>
    800018a6:	631d                	lui	t1,0x7
    800018a8:	b983031b          	addw	t1,t1,-1128 # 6b98 <_tbss_end+0x6b98>
    800018ac:	911a                	add	sp,sp,t1
    800018ae:	9c473393          	sltiu	t2,a4,-1596
    800018b2:	0ff0000f          	fence
    800018b6:	d014f9d3          	fcvt.s.wu	fs3,s1
    800018ba:	7782                	ld	a5,32(sp)
    800018bc:	0000100f          	fence.i
    800018c0:	41d45e93          	sra	t4,s0,0x1d
    800018c4:	2294f247          	fmsub.d	ft4,fs1,fs1,ft4

00000000800018c8 <b00000001df>:
    800018c8:	00000c17          	auipc	s8,0x0
    800018cc:	03cc0c13          	add	s8,s8,60 # 80001904 <i00000001e4>
    800018d0:	000c0567          	jalr	a0,s8
    800018d4:	24a2                	fld	fs1,8(sp)
    800018d6:	c23cf753          	fcvt.lu.d	a4,fs9
    800018da:	649d                	lui	s1,0x7
    800018dc:	8f59                	or	a4,a4,a4
    800018de:	8f9d                	sub	a5,a5,a5
    800018e0:	0ff0000f          	fence
    800018e4:	042d                	add	s0,s0,11 # d0bf6609 <_end+0x50b03d08>

00000000800018e6 <i00000001df>:
    800018e6:	80f5                	srl	s1,s1,0x1d

00000000800018e8 <i00000001e0>:
    800018e8:	d224f4d3          	fcvt.d.l	fs1,s1

00000000800018ec <i00000001e1>:
    800018ec:	d28e                	sw	gp,100(sp)

00000000800018ee <i00000001e2>:
    800018ee:	c0330653          	fcvt.lu.s	a2,ft6,rne

00000000800018f2 <i00000001e3>:
    800018f2:	9f05                	subw	a4,a4,s1
    800018f4:	000de117          	auipc	sp,0xde
    800018f8:	70c10113          	add	sp,sp,1804 # 800e0000 <begin_signature>
    800018fc:	6335                	lui	t1,0xd
    800018fe:	4d03031b          	addw	t1,t1,1232 # d4d0 <_tbss_end+0xd4d0>
    80001902:	911a                	add	sp,sp,t1

0000000080001904 <i00000001e4>:
    80001904:	c0aa                	sw	a0,64(sp)

0000000080001906 <i00000001e5>:
    80001906:	9e31                	addw	a2,a2,a2

0000000080001908 <i00000001e6>:
    80001908:	c03d9553          	fcvt.lu.s	a0,fs11,rtz

000000008000190c <i00000001e7>:
    8000190c:	c23df953          	fcvt.lu.d	s2,fs11

0000000080001910 <i00000001e8>:
    80001910:	94a6                	add	s1,s1,s1
    80001912:	4b81                	li	s7,0
    80001914:	000de117          	auipc	sp,0xde
    80001918:	6ec10113          	add	sp,sp,1772 # 800e0000 <begin_signature>
    8000191c:	6315                	lui	t1,0x5
    8000191e:	b703031b          	addw	t1,t1,-1168 # 4b70 <_tbss_end+0x4b70>
    80001922:	911a                	add	sp,sp,t1
    80001924:	0294f253          	fadd.d	ft4,fs1,fs1
    80001928:	c220fa53          	fcvt.l.d	s4,ft1
    8000192c:	26012507          	flw	fa0,608(sp)
    80001930:	9f05                	subw	a4,a4,s1
    80001932:	09012daf          	amoswap.w	s11,a6,(sp)
    80001936:	cb813823          	sd	s8,-848(sp)
    8000193a:	02975cb3          	divu	s9,a4,s1

000000008000193e <b00000001e9>:
    8000193e:	00000033          	add	zero,zero,zero
    80001942:	037a8d63          	beq	s5,s7,8000197c <i00000001ee>
    80001946:	00000033          	add	zero,zero,zero
    8000194a:	8f81                	sub	a5,a5,s0
    8000194c:	da3e                	sw	a5,52(sp)
    8000194e:	028757bb          	divuw	a5,a4,s0
    80001952:	40e137af          	amoor.d	a5,a4,(sp)
    80001956:	612d                	add	sp,sp,224
    80001958:	2290f04b          	fnmsub.d	ft0,ft1,fs1,ft4
    8000195c:	6caa                	ld	s9,136(sp)
    8000195e:	4aa9                	li	s5,10

0000000080001960 <i00000001e9>:
    80001960:	614d                	add	sp,sp,176

0000000080001962 <i00000001ea>:
    80001962:	0168a9b3          	slt	s3,a7,s6

0000000080001966 <i00000001eb>:
    80001966:	612d                	add	sp,sp,224
    80001968:	000de117          	auipc	sp,0xde
    8000196c:	69810113          	add	sp,sp,1688 # 800e0000 <begin_signature>
    80001970:	6321                	lui	t1,0x8
    80001972:	de83031b          	addw	t1,t1,-536 # 7de8 <_tbss_end+0x7de8>
    80001976:	911a                	add	sp,sp,t1

0000000080001978 <i00000001ec>:
    80001978:	fcb2                	sd	a2,120(sp)

000000008000197a <i00000001ed>:
    8000197a:	83b2                	mv	t2,a2

000000008000197c <i00000001ee>:
    8000197c:	d21286d3          	fcvt.d.wu	fa3,t0

0000000080001980 <i00000001ef>:
    80001980:	9e95                	subw	a3,a3,a3

0000000080001982 <i00000001f0>:
    80001982:	812d                	srl	a0,a0,0xb

0000000080001984 <i00000001f1>:
    80001984:	59eeb513          	sltiu	a0,t4,1438

0000000080001988 <i00000001f2>:
    80001988:	41a4d813          	sra	a6,s1,0x1a
    8000198c:	492d                	li	s2,11
    8000198e:	4aa9                	li	s5,10
    80001990:	6422                	ld	s0,8(sp)
    80001992:	e2060453          	fmv.x.d	s0,fa2
    80001996:	c0208753          	fcvt.l.s	a4,ft1,rne
    8000199a:	029759b3          	divu	s3,a4,s1
    8000199e:	b026                	fsd	fs1,32(sp)
    800019a0:	5c53879b          	addw	a5,t2,1477 # ffffffffb1905cc7 <_end+0xffffffff318133c6>
    800019a4:	0273f73b          	remuw	a4,t2,t2

00000000800019a8 <b00000001f3>:
    800019a8:	00000033          	add	zero,zero,zero
    800019ac:	032a9a63          	bne	s5,s2,800019e0 <i00000001f8>
    800019b0:	00000033          	add	zero,zero,zero
    800019b4:	0984                	add	s1,sp,208
    800019b6:	a24097d3          	flt.d	a5,ft1,ft4
    800019ba:	ca1e                	sw	t2,20(sp)
    800019bc:	816133af          	amomin.d	t2,s6,(sp)
    800019c0:	409124af          	amoor.w	s1,s1,(sp)
    800019c4:	8c79                	and	s0,s0,a4
    800019c6:	403137af          	amoor.d	a5,gp,(sp)
    800019ca:	4aa9                	li	s5,10

00000000800019cc <i00000001f3>:
    800019cc:	c0349b53          	fcvt.lu.s	s6,fs1,rtz

00000000800019d0 <i00000001f4>:
    800019d0:	5a06f853          	fsqrt.d	fa6,fa3

00000000800019d4 <i00000001f5>:
    800019d4:	c222f4d3          	fcvt.l.d	s1,ft5

00000000800019d8 <i00000001f6>:
    800019d8:	d23574d3          	fcvt.d.lu	fs1,a0

00000000800019dc <i00000001f7>:
    800019dc:	39813887          	fld	fa7,920(sp)

00000000800019e0 <i00000001f8>:
    800019e0:	1a427253          	fdiv.d	ft4,ft4,ft4

00000000800019e4 <i00000001f9>:
    800019e4:	8416                	mv	s0,t0

00000000800019e6 <i00000001fa>:
    800019e6:	9b61                	and	a4,a4,-8

00000000800019e8 <i00000001fb>:
    800019e8:	01a73633          	sltu	a2,a4,s10

00000000800019ec <i00000001fc>:
    800019ec:	6545                	lui	a0,0x11
    800019ee:	4931                	li	s2,12
    800019f0:	0a85                	add	s5,s5,1
    800019f2:	3566                	fld	fa0,120(sp)
    800019f4:	07fe                	sll	a5,a5,0x1f
    800019f6:	00da1993          	sll	s3,s4,0xd
    800019fa:	413c51bb          	sraw	gp,s8,s3
    800019fe:	0ff0000f          	fence
    80001a02:	3e013703          	ld	a4,992(sp)
    80001a06:	028764b3          	rem	s1,a4,s0

0000000080001a0a <b00000001fd>:
    80001a0a:	012a8463          	beq	s5,s2,80001a12 <b00000001fd+0x8>
    80001a0e:	fd3ff56f          	jal	a0,800019e0 <i00000001f8>
    80001a12:	4aa9                	li	s5,10
    80001a14:	02841eb3          	mulh	t4,s0,s0
    80001a18:	d034b4d3          	fcvt.s.lu	fs1,s1,rup
    80001a1c:	5a04f4d3          	fsqrt.d	fs1,fs1
    80001a20:	d00f8cd3          	fcvt.s.w	fs9,t6,rne
    80001a24:	47d2                	lw	a5,20(sp)
    80001a26:	024ddb33          	divu	s6,s11,tp
    80001a2a:	8ce5                	and	s1,s1,s1

0000000080001a2c <i00000001fd>:
    80001a2c:	7135                	add	sp,sp,-160

0000000080001a2e <i00000001fe>:
    80001a2e:	d0393fd3          	fcvt.s.lu	ft11,s2,rup

0000000080001a32 <i00000001ff>:
    80001a32:	44e2                	lw	s1,24(sp)

0000000080001a34 <i0000000200>:
    80001a34:	d2060d53          	fcvt.d.w	fs10,a2
    80001a38:	000de117          	auipc	sp,0xde
    80001a3c:	5c810113          	add	sp,sp,1480 # 800e0000 <begin_signature>
    80001a40:	6309                	lui	t1,0x2
    80001a42:	2383031b          	addw	t1,t1,568 # 2238 <_tbss_end+0x2238>
    80001a46:	911a                	add	sp,sp,t1

0000000080001a48 <i0000000201>:
    80001a48:	ec32                	sd	a2,24(sp)

0000000080001a4a <i0000000202>:
    80001a4a:	9f35                	addw	a4,a4,a3

0000000080001a4c <i0000000203>:
    80001a4c:	0a48                	add	a0,sp,276

0000000080001a4e <i0000000204>:
    80001a4e:	0141                	add	sp,sp,16

0000000080001a50 <i0000000205>:
    80001a50:	d037f4d3          	fcvt.s.lu	fs1,a5

0000000080001a54 <i0000000206>:
    80001a54:	0970                	add	a2,sp,156
    80001a56:	4e31                	li	t3,12
    80001a58:	0a85                	add	s5,s5,1
    80001a5a:	f4a2                	sd	s0,104(sp)
    80001a5c:	011fb4b3          	sltu	s1,t6,a7
    80001a60:	0a013003          	ld	zero,160(sp)
    80001a64:	4d2d                	li	s10,11
    80001a66:	84310183          	lb	gp,-1981(sp)
    80001a6a:	9b4d                	and	a4,a4,-13
    80001a6c:	8c1d                	sub	s0,s0,a5

0000000080001a6e <b0000000207>:
    80001a6e:	00000033          	add	zero,zero,zero
    80001a72:	fdca9ce3          	bne	s5,t3,80001a4a <i0000000202>
    80001a76:	00000033          	add	zero,zero,zero
    80001a7a:	18121253          	fdiv.s	ft4,ft4,ft1,rtz
    80001a7e:	039bb733          	mulhu	a4,s7,s9
    80001a82:	07a5                	add	a5,a5,9 # 3009 <_tbss_end+0x3009>
    80001a84:	028767b3          	rem	a5,a4,s0
    80001a88:	2bd10253          	fmin.d	ft4,ft2,ft9
    80001a8c:	ede6                	sd	s9,216(sp)
    80001a8e:	a1912eaf          	amomax.w	t4,s9,(sp)
    80001a92:	4aa9                	li	s5,10

0000000080001a94 <i0000000207>:
    80001a94:	a132                	fsd	fa2,128(sp)

0000000080001a96 <i0000000208>:
    80001a96:	68f5                	lui	a7,0x1d

0000000080001a98 <i0000000209>:
    80001a98:	0290f0d3          	fadd.d	ft1,ft1,fs1

0000000080001a9c <i000000020a>:
    80001a9c:	abe470cb          	fnmsub.d	ft1,fs0,ft10,fs5

0000000080001aa0 <i000000020b>:
    80001aa0:	c2453493          	sltiu	s1,a0,-988

0000000080001aa4 <i000000020c>:
    80001aa4:	6602                	ld	a2,0(sp)

0000000080001aa6 <i000000020d>:
    80001aa6:	a086                	fsd	ft1,64(sp)

0000000080001aa8 <i000000020e>:
    80001aa8:	bca2                	fsd	fs0,120(sp)

0000000080001aaa <i000000020f>:
    80001aaa:	94b2                	add	s1,s1,a2

0000000080001aac <i0000000210>:
    80001aac:	9e9d                	subw	a3,a3,a5
    80001aae:	000de117          	auipc	sp,0xde
    80001ab2:	55210113          	add	sp,sp,1362 # 800e0000 <begin_signature>
    80001ab6:	6329                	lui	t1,0xa
    80001ab8:	ce83031b          	addw	t1,t1,-792 # 9ce8 <_tbss_end+0x9ce8>
    80001abc:	911a                	add	sp,sp,t1
    80001abe:	000de117          	auipc	sp,0xde
    80001ac2:	54210113          	add	sp,sp,1346 # 800e0000 <begin_signature>
    80001ac6:	6329                	lui	t1,0xa
    80001ac8:	7d03031b          	addw	t1,t1,2000 # a7d0 <_tbss_end+0xa7d0>
    80001acc:	911a                	add	sp,sp,t1
    80001ace:	00e447b3          	xor	a5,s0,a4
    80001ad2:	13077a53          	fmul.d	fs4,fa4,fa6
    80001ad6:	da3e                	sw	a5,52(sp)
    80001ad8:	214e                	fld	ft2,208(sp)
    80001ada:	01b127af          	amoadd.w	a5,s11,(sp)
    80001ade:	9c1d                	subw	s0,s0,a5
    80001ae0:	1fa11723          	sh	s10,494(sp)

0000000080001ae4 <b0000000211>:
    80001ae4:	0480006f          	j	80001b2c <i0000000216>
    80001ae8:	e2018253          	fmv.x.d	tp,ft3
    80001aec:	a07f0753          	fle.s	a4,ft10,ft7
    80001af0:	03fbe73b          	remw	a4,s7,t6
    80001af4:	0706                	sll	a4,a4,0x1
    80001af6:	02e74d3b          	divw	s10,a4,a4
    80001afa:	c1b139af          	amominu.d	s3,s11,(sp)
    80001afe:	8cd2                	mv	s9,s4

0000000080001b00 <i0000000211>:
    80001b00:	b8a6                	fsd	fs1,112(sp)
    80001b02:	000de117          	auipc	sp,0xde
    80001b06:	4fe10113          	add	sp,sp,1278 # 800e0000 <begin_signature>
    80001b0a:	6335                	lui	t1,0xd
    80001b0c:	5a83031b          	addw	t1,t1,1448 # d5a8 <_tbss_end+0xd5a8>
    80001b10:	911a                	add	sp,sp,t1

0000000080001b12 <i0000000212>:
    80001b12:	edf2                	sd	t3,216(sp)

0000000080001b14 <i0000000213>:
    80001b14:	8ea5                	xor	a3,a3,s1

0000000080001b16 <i0000000214>:
    80001b16:	c03484d3          	fcvt.lu.s	s1,fs1,rne

0000000080001b1a <i0000000215>:
    80001b1a:	5916                	lw	s2,100(sp)
    80001b1c:	000de117          	auipc	sp,0xde
    80001b20:	4e410113          	add	sp,sp,1252 # 800e0000 <begin_signature>
    80001b24:	6325                	lui	t1,0x9
    80001b26:	6e03031b          	addw	t1,t1,1760 # 96e0 <_tbss_end+0x96e0>
    80001b2a:	911a                	add	sp,sp,t1

0000000080001b2c <i0000000216>:
    80001b2c:	c83a                	sw	a4,16(sp)

0000000080001b2e <i0000000217>:
    80001b2e:	1482                	sll	s1,s1,0x20

0000000080001b30 <i0000000218>:
    80001b30:	6546                	ld	a0,80(sp)

0000000080001b32 <i0000000219>:
    80001b32:	7101                	add	sp,sp,-512

0000000080001b34 <i000000021a>:
    80001b34:	2402                	fld	fs0,0(sp)
    80001b36:	4cad                	li	s9,11
    80001b38:	0a85                	add	s5,s5,1
    80001b3a:	000de117          	auipc	sp,0xde
    80001b3e:	4c610113          	add	sp,sp,1222 # 800e0000 <begin_signature>
    80001b42:	6325                	lui	t1,0x9
    80001b44:	b683031b          	addw	t1,t1,-1176 # 8b68 <_tbss_end+0x8b68>
    80001b48:	911a                	add	sp,sp,t1
    80001b4a:	000de117          	auipc	sp,0xde
    80001b4e:	4b610113          	add	sp,sp,1206 # 800e0000 <begin_signature>
    80001b52:	6321                	lui	t1,0x8
    80001b54:	6603031b          	addw	t1,t1,1632 # 8660 <_tbss_end+0x8660>
    80001b58:	911a                	add	sp,sp,t1
    80001b5a:	22921d53          	fsgnjn.d	fs10,ft4,fs1
    80001b5e:	c0288253          	fcvt.l.s	tp,fa7,rne
    80001b62:	03007fbb          	remuw	t6,zero,a6
    80001b66:	177d                	add	a4,a4,-1
    80001b68:	6466                	ld	s0,88(sp)
    80001b6a:	4772                	lw	a4,28(sp)
    80001b6c:	f8a6                	sd	s1,112(sp)

0000000080001b6e <b000000021b>:
    80001b6e:	00000033          	add	zero,zero,zero
    80001b72:	fb9a8de3          	beq	s5,s9,80001b2c <i0000000216>
    80001b76:	00000033          	add	zero,zero,zero
    80001b7a:	0294d7bb          	divuw	a5,s1,s1
    80001b7e:	d22ef0d3          	fcvt.d.l	ft1,t4
    80001b82:	7236f4c3          	fmadd.d	fs1,fa3,ft3,fa4
    80001b86:	08bc                	add	a5,sp,88
    80001b88:	d01b76d3          	fcvt.s.wu	fa3,s6
    80001b8c:	66e11823          	sh	a4,1648(sp)
    80001b90:	57c11823          	sh	t3,1392(sp)
    80001b94:	4aa9                	li	s5,10

0000000080001b96 <i000000021b>:
    80001b96:	9e19                	subw	a2,a2,a4

0000000080001b98 <i000000021c>:
    80001b98:	5622                	lw	a2,40(sp)

0000000080001b9a <i000000021d>:
    80001b9a:	2666                	fld	fa2,88(sp)

0000000080001b9c <i000000021e>:
    80001b9c:	d0354f53          	fcvt.s.lu	ft10,a0,rmm

0000000080001ba0 <i000000021f>:
    80001ba0:	0123b2b3          	sltu	t0,t2,s2

0000000080001ba4 <i0000000220>:
    80001ba4:	3415                	addw	s0,s0,-27

0000000080001ba6 <i0000000221>:
    80001ba6:	536d                	li	t1,-5

0000000080001ba8 <i0000000222>:
    80001ba8:	2bda07d3          	fmin.d	fa5,fs4,ft9

0000000080001bac <i0000000223>:
    80001bac:	420200d3          	fcvt.d.s	ft1,ft4

0000000080001bb0 <i0000000224>:
    80001bb0:	00225073          	fsrmi	zero,4

0000000080001bb4 <i0000000225>:
    80001bb4:	c23975d3          	fcvt.lu.d	a1,fs2
    80001bb8:	000de117          	auipc	sp,0xde
    80001bbc:	44810113          	add	sp,sp,1096 # 800e0000 <begin_signature>
    80001bc0:	6321                	lui	t1,0x8
    80001bc2:	d303031b          	addw	t1,t1,-720 # 7d30 <_tbss_end+0x7d30>
    80001bc6:	911a                	add	sp,sp,t1
    80001bc8:	d2247d53          	fcvt.d.l	fs10,s0
    80001bcc:	0294ea3b          	remw	s4,s1,s1
    80001bd0:	f05e                	sd	s7,32(sp)
    80001bd2:	017127af          	amoadd.w	a5,s7,(sp)
    80001bd6:	d03425d3          	fcvt.s.lu	fa1,s0,rdn
    80001bda:	0000100f          	fence.i
    80001bde:	6486                	ld	s1,64(sp)

0000000080001be0 <b0000000226>:
    80001be0:	00000d97          	auipc	s11,0x0
    80001be4:	032d8d93          	add	s11,s11,50 # 80001c12 <i000000022b>
    80001be8:	000d8067          	jr	s11
    80001bec:	c23cfd53          	fcvt.lu.d	s10,fs9
    80001bf0:	0084a7b3          	slt	a5,s1,s0
    80001bf4:	c5ba                	sw	a4,200(sp)
    80001bf6:	a08124af          	amomax.w	s1,s0,(sp)
    80001bfa:	34e2                	fld	fs1,56(sp)
    80001bfc:	c5e15703          	lhu	a4,-930(sp)
    80001c00:	8051                	srl	s0,s0,0x14

0000000080001c02 <i0000000226>:
    80001c02:	c206f853          	fcvt.w.d	a6,fa3

0000000080001c06 <i0000000227>:
    80001c06:	ca2a                	sw	a0,20(sp)

0000000080001c08 <i0000000228>:
    80001c08:	8d11                	sub	a0,a0,a2

0000000080001c0a <i0000000229>:
    80001c0a:	c020cc53          	fcvt.l.s	s8,ft1,rmm

0000000080001c0e <i000000022a>:
    80001c0e:	a2d474c3          	fmadd.d	fs1,fs0,fa3,fs4

0000000080001c12 <i000000022b>:
    80001c12:	54c2                	lw	s1,48(sp)

0000000080001c14 <i000000022c>:
    80001c14:	655d                	lui	a0,0x17

0000000080001c16 <i000000022d>:
    80001c16:	d0263dd3          	fcvt.s.l	fs11,a2,rup

0000000080001c1a <i000000022e>:
    80001c1a:	40a654b3          	sra	s1,a2,a0
    80001c1e:	000de117          	auipc	sp,0xde
    80001c22:	3e210113          	add	sp,sp,994 # 800e0000 <begin_signature>
    80001c26:	6325                	lui	t1,0x9
    80001c28:	9b83031b          	addw	t1,t1,-1608 # 89b8 <_tbss_end+0x89b8>
    80001c2c:	911a                	add	sp,sp,t1

0000000080001c2e <i000000022f>:
    80001c2e:	f4a2                	sd	s0,104(sp)
    80001c30:	4fa9                	li	t6,10
    80001c32:	4aa9                	li	s5,10
    80001c34:	43f7de13          	sra	t3,a5,0x3f
    80001c38:	c018c853          	fcvt.wu.s	a6,fa7,rmm
    80001c3c:	0294fd3b          	remuw	s10,s1,s1
    80001c40:	8c5d                	or	s0,s0,a5
    80001c42:	aa0f744b          	fnmsub.d	fs0,ft10,ft0,fs5
    80001c46:	6e6e                	ld	t3,216(sp)
    80001c48:	e026                	sd	s1,0(sp)

0000000080001c4a <b0000000230>:
    80001c4a:	00000033          	add	zero,zero,zero
    80001c4e:	03fa9e63          	bne	s5,t6,80001c8a <i0000000235>
    80001c52:	00000033          	add	zero,zero,zero
    80001c56:	56712e23          	sw	t2,1404(sp)
    80001c5a:	dc66                	sw	s9,56(sp)
    80001c5c:	4157521b          	sraw	tp,a4,0x15
    80001c60:	32611783          	lh	a5,806(sp)
    80001c64:	01ac171b          	sllw	a4,s8,0x1a
    80001c68:	24c2                	fld	fs1,16(sp)
    80001c6a:	55813203          	ld	tp,1368(sp)
    80001c6e:	4aa9                	li	s5,10

0000000080001c70 <i0000000230>:
    80001c70:	8c65                	and	s0,s0,s1

0000000080001c72 <i0000000231>:
    80001c72:	610d                	add	sp,sp,160

0000000080001c74 <i0000000232>:
    80001c74:	8d29                	xor	a0,a0,a0
    80001c76:	000de117          	auipc	sp,0xde
    80001c7a:	38a10113          	add	sp,sp,906 # 800e0000 <begin_signature>
    80001c7e:	6331                	lui	t1,0xc
    80001c80:	b703031b          	addw	t1,t1,-1168 # bb70 <_tbss_end+0xbb70>
    80001c84:	911a                	add	sp,sp,t1

0000000080001c86 <i0000000233>:
    80001c86:	de32                	sw	a2,60(sp)

0000000080001c88 <i0000000234>:
    80001c88:	7105                	add	sp,sp,-480

0000000080001c8a <i0000000235>:
    80001c8a:	c23274d3          	fcvt.lu.d	s1,ft4

0000000080001c8e <i0000000236>:
    80001c8e:	76c2                	ld	a3,48(sp)

0000000080001c90 <i0000000237>:
    80001c90:	e13e                	sd	a5,128(sp)

0000000080001c92 <i0000000238>:
    80001c92:	9d3d                	addw	a0,a0,a5

0000000080001c94 <i0000000239>:
    80001c94:	0bb4                	add	a3,sp,472
    80001c96:	4931                	li	s2,12
    80001c98:	0a85                	add	s5,s5,1
    80001c9a:	00940033          	add	zero,s0,s1
    80001c9e:	a7b13c23          	sd	s11,-1416(sp)
    80001ca2:	41e2                	lw	gp,24(sp)
    80001ca4:	f00400d3          	fmv.w.x	ft1,s0
    80001ca8:	02e74c33          	div	s8,a4,a4
    80001cac:	01a004bb          	addw	s1,zero,s10
    80001cb0:	81112baf          	amomin.w	s7,a7,(sp)

0000000080001cb4 <b000000023a>:
    80001cb4:	00000033          	add	zero,zero,zero
    80001cb8:	fd2ac9e3          	blt	s5,s2,80001c8a <i0000000235>
    80001cbc:	00000033          	add	zero,zero,zero
    80001cc0:	03cfddb3          	divu	s11,t6,t3
    80001cc4:	041e                	sll	s0,s0,0x7
    80001cc6:	7141                	add	sp,sp,-496
    80001cc8:	013121af          	amoadd.w	gp,s3,(sp)
    80001ccc:	00339b33          	sll	s6,t2,gp
    80001cd0:	f20b05d3          	fmv.d.x	fa1,s6
    80001cd4:	27a9                	addw	a5,a5,10
    80001cd6:	4aa9                	li	s5,10

0000000080001cd8 <i000000023a>:
    80001cd8:	c0322fd3          	fcvt.lu.s	t6,ft4,rdn
    80001cdc:	000de117          	auipc	sp,0xde
    80001ce0:	32410113          	add	sp,sp,804 # 800e0000 <begin_signature>
    80001ce4:	6319                	lui	t1,0x6
    80001ce6:	db03031b          	addw	t1,t1,-592 # 5db0 <_tbss_end+0x5db0>
    80001cea:	911a                	add	sp,sp,t1

0000000080001cec <i000000023b>:
    80001cec:	3486                	fld	fs1,96(sp)

0000000080001cee <i000000023c>:
    80001cee:	2682                	fld	fa3,0(sp)

0000000080001cf0 <i000000023d>:
    80001cf0:	f4da                	sd	s6,104(sp)

0000000080001cf2 <i000000023e>:
    80001cf2:	00451813          	sll	a6,a0,0x4

0000000080001cf6 <i000000023f>:
    80001cf6:	9e09                	subw	a2,a2,a0

0000000080001cf8 <i0000000240>:
    80001cf8:	e20484d3          	fmv.x.d	s1,fs1

0000000080001cfc <i0000000241>:
    80001cfc:	e2010553          	fmv.x.d	a0,ft2

0000000080001d00 <i0000000242>:
    80001d00:	24b1                	addw	s1,s1,12 # 700c <_tbss_end+0x700c>

0000000080001d02 <i0000000243>:
    80001d02:	d03540d3          	fcvt.s.lu	ft1,a0,rmm
    80001d06:	4da9                	li	s11,10
    80001d08:	000de117          	auipc	sp,0xde
    80001d0c:	2f810113          	add	sp,sp,760 # 800e0000 <begin_signature>
    80001d10:	6325                	lui	t1,0x9
    80001d12:	a603031b          	addw	t1,t1,-1440 # 8a60 <_tbss_end+0x8a60>
    80001d16:	911a                	add	sp,sp,t1
    80001d18:	6742                	ld	a4,16(sp)
    80001d1a:	009127af          	amoadd.w	a5,s1,(sp)
    80001d1e:	7722                	ld	a4,40(sp)
    80001d20:	cd812023          	sw	s8,-832(sp)
    80001d24:	5a410703          	lb	a4,1444(sp)
    80001d28:	4104d79b          	sraw	a5,s1,0x10
    80001d2c:	c00e0953          	fcvt.w.s	s2,ft8,rne

0000000080001d30 <b0000000244>:
    80001d30:	01ba8463          	beq	s5,s11,80001d38 <b0000000244+0x8>
    80001d34:	fc3ff06f          	j	80001cf6 <i000000023f>
    80001d38:	4aa9                	li	s5,10
    80001d3a:	008457bb          	srlw	a5,s0,s0
    80001d3e:	c7812023          	sw	s8,-928(sp)
    80001d42:	5d56                	lw	s10,116(sp)
    80001d44:	221272c3          	fmadd.d	ft5,ft4,ft1,ft4
    80001d48:	bd56                	fsd	fs5,184(sp)
    80001d4a:	0000100f          	fence.i
    80001d4e:	2294f7cb          	fnmsub.d	fa5,fs1,fs1,ft4

0000000080001d52 <i0000000244>:
    80001d52:	dcbe                	sw	a5,120(sp)
    80001d54:	000de117          	auipc	sp,0xde
    80001d58:	2ac10113          	add	sp,sp,684 # 800e0000 <begin_signature>
    80001d5c:	6335                	lui	t1,0xd
    80001d5e:	a103031b          	addw	t1,t1,-1520 # ca10 <_tbss_end+0xca10>
    80001d62:	911a                	add	sp,sp,t1

0000000080001d64 <i0000000245>:
    80001d64:	a0a2                	fsd	fs0,64(sp)

0000000080001d66 <i0000000246>:
    80001d66:	f532                	sd	a2,168(sp)

0000000080001d68 <i0000000247>:
    80001d68:	c0327e53          	fcvt.lu.s	t3,ft4

0000000080001d6c <i0000000248>:
    80001d6c:	2a948053          	fmin.d	ft0,fs1,fs1

0000000080001d70 <i0000000249>:
    80001d70:	7c4a                	ld	s8,176(sp)

0000000080001d72 <i000000024a>:
    80001d72:	4144dd13          	sra	s10,s1,0x14

0000000080001d76 <i000000024b>:
    80001d76:	c23e74d3          	fcvt.lu.d	s1,ft8

0000000080001d7a <i000000024c>:
    80001d7a:	01e1c433          	xor	s0,gp,t5

0000000080001d7e <i000000024d>:
    80001d7e:	d0248253          	fcvt.s.l	ft4,s1,rne
    80001d82:	4ca5                	li	s9,9
    80001d84:	4aa9                	li	s5,10
    80001d86:	000de117          	auipc	sp,0xde
    80001d8a:	27a10113          	add	sp,sp,634 # 800e0000 <begin_signature>
    80001d8e:	6335                	lui	t1,0xd
    80001d90:	a703031b          	addw	t1,t1,-1424 # ca70 <_tbss_end+0xca70>
    80001d94:	911a                	add	sp,sp,t1
    80001d96:	e00494d3          	fclass.s	s1,fs1
    80001d9a:	e20e0d53          	fmv.x.d	s10,ft8
    80001d9e:	4442                	lw	s0,16(sp)
    80001da0:	0284e7bb          	remw	a5,s1,s0
    80001da4:	d0241253          	fcvt.s.l	ft4,s0,rtz
    80001da8:	32412a23          	sw	tp,820(sp)
    80001dac:	65413423          	sd	s4,1608(sp)

0000000080001db0 <b000000024e>:
    80001db0:	00000033          	add	zero,zero,zero
    80001db4:	035cd663          	bge	s9,s5,80001de0 <i0000000253>
    80001db8:	00000033          	add	zero,zero,zero
    80001dbc:	67ea                	ld	a5,152(sp)
    80001dbe:	029407bb          	mulw	a5,s0,s1
    80001dc2:	80812c23          	sw	s0,-2024(sp)
    80001dc6:	37bd                	addw	a5,a5,-17
    80001dc8:	0920                	add	s0,sp,152
    80001dca:	17fd                	add	a5,a5,-1
    80001dcc:	03bf84b3          	mul	s1,t6,s11
    80001dd0:	4aa9                	li	s5,10

0000000080001dd2 <i000000024e>:
    80001dd2:	c02226d3          	fcvt.l.s	a3,ft4,rdn

0000000080001dd6 <i000000024f>:
    80001dd6:	9fb9                	addw	a5,a5,a4

0000000080001dd8 <i0000000250>:
    80001dd8:	710d                	add	sp,sp,-352

0000000080001dda <i0000000251>:
    80001dda:	6566                	ld	a0,88(sp)

0000000080001ddc <i0000000252>:
    80001ddc:	e9948213          	add	tp,s1,-359

0000000080001de0 <i0000000253>:
    80001de0:	22a58053          	fsgnj.d	ft0,fa1,fa0

0000000080001de4 <i0000000254>:
    80001de4:	c2297553          	fcvt.l.d	a0,fs2

0000000080001de8 <i0000000255>:
    80001de8:	7111                	add	sp,sp,-256

0000000080001dea <i0000000256>:
    80001dea:	6602                	ld	a2,0(sp)

0000000080001dec <i0000000257>:
    80001dec:	d22574d3          	fcvt.d.l	fs1,a0
    80001df0:	4a29                	li	s4,10
    80001df2:	4aa9                	li	s5,10
    80001df4:	000de117          	auipc	sp,0xde
    80001df8:	20c10113          	add	sp,sp,524 # 800e0000 <begin_signature>
    80001dfc:	6315                	lui	t1,0x5
    80001dfe:	f083031b          	addw	t1,t1,-248 # 4f08 <_tbss_end+0x4f08>
    80001e02:	911a                	add	sp,sp,t1
    80001e04:	61c134af          	amoand.d	s1,t3,(sp)
    80001e08:	e20517d3          	fclass.d	a5,fa0
    80001e0c:	a091282f          	amomax.w	a6,s1,(sp)
    80001e10:	a162                	fsd	fs8,128(sp)
    80001e12:	24a6                	fld	fs1,72(sp)
    80001e14:	dcde                	sw	s7,120(sp)
    80001e16:	08813daf          	amoswap.d	s11,s0,(sp)

0000000080001e1a <b0000000258>:
    80001e1a:	00000033          	add	zero,zero,zero
    80001e1e:	034a9963          	bne	s5,s4,80001e50 <i000000025d>
    80001e22:	00000033          	add	zero,zero,zero
    80001e26:	3486                	fld	fs1,96(sp)
    80001e28:	a081302f          	amomax.d	zero,s0,(sp)
    80001e2c:	c23578d3          	fcvt.lu.d	a7,fa0
    80001e30:	0ff0000f          	fence
    80001e34:	c02244d3          	fcvt.l.s	s1,ft4,rmm
    80001e38:	c030b4d3          	fcvt.lu.s	s1,ft1,rup
    80001e3c:	c224f1d3          	fcvt.l.d	gp,fs1
    80001e40:	4aa9                	li	s5,10

0000000080001e42 <i0000000258>:
    80001e42:	c0309553          	fcvt.lu.s	a0,ft1,rtz

0000000080001e46 <i0000000259>:
    80001e46:	8351                	srl	a4,a4,0x14

0000000080001e48 <i000000025a>:
    80001e48:	3e6e                	fld	ft8,248(sp)

0000000080001e4a <i000000025b>:
    80001e4a:	00c4b633          	sltu	a2,s1,a2

0000000080001e4e <i000000025c>:
    80001e4e:	a826                	fsd	fs1,16(sp)

0000000080001e50 <i000000025d>:
    80001e50:	bc92                	fsd	ft4,120(sp)

0000000080001e52 <i000000025e>:
    80001e52:	6371                	lui	t1,0x1c

0000000080001e54 <i000000025f>:
    80001e54:	00f8e613          	or	a2,a7,15

0000000080001e58 <i0000000260>:
    80001e58:	c42e                	sw	a1,8(sp)

0000000080001e5a <i0000000261>:
    80001e5a:	45c2                	lw	a1,16(sp)
    80001e5c:	4e31                	li	t3,12
    80001e5e:	0a85                	add	s5,s5,1
    80001e60:	87b1                	sra	a5,a5,0xc
    80001e62:	47d2                	lw	a5,20(sp)
    80001e64:	d3010e83          	lb	t4,-720(sp)
    80001e68:	e00f87d3          	fmv.x.w	a5,ft11
    80001e6c:	c0f124af          	amominu.w	s1,a5,(sp)
    80001e70:	03480a3b          	mulw	s4,a6,s4
    80001e74:	3b86                	fld	fs7,96(sp)

0000000080001e76 <b0000000262>:
    80001e76:	01ca8463          	beq	s5,t3,80001e7e <b0000000262+0x8>
    80001e7a:	fd7ff06f          	j	80001e50 <i000000025d>
    80001e7e:	4aa9                	li	s5,10
    80001e80:	40b25013          	sra	zero,tp,0xb
    80001e84:	f4ba                	sd	a4,104(sp)
    80001e86:	7139                	add	sp,sp,-64
    80001e88:	b0a6                	fsd	fs1,96(sp)
    80001e8a:	b3c15783          	lhu	a5,-1220(sp)
    80001e8e:	e452                	sd	s4,8(sp)
    80001e90:	9c81                	subw	s1,s1,s0

0000000080001e92 <i0000000262>:
    80001e92:	2a4486d3          	fmin.d	fa3,fs1,ft4

0000000080001e96 <i0000000263>:
    80001e96:	8069                	srl	s0,s0,0x1a

0000000080001e98 <i0000000264>:
    80001e98:	88020513          	add	a0,tp,-1920 # fffffffffffff880 <_end+0xffffffff7ff0cf7f>

0000000080001e9c <i0000000265>:
    80001e9c:	0290f053          	fadd.d	ft0,ft1,fs1

0000000080001ea0 <i0000000266>:
    80001ea0:	e232                	sd	a2,256(sp)

0000000080001ea2 <i0000000267>:
    80001ea2:	5732                	lw	a4,44(sp)

0000000080001ea4 <i0000000268>:
    80001ea4:	b6a4fc93          	and	s9,s1,-1174

0000000080001ea8 <i0000000269>:
    80001ea8:	0884                	add	s1,sp,80

0000000080001eaa <i000000026a>:
    80001eaa:	a826                	fsd	fs1,16(sp)

0000000080001eac <i000000026b>:
    80001eac:	6566                	ld	a0,88(sp)
    80001eae:	4bb1                	li	s7,12
    80001eb0:	0a85                	add	s5,s5,1
    80001eb2:	000de117          	auipc	sp,0xde
    80001eb6:	14e10113          	add	sp,sp,334 # 800e0000 <begin_signature>
    80001eba:	6339                	lui	t1,0xe
    80001ebc:	ef03031b          	addw	t1,t1,-272 # def0 <_tbss_end+0xdef0>
    80001ec0:	911a                	add	sp,sp,t1
    80001ec2:	a892                	fsd	ft4,80(sp)
    80001ec4:	029754bb          	divuw	s1,a4,s1
    80001ec8:	0ff0000f          	fence
    80001ecc:	08108253          	fsub.s	ft4,ft1,ft1,rne
    80001ed0:	0000100f          	fence.i
    80001ed4:	286019d3          	fmax.s	fs3,ft0,ft6
    80001ed8:	00e4173b          	sllw	a4,s0,a4

0000000080001edc <b000000026c>:
    80001edc:	017a8463          	beq	s5,s7,80001ee4 <b000000026c+0x8>
    80001ee0:	fc3ff06f          	j	80001ea2 <i0000000267>
    80001ee4:	4aa9                	li	s5,10
    80001ee6:	0a127053          	fsub.d	ft0,ft4,ft1
    80001eea:	0000100f          	fence.i
    80001eee:	a83a                	fsd	fa4,16(sp)
    80001ef0:	3749                	addw	a4,a4,-14
    80001ef2:	219137af          	amoxor.d	a5,s9,(sp)
    80001ef6:	00b8                	add	a4,sp,72
    80001ef8:	1940                	add	s0,sp,180

0000000080001efa <i000000026c>:
    80001efa:	f20685d3          	fmv.d.x	fa1,a3

0000000080001efe <i000000026d>:
    80001efe:	61a9                	lui	gp,0xa

0000000080001f00 <i000000026e>:
    80001f00:	f2060753          	fmv.d.x	fa4,a2

0000000080001f04 <i000000026f>:
    80001f04:	9d1d                	subw	a0,a0,a5

0000000080001f06 <i0000000270>:
    80001f06:	d026                	sw	s1,32(sp)

0000000080001f08 <i0000000271>:
    80001f08:	7462                	ld	s0,56(sp)

0000000080001f0a <i0000000272>:
    80001f0a:	c0203353          	fcvt.l.s	t1,ft0,rup

0000000080001f0e <i0000000273>:
    80001f0e:	8d51                	or	a0,a0,a2

0000000080001f10 <i0000000274>:
    80001f10:	711d                	add	sp,sp,-96

0000000080001f12 <i0000000275>:
    80001f12:	c3efe0ef          	jal	80000350 <func1>

0000000080001f16 <i0000000276>:
    80001f16:	379d                	addw	a5,a5,-25
    80001f18:	4b29                	li	s6,10
    80001f1a:	d22470d3          	fcvt.d.l	ft1,s0
    80001f1e:	f8ca                	sd	s2,112(sp)
    80001f20:	e00881d3          	fmv.x.w	gp,fa7
    80001f24:	a5c15a03          	lhu	s4,-1444(sp)
    80001f28:	b8be                	fsd	fa5,112(sp)
    80001f2a:	7466                	ld	s0,120(sp)
    80001f2c:	03d3ccb3          	div	s9,t2,t4

0000000080001f30 <b0000000277>:
    80001f30:	016a8463          	beq	s5,s6,80001f38 <b0000000277+0x8>
    80001f34:	fd7ff06f          	j	80001f0a <i0000000272>
    80001f38:	4aa9                	li	s5,10
    80001f3a:	03ca51bb          	divuw	gp,s4,t3
    80001f3e:	28a6                	fld	fa7,72(sp)
    80001f40:	a596                	fsd	ft5,200(sp)
    80001f42:	6782                	ld	a5,0(sp)
    80001f44:	c0220753          	fcvt.l.s	a4,ft4,rne
    80001f48:	ac3e                	fsd	fa5,24(sp)
    80001f4a:	2c913c23          	sd	s1,728(sp)

0000000080001f4e <i0000000277>:
    80001f4e:	8e45                	or	a2,a2,s1
    80001f50:	000de117          	auipc	sp,0xde
    80001f54:	0b010113          	add	sp,sp,176 # 800e0000 <begin_signature>
    80001f58:	6335                	lui	t1,0xd
    80001f5a:	3503031b          	addw	t1,t1,848 # d350 <_tbss_end+0xd350>
    80001f5e:	911a                	add	sp,sp,t1

0000000080001f60 <i0000000278>:
    80001f60:	4652                	lw	a2,20(sp)

0000000080001f62 <i0000000279>:
    80001f62:	00a65533          	srl	a0,a2,a0

0000000080001f66 <i000000027a>:
    80001f66:	0756                	sll	a4,a4,0x15

0000000080001f68 <i000000027b>:
    80001f68:	c2397753          	fcvt.lu.d	a4,fs2

0000000080001f6c <i000000027c>:
    80001f6c:	00235073          	fsrmi	zero,6

0000000080001f70 <i000000027d>:
    80001f70:	e6013827          	fsd	ft0,-400(sp)

0000000080001f74 <i000000027e>:
    80001f74:	6abaf4c7          	fmsub.d	fs1,fs5,fa1,fa3

0000000080001f78 <i000000027f>:
    80001f78:	13e8                	add	a0,sp,492

0000000080001f7a <i0000000280>:
    80001f7a:	1134                	add	a3,sp,168

0000000080001f7c <i0000000281>:
    80001f7c:	0b70                	add	a2,sp,412
    80001f7e:	0181e7b3          	or	a5,gp,s8
    80001f82:	d0304253          	fcvt.s.lu	ft4,zero,rmm
    80001f86:	0294e4b3          	rem	s1,s1,s1
    80001f8a:	e1d128af          	amomaxu.w	a7,t4,(sp)
    80001f8e:	40e134af          	amoor.d	s1,a4,(sp)
    80001f92:	02f91733          	mulh	a4,s2,a5
    80001f96:	acc12883          	lw	a7,-1332(sp)

0000000080001f9a <b0000000282>:
    80001f9a:	00000b17          	auipc	s6,0x0
    80001f9e:	04ab0b13          	add	s6,s6,74 # 80001fe4 <i0000000287>
    80001fa2:	000b00e7          	jalr	s6
    80001fa6:	7169                	add	sp,sp,-304
    80001fa8:	80b42713          	slti	a4,s0,-2037
    80001fac:	209090d3          	fsgnjn.s	ft1,ft1,fs1
    80001fb0:	7159                	add	sp,sp,-112
    80001fb2:	a1f124af          	amomax.w	s1,t6,(sp)
    80001fb6:	d2347253          	fcvt.d.lu	ft4,s0
    80001fba:	9381                	srl	a5,a5,0x20

0000000080001fbc <i0000000282>:
    80001fbc:	00c50fb3          	add	t6,a0,a2

0000000080001fc0 <i0000000283>:
    80001fc0:	8e09                	sub	a2,a2,a0
    80001fc2:	000de117          	auipc	sp,0xde
    80001fc6:	03e10113          	add	sp,sp,62 # 800e0000 <begin_signature>
    80001fca:	6331                	lui	t1,0xc
    80001fcc:	6c03031b          	addw	t1,t1,1728 # c6c0 <_tbss_end+0xc6c0>
    80001fd0:	911a                	add	sp,sp,t1

0000000080001fd2 <i0000000284>:
    80001fd2:	c236                	sw	a3,4(sp)

0000000080001fd4 <i0000000285>:
    80001fd4:	1161                	add	sp,sp,-8
    80001fd6:	e412                	sd	tp,8(sp)
    80001fd8:	004130a3          	sd	tp,1(sp)
    80001fdc:	6222                	ld	tp,8(sp)
    80001fde:	0121                	add	sp,sp,8

0000000080001fe0 <i0000000286>:
    80001fe0:	01df34b3          	sltu	s1,t5,t4

0000000080001fe4 <i0000000287>:
    80001fe4:	01cc                	add	a1,sp,196

0000000080001fe6 <i0000000288>:
    80001fe6:	8f29                	xor	a4,a4,a0

0000000080001fe8 <i0000000289>:
    80001fe8:	f026                	sd	s1,32(sp)

0000000080001fea <i000000028a>:
    80001fea:	c0244653          	fcvt.l.s	a2,fs0,rmm

0000000080001fee <i000000028b>:
    80001fee:	d02920d3          	fcvt.s.l	ft1,s2,rdn

0000000080001ff2 <i000000028c>:
    80001ff2:	016cfd33          	and	s10,s9,s6
    80001ff6:	4c2d                	li	s8,11
    80001ff8:	4aa9                	li	s5,10
    80001ffa:	e11137af          	amomaxu.d	a5,a7,(sp)
    80001ffe:	147d                	add	s0,s0,-1
    80002000:	00020737          	lui	a4,0x20
    80002004:	02970933          	mul	s2,a4,s1
    80002008:	0ff0000f          	fence
    8000200c:	00371893          	sll	a7,a4,0x3
    80002010:	d23b7953          	fcvt.d.lu	fs2,s6

0000000080002014 <b000000028d>:
    80002014:	00000033          	add	zero,zero,zero
    80002018:	038a9a63          	bne	s5,s8,8000204c <i0000000292>
    8000201c:	00000033          	add	zero,zero,zero
    80002020:	d23b7e53          	fcvt.d.lu	ft8,s6
    80002024:	0a1274c7          	fmsub.d	fs1,ft4,ft1,ft1
    80002028:	036cbb33          	mulhu	s6,s9,s6
    8000202c:	d03700d3          	fcvt.s.lu	ft1,a4,rne
    80002030:	7f8004b7          	lui	s1,0x7f800
    80002034:	020ba9b3          	mulhsu	s3,s7,zero
    80002038:	18c4                	add	s1,sp,116
    8000203a:	4aa9                	li	s5,10

000000008000203c <i000000028d>:
    8000203c:	64ae                	ld	s1,200(sp)

000000008000203e <i000000028e>:
    8000203e:	1270                	add	a2,sp,300

0000000080002040 <i000000028f>:
    80002040:	5a04f353          	fsqrt.d	ft6,fs1

0000000080002044 <i0000000290>:
    80002044:	0021d073          	fsrmi	zero,3

0000000080002048 <i0000000291>:
    80002048:	d03490d3          	fcvt.s.lu	ft1,s1,rtz

000000008000204c <i0000000292>:
    8000204c:	4606                	lw	a2,64(sp)

000000008000204e <i0000000293>:
    8000204e:	a426                	fsd	fs1,8(sp)

0000000080002050 <i0000000294>:
    80002050:	6762                	ld	a4,24(sp)

0000000080002052 <i0000000295>:
    80002052:	0a94fa53          	fsub.d	fs4,fs1,fs1

0000000080002056 <i0000000296>:
    80002056:	f1aa                	sd	a0,224(sp)

0000000080002058 <i0000000297>:
    80002058:	02d3f4d3          	fadd.d	fs1,ft7,fa3
    8000205c:	4e31                	li	t3,12
    8000205e:	0a85                	add	s5,s5,1
    80002060:	02875cbb          	divuw	s9,a4,s0
    80002064:	f20704d3          	fmv.d.x	fs1,a4
    80002068:	00e1372f          	amoadd.d	a4,a4,(sp)
    8000206c:	9c21                	addw	s0,s0,s0
    8000206e:	d229f4d3          	fcvt.d.l	fs1,s3
    80002072:	e2048453          	fmv.x.d	s0,fs1
    80002076:	02e437b3          	mulhu	a5,s0,a4

000000008000207a <b0000000298>:
    8000207a:	01ca8863          	beq	s5,t3,8000208a <b0000000298+0x10>
    8000207e:	00000e17          	auipc	t3,0x0
    80002082:	fd0e0e13          	add	t3,t3,-48 # 8000204e <i0000000293>
    80002086:	000e0067          	jr	t3
    8000208a:	4aa9                	li	s5,10
    8000208c:	0000100f          	fence.i
    80002090:	d7510483          	lb	s1,-651(sp)
    80002094:	0ff0000f          	fence
    80002098:	02845db3          	divu	s11,s0,s0
    8000209c:	e8e13823          	sd	a4,-368(sp)
    800020a0:	e2008b53          	fmv.x.d	s6,ft1
    800020a4:	02fb04b3          	mul	s1,s6,a5

00000000800020a8 <i0000000298>:
    800020a8:	aa8fe0ef          	jal	80000350 <func1>

00000000800020ac <i0000000299>:
    800020ac:	f20c0253          	fmv.d.x	ft4,s8

00000000800020b0 <i000000029a>:
    800020b0:	7131                	add	sp,sp,-192

00000000800020b2 <i000000029b>:
    800020b2:	9f29                	addw	a4,a4,a0

00000000800020b4 <i000000029c>:
    800020b4:	021270d3          	fadd.d	ft1,ft4,ft1

00000000800020b8 <i000000029d>:
    800020b8:	c0a2                	sw	s0,64(sp)

00000000800020ba <i000000029e>:
    800020ba:	8ced                	and	s1,s1,a1

00000000800020bc <i000000029f>:
    800020bc:	c220f2d3          	fcvt.l.d	t0,ft1

00000000800020c0 <i00000002a0>:
    800020c0:	00225073          	fsrmi	zero,4

00000000800020c4 <i00000002a1>:
    800020c4:	c226f5d3          	fcvt.l.d	a1,fa3

00000000800020c8 <i00000002a2>:
    800020c8:	8ce5                	and	s1,s1,s1

00000000800020ca <i00000002a3>:
    800020ca:	fda6                	sd	s1,248(sp)
    800020cc:	4901                	li	s2,0
    800020ce:	27e2                	fld	fa5,24(sp)
    800020d0:	003124af          	amoadd.w	s1,gp,(sp)
    800020d4:	77e2                	ld	a5,56(sp)
    800020d6:	209129af          	amoxor.w	s3,s1,(sp)
    800020da:	f2078a53          	fmv.d.x	fs4,a5
    800020de:	97012483          	lw	s1,-1680(sp)
    800020e2:	0ff0000f          	fence

00000000800020e6 <b00000002a4>:
    800020e6:	00000033          	add	zero,zero,zero
    800020ea:	fd2a89e3          	beq	s5,s2,800020bc <i000000029f>
    800020ee:	00000033          	add	zero,zero,zero
    800020f2:	30ee                	fld	ft1,248(sp)
    800020f4:	0087d79b          	srlw	a5,a5,0x8
    800020f8:	028764bb          	remw	s1,a4,s0
    800020fc:	099139af          	amoswap.d	s3,s9,(sp)
    80002100:	0000100f          	fence.i
    80002104:	3475                	addw	s0,s0,-3
    80002106:	81013baf          	amomin.d	s7,a6,(sp)
    8000210a:	4aa9                	li	s5,10

000000008000210c <i00000002a4>:
    8000210c:	00215073          	fsrmi	zero,2

0000000080002110 <i00000002a5>:
    80002110:	d2387253          	fcvt.d.lu	ft4,a6

0000000080002114 <i00000002a6>:
    80002114:	a29484d3          	fle.d	s1,fs1,fs1

0000000080002118 <i00000002a7>:
    80002118:	a38fe0ef          	jal	80000350 <func1>

000000008000211c <i00000002a8>:
    8000211c:	0a1270c3          	fmadd.d	ft1,ft4,ft1,ft1

0000000080002120 <i00000002a9>:
    80002120:	d037b7d3          	fcvt.s.lu	fa5,a5,rup

0000000080002124 <i00000002aa>:
    80002124:	085c                	add	a5,sp,20

0000000080002126 <i00000002ab>:
    80002126:	c23973d3          	fcvt.lu.d	t2,fs2

000000008000212a <i00000002ac>:
    8000212a:	a4b6                	fsd	fa3,72(sp)

000000008000212c <i00000002ad>:
    8000212c:	4199db93          	sra	s7,s3,0x19

0000000080002130 <i00000002ae>:
    80002130:	01f4dd13          	srl	s10,s1,0x1f

0000000080002134 <i00000002af>:
    80002134:	8ec9                	or	a3,a3,a0
    80002136:	4ea9                	li	t4,10
    80002138:	000de117          	auipc	sp,0xde
    8000213c:	ec810113          	add	sp,sp,-312 # 800e0000 <begin_signature>
    80002140:	633d                	lui	t1,0xf
    80002142:	5103031b          	addw	t1,t1,1296 # f510 <_tbss_end+0xf510>
    80002146:	911a                	add	sp,sp,t1
    80002148:	3441                	addw	s0,s0,-16
    8000214a:	4b813187          	fld	ft3,1208(sp)
    8000214e:	76713423          	sd	t2,1896(sp)
    80002152:	dc3e                	sw	a5,56(sp)
    80002154:	94614483          	lbu	s1,-1722(sp)
    80002158:	5a03fc53          	fsqrt.d	fs8,ft7
    8000215c:	f426                	sd	s1,40(sp)

000000008000215e <b00000002b0>:
    8000215e:	01da8863          	beq	s5,t4,8000216e <b00000002b0+0x10>
    80002162:	00000e97          	auipc	t4,0x0
    80002166:	fc4e8e93          	add	t4,t4,-60 # 80002126 <i00000002ab>
    8000216a:	000e80e7          	jalr	t4
    8000216e:	4aa9                	li	s5,10
    80002170:	403c53bb          	sraw	t2,s8,gp
    80002174:	c02484d3          	fcvt.l.s	s1,fs1,rne
    80002178:	26e2                	fld	fa3,24(sp)
    8000217a:	d034aa53          	fcvt.s.lu	fs4,s1,rdn
    8000217e:	00e71c13          	sll	s8,a4,0xe
    80002182:	023c2733          	mulhsu	a4,s8,gp
    80002186:	0ff0000f          	fence

000000008000218a <i00000002b0>:
    8000218a:	c4e6                	sw	s9,72(sp)

000000008000218c <i00000002b1>:
    8000218c:	8669                	sra	a2,a2,0x1a

000000008000218e <i00000002b2>:
    8000218e:	c030f653          	fcvt.lu.s	a2,ft1

0000000080002192 <i00000002b3>:
    80002192:	9befe0ef          	jal	80000350 <func1>

0000000080002196 <i00000002b4>:
    80002196:	3702                	fld	fa4,32(sp)

0000000080002198 <i00000002b5>:
    80002198:	c230f7d3          	fcvt.lu.d	a5,ft1

000000008000219c <i00000002b6>:
    8000219c:	9616                	add	a2,a2,t0
    8000219e:	000de117          	auipc	sp,0xde
    800021a2:	e6210113          	add	sp,sp,-414 # 800e0000 <begin_signature>
    800021a6:	6319                	lui	t1,0x6
    800021a8:	3a83031b          	addw	t1,t1,936 # 63a8 <_tbss_end+0x63a8>
    800021ac:	911a                	add	sp,sp,t1

00000000800021ae <i00000002b7>:
    800021ae:	27c6                	fld	fa5,80(sp)

00000000800021b0 <i00000002b8>:
    800021b0:	7129                	add	sp,sp,-320

00000000800021b2 <i00000002b9>:
    800021b2:	7169                	add	sp,sp,-304

00000000800021b4 <i00000002ba>:
    800021b4:	094f6297          	auipc	t0,0x94f6
    800021b8:	24416c03          	lwu	s8,580(sp)
    800021bc:	2111292f          	amoxor.w	s2,a7,(sp)
    800021c0:	dd016703          	lwu	a4,-560(sp)
    800021c4:	0294abb3          	mulhsu	s7,s1,s1
    800021c8:	1be0                	add	s0,sp,508
    800021ca:	029749b3          	div	s3,a4,s1
    800021ce:	f20484d3          	fmv.d.x	fs1,s1

00000000800021d2 <b00000002bb>:
    800021d2:	00000e97          	auipc	t4,0x0
    800021d6:	036e8e93          	add	t4,t4,54 # 80002208 <i00000002c0>
    800021da:	000e8567          	jalr	a0,t4
    800021de:	224210d3          	fneg.d	ft1,ft4
    800021e2:	c0912b2f          	amominu.w	s6,s1,(sp)
    800021e6:	9c3d                	addw	s0,s0,a5
    800021e8:	0000100f          	fence.i
    800021ec:	0000100f          	fence.i
    800021f0:	d228f0d3          	fcvt.d.l	ft1,a7
    800021f4:	02e70033          	mul	zero,a4,a4

00000000800021f8 <i00000002bb>:
    800021f8:	f20480d3          	fmv.d.x	ft1,s1

00000000800021fc <i00000002bc>:
    800021fc:	8eaa                	mv	t4,a0

00000000800021fe <i00000002bd>:
    800021fe:	040e                	sll	s0,s0,0x3

0000000080002200 <i00000002be>:
    80002200:	237eaa53          	fsgnjx.d	fs4,ft9,fs7

0000000080002204 <i00000002bf>:
    80002204:	019b6bb3          	or	s7,s6,s9

0000000080002208 <i00000002c0>:
    80002208:	e2048b53          	fmv.x.d	s6,fs1

000000008000220c <i00000002c1>:
    8000220c:	d4fa                	sw	t5,104(sp)
    8000220e:	000de117          	auipc	sp,0xde
    80002212:	df210113          	add	sp,sp,-526 # 800e0000 <begin_signature>
    80002216:	6309                	lui	t1,0x2
    80002218:	1083031b          	addw	t1,t1,264 # 2108 <_tbss_end+0x2108>
    8000221c:	911a                	add	sp,sp,t1

000000008000221e <i00000002c2>:
    8000221e:	f9fe                	sd	t6,240(sp)

0000000080002220 <i00000002c3>:
    80002220:	a2148553          	fle.d	a0,fs1,ft1

0000000080002224 <i00000002c4>:
    80002224:	c22d7d53          	fcvt.l.d	s10,fs10
    80002228:	4ea9                	li	t4,10
    8000222a:	0ff0000f          	fence
    8000222e:	41313baf          	amoor.d	s7,s3,(sp)
    80002232:	206e90d3          	fsgnjn.s	ft1,ft9,ft6
    80002236:	1bd9f4d3          	fdiv.d	fs1,fs3,ft9
    8000223a:	4772                	lw	a4,28(sp)
    8000223c:	2090b243          	fmadd.s	ft4,ft1,fs1,ft4,rup
    80002240:	20a6                	fld	ft1,72(sp)

0000000080002242 <b00000002c5>:
    80002242:	01da8863          	beq	s5,t4,80002252 <b00000002c5+0x10>
    80002246:	00000e97          	auipc	t4,0x0
    8000224a:	fc2e8e93          	add	t4,t4,-62 # 80002208 <i00000002c0>
    8000224e:	000e8067          	jr	t4
    80002252:	4aa9                	li	s5,10
    80002254:	75714703          	lbu	a4,1879(sp)
    80002258:	0121b3b3          	sltu	t2,gp,s2
    8000225c:	4192549b          	sraw	s1,tp,0x19
    80002260:	7420a497          	auipc	s1,0x7420a
    80002264:	008127af          	amoadd.w	a5,s0,(sp)
    80002268:	029777b3          	remu	a5,a4,s1
    8000226c:	10408653          	fmul.s	fa2,ft1,ft4,rne

0000000080002270 <i00000002c5>:
    80002270:	1264                	add	s1,sp,300

0000000080002272 <i00000002c6>:
    80002272:	8defe0ef          	jal	80000350 <func1>

0000000080002276 <i00000002c7>:
    80002276:	53b2                	lw	t2,44(sp)

0000000080002278 <i00000002c8>:
    80002278:	8319                	srl	a4,a4,0x6

000000008000227a <i00000002c9>:
    8000227a:	00c4f233          	and	tp,s1,a2

000000008000227e <i00000002ca>:
    8000227e:	8ce5                	and	s1,s1,s1
    80002280:	000de117          	auipc	sp,0xde
    80002284:	d8010113          	add	sp,sp,-640 # 800e0000 <begin_signature>
    80002288:	6315                	lui	t1,0x5
    8000228a:	f383031b          	addw	t1,t1,-200 # 4f38 <_tbss_end+0x4f38>
    8000228e:	911a                	add	sp,sp,t1

0000000080002290 <i00000002cb>:
    80002290:	bc26                	fsd	fs1,56(sp)

0000000080002292 <i00000002cc>:
    80002292:	47e2                	lw	a5,24(sp)

0000000080002294 <i00000002cd>:
    80002294:	e20e9a53          	fclass.d	s4,ft9

0000000080002298 <i00000002ce>:
    80002298:	7109                	add	sp,sp,-384

000000008000229a <i00000002cf>:
    8000229a:	d22b7253          	fcvt.d.l	ft4,s6
    8000229e:	4dad                	li	s11,11
    800022a0:	0a85                	add	s5,s5,1
    800022a2:	000de117          	auipc	sp,0xde
    800022a6:	d5e10113          	add	sp,sp,-674 # 800e0000 <begin_signature>
    800022aa:	6329                	lui	t1,0xa
    800022ac:	6583031b          	addw	t1,t1,1624 # a658 <_tbss_end+0xa658>
    800022b0:	911a                	add	sp,sp,t1
    800022b2:	26e2                	fld	fa3,24(sp)
    800022b4:	8411                	sra	s0,s0,0x4
    800022b6:	987d                	and	s0,s0,-1
    800022b8:	a026                	fsd	fs1,0(sp)
    800022ba:	7746                	ld	a4,112(sp)
    800022bc:	ee813703          	ld	a4,-280(sp)
    800022c0:	029774bb          	remuw	s1,a4,s1

00000000800022c4 <b00000002d0>:
    800022c4:	00000033          	add	zero,zero,zero
    800022c8:	fdba84e3          	beq	s5,s11,80002290 <i00000002cb>
    800022cc:	00000033          	add	zero,zero,zero
    800022d0:	64410803          	lb	a6,1604(sp)
    800022d4:	d23e78d3          	fcvt.d.lu	fa7,t3
    800022d8:	00ef981b          	sllw	a6,t6,0xe
    800022dc:	005c                	add	a5,sp,4
    800022de:	94e2                	add	s1,s1,s8
    800022e0:	0379cbbb          	divw	s7,s3,s7
    800022e4:	6145                	add	sp,sp,48
    800022e6:	4aa9                	li	s5,10

00000000800022e8 <i00000002d0>:
    800022e8:	d024c4d3          	fcvt.s.l	fs1,s1,rmm

00000000800022ec <i00000002d1>:
    800022ec:	f20908d3          	fmv.d.x	fa7,s2

00000000800022f0 <i00000002d2>:
    800022f0:	f02e                	sd	a1,32(sp)

00000000800022f2 <i00000002d3>:
    800022f2:	d0340153          	fcvt.s.lu	ft2,s0,rne

00000000800022f6 <i00000002d4>:
    800022f6:	d224fb53          	fcvt.d.l	fs6,s1

00000000800022fa <i00000002d5>:
    800022fa:	c22ef4d3          	fcvt.l.d	s1,ft9

00000000800022fe <i00000002d6>:
    800022fe:	d2267253          	fcvt.d.l	ft4,a2
    80002302:	000de117          	auipc	sp,0xde
    80002306:	cfe10113          	add	sp,sp,-770 # 800e0000 <begin_signature>
    8000230a:	633d                	lui	t1,0xf
    8000230c:	6203031b          	addw	t1,t1,1568 # f620 <_tbss_end+0xf620>
    80002310:	911a                	add	sp,sp,t1

0000000080002312 <i00000002d7>:
    80002312:	cee2                	sw	s8,92(sp)

0000000080002314 <i00000002d8>:
    80002314:	16e9                	add	a3,a3,-6

0000000080002316 <i00000002d9>:
    80002316:	9bf9                	and	a5,a5,-2
    80002318:	48a9                	li	a7,10
    8000231a:	ec3a                	sd	a4,24(sp)
    8000231c:	9cbd                	addw	s1,s1,a5
    8000231e:	f2040253          	fmv.d.x	ft4,s0
    80002322:	810129af          	amomin.w	s3,a6,(sp)
    80002326:	21a12baf          	amoxor.w	s7,s10,(sp)
    8000232a:	03226e3b          	remw	t3,tp,s2
    8000232e:	e4210003          	lb	zero,-446(sp)

0000000080002332 <b00000002da>:
    80002332:	011a8463          	beq	s5,a7,8000233a <b00000002da+0x8>
    80002336:	fc5ff06f          	j	800022fa <i00000002d5>
    8000233a:	4aa9                	li	s5,10
    8000233c:	ace11123          	sh	a4,-1342(sp)
    80002340:	02e467bb          	remw	a5,s0,a4
    80002344:	034fd433          	divu	s0,t6,s4
    80002348:	036e7cb3          	remu	s9,t3,s6
    8000234c:	000d149b          	sllw	s1,s10,0x0
    80002350:	7946                	ld	s2,112(sp)
    80002352:	f20c8953          	fmv.d.x	fs2,s9

0000000080002356 <i00000002da>:
    80002356:	06c1                	add	a3,a3,16

0000000080002358 <i00000002db>:
    80002358:	8315                	srl	a4,a4,0x5

000000008000235a <i00000002dc>:
    8000235a:	0a14f24b          	fnmsub.d	ft4,fs1,ft1,ft1

000000008000235e <i00000002dd>:
    8000235e:	6626                	ld	a2,72(sp)

0000000080002360 <i00000002de>:
    80002360:	d0352253          	fcvt.s.lu	ft4,a0,rdn

0000000080002364 <i00000002df>:
    80002364:	8f11                	sub	a4,a4,a2

0000000080002366 <i00000002e0>:
    80002366:	6109                	add	sp,sp,128

0000000080002368 <i00000002e1>:
    80002368:	54d5                	li	s1,-11

000000008000236a <i00000002e2>:
    8000236a:	7165                	add	sp,sp,-400

000000008000236c <i00000002e3>:
    8000236c:	c0219653          	fcvt.l.s	a2,ft3,rtz
    80002370:	4b81                	li	s7,0
    80002372:	000de117          	auipc	sp,0xde
    80002376:	c8e10113          	add	sp,sp,-882 # 800e0000 <begin_signature>
    8000237a:	632d                	lui	t1,0xb
    8000237c:	4c83031b          	addw	t1,t1,1224 # b4c8 <_tbss_end+0xb4c8>
    80002380:	911a                	add	sp,sp,t1
    80002382:	9875                	and	s0,s0,-3
    80002384:	a1514403          	lbu	s0,-1515(sp)
    80002388:	0000100f          	fence.i
    8000238c:	80e129af          	amomin.w	s3,a4,(sp)
    80002390:	0ff0000f          	fence
    80002394:	8c39                	xor	s0,s0,a4
    80002396:	fbd12027          	fsw	ft9,-96(sp)

000000008000239a <b00000002e4>:
    8000239a:	00000033          	add	zero,zero,zero
    8000239e:	fd7a83e3          	beq	s5,s7,80002364 <i00000002df>
    800023a2:	00000033          	add	zero,zero,zero
    800023a6:	c220f4d3          	fcvt.l.d	s1,ft1
    800023aa:	b432                	fsd	fa2,40(sp)
    800023ac:	0941272f          	amoswap.w	a4,s4,(sp)
    800023b0:	c09137af          	amominu.d	a5,s1,(sp)
    800023b4:	61a13c2f          	amoand.d	s8,s10,(sp)
    800023b8:	c024ced3          	fcvt.l.s	t4,fs1,rmm
    800023bc:	d8348a1b          	addw	s4,s1,-637 # fffffffff420bfe3 <_end+0xffffffff741196e2>
    800023c0:	4aa9                	li	s5,10

00000000800023c2 <i00000002e4>:
    800023c2:	8e7d                	and	a2,a2,a5

00000000800023c4 <i00000002e5>:
    800023c4:	1174                	add	a3,sp,172

00000000800023c6 <i00000002e6>:
    800023c6:	c0294b53          	fcvt.l.s	s6,fs2,rmm

00000000800023ca <i00000002e7>:
    800023ca:	c220f4d3          	fcvt.l.d	s1,ft1

00000000800023ce <i00000002e8>:
    800023ce:	d0223253          	fcvt.s.l	ft4,tp,rup

00000000800023d2 <i00000002e9>:
    800023d2:	8899                	and	s1,s1,6

00000000800023d4 <i00000002ea>:
    800023d4:	86ad                	sra	a3,a3,0xb

00000000800023d6 <i00000002eb>:
    800023d6:	5572                	lw	a0,60(sp)

00000000800023d8 <i00000002ec>:
    800023d8:	9c3d                	addw	s0,s0,a5

00000000800023da <i00000002ed>:
    800023da:	a2948753          	fle.d	a4,fs1,fs1
    800023de:	49a9                	li	s3,10
    800023e0:	000de117          	auipc	sp,0xde
    800023e4:	c2010113          	add	sp,sp,-992 # 800e0000 <begin_signature>
    800023e8:	630d                	lui	t1,0x3
    800023ea:	9283031b          	addw	t1,t1,-1752 # 2928 <_tbss_end+0x2928>
    800023ee:	911a                	add	sp,sp,t1
    800023f0:	000de117          	auipc	sp,0xde
    800023f4:	c1010113          	add	sp,sp,-1008 # 800e0000 <begin_signature>
    800023f8:	6319                	lui	t1,0x6
    800023fa:	5f03031b          	addw	t1,t1,1520 # 65f0 <_tbss_end+0x65f0>
    800023fe:	911a                	add	sp,sp,t1
    80002400:	7179                	add	sp,sp,-48
    80002402:	5402                	lw	s0,32(sp)
    80002404:	0000100f          	fence.i
    80002408:	3562                	fld	fa0,56(sp)
    8000240a:	802d                	srl	s0,s0,0xb
    8000240c:	1312ffd3          	fmul.d	ft11,ft5,fa7
    80002410:	00e49a33          	sll	s4,s1,a4

0000000080002414 <b00000002ee>:
    80002414:	00000033          	add	zero,zero,zero
    80002418:	fb3a9de3          	bne	s5,s3,800023d2 <i00000002e9>
    8000241c:	00000033          	add	zero,zero,zero
    80002420:	3502                	fld	fa0,32(sp)
    80002422:	e2020b53          	fmv.x.d	s6,ft4
    80002426:	e6813087          	fld	ft1,-408(sp)
    8000242a:	3602                	fld	fa2,32(sp)
    8000242c:	2486                	fld	fs1,64(sp)
    8000242e:	3082                	fld	ft1,32(sp)
    80002430:	0a8fbd93          	sltiu	s11,t6,168
    80002434:	4aa9                	li	s5,10

0000000080002436 <i00000002ee>:
    80002436:	00225073          	fsrmi	zero,4

000000008000243a <i00000002ef>:
    8000243a:	e20584d3          	fmv.x.d	s1,fa1

000000008000243e <i00000002f0>:
    8000243e:	44ad                	li	s1,11

0000000080002440 <i00000002f1>:
    80002440:	9d19                	subw	a0,a0,a4

0000000080002442 <i00000002f2>:
    80002442:	8195                	srl	a1,a1,0x5

0000000080002444 <i00000002f3>:
    80002444:	8521                	sra	a0,a0,0x8

0000000080002446 <i00000002f4>:
    80002446:	1f281517          	auipc	a0,0x1f281

000000008000244a <i00000002f5>:
    8000244a:	c230f253          	fcvt.lu.d	tp,ft1

000000008000244e <i00000002f6>:
    8000244e:	f03fd0ef          	jal	80000350 <func1>

0000000080002452 <i00000002f7>:
    80002452:	08d0                	add	a2,sp,84

0000000080002454 <i00000002f8>:
    80002454:	9cb9                	addw	s1,s1,a4

0000000080002456 <i00000002f9>:
    80002456:	6295eb93          	or	s7,a1,1577
    8000245a:	000de117          	auipc	sp,0xde
    8000245e:	ba610113          	add	sp,sp,-1114 # 800e0000 <begin_signature>
    80002462:	6339                	lui	t1,0xe
    80002464:	9903031b          	addw	t1,t1,-1648 # d990 <_tbss_end+0xd990>
    80002468:	911a                	add	sp,sp,t1
    8000246a:	000de117          	auipc	sp,0xde
    8000246e:	b9610113          	add	sp,sp,-1130 # 800e0000 <begin_signature>
    80002472:	6311                	lui	t1,0x4
    80002474:	d003031b          	addw	t1,t1,-768 # 3d00 <_tbss_end+0x3d00>
    80002478:	911a                	add	sp,sp,t1
    8000247a:	000de117          	auipc	sp,0xde
    8000247e:	b8610113          	add	sp,sp,-1146 # 800e0000 <begin_signature>
    80002482:	6339                	lui	t1,0xe
    80002484:	7603031b          	addw	t1,t1,1888 # e760 <_tbss_end+0xe760>
    80002488:	911a                	add	sp,sp,t1
    8000248a:	008134af          	amoadd.d	s1,s0,(sp)
    8000248e:	86215483          	lhu	s1,-1950(sp)
    80002492:	d2287ad3          	fcvt.d.l	fs5,a6
    80002496:	3411                	addw	s0,s0,-28
    80002498:	84412783          	lw	a5,-1980(sp)
    8000249c:	40e1372f          	amoor.d	a4,a4,(sp)
    800024a0:	038794b3          	mulh	s1,a5,s8

00000000800024a4 <b00000002fa>:
    800024a4:	02a0006f          	j	800024ce <i00000002ff>
    800024a8:	40e7573b          	sraw	a4,a4,a4
    800024ac:	e4be                	sd	a5,72(sp)
    800024ae:	c146                	sw	a7,128(sp)
    800024b0:	807124af          	amomin.w	s1,t2,(sp)
    800024b4:	02fdffbb          	remuw	t6,s11,a5
    800024b8:	008464b3          	or	s1,s0,s0
    800024bc:	a7710ca3          	sb	s7,-1415(sp)

00000000800024c0 <i00000002fa>:
    800024c0:	d21b80d3          	fcvt.d.wu	ft1,s7

00000000800024c4 <i00000002fb>:
    800024c4:	8d81                	sub	a1,a1,s0

00000000800024c6 <i00000002fc>:
    800024c6:	6241                	lui	tp,0x10

00000000800024c8 <i00000002fd>:
    800024c8:	2602                	fld	fa2,0(sp)

00000000800024ca <i00000002fe>:
    800024ca:	2a5e90d3          	fmax.d	ft1,ft9,ft5

00000000800024ce <i00000002ff>:
    800024ce:	40dd5533          	sra	a0,s10,a3

00000000800024d2 <i0000000300>:
    800024d2:	c020ca53          	fcvt.l.s	s4,ft1,rmm

00000000800024d6 <i0000000301>:
    800024d6:	41355613          	sra	a2,a0,0x13

00000000800024da <i0000000302>:
    800024da:	8e65                	and	a2,a2,s1

00000000800024dc <i0000000303>:
    800024dc:	d023aad3          	fcvt.s.l	fs5,t2,rdn
    800024e0:	4b01                	li	s6,0
    800024e2:	0462                	sll	s0,s0,0x18
    800024e4:	4a14fc4b          	fnmsub.d	fs8,fs1,ft1,fs1
    800024e8:	9ca1                	addw	s1,s1,s0
    800024ea:	d8e10523          	sb	a4,-630(sp)
    800024ee:	f0a2                	sd	s0,96(sp)
    800024f0:	0294beb3          	mulhu	t4,s1,s1
    800024f4:	02e484b3          	mul	s1,s1,a4

00000000800024f8 <b0000000304>:
    800024f8:	00000033          	add	zero,zero,zero
    800024fc:	fd6a89e3          	beq	s5,s6,800024ce <i00000002ff>
    80002500:	00000033          	add	zero,zero,zero
    80002504:	64c6                	ld	s1,80(sp)
    80002506:	9c39                	addw	s0,s0,a4
    80002508:	2181382f          	amoxor.d	a6,s8,(sp)
    8000250c:	294810d3          	fmax.s	ft1,fa6,fs4
    80002510:	211101a3          	sb	a7,515(sp)
    80002514:	2ac110d3          	fmax.d	ft1,ft2,fa2
    80002518:	02870233          	mul	tp,a4,s0
    8000251c:	4aa9                	li	s5,10

000000008000251e <i0000000304>:
    8000251e:	7135                	add	sp,sp,-160

0000000080002520 <i0000000305>:
    80002520:	616d                	add	sp,sp,240

0000000080002522 <i0000000306>:
    80002522:	9dfe                	add	s11,s11,t6

0000000080002524 <i0000000307>:
    80002524:	d234f253          	fcvt.d.lu	ft4,s1

0000000080002528 <i0000000308>:
    80002528:	85d5                	sra	a1,a1,0x15

000000008000252a <i0000000309>:
    8000252a:	8ee1                	and	a3,a3,s0

000000008000252c <i000000030a>:
    8000252c:	17c9                	add	a5,a5,-14

000000008000252e <i000000030b>:
    8000252e:	7145                	add	sp,sp,-464

0000000080002530 <i000000030c>:
    80002530:	135afb53          	fmul.d	fs6,fs5,fs5

0000000080002534 <i000000030d>:
    80002534:	8ef9                	and	a3,a3,a4
    80002536:	49a9                	li	s3,10
    80002538:	9e313023          	sd	gp,-1568(sp)
    8000253c:	41a0503b          	sraw	zero,zero,s10
    80002540:	00912baf          	amoadd.w	s7,s1,(sp)
    80002544:	004b1193          	sll	gp,s6,0x4
    80002548:	0b377253          	fsub.d	ft4,fa4,fs3
    8000254c:	05d9071b          	addw	a4,s2,93
    80002550:	8021                	srl	s0,s0,0x8

0000000080002552 <b000000030e>:
    80002552:	013a8463          	beq	s5,s3,8000255a <b000000030e+0x8>
    80002556:	fd5ff06f          	j	8000252a <i0000000309>
    8000255a:	4aa9                	li	s5,10
    8000255c:	c22b7753          	fcvt.l.d	a4,fs6
    80002560:	41d2                	lw	gp,20(sp)
    80002562:	015b9493          	sll	s1,s7,0x15
    80002566:	0810b3cf          	fnmadd.s	ft7,ft1,ft1,ft1,rup
    8000256a:	4a1275cb          	fnmsub.d	fa1,ft4,ft1,fs1
    8000256e:	4bd6                	lw	s7,84(sp)
    80002570:	e5ba                	sd	a4,200(sp)

0000000080002572 <i000000030e>:
    80002572:	b186                	fsd	ft1,224(sp)

0000000080002574 <i000000030f>:
    80002574:	e20d8d53          	fmv.x.d	s10,fs11

0000000080002578 <i0000000310>:
    80002578:	22909253          	fsgnjn.d	ft4,ft1,fs1

000000008000257c <i0000000311>:
    8000257c:	d22570d3          	fcvt.d.l	ft1,a0

0000000080002580 <i0000000312>:
    80002580:	8e29                	xor	a2,a2,a0

0000000080002582 <i0000000313>:
    80002582:	05b6                	sll	a1,a1,0xd

0000000080002584 <i0000000314>:
    80002584:	d02e00d3          	fcvt.s.l	ft1,t3,rne

0000000080002588 <i0000000315>:
    80002588:	bc2a                	fsd	fa0,56(sp)
    8000258a:	000de117          	auipc	sp,0xde
    8000258e:	a7610113          	add	sp,sp,-1418 # 800e0000 <begin_signature>
    80002592:	6331                	lui	t1,0xc
    80002594:	ad83031b          	addw	t1,t1,-1320 # bad8 <_tbss_end+0xbad8>
    80002598:	911a                	add	sp,sp,t1

000000008000259a <i0000000316>:
    8000259a:	3082                	fld	ft1,32(sp)

000000008000259c <i0000000317>:
    8000259c:	369d                	addw	a3,a3,-25
    8000259e:	49a9                	li	s3,10
    800025a0:	788e                	ld	a7,224(sp)
    800025a2:	027a2733          	mulhsu	a4,s4,t2
    800025a6:	7179                	add	sp,sp,-48
    800025a8:	0ff0000f          	fence
    800025ac:	f2e13c23          	sd	a4,-200(sp)
    800025b0:	0a80                	add	s0,sp,336
    800025b2:	0ff0000f          	fence

00000000800025b6 <b0000000318>:
    800025b6:	00000033          	add	zero,zero,zero
    800025ba:	053a8063          	beq	s5,s3,800025fa <i000000031d>
    800025be:	00000033          	add	zero,zero,zero
    800025c2:	c01234d3          	fcvt.wu.s	s1,ft4,rup
    800025c6:	02970b33          	mul	s6,a4,s1
    800025ca:	41c051b3          	sra	gp,zero,t3
    800025ce:	0ff0000f          	fence
    800025d2:	227c14d3          	fsgnjn.d	fs1,fs8,ft7
    800025d6:	2226                	fld	ft4,72(sp)
    800025d8:	d2277d53          	fcvt.d.l	fs10,a4
    800025dc:	4aa9                	li	s5,10

00000000800025de <i0000000318>:
    800025de:	8579                	sra	a0,a0,0x1e

00000000800025e0 <i0000000319>:
    800025e0:	9c21                	addw	s0,s0,s0

00000000800025e2 <i000000031a>:
    800025e2:	4f1d                	li	t5,7

00000000800025e4 <i000000031b>:
    800025e4:	d034f253          	fcvt.s.lu	ft4,s1

00000000800025e8 <i000000031c>:
    800025e8:	4636                	lw	a2,76(sp)
    800025ea:	000de117          	auipc	sp,0xde
    800025ee:	a1610113          	add	sp,sp,-1514 # 800e0000 <begin_signature>
    800025f2:	6325                	lui	t1,0x9
    800025f4:	9d03031b          	addw	t1,t1,-1584 # 89d0 <_tbss_end+0x89d0>
    800025f8:	911a                	add	sp,sp,t1

00000000800025fa <i000000031d>:
    800025fa:	5472                	lw	s0,60(sp)

00000000800025fc <i000000031e>:
    800025fc:	0a09f153          	fsub.d	ft2,fs3,ft0

0000000080002600 <i000000031f>:
    80002600:	23879cd3          	fsgnjn.d	fs9,fa5,fs8

0000000080002604 <i0000000320>:
    80002604:	c2397553          	fcvt.lu.d	a0,fs2

0000000080002608 <i0000000321>:
    80002608:	e1013687          	fld	fa3,-496(sp)
    8000260c:	4ca5                	li	s9,9
    8000260e:	4aa9                	li	s5,10
    80002610:	000de117          	auipc	sp,0xde
    80002614:	9f010113          	add	sp,sp,-1552 # 800e0000 <begin_signature>
    80002618:	6329                	lui	t1,0xa
    8000261a:	5d83031b          	addw	t1,t1,1496 # a5d8 <_tbss_end+0xa5d8>
    8000261e:	911a                	add	sp,sp,t1
    80002620:	c63e                	sw	a5,12(sp)
    80002622:	e4e13823          	sd	a4,-432(sp)
    80002626:	c024cdd3          	fcvt.l.s	s11,fs1,rmm
    8000262a:	0ff0000f          	fence
    8000262e:	9c39                	addw	s0,s0,a4
    80002630:	9c1d                	subw	s0,s0,a5
    80002632:	d02c34d3          	fcvt.s.l	fs1,s8,rup

0000000080002636 <b0000000322>:
    80002636:	00000033          	add	zero,zero,zero
    8000263a:	035cd663          	bge	s9,s5,80002666 <i0000000327>
    8000263e:	00000033          	add	zero,zero,zero
    80002642:	d03410d3          	fcvt.s.lu	ft1,s0,rtz
    80002646:	02fb673b          	remw	a4,s6,a5
    8000264a:	183c                	add	a5,sp,56
    8000264c:	341d                	addw	s0,s0,-25
    8000264e:	7131                	add	sp,sp,-192
    80002650:	e07d4d47          	fmsub.s	fs10,fs10,ft7,ft8,rmm
    80002654:	c020f753          	fcvt.l.s	a4,ft1
    80002658:	4aa9                	li	s5,10

000000008000265a <i0000000322>:
    8000265a:	c0398553          	fcvt.lu.s	a0,fs3,rne

000000008000265e <i0000000323>:
    8000265e:	1bac                	add	a1,sp,504

0000000080002660 <i0000000324>:
    80002660:	5536                	lw	a0,108(sp)

0000000080002662 <i0000000325>:
    80002662:	8ce5                	and	s1,s1,s1

0000000080002664 <i0000000326>:
    80002664:	4676                	lw	a2,92(sp)

0000000080002666 <i0000000327>:
    80002666:	125f74d3          	fmul.d	fs1,ft10,ft5

000000008000266a <i0000000328>:
    8000266a:	2126                	fld	ft2,72(sp)

000000008000266c <i0000000329>:
    8000266c:	0844                	add	s1,sp,20

000000008000266e <i000000032a>:
    8000266e:	c03a8653          	fcvt.lu.s	a2,fs5,rne

0000000080002672 <i000000032b>:
    80002672:	bc3e                	fsd	fa5,56(sp)
    80002674:	4da9                	li	s11,10
    80002676:	4aa9                	li	s5,10
    80002678:	c826                	sw	s1,16(sp)
    8000267a:	610d                	add	sp,sp,160
    8000267c:	a7a13423          	sd	s10,-1432(sp)
    80002680:	02e74a3b          	divw	s4,a4,a4
    80002684:	7101                	add	sp,sp,-512
    80002686:	00fc                	add	a5,sp,76
    80002688:	204108a3          	sb	tp,529(sp)

000000008000268c <b000000032c>:
    8000268c:	00000033          	add	zero,zero,zero
    80002690:	03ba9a63          	bne	s5,s11,800026c4 <i0000000331>
    80002694:	00000033          	add	zero,zero,zero
    80002698:	414cd23b          	sraw	tp,s9,s4
    8000269c:	00e40bbb          	addw	s7,s0,a4
    800026a0:	33812207          	flw	ft4,824(sp)
    800026a4:	014eee33          	or	t3,t4,s4
    800026a8:	c234f4d3          	fcvt.lu.d	s1,fs1
    800026ac:	c23274d3          	fcvt.lu.d	s1,ft4
    800026b0:	3785                	addw	a5,a5,-31
    800026b2:	4aa9                	li	s5,10

00000000800026b4 <i000000032c>:
    800026b4:	8ddd                	or	a1,a1,a5

00000000800026b6 <i000000032d>:
    800026b6:	f2048253          	fmv.d.x	ft4,s1

00000000800026ba <i000000032e>:
    800026ba:	a3f604d3          	fle.d	s1,fa2,ft11

00000000800026be <i000000032f>:
    800026be:	969e                	add	a3,a3,t2

00000000800026c0 <i0000000330>:
    800026c0:	018f55b3          	srl	a1,t5,s8

00000000800026c4 <i0000000331>:
    800026c4:	224088d3          	fsgnj.d	fa7,ft1,ft4

00000000800026c8 <i0000000332>:
    800026c8:	d234f0d3          	fcvt.d.lu	ft1,s1

00000000800026cc <i0000000333>:
    800026cc:	c206f653          	fcvt.w.d	a2,fa3

00000000800026d0 <i0000000334>:
    800026d0:	d2267253          	fcvt.d.l	ft4,a2
    800026d4:	000de117          	auipc	sp,0xde
    800026d8:	92c10113          	add	sp,sp,-1748 # 800e0000 <begin_signature>
    800026dc:	633d                	lui	t1,0xf
    800026de:	2283031b          	addw	t1,t1,552 # f228 <_tbss_end+0xf228>
    800026e2:	911a                	add	sp,sp,t1

00000000800026e4 <i0000000335>:
    800026e4:	7742                	ld	a4,48(sp)
    800026e6:	4831                	li	a6,12
    800026e8:	0a85                	add	s5,s5,1
    800026ea:	000de117          	auipc	sp,0xde
    800026ee:	91610113          	add	sp,sp,-1770 # 800e0000 <begin_signature>
    800026f2:	631d                	lui	t1,0x7
    800026f4:	1503031b          	addw	t1,t1,336 # 7150 <_tbss_end+0x7150>
    800026f8:	911a                	add	sp,sp,t1
    800026fa:	715d                	add	sp,sp,-80
    800026fc:	2a8d8ed3          	fmin.d	ft9,fs11,fs0
    80002700:	20913eaf          	amoxor.d	t4,s1,(sp)
    80002704:	0387ddbb          	divuw	s11,a5,s8
    80002708:	20e10823          	sb	a4,528(sp)
    8000270c:	03978c3b          	mulw	s8,a5,s9
    80002710:	d0370dd3          	fcvt.s.lu	fs11,a4,rne

0000000080002714 <b0000000336>:
    80002714:	010a8863          	beq	s5,a6,80002724 <b0000000336+0x10>
    80002718:	00000817          	auipc	a6,0x0
    8000271c:	fac80813          	add	a6,a6,-84 # 800026c4 <i0000000331>
    80002720:	00080067          	jr	a6
    80002724:	4aa9                	li	s5,10
    80002726:	4a36                	lw	s4,76(sp)
    80002728:	e0e137af          	amomaxu.d	a5,a4,(sp)
    8000272c:	1890f253          	fdiv.s	ft4,ft1,fs1
    80002730:	c2127cd3          	fcvt.wu.d	s9,ft4
    80002734:	c23efe53          	fcvt.lu.d	t3,ft9
    80002738:	72813403          	ld	s0,1832(sp)
    8000273c:	9e22                	add	t3,t3,s0

000000008000273e <i0000000336>:
    8000273e:	8c31                	xor	s0,s0,a2

0000000080002740 <i0000000337>:
    80002740:	e426                	sd	s1,8(sp)

0000000080002742 <i0000000338>:
    80002742:	d02035d3          	fcvt.s.l	fa1,zero,rup

0000000080002746 <i0000000339>:
    80002746:	7129                	add	sp,sp,-320

0000000080002748 <i000000033a>:
    80002748:	ac26                	fsd	fs1,24(sp)
    8000274a:	000de117          	auipc	sp,0xde
    8000274e:	8b610113          	add	sp,sp,-1866 # 800e0000 <begin_signature>
    80002752:	633d                	lui	t1,0xf
    80002754:	2783031b          	addw	t1,t1,632 # f278 <_tbss_end+0xf278>
    80002758:	911a                	add	sp,sp,t1

000000008000275a <i000000033b>:
    8000275a:	c026                	sw	s1,0(sp)

000000008000275c <i000000033c>:
    8000275c:	2506                	fld	fa0,64(sp)

000000008000275e <i000000033d>:
    8000275e:	9925                	and	a0,a0,-23

0000000080002760 <i000000033e>:
    80002760:	00a668b3          	or	a7,a2,a0

0000000080002764 <i000000033f>:
    80002764:	d034a5d3          	fcvt.s.lu	fa1,s1,rdn
    80002768:	000de117          	auipc	sp,0xde
    8000276c:	89810113          	add	sp,sp,-1896 # 800e0000 <begin_signature>
    80002770:	630d                	lui	t1,0x3
    80002772:	0a03031b          	addw	t1,t1,160 # 30a0 <_tbss_end+0x30a0>
    80002776:	911a                	add	sp,sp,t1
    80002778:	61c1382f          	amoand.d	a6,t3,(sp)
    8000277c:	0890a4c7          	fmsub.s	fs1,ft1,fs1,ft1,rdn
    80002780:	cc26                	sw	s1,24(sp)
    80002782:	8051                	srl	s0,s0,0x14
    80002784:	616d                	add	sp,sp,240
    80002786:	8e42                	mv	t3,a6
    80002788:	9722                	add	a4,a4,s0

000000008000278a <b0000000340>:
    8000278a:	02a0056f          	jal	a0,800027b4 <i0000000345>
    8000278e:	01c4579b          	srlw	a5,s0,0x1c
    80002792:	dc3e                	sw	a5,56(sp)
    80002794:	0000100f          	fence.i
    80002798:	ba812223          	sw	s0,-1116(sp)
    8000279c:	c13137af          	amominu.d	a5,s3,(sp)
    800027a0:	808128af          	amomin.w	a7,s0,(sp)
    800027a4:	085c                	add	a5,sp,20

00000000800027a6 <i0000000340>:
    800027a6:	640a                	ld	s0,128(sp)

00000000800027a8 <i0000000341>:
    800027a8:	1ab8                	add	a4,sp,376

00000000800027aa <i0000000342>:
    800027aa:	ba7fd0ef          	jal	80000350 <func1>

00000000800027ae <i0000000343>:
    800027ae:	4612                	lw	a2,4(sp)

00000000800027b0 <i0000000344>:
    800027b0:	ab0b3613          	sltiu	a2,s6,-1360

00000000800027b4 <i0000000345>:
    800027b4:	2602                	fld	fa2,0(sp)

00000000800027b6 <i0000000346>:
    800027b6:	3766                	fld	fa4,120(sp)

00000000800027b8 <i0000000347>:
    800027b8:	40820533          	sub	a0,tp,s0
    800027bc:	000de117          	auipc	sp,0xde
    800027c0:	84410113          	add	sp,sp,-1980 # 800e0000 <begin_signature>
    800027c4:	6315                	lui	t1,0x5
    800027c6:	0483031b          	addw	t1,t1,72 # 5048 <_tbss_end+0x5048>
    800027ca:	911a                	add	sp,sp,t1

00000000800027cc <i0000000348>:
    800027cc:	d036                	sw	a3,32(sp)

00000000800027ce <i0000000349>:
    800027ce:	c02224d3          	fcvt.l.s	s1,ft4,rdn

00000000800027d2 <i000000034a>:
    800027d2:	8531                	sra	a0,a0,0xc
    800027d4:	4cb1                	li	s9,12
    800027d6:	4aa9                	li	s5,10
    800027d8:	000de117          	auipc	sp,0xde
    800027dc:	82810113          	add	sp,sp,-2008 # 800e0000 <begin_signature>
    800027e0:	6325                	lui	t1,0x9
    800027e2:	6503031b          	addw	t1,t1,1616 # 9650 <_tbss_end+0x9650>
    800027e6:	911a                	add	sp,sp,t1
    800027e8:	bc02                	fsd	ft0,56(sp)
    800027ea:	02e483b3          	mul	t2,s1,a4
    800027ee:	c08134af          	amominu.d	s1,s0,(sp)
    800027f2:	30e12c23          	sw	a4,792(sp)
    800027f6:	7139                	add	sp,sp,-64
    800027f8:	0000100f          	fence.i
    800027fc:	d0398153          	fcvt.s.lu	ft2,s3,rne

0000000080002800 <b000000034b>:
    80002800:	00000033          	add	zero,zero,zero
    80002804:	039aca63          	blt	s5,s9,80002838 <i0000000350>
    80002808:	00000033          	add	zero,zero,zero
    8000280c:	e1413b2f          	amomaxu.d	s6,s4,(sp)
    80002810:	018b8033          	add	zero,s7,s8
    80002814:	614d                	add	sp,sp,176
    80002816:	a2cc9c53          	flt.d	s8,fs9,fa2
    8000281a:	0ac4                	add	s1,sp,340
    8000281c:	02e4073b          	mulw	a4,s0,a4
    80002820:	0278c7b3          	div	a5,a7,t2
    80002824:	4aa9                	li	s5,10

0000000080002826 <i000000034b>:
    80002826:	d02604d3          	fcvt.s.l	fs1,a2,rne

000000008000282a <i000000034c>:
    8000282a:	1ae0                	add	s0,sp,380

000000008000282c <i000000034d>:
    8000282c:	d0363253          	fcvt.s.lu	ft4,a2,rup

0000000080002830 <i000000034e>:
    80002830:	00255993          	srl	s3,a0,0x2

0000000080002834 <i000000034f>:
    80002834:	d02f1253          	fcvt.s.l	ft4,t5,rtz

0000000080002838 <i0000000350>:
    80002838:	d436                	sw	a3,40(sp)

000000008000283a <i0000000351>:
    8000283a:	00a63533          	sltu	a0,a2,a0

000000008000283e <i0000000352>:
    8000283e:	02f0                	add	a2,sp,332

0000000080002840 <i0000000353>:
    80002840:	f0f6                	sd	t4,96(sp)

0000000080002842 <i0000000354>:
    80002842:	5d603a37          	lui	s4,0x5d603
    80002846:	49ad                	li	s3,11
    80002848:	0a85                	add	s5,s5,1
    8000284a:	000dd117          	auipc	sp,0xdd
    8000284e:	7b610113          	add	sp,sp,1974 # 800e0000 <begin_signature>
    80002852:	6335                	lui	t1,0xd
    80002854:	a803031b          	addw	t1,t1,-1408 # ca80 <_tbss_end+0xca80>
    80002858:	911a                	add	sp,sp,t1
    8000285a:	000dd117          	auipc	sp,0xdd
    8000285e:	7a610113          	add	sp,sp,1958 # 800e0000 <begin_signature>
    80002862:	631d                	lui	t1,0x7
    80002864:	0983031b          	addw	t1,t1,152 # 7098 <_tbss_end+0x7098>
    80002868:	911a                	add	sp,sp,t1
    8000286a:	000dd117          	auipc	sp,0xdd
    8000286e:	79610113          	add	sp,sp,1942 # 800e0000 <begin_signature>
    80002872:	6311                	lui	t1,0x4
    80002874:	1d03031b          	addw	t1,t1,464 # 41d0 <_tbss_end+0x41d0>
    80002878:	911a                	add	sp,sp,t1
    8000287a:	000dd117          	auipc	sp,0xdd
    8000287e:	78610113          	add	sp,sp,1926 # 800e0000 <begin_signature>
    80002882:	630d                	lui	t1,0x3
    80002884:	6c03031b          	addw	t1,t1,1728 # 36c0 <_tbss_end+0x36c0>
    80002888:	911a                	add	sp,sp,t1
    8000288a:	029757bb          	divuw	a5,a4,s1
    8000288e:	c2227ed3          	fcvt.l.d	t4,ft4
    80002892:	48a2                	lw	a7,8(sp)
    80002894:	edfe                	sd	t6,216(sp)
    80002896:	2486                	fld	fs1,64(sp)
    80002898:	6406                	ld	s0,64(sp)
    8000289a:	4e113427          	fsd	ft1,1256(sp)

000000008000289e <b0000000355>:
    8000289e:	00000033          	add	zero,zero,zero
    800028a2:	f93a8be3          	beq	s5,s3,80002838 <i0000000350>
    800028a6:	00000033          	add	zero,zero,zero
    800028aa:	7daa                	ld	s11,168(sp)
    800028ac:	15414a03          	lbu	s4,340(sp)
    800028b0:	d02f90d3          	fcvt.s.l	ft1,t6,rtz
    800028b4:	86646f93          	or	t6,s0,-1946
    800028b8:	c224ffd3          	fcvt.l.d	t6,fs1
    800028bc:	cbd12823          	sw	t4,-848(sp)
    800028c0:	02e401bb          	mulw	gp,s0,a4
    800028c4:	4aa9                	li	s5,10

00000000800028c6 <i0000000355>:
    800028c6:	5571                	li	a0,-4

00000000800028c8 <i0000000356>:
    800028c8:	f052                	sd	s4,32(sp)

00000000800028ca <i0000000357>:
    800028ca:	75b52f13          	slti	t5,a0,1883

00000000800028ce <i0000000358>:
    800028ce:	e13a                	sd	a4,128(sp)

00000000800028d0 <i0000000359>:
    800028d0:	8d11                	sub	a0,a0,a2
    800028d2:	000dd117          	auipc	sp,0xdd
    800028d6:	72e10113          	add	sp,sp,1838 # 800e0000 <begin_signature>
    800028da:	6309                	lui	t1,0x2
    800028dc:	8803031b          	addw	t1,t1,-1920 # 1880 <_tbss_end+0x1880>
    800028e0:	911a                	add	sp,sp,t1

00000000800028e2 <i000000035a>:
    800028e2:	7746                	ld	a4,112(sp)

00000000800028e4 <i000000035b>:
    800028e4:	8ecd                	or	a3,a3,a1

00000000800028e6 <i000000035c>:
    800028e6:	0ea1b013          	sltiu	zero,gp,234
    800028ea:	000dd117          	auipc	sp,0xdd
    800028ee:	71610113          	add	sp,sp,1814 # 800e0000 <begin_signature>
    800028f2:	6315                	lui	t1,0x5
    800028f4:	6483031b          	addw	t1,t1,1608 # 5648 <_tbss_end+0x5648>
    800028f8:	911a                	add	sp,sp,t1

00000000800028fa <i000000035d>:
    800028fa:	4786                	lw	a5,64(sp)

00000000800028fc <i000000035e>:
    800028fc:	d03fa4d3          	fcvt.s.lu	fs1,t6,rdn
    80002900:	4b01                	li	s6,0
    80002902:	000dd117          	auipc	sp,0xdd
    80002906:	6fe10113          	add	sp,sp,1790 # 800e0000 <begin_signature>
    8000290a:	6325                	lui	t1,0x9
    8000290c:	3a83031b          	addw	t1,t1,936 # 93a8 <_tbss_end+0x93a8>
    80002910:	911a                	add	sp,sp,t1
    80002912:	5ee10223          	sb	a4,1508(sp)
    80002916:	c0e1382f          	amominu.d	a6,a4,(sp)
    8000291a:	eb011f83          	lh	t6,-336(sp)
    8000291e:	37348c9b          	addw	s9,s1,883
    80002922:	8c5d                	or	s0,s0,a5
    80002924:	02e457bb          	divuw	a5,s0,a4
    80002928:	3da12c23          	sw	s10,984(sp)

000000008000292c <b000000035f>:
    8000292c:	00000033          	add	zero,zero,zero
    80002930:	036a8f63          	beq	s5,s6,8000296e <i0000000364>
    80002934:	00000033          	add	zero,zero,zero
    80002938:	e091392f          	amomaxu.d	s2,s1,(sp)
    8000293c:	40e457b3          	sra	a5,s0,a4
    80002940:	0000100f          	fence.i
    80002944:	2294f5c3          	fmadd.d	fa1,fs1,fs1,ft4
    80002948:	cee2                	sw	s8,92(sp)
    8000294a:	ad86                	fsd	ft1,216(sp)
    8000294c:	f9f704cb          	fnmsub.s	fs1,fa4,ft11,ft11,rne
    80002950:	4aa9                	li	s5,10

0000000080002952 <i000000035f>:
    80002952:	d82a                	sw	a0,48(sp)
    80002954:	000dd117          	auipc	sp,0xdd
    80002958:	6ac10113          	add	sp,sp,1708 # 800e0000 <begin_signature>
    8000295c:	6309                	lui	t1,0x2
    8000295e:	f103031b          	addw	t1,t1,-240 # 1f10 <_tbss_end+0x1f10>
    80002962:	911a                	add	sp,sp,t1

0000000080002964 <i0000000360>:
    80002964:	f012                	sd	tp,32(sp)

0000000080002966 <i0000000361>:
    80002966:	7155                	add	sp,sp,-208

0000000080002968 <i0000000362>:
    80002968:	c0223653          	fcvt.l.s	a2,ft4,rup

000000008000296c <i0000000363>:
    8000296c:	ac32                	fsd	fa2,24(sp)

000000008000296e <i0000000364>:
    8000296e:	b43a                	fsd	fa4,40(sp)

0000000080002970 <i0000000365>:
    80002970:	8dad                	xor	a1,a1,a1

0000000080002972 <i0000000366>:
    80002972:	e92a                	sd	a0,144(sp)

0000000080002974 <i0000000367>:
    80002974:	aca6                	fsd	fs1,88(sp)

0000000080002976 <i0000000368>:
    80002976:	64ce                	ld	s1,208(sp)
    80002978:	61b137af          	amoand.d	a5,s11,(sp)
    8000297c:	a17784d3          	fle.s	s1,fa5,fs7
    80002980:	000137af          	amoadd.d	a5,zero,(sp)
    80002984:	d03db4d3          	fcvt.s.lu	fs1,s11,rup
    80002988:	2a7014d3          	fmax.d	fs1,ft0,ft7
    8000298c:	030a17b3          	mulh	a5,s4,a6
    80002990:	0432                	sll	s0,s0,0xc

0000000080002992 <b0000000369>:
    80002992:	00000917          	auipc	s2,0x0
    80002996:	05090913          	add	s2,s2,80 # 800029e2 <i000000036e>
    8000299a:	00090567          	jalr	a0,s2
    8000299e:	c230fdd3          	fcvt.lu.d	s11,ft1
    800029a2:	08813b2f          	amoswap.d	s6,s0,(sp)
    800029a6:	f8be                	sd	a5,112(sp)
    800029a8:	a5811c83          	lh	s9,-1448(sp)
    800029ac:	c03097d3          	fcvt.lu.s	a5,ft1,rtz
    800029b0:	a2661253          	flt.d	tp,fa2,ft6
    800029b4:	8f7d                	and	a4,a4,a5

00000000800029b6 <i0000000369>:
    800029b6:	d42e                	sw	a1,40(sp)
    800029b8:	000dd117          	auipc	sp,0xdd
    800029bc:	64810113          	add	sp,sp,1608 # 800e0000 <begin_signature>
    800029c0:	633d                	lui	t1,0xf
    800029c2:	4a03031b          	addw	t1,t1,1184 # f4a0 <_tbss_end+0xf4a0>
    800029c6:	911a                	add	sp,sp,t1

00000000800029c8 <i000000036a>:
    800029c8:	e432                	sd	a2,8(sp)
    800029ca:	000dd117          	auipc	sp,0xdd
    800029ce:	63610113          	add	sp,sp,1590 # 800e0000 <begin_signature>
    800029d2:	6339                	lui	t1,0xe
    800029d4:	2b83031b          	addw	t1,t1,696 # e2b8 <_tbss_end+0xe2b8>
    800029d8:	911a                	add	sp,sp,t1

00000000800029da <i000000036b>:
    800029da:	44e2                	lw	s1,24(sp)

00000000800029dc <i000000036c>:
    800029dc:	ecb6                	sd	a3,88(sp)

00000000800029de <i000000036d>:
    800029de:	c03c04d3          	fcvt.lu.s	s1,fs8,rne

00000000800029e2 <i000000036e>:
    800029e2:	1358                	add	a4,sp,420
    800029e4:	000dd117          	auipc	sp,0xdd
    800029e8:	61c10113          	add	sp,sp,1564 # 800e0000 <begin_signature>
    800029ec:	630d                	lui	t1,0x3
    800029ee:	3321                	addw	t1,t1,-24 # 2fe8 <_tbss_end+0x2fe8>
    800029f0:	911a                	add	sp,sp,t1

00000000800029f2 <i000000036f>:
    800029f2:	ad92                	fsd	ft4,216(sp)

00000000800029f4 <i0000000370>:
    800029f4:	e594c413          	xor	s0,s1,-423

00000000800029f8 <i0000000371>:
    800029f8:	5692                	lw	a3,36(sp)

00000000800029fa <i0000000372>:
    800029fa:	ac2a                	fsd	fa0,24(sp)
    800029fc:	4b29                	li	s6,10
    800029fe:	4aa9                	li	s5,10
    80002a00:	9f01                	subw	a4,a4,s0
    80002a02:	d2347c53          	fcvt.d.lu	fs8,s0
    80002a06:	fd213823          	sd	s2,-48(sp)
    80002a0a:	e00807d3          	fmv.x.w	a5,fa6
    80002a0e:	c0347753          	fcvt.lu.s	a4,fs0
    80002a12:	c20274d3          	fcvt.w.d	s1,ft4
    80002a16:	02c0                	add	s0,sp,324

0000000080002a18 <b0000000373>:
    80002a18:	00000033          	add	zero,zero,zero
    80002a1c:	036a9a63          	bne	s5,s6,80002a50 <i0000000378>
    80002a20:	00000033          	add	zero,zero,zero
    80002a24:	bbcff84b          	fnmsub.d	fa6,ft11,ft8,fs7
    80002a28:	c22274d3          	fcvt.l.d	s1,ft4
    80002a2c:	f20481d3          	fmv.d.x	ft3,s1
    80002a30:	77e2                	ld	a5,56(sp)
    80002a32:	a244a9d3          	feq.d	s3,fs1,ft4
    80002a36:	8f59                	or	a4,a4,a4
    80002a38:	d03cc853          	fcvt.s.lu	fa6,s9,rmm
    80002a3c:	4aa9                	li	s5,10

0000000080002a3e <i0000000373>:
    80002a3e:	c02ec853          	fcvt.l.s	a6,ft9,rmm

0000000080002a42 <i0000000374>:
    80002a42:	8f2d                	xor	a4,a4,a1

0000000080002a44 <i0000000375>:
    80002a44:	c033f553          	fcvt.lu.s	a0,ft7

0000000080002a48 <i0000000376>:
    80002a48:	c0308e53          	fcvt.lu.s	t3,ft1,rne

0000000080002a4c <i0000000377>:
    80002a4c:	01ccdd93          	srl	s11,s9,0x1c

0000000080002a50 <i0000000378>:
    80002a50:	d0260bd3          	fcvt.s.l	fs7,a2,rne

0000000080002a54 <i0000000379>:
    80002a54:	23b194b7          	lui	s1,0x23b19

0000000080002a58 <i000000037a>:
    80002a58:	d037c0d3          	fcvt.s.lu	ft1,a5,rmm

0000000080002a5c <i000000037b>:
    80002a5c:	b42e                	fsd	fa1,40(sp)

0000000080002a5e <i000000037c>:
    80002a5e:	d02234d3          	fcvt.s.l	fs1,tp,rup
    80002a62:	4b2d                	li	s6,11
    80002a64:	4aa9                	li	s5,10
    80002a66:	d026                	sw	s1,32(sp)
    80002a68:	0187171b          	sllw	a4,a4,0x18
    80002a6c:	a08133af          	amomax.d	t2,s0,(sp)
    80002a70:	8049                	srl	s0,s0,0x12
    80002a72:	409754bb          	sraw	s1,a4,s1
    80002a76:	00911223          	sh	s1,4(sp)
    80002a7a:	0284c7b3          	div	a5,s1,s0

0000000080002a7e <b000000037d>:
    80002a7e:	00000033          	add	zero,zero,zero
    80002a82:	035b5763          	bge	s6,s5,80002ab0 <i0000000382>
    80002a86:	00000033          	add	zero,zero,zero
    80002a8a:	6462                	ld	s0,24(sp)
    80002a8c:	81d13baf          	amomin.d	s7,t4,(sp)
    80002a90:	d23a                	sw	a4,36(sp)
    80002a92:	03cbd73b          	divuw	a4,s7,t3
    80002a96:	d02e10d3          	fcvt.s.l	ft1,t3,rtz
    80002a9a:	224084d3          	fsgnj.d	fs1,ft1,ft4
    80002a9e:	6105                	add	sp,sp,32
    80002aa0:	4aa9                	li	s5,10

0000000080002aa2 <i000000037d>:
    80002aa2:	b126                	fsd	fs1,160(sp)

0000000080002aa4 <i000000037e>:
    80002aa4:	00441c93          	sll	s9,s0,0x4

0000000080002aa8 <i000000037f>:
    80002aa8:	d023f253          	fcvt.s.l	ft4,t2

0000000080002aac <i0000000380>:
    80002aac:	26ea                	fld	fa3,152(sp)

0000000080002aae <i0000000381>:
    80002aae:	ac2e                	fsd	fa1,24(sp)

0000000080002ab0 <i0000000382>:
    80002ab0:	b5a6                	fsd	fs1,232(sp)

0000000080002ab2 <i0000000383>:
    80002ab2:	a5f6                	fsd	ft9,200(sp)

0000000080002ab4 <i0000000384>:
    80002ab4:	5956                	lw	s2,116(sp)
    80002ab6:	000dd117          	auipc	sp,0xdd
    80002aba:	54a10113          	add	sp,sp,1354 # 800e0000 <begin_signature>
    80002abe:	6339                	lui	t1,0xe
    80002ac0:	8603031b          	addw	t1,t1,-1952 # d860 <_tbss_end+0xd860>
    80002ac4:	911a                	add	sp,sp,t1

0000000080002ac6 <i0000000385>:
    80002ac6:	ccaa                	sw	a0,88(sp)

0000000080002ac8 <i0000000386>:
    80002ac8:	00c63d33          	sltu	s10,a2,a2
    80002acc:	4bb1                	li	s7,12
    80002ace:	0a85                	add	s5,s5,1
    80002ad0:	000dd117          	auipc	sp,0xdd
    80002ad4:	53010113          	add	sp,sp,1328 # 800e0000 <begin_signature>
    80002ad8:	6305                	lui	t1,0x1
    80002ada:	3983031b          	addw	t1,t1,920 # 1398 <_tbss_end+0x1398>
    80002ade:	911a                	add	sp,sp,t1
    80002ae0:	8b9d                	and	a5,a5,7
    80002ae2:	5a06f853          	fsqrt.d	fa6,fa3
    80002ae6:	80e121af          	amomin.w	gp,a4,(sp)
    80002aea:	d20404d3          	fcvt.d.w	fs1,s0
    80002aee:	e2009053          	fclass.d	zero,ft1
    80002af2:	c2367953          	fcvt.lu.d	s2,fa2
    80002af6:	0000100f          	fence.i

0000000080002afa <b0000000387>:
    80002afa:	00000033          	add	zero,zero,zero
    80002afe:	fb7ac9e3          	blt	s5,s7,80002ab0 <i0000000382>
    80002b02:	00000033          	add	zero,zero,zero
    80002b06:	0000100f          	fence.i
    80002b0a:	efe15783          	lhu	a5,-258(sp)
    80002b0e:	00e92853          	fadd.s	fa6,fs2,fa4,rdn
    80002b12:	1a127153          	fdiv.d	ft2,ft4,ft1
    80002b16:	d0393553          	fcvt.s.lu	fa0,s2,rup
    80002b1a:	4452                	lw	s0,20(sp)
    80002b1c:	616d                	add	sp,sp,240
    80002b1e:	4aa9                	li	s5,10

0000000080002b20 <i0000000387>:
    80002b20:	5976                	lw	s2,124(sp)

0000000080002b22 <i0000000388>:
    80002b22:	403cd493          	sra	s1,s9,0x3
    80002b26:	000dd117          	auipc	sp,0xdd
    80002b2a:	4da10113          	add	sp,sp,1242 # 800e0000 <begin_signature>
    80002b2e:	6339                	lui	t1,0xe
    80002b30:	1103031b          	addw	t1,t1,272 # e110 <_tbss_end+0xe110>
    80002b34:	911a                	add	sp,sp,t1

0000000080002b36 <i0000000389>:
    80002b36:	34e6                	fld	fs1,120(sp)

0000000080002b38 <i000000038a>:
    80002b38:	e9862513          	slti	a0,a2,-360
    80002b3c:	000dd117          	auipc	sp,0xdd
    80002b40:	4c410113          	add	sp,sp,1220 # 800e0000 <begin_signature>
    80002b44:	6309                	lui	t1,0x2
    80002b46:	1a83031b          	addw	t1,t1,424 # 21a8 <_tbss_end+0x21a8>
    80002b4a:	911a                	add	sp,sp,t1

0000000080002b4c <i000000038b>:
    80002b4c:	c29e                	sw	t2,68(sp)
    80002b4e:	000dd117          	auipc	sp,0xdd
    80002b52:	4b210113          	add	sp,sp,1202 # 800e0000 <begin_signature>
    80002b56:	6325                	lui	t1,0x9
    80002b58:	1383031b          	addw	t1,t1,312 # 9138 <_tbss_end+0x9138>
    80002b5c:	911a                	add	sp,sp,t1

0000000080002b5e <i000000038c>:
    80002b5e:	a41a                	fsd	ft6,8(sp)

0000000080002b60 <i000000038d>:
    80002b60:	c63a                	sw	a4,12(sp)

0000000080002b62 <i000000038e>:
    80002b62:	06cf6613          	or	a2,t5,108

0000000080002b66 <i000000038f>:
    80002b66:	2486                	fld	fs1,64(sp)

0000000080002b68 <i0000000390>:
    80002b68:	40a60033          	sub	zero,a2,a0
    80002b6c:	4d31                	li	s10,12
    80002b6e:	0a85                	add	s5,s5,1
    80002b70:	000dd117          	auipc	sp,0xdd
    80002b74:	49010113          	add	sp,sp,1168 # 800e0000 <begin_signature>
    80002b78:	6321                	lui	t1,0x8
    80002b7a:	a103031b          	addw	t1,t1,-1520 # 7a10 <_tbss_end+0x7a10>
    80002b7e:	911a                	add	sp,sp,t1
    80002b80:	9c19                	subw	s0,s0,a4
    80002b82:	c230fb53          	fcvt.lu.d	s6,ft1
    80002b86:	74e2                	ld	s1,56(sp)
    80002b88:	00c8c553          	fadd.s	fa0,fa7,fa2,rmm
    80002b8c:	d2da                	sw	s6,100(sp)
    80002b8e:	ad12                	fsd	ft4,152(sp)
    80002b90:	c220f9d3          	fcvt.l.d	s3,ft1

0000000080002b94 <b0000000391>:
    80002b94:	00000033          	add	zero,zero,zero
    80002b98:	fd5d53e3          	bge	s10,s5,80002b5e <i000000038c>
    80002b9c:	00000033          	add	zero,zero,zero
    80002ba0:	322e                	fld	ft4,232(sp)
    80002ba2:	0991302f          	amoswap.d	zero,s9,(sp)
    80002ba6:	03ca64bb          	remw	s1,s4,t3
    80002baa:	20421253          	fneg.s	ft4,ft4
    80002bae:	03382cb3          	mulhsu	s9,a6,s3
    80002bb2:	a006                	fsd	ft1,0(sp)
    80002bb4:	5efb8997          	auipc	s3,0x5efb8
    80002bb8:	4aa9                	li	s5,10
    80002bba:	000dd117          	auipc	sp,0xdd
    80002bbe:	44610113          	add	sp,sp,1094 # 800e0000 <begin_signature>
    80002bc2:	6305                	lui	t1,0x1
    80002bc4:	ce03031b          	addw	t1,t1,-800 # ce0 <_tbss_end+0xce0>
    80002bc8:	911a                	add	sp,sp,t1

0000000080002bca <i0000000391>:
    80002bca:	3482                	fld	fs1,32(sp)

0000000080002bcc <i0000000392>:
    80002bcc:	de2a                	sw	a0,60(sp)

0000000080002bce <i0000000393>:
    80002bce:	2426                	fld	fs0,72(sp)

0000000080002bd0 <i0000000394>:
    80002bd0:	2486                	fld	fs1,64(sp)

0000000080002bd2 <i0000000395>:
    80002bd2:	2666                	fld	fa2,88(sp)

0000000080002bd4 <i0000000396>:
    80002bd4:	5c76                	lw	s8,124(sp)

0000000080002bd6 <i0000000397>:
    80002bd6:	deaa                	sw	a0,124(sp)
    80002bd8:	000dd117          	auipc	sp,0xdd
    80002bdc:	42810113          	add	sp,sp,1064 # 800e0000 <begin_signature>
    80002be0:	632d                	lui	t1,0xb
    80002be2:	8103031b          	addw	t1,t1,-2032 # a810 <_tbss_end+0xa810>
    80002be6:	911a                	add	sp,sp,t1

0000000080002be8 <i0000000398>:
    80002be8:	c632                	sw	a2,12(sp)

0000000080002bea <i0000000399>:
    80002bea:	b7a66b13          	or	s6,a2,-1158

0000000080002bee <i000000039a>:
    80002bee:	01ed16b3          	sll	a3,s10,t5
    80002bf2:	0294543b          	divuw	s0,s0,s1
    80002bf6:	7803839b          	addw	t2,t2,1920
    80002bfa:	c0320753          	fcvt.lu.s	a4,ft4,rne
    80002bfe:	028734b3          	mulhu	s1,a4,s0
    80002c02:	8722                	mv	a4,s0
    80002c04:	013e8d33          	add	s10,t4,s3
    80002c08:	8419                	sra	s0,s0,0x6

0000000080002c0a <b000000039b>:
    80002c0a:	00000e17          	auipc	t3,0x0
    80002c0e:	03ae0e13          	add	t3,t3,58 # 80002c44 <i00000003a0>
    80002c12:	000e0567          	jalr	a0,t3
    80002c16:	20712c2f          	amoxor.w	s8,t2,(sp)
    80002c1a:	073d                	add	a4,a4,15 # 2000f <_tbss_end+0x2000f>
    80002c1c:	0307e4bb          	remw	s1,a5,a6
    80002c20:	081230cf          	fnmadd.s	ft1,ft4,ft1,ft1,rup
    80002c24:	c0e12caf          	amominu.w	s9,a4,(sp)
    80002c28:	d02c33d3          	fcvt.s.l	ft7,s8,rup
    80002c2c:	a11124af          	amomax.w	s1,a7,(sp)

0000000080002c30 <i000000039b>:
    80002c30:	01dd1533          	sll	a0,s10,t4

0000000080002c34 <i000000039c>:
    80002c34:	b2952913          	slti	s2,a0,-1239

0000000080002c38 <i000000039d>:
    80002c38:	00a4fe33          	and	t3,s1,a0

0000000080002c3c <i000000039e>:
    80002c3c:	00f65513          	srl	a0,a2,0xf

0000000080002c40 <i000000039f>:
    80002c40:	00a57c33          	and	s8,a0,a0

0000000080002c44 <i00000003a0>:
    80002c44:	00c48733          	add	a4,s1,a2

0000000080002c48 <i00000003a1>:
    80002c48:	034da197          	auipc	gp,0x34da

0000000080002c4c <i00000003a2>:
    80002c4c:	40fd8933          	sub	s2,s11,a5

0000000080002c50 <i00000003a3>:
    80002c50:	816d                	srl	a0,a0,0x1b

0000000080002c52 <i00000003a4>:
    80002c52:	311dc9b7          	lui	s3,0x311dc
    80002c56:	4e31                	li	t3,12
    80002c58:	0a85                	add	s5,s5,1
    80002c5a:	25a2                	fld	fa1,8(sp)
    80002c5c:	03bc0733          	mul	a4,s8,s11
    80002c60:	47e6                	lw	a5,88(sp)
    80002c62:	0344                	add	s1,sp,388
    80002c64:	0344d013          	srl	zero,s1,0x34
    80002c68:	0ff0000f          	fence
    80002c6c:	28442493          	slti	s1,s0,644

0000000080002c70 <b00000003a5>:
    80002c70:	01ca8463          	beq	s5,t3,80002c78 <b00000003a5+0x8>
    80002c74:	fd1ff56f          	jal	a0,80002c44 <i00000003a0>
    80002c78:	4aa9                	li	s5,10
    80002c7a:	9164e713          	or	a4,s1,-1770
    80002c7e:	879f8713          	add	a4,t6,-1927
    80002c82:	7169                	add	sp,sp,-304
    80002c84:	7155                	add	sp,sp,-208
    80002c86:	00313d2f          	amoadd.d	s10,gp,(sp)
    80002c8a:	00e49433          	sll	s0,s1,a4
    80002c8e:	d03744d3          	fcvt.s.lu	fs1,a4,rmm
    80002c92:	4185                	li	gp,1
    80002c94:	000eff17          	auipc	t5,0xef
    80002c98:	363f2623          	sw	gp,876(t5) # 800f2000 <tohost>
    80002c9c:	0000100f          	fence.i
    80002ca0:	00020fb7          	lui	t6,0x20
    80002ca4:	000ddf17          	auipc	t5,0xdd
    80002ca8:	35cf0f13          	add	t5,t5,860 # 800e0000 <begin_signature>
    80002cac:	01efa023          	sw	t5,0(t6) # 20000 <_tbss_end+0x20000>
    80002cb0:	000edf17          	auipc	t5,0xed
    80002cb4:	350f0f13          	add	t5,t5,848 # 800f0000 <end_signature>
    80002cb8:	01efa423          	sw	t5,8(t6)
    80002cbc:	01efa623          	sw	t5,12(t6)

Disassembly of section .tohost:

00000000800f2000 <tohost>:
	...

00000000800f2040 <fromhost>:
	...

00000000800f2050 <ecause_num>:
	...
