
work/bin/out_pg_config1_00000.riscv:     file format elf64-littleriscv


Disassembly of section .text.init:

0000000080000000 <_start>:
    80000000:	000e0117          	auipc	sp,0xe0
    80000004:	00010113          	mv	sp,sp
    80000008:	6082                	ld	ra,0(sp)
    8000000a:	61a2                	ld	gp,8(sp)
    8000000c:	6242                	ld	tp,16(sp)
    8000000e:	62e2                	ld	t0,24(sp)
    80000010:	7302                	ld	t1,32(sp)
    80000012:	73a2                	ld	t2,40(sp)
    80000014:	7442                	ld	s0,48(sp)
    80000016:	74e2                	ld	s1,56(sp)
    80000018:	6506                	ld	a0,64(sp)
    8000001a:	65a6                	ld	a1,72(sp)
    8000001c:	6646                	ld	a2,80(sp)
    8000001e:	66e6                	ld	a3,88(sp)
    80000020:	7706                	ld	a4,96(sp)
    80000022:	77a6                	ld	a5,104(sp)
    80000024:	7846                	ld	a6,112(sp)
    80000026:	78e6                	ld	a7,120(sp)
    80000028:	690a                	ld	s2,128(sp)
    8000002a:	69aa                	ld	s3,136(sp)
    8000002c:	6a4a                	ld	s4,144(sp)
    8000002e:	6aea                	ld	s5,152(sp)
    80000030:	7b0a                	ld	s6,160(sp)
    80000032:	7baa                	ld	s7,168(sp)
    80000034:	7c4a                	ld	s8,176(sp)
    80000036:	7cea                	ld	s9,184(sp)
    80000038:	6d0e                	ld	s10,192(sp)
    8000003a:	6dae                	ld	s11,200(sp)
    8000003c:	6e4e                	ld	t3,208(sp)
    8000003e:	6eee                	ld	t4,216(sp)
    80000040:	7f0e                	ld	t5,224(sp)
    80000042:	7fae                	ld	t6,232(sp)
    80000044:	62f9                	lui	t0,0x1e
    80000046:	3002a073          	csrs	mstatus,t0
    8000004a:	4285                	li	t0,1
    8000004c:	02fe                	sll	t0,t0,0x1f
    8000004e:	0002d863          	bgez	t0,8000005e <_start+0x5e>
    80000052:	4505                	li	a0,1
    80000054:	000f2297          	auipc	t0,0xf2
    80000058:	faa2a623          	sw	a0,-84(t0) # 800f2000 <tohost>
    8000005c:	bfdd                	j	80000052 <_start+0x52>
    8000005e:	00000297          	auipc	t0,0x0
    80000062:	09228293          	add	t0,t0,146 # 800000f0 <_start+0xf0>
    80000066:	30529073          	csrw	mtvec,t0
    8000006a:	00301073          	fscsr	zero
    8000006e:	f2008053          	fmv.d.x	ft0,ra
    80000072:	f20080d3          	fmv.d.x	ft1,ra
    80000076:	f2010153          	fmv.d.x	ft2,sp
    8000007a:	f20181d3          	fmv.d.x	ft3,gp
    8000007e:	f2020253          	fmv.d.x	ft4,tp
    80000082:	f20282d3          	fmv.d.x	ft5,t0
    80000086:	f2030353          	fmv.d.x	ft6,t1
    8000008a:	f20383d3          	fmv.d.x	ft7,t2
    8000008e:	f2040453          	fmv.d.x	fs0,s0
    80000092:	f20484d3          	fmv.d.x	fs1,s1
    80000096:	f2050553          	fmv.d.x	fa0,a0
    8000009a:	f20585d3          	fmv.d.x	fa1,a1
    8000009e:	f2060653          	fmv.d.x	fa2,a2
    800000a2:	f20686d3          	fmv.d.x	fa3,a3
    800000a6:	f2070753          	fmv.d.x	fa4,a4
    800000aa:	f20787d3          	fmv.d.x	fa5,a5
    800000ae:	f2080853          	fmv.d.x	fa6,a6
    800000b2:	f20888d3          	fmv.d.x	fa7,a7
    800000b6:	f2090953          	fmv.d.x	fs2,s2
    800000ba:	f20989d3          	fmv.d.x	fs3,s3
    800000be:	f20a0a53          	fmv.d.x	fs4,s4
    800000c2:	f20a8ad3          	fmv.d.x	fs5,s5
    800000c6:	f20b0b53          	fmv.d.x	fs6,s6
    800000ca:	f20b8bd3          	fmv.d.x	fs7,s7
    800000ce:	f20c0c53          	fmv.d.x	fs8,s8
    800000d2:	f20c8cd3          	fmv.d.x	fs9,s9
    800000d6:	f20d0d53          	fmv.d.x	fs10,s10
    800000da:	f20d8dd3          	fmv.d.x	fs11,s11
    800000de:	f20e0e53          	fmv.d.x	ft8,t3
    800000e2:	f20e8ed3          	fmv.d.x	ft9,t4
    800000e6:	f20f0f53          	fmv.d.x	ft10,t5
    800000ea:	f20f8fd3          	fmv.d.x	ft11,t6
    800000ee:	0001                	nop
    800000f0:	00000297          	auipc	t0,0x0
    800000f4:	03428293          	add	t0,t0,52 # 80000124 <trap_entry>
    800000f8:	30529073          	csrw	mtvec,t0
    800000fc:	000f3217          	auipc	tp,0xf3
    80000100:	84420213          	add	tp,tp,-1980 # 800f2940 <_end+0x3f>
    80000104:	fc027213          	and	tp,tp,-64
    80000108:	f1402573          	csrr	a0,mhartid
    8000010c:	4585                	li	a1,1
    8000010e:	00b57063          	bgeu	a0,a1,8000010e <_start+0x10e>
    80000112:	01151613          	sll	a2,a0,0x11
    80000116:	9232                	add	tp,tp,a2
    80000118:	00150113          	add	sp,a0,1
    8000011c:	0146                	sll	sp,sp,0x11
    8000011e:	9112                	add	sp,sp,tp
    80000120:	6a00006f          	j	800007c0 <main>

0000000080000124 <trap_entry>:
    80000124:	716d                	add	sp,sp,-272
    80000126:	e406                	sd	ra,8(sp)
    80000128:	e80a                	sd	sp,16(sp)
    8000012a:	ec0e                	sd	gp,24(sp)
    8000012c:	f012                	sd	tp,32(sp)
    8000012e:	f416                	sd	t0,40(sp)
    80000130:	f81a                	sd	t1,48(sp)
    80000132:	fc1e                	sd	t2,56(sp)
    80000134:	e0a2                	sd	s0,64(sp)
    80000136:	e4a6                	sd	s1,72(sp)
    80000138:	e8aa                	sd	a0,80(sp)
    8000013a:	ecae                	sd	a1,88(sp)
    8000013c:	f0b2                	sd	a2,96(sp)
    8000013e:	f4b6                	sd	a3,104(sp)
    80000140:	f8ba                	sd	a4,112(sp)
    80000142:	fcbe                	sd	a5,120(sp)
    80000144:	e142                	sd	a6,128(sp)
    80000146:	e546                	sd	a7,136(sp)
    80000148:	e94a                	sd	s2,144(sp)
    8000014a:	ed4e                	sd	s3,152(sp)
    8000014c:	f152                	sd	s4,160(sp)
    8000014e:	f556                	sd	s5,168(sp)
    80000150:	f95a                	sd	s6,176(sp)
    80000152:	fd5e                	sd	s7,184(sp)
    80000154:	e1e2                	sd	s8,192(sp)
    80000156:	e5e6                	sd	s9,200(sp)
    80000158:	e9ea                	sd	s10,208(sp)
    8000015a:	edee                	sd	s11,216(sp)
    8000015c:	f1f2                	sd	t3,224(sp)
    8000015e:	f5f6                	sd	t4,232(sp)
    80000160:	f9fa                	sd	t5,240(sp)
    80000162:	fdfe                	sd	t6,248(sp)
    80000164:	34202573          	csrr	a0,mcause
    80000168:	341025f3          	csrr	a1,mepc
    8000016c:	0005d603          	lhu	a2,0(a1)
    80000170:	8a0d                	and	a2,a2,3
    80000172:	428d                	li	t0,3
    80000174:	00561563          	bne	a2,t0,8000017e <inst16>

0000000080000178 <inst32>:
    80000178:	0591                	add	a1,a1,4
    8000017a:	00000363          	beqz	zero,80000180 <inst16+0x2>

000000008000017e <inst16>:
    8000017e:	0589                	add	a1,a1,2
    80000180:	34159073          	csrw	mepc,a1
    80000184:	6289                	lui	t0,0x2
    80000186:	8002829b          	addw	t0,t0,-2048 # 1800 <_tbss_end+0x1800>
    8000018a:	3002a073          	csrs	mstatus,t0
    8000018e:	60a2                	ld	ra,8(sp)
    80000190:	6142                	ld	sp,16(sp)
    80000192:	61e2                	ld	gp,24(sp)
    80000194:	7202                	ld	tp,32(sp)
    80000196:	72a2                	ld	t0,40(sp)
    80000198:	7342                	ld	t1,48(sp)
    8000019a:	73e2                	ld	t2,56(sp)
    8000019c:	6406                	ld	s0,64(sp)
    8000019e:	64a6                	ld	s1,72(sp)
    800001a0:	6546                	ld	a0,80(sp)
    800001a2:	65e6                	ld	a1,88(sp)
    800001a4:	7606                	ld	a2,96(sp)
    800001a6:	76a6                	ld	a3,104(sp)
    800001a8:	7746                	ld	a4,112(sp)
    800001aa:	77e6                	ld	a5,120(sp)
    800001ac:	680a                	ld	a6,128(sp)
    800001ae:	68aa                	ld	a7,136(sp)
    800001b0:	694a                	ld	s2,144(sp)
    800001b2:	69ea                	ld	s3,152(sp)
    800001b4:	7a0a                	ld	s4,160(sp)
    800001b6:	7aaa                	ld	s5,168(sp)
    800001b8:	7b4a                	ld	s6,176(sp)
    800001ba:	7bea                	ld	s7,184(sp)
    800001bc:	6c0e                	ld	s8,192(sp)
    800001be:	6cae                	ld	s9,200(sp)
    800001c0:	6d4e                	ld	s10,208(sp)
    800001c2:	6dee                	ld	s11,216(sp)
    800001c4:	7e0e                	ld	t3,224(sp)
    800001c6:	7eae                	ld	t4,232(sp)
    800001c8:	7f4e                	ld	t5,240(sp)
    800001ca:	7fee                	ld	t6,248(sp)
    800001cc:	6151                	add	sp,sp,272
    800001ce:	30200073          	mret

Disassembly of section .text:

00000000800001e0 <custom_trap_handler_s>:
    800001e0:	7129                	add	sp,sp,-320
    800001e2:	e406                	sd	ra,8(sp)
    800001e4:	ec0e                	sd	gp,24(sp)
    800001e6:	f012                	sd	tp,32(sp)
    800001e8:	f416                	sd	t0,40(sp)
    800001ea:	f81a                	sd	t1,48(sp)
    800001ec:	fc1e                	sd	t2,56(sp)
    800001ee:	e0a2                	sd	s0,64(sp)
    800001f0:	e4a6                	sd	s1,72(sp)
    800001f2:	e8aa                	sd	a0,80(sp)
    800001f4:	ecae                	sd	a1,88(sp)
    800001f6:	f0b2                	sd	a2,96(sp)
    800001f8:	f4b6                	sd	a3,104(sp)
    800001fa:	f8ba                	sd	a4,112(sp)
    800001fc:	fcbe                	sd	a5,120(sp)
    800001fe:	e142                	sd	a6,128(sp)
    80000200:	e546                	sd	a7,136(sp)
    80000202:	e94a                	sd	s2,144(sp)
    80000204:	ed4e                	sd	s3,152(sp)
    80000206:	f152                	sd	s4,160(sp)
    80000208:	f556                	sd	s5,168(sp)
    8000020a:	f95a                	sd	s6,176(sp)
    8000020c:	fd5e                	sd	s7,184(sp)
    8000020e:	e1e2                	sd	s8,192(sp)
    80000210:	e5e6                	sd	s9,200(sp)
    80000212:	e9ea                	sd	s10,208(sp)
    80000214:	edee                	sd	s11,216(sp)
    80000216:	f1f2                	sd	t3,224(sp)
    80000218:	f5f6                	sd	t4,232(sp)
    8000021a:	f9fa                	sd	t5,240(sp)
    8000021c:	fdfe                	sd	t6,248(sp)
    8000021e:	10002573          	csrr	a0,sstatus
    80000222:	14102573          	csrr	a0,sepc
    80000226:	10502573          	csrr	a0,stvec
    8000022a:	14202573          	csrr	a0,scause
    8000022e:	4601                	li	a2,0
    80000230:	00c50763          	beq	a0,a2,8000023e <custom_trap_handler_s+0x5e>
    80000234:	4605                	li	a2,1
    80000236:	00c50463          	beq	a0,a2,8000023e <custom_trap_handler_s+0x5e>
    8000023a:	141025f3          	csrr	a1,sepc
    8000023e:	00059603          	lh	a2,0(a1)
    80000242:	8a0d                	and	a2,a2,3
    80000244:	428d                	li	t0,3
    80000246:	00561563          	bne	a2,t0,80000250 <inst16_s>

000000008000024a <inst32_s>:
    8000024a:	0591                	add	a1,a1,4
    8000024c:	00000363          	beqz	zero,80000252 <inst16_s+0x2>

0000000080000250 <inst16_s>:
    80000250:	0589                	add	a1,a1,2
    80000252:	14159073          	csrw	sepc,a1
    80000256:	60a2                	ld	ra,8(sp)
    80000258:	61e2                	ld	gp,24(sp)
    8000025a:	7202                	ld	tp,32(sp)
    8000025c:	72a2                	ld	t0,40(sp)
    8000025e:	7342                	ld	t1,48(sp)
    80000260:	73e2                	ld	t2,56(sp)
    80000262:	6406                	ld	s0,64(sp)
    80000264:	64a6                	ld	s1,72(sp)
    80000266:	6546                	ld	a0,80(sp)
    80000268:	65e6                	ld	a1,88(sp)
    8000026a:	7606                	ld	a2,96(sp)
    8000026c:	76a6                	ld	a3,104(sp)
    8000026e:	7746                	ld	a4,112(sp)
    80000270:	77e6                	ld	a5,120(sp)
    80000272:	680a                	ld	a6,128(sp)
    80000274:	68aa                	ld	a7,136(sp)
    80000276:	694a                	ld	s2,144(sp)
    80000278:	69ea                	ld	s3,152(sp)
    8000027a:	7a0a                	ld	s4,160(sp)
    8000027c:	7aaa                	ld	s5,168(sp)
    8000027e:	7b4a                	ld	s6,176(sp)
    80000280:	7bea                	ld	s7,184(sp)
    80000282:	6c0e                	ld	s8,192(sp)
    80000284:	6cae                	ld	s9,200(sp)
    80000286:	6d4e                	ld	s10,208(sp)
    80000288:	6dee                	ld	s11,216(sp)
    8000028a:	7e0e                	ld	t3,224(sp)
    8000028c:	7eae                	ld	t4,232(sp)
    8000028e:	7f4e                	ld	t5,240(sp)
    80000290:	7fee                	ld	t6,248(sp)
    80000292:	6131                	add	sp,sp,320
    80000294:	10200073          	sret

0000000080000298 <custom_trap_handler>:
    80000298:	7129                	add	sp,sp,-320
    8000029a:	e406                	sd	ra,8(sp)
    8000029c:	ec0e                	sd	gp,24(sp)
    8000029e:	f012                	sd	tp,32(sp)
    800002a0:	f416                	sd	t0,40(sp)
    800002a2:	f81a                	sd	t1,48(sp)
    800002a4:	fc1e                	sd	t2,56(sp)
    800002a6:	e0a2                	sd	s0,64(sp)
    800002a8:	e4a6                	sd	s1,72(sp)
    800002aa:	e8aa                	sd	a0,80(sp)
    800002ac:	ecae                	sd	a1,88(sp)
    800002ae:	f0b2                	sd	a2,96(sp)
    800002b0:	f4b6                	sd	a3,104(sp)
    800002b2:	f8ba                	sd	a4,112(sp)
    800002b4:	fcbe                	sd	a5,120(sp)
    800002b6:	e142                	sd	a6,128(sp)
    800002b8:	e546                	sd	a7,136(sp)
    800002ba:	e94a                	sd	s2,144(sp)
    800002bc:	ed4e                	sd	s3,152(sp)
    800002be:	f152                	sd	s4,160(sp)
    800002c0:	f556                	sd	s5,168(sp)
    800002c2:	f95a                	sd	s6,176(sp)
    800002c4:	fd5e                	sd	s7,184(sp)
    800002c6:	e1e2                	sd	s8,192(sp)
    800002c8:	e5e6                	sd	s9,200(sp)
    800002ca:	e9ea                	sd	s10,208(sp)
    800002cc:	edee                	sd	s11,216(sp)
    800002ce:	f1f2                	sd	t3,224(sp)
    800002d0:	f5f6                	sd	t4,232(sp)
    800002d2:	f9fa                	sd	t5,240(sp)
    800002d4:	fdfe                	sd	t6,248(sp)
    800002d6:	30002573          	csrr	a0,mstatus
    800002da:	34102573          	csrr	a0,mepc
    800002de:	30502573          	csrr	a0,mtvec
    800002e2:	34202573          	csrr	a0,mcause
    800002e6:	4601                	li	a2,0
    800002e8:	00c50763          	beq	a0,a2,800002f6 <custom_trap_handler+0x5e>
    800002ec:	4605                	li	a2,1
    800002ee:	00c50463          	beq	a0,a2,800002f6 <custom_trap_handler+0x5e>
    800002f2:	341025f3          	csrr	a1,mepc
    800002f6:	00059603          	lh	a2,0(a1)
    800002fa:	8a0d                	and	a2,a2,3
    800002fc:	428d                	li	t0,3
    800002fe:	00561563          	bne	a2,t0,80000308 <inst16>

0000000080000302 <inst32>:
    80000302:	0591                	add	a1,a1,4
    80000304:	00000363          	beqz	zero,8000030a <inst16+0x2>

0000000080000308 <inst16>:
    80000308:	0589                	add	a1,a1,2
    8000030a:	34159073          	csrw	mepc,a1
    8000030e:	60a2                	ld	ra,8(sp)
    80000310:	61e2                	ld	gp,24(sp)
    80000312:	7202                	ld	tp,32(sp)
    80000314:	72a2                	ld	t0,40(sp)
    80000316:	7342                	ld	t1,48(sp)
    80000318:	73e2                	ld	t2,56(sp)
    8000031a:	6406                	ld	s0,64(sp)
    8000031c:	64a6                	ld	s1,72(sp)
    8000031e:	6546                	ld	a0,80(sp)
    80000320:	65e6                	ld	a1,88(sp)
    80000322:	7606                	ld	a2,96(sp)
    80000324:	76a6                	ld	a3,104(sp)
    80000326:	7746                	ld	a4,112(sp)
    80000328:	77e6                	ld	a5,120(sp)
    8000032a:	680a                	ld	a6,128(sp)
    8000032c:	68aa                	ld	a7,136(sp)
    8000032e:	694a                	ld	s2,144(sp)
    80000330:	69ea                	ld	s3,152(sp)
    80000332:	7a0a                	ld	s4,160(sp)
    80000334:	7aaa                	ld	s5,168(sp)
    80000336:	7b4a                	ld	s6,176(sp)
    80000338:	7bea                	ld	s7,184(sp)
    8000033a:	6c0e                	ld	s8,192(sp)
    8000033c:	6cae                	ld	s9,200(sp)
    8000033e:	6d4e                	ld	s10,208(sp)
    80000340:	6dee                	ld	s11,216(sp)
    80000342:	7e0e                	ld	t3,224(sp)
    80000344:	7eae                	ld	t4,232(sp)
    80000346:	7f4e                	ld	t5,240(sp)
    80000348:	7fee                	ld	t6,248(sp)
    8000034a:	6131                	add	sp,sp,320
    8000034c:	30200073          	mret

0000000080000350 <func1>:
    80000350:	7135                	add	sp,sp,-160
    80000352:	f416                	sd	t0,40(sp)
    80000354:	f81a                	sd	t1,48(sp)
    80000356:	fc1e                	sd	t2,56(sp)
    80000358:	e4a6                	sd	s1,72(sp)
    8000035a:	e94a                	sd	s2,144(sp)
    8000035c:	ed4e                	sd	s3,152(sp)
    8000035e:	fdfe                	sd	t6,248(sp)
    80000360:	ecae                	sd	a1,88(sp)
    80000362:	f556                	sd	s5,168(sp)
    80000364:	63ad                	lui	t2,0xb
    80000366:	bee3839b          	addw	t2,t2,-1042 # abee <_tbss_end+0xabee>
    8000036a:	01038493          	add	s1,t2,16
    8000036e:	01048913          	add	s2,s1,16
    80000372:	01090993          	add	s3,s2,16
    80000376:	000e0297          	auipc	t0,0xe0
    8000037a:	c8a28293          	add	t0,t0,-886 # 800e0000 <begin_signature>
    8000037e:	7ff28313          	add	t1,t0,2047
    80000382:	0305                	add	t1,t1,1
    80000384:	4f81                	li	t6,0
    80000386:	45a1                	li	a1,8
    80000388:	7ff00a93          	li	s5,2047
    8000038c:	0a85                	add	s5,s5,1
    8000038e:	0a86                	sll	s5,s5,0x1

0000000080000390 <loop_page>:
    80000390:	00729023          	sh	t2,0(t0)
    80000394:	00929823          	sh	s1,16(t0)
    80000398:	03229823          	sh	s2,48(t0)
    8000039c:	04729023          	sh	t2,64(t0)
    800003a0:	04929823          	sh	s1,80(t0)
    800003a4:	07229823          	sh	s2,112(t0)
    800003a8:	08729023          	sh	t2,128(t0)
    800003ac:	08929823          	sh	s1,144(t0)
    800003b0:	0b229823          	sh	s2,176(t0)
    800003b4:	0c729023          	sh	t2,192(t0)
    800003b8:	0c929823          	sh	s1,208(t0)
    800003bc:	0f229823          	sh	s2,240(t0)
    800003c0:	10729023          	sh	t2,256(t0)
    800003c4:	10929823          	sh	s1,272(t0)
    800003c8:	13229823          	sh	s2,304(t0)
    800003cc:	14729023          	sh	t2,320(t0)
    800003d0:	14929823          	sh	s1,336(t0)
    800003d4:	17229823          	sh	s2,368(t0)
    800003d8:	18729023          	sh	t2,384(t0)
    800003dc:	18929823          	sh	s1,400(t0)
    800003e0:	1b229823          	sh	s2,432(t0)
    800003e4:	1c729023          	sh	t2,448(t0)
    800003e8:	1c929823          	sh	s1,464(t0)
    800003ec:	1f229823          	sh	s2,496(t0)
    800003f0:	20729023          	sh	t2,512(t0)
    800003f4:	20929823          	sh	s1,528(t0)
    800003f8:	23229823          	sh	s2,560(t0)
    800003fc:	24729023          	sh	t2,576(t0)
    80000400:	24929823          	sh	s1,592(t0)
    80000404:	27229823          	sh	s2,624(t0)
    80000408:	28729023          	sh	t2,640(t0)
    8000040c:	28929823          	sh	s1,656(t0)
    80000410:	2b229823          	sh	s2,688(t0)
    80000414:	2c729023          	sh	t2,704(t0)
    80000418:	2c929823          	sh	s1,720(t0)
    8000041c:	2f229823          	sh	s2,752(t0)
    80000420:	30729023          	sh	t2,768(t0)
    80000424:	30929823          	sh	s1,784(t0)
    80000428:	33229823          	sh	s2,816(t0)
    8000042c:	34729023          	sh	t2,832(t0)
    80000430:	34929823          	sh	s1,848(t0)
    80000434:	37229823          	sh	s2,880(t0)
    80000438:	38729023          	sh	t2,896(t0)
    8000043c:	38929823          	sh	s1,912(t0)
    80000440:	3b229823          	sh	s2,944(t0)
    80000444:	3c729023          	sh	t2,960(t0)
    80000448:	3c929823          	sh	s1,976(t0)
    8000044c:	3f229823          	sh	s2,1008(t0)
    80000450:	40729023          	sh	t2,1024(t0)
    80000454:	40929823          	sh	s1,1040(t0)
    80000458:	43229823          	sh	s2,1072(t0)
    8000045c:	44729023          	sh	t2,1088(t0)
    80000460:	44929823          	sh	s1,1104(t0)
    80000464:	47229823          	sh	s2,1136(t0)
    80000468:	48729023          	sh	t2,1152(t0)
    8000046c:	48929823          	sh	s1,1168(t0)
    80000470:	4b229823          	sh	s2,1200(t0)
    80000474:	4c729023          	sh	t2,1216(t0)
    80000478:	4c929823          	sh	s1,1232(t0)
    8000047c:	4f229823          	sh	s2,1264(t0)
    80000480:	50729023          	sh	t2,1280(t0)
    80000484:	50929823          	sh	s1,1296(t0)
    80000488:	53229823          	sh	s2,1328(t0)
    8000048c:	54729023          	sh	t2,1344(t0)
    80000490:	54929823          	sh	s1,1360(t0)
    80000494:	57229823          	sh	s2,1392(t0)
    80000498:	58729023          	sh	t2,1408(t0)
    8000049c:	58929823          	sh	s1,1424(t0)
    800004a0:	5b229823          	sh	s2,1456(t0)
    800004a4:	5c729023          	sh	t2,1472(t0)
    800004a8:	5c929823          	sh	s1,1488(t0)
    800004ac:	5f229823          	sh	s2,1520(t0)
    800004b0:	60729023          	sh	t2,1536(t0)
    800004b4:	60929823          	sh	s1,1552(t0)
    800004b8:	63229823          	sh	s2,1584(t0)
    800004bc:	64729023          	sh	t2,1600(t0)
    800004c0:	64929823          	sh	s1,1616(t0)
    800004c4:	67229823          	sh	s2,1648(t0)
    800004c8:	68729023          	sh	t2,1664(t0)
    800004cc:	68929823          	sh	s1,1680(t0)
    800004d0:	6b229823          	sh	s2,1712(t0)
    800004d4:	6c729023          	sh	t2,1728(t0)
    800004d8:	6c929823          	sh	s1,1744(t0)
    800004dc:	6f229823          	sh	s2,1776(t0)
    800004e0:	70729023          	sh	t2,1792(t0)
    800004e4:	70929823          	sh	s1,1808(t0)
    800004e8:	73229823          	sh	s2,1840(t0)
    800004ec:	74729023          	sh	t2,1856(t0)
    800004f0:	74929823          	sh	s1,1872(t0)
    800004f4:	77229823          	sh	s2,1904(t0)
    800004f8:	78729023          	sh	t2,1920(t0)
    800004fc:	78929823          	sh	s1,1936(t0)
    80000500:	7b229823          	sh	s2,1968(t0)
    80000504:	7c729023          	sh	t2,1984(t0)
    80000508:	7c929823          	sh	s1,2000(t0)
    8000050c:	7f229823          	sh	s2,2032(t0)
    80000510:	00731023          	sh	t2,0(t1)
    80000514:	00931823          	sh	s1,16(t1)
    80000518:	03231823          	sh	s2,48(t1)
    8000051c:	04731023          	sh	t2,64(t1)
    80000520:	04931823          	sh	s1,80(t1)
    80000524:	07231823          	sh	s2,112(t1)
    80000528:	08731023          	sh	t2,128(t1)
    8000052c:	08931823          	sh	s1,144(t1)
    80000530:	0b231823          	sh	s2,176(t1)
    80000534:	0c731023          	sh	t2,192(t1)
    80000538:	0c931823          	sh	s1,208(t1)
    8000053c:	0f231823          	sh	s2,240(t1)
    80000540:	10731023          	sh	t2,256(t1)
    80000544:	10931823          	sh	s1,272(t1)
    80000548:	13231823          	sh	s2,304(t1)
    8000054c:	14731023          	sh	t2,320(t1)
    80000550:	14931823          	sh	s1,336(t1)
    80000554:	17231823          	sh	s2,368(t1)
    80000558:	18731023          	sh	t2,384(t1)
    8000055c:	18931823          	sh	s1,400(t1)
    80000560:	1b231823          	sh	s2,432(t1)
    80000564:	1c731023          	sh	t2,448(t1)
    80000568:	1c931823          	sh	s1,464(t1)
    8000056c:	1f231823          	sh	s2,496(t1)
    80000570:	20731023          	sh	t2,512(t1)
    80000574:	20931823          	sh	s1,528(t1)
    80000578:	23231823          	sh	s2,560(t1)
    8000057c:	24731023          	sh	t2,576(t1)
    80000580:	24931823          	sh	s1,592(t1)
    80000584:	27231823          	sh	s2,624(t1)
    80000588:	28731023          	sh	t2,640(t1)
    8000058c:	28931823          	sh	s1,656(t1)
    80000590:	2b231823          	sh	s2,688(t1)
    80000594:	2c731023          	sh	t2,704(t1)
    80000598:	2c931823          	sh	s1,720(t1)
    8000059c:	2f231823          	sh	s2,752(t1)
    800005a0:	30731023          	sh	t2,768(t1)
    800005a4:	30931823          	sh	s1,784(t1)
    800005a8:	33231823          	sh	s2,816(t1)
    800005ac:	34731023          	sh	t2,832(t1)
    800005b0:	34931823          	sh	s1,848(t1)
    800005b4:	37231823          	sh	s2,880(t1)
    800005b8:	38731023          	sh	t2,896(t1)
    800005bc:	38931823          	sh	s1,912(t1)
    800005c0:	3b231823          	sh	s2,944(t1)
    800005c4:	3c731023          	sh	t2,960(t1)
    800005c8:	3c931823          	sh	s1,976(t1)
    800005cc:	3f231823          	sh	s2,1008(t1)
    800005d0:	40731023          	sh	t2,1024(t1)
    800005d4:	40931823          	sh	s1,1040(t1)
    800005d8:	43231823          	sh	s2,1072(t1)
    800005dc:	44731023          	sh	t2,1088(t1)
    800005e0:	44931823          	sh	s1,1104(t1)
    800005e4:	47231823          	sh	s2,1136(t1)
    800005e8:	48731023          	sh	t2,1152(t1)
    800005ec:	48931823          	sh	s1,1168(t1)
    800005f0:	4b231823          	sh	s2,1200(t1)
    800005f4:	4c731023          	sh	t2,1216(t1)
    800005f8:	4c931823          	sh	s1,1232(t1)
    800005fc:	4f231823          	sh	s2,1264(t1)
    80000600:	50731023          	sh	t2,1280(t1)
    80000604:	50931823          	sh	s1,1296(t1)
    80000608:	53231823          	sh	s2,1328(t1)
    8000060c:	54731023          	sh	t2,1344(t1)
    80000610:	54931823          	sh	s1,1360(t1)
    80000614:	57231823          	sh	s2,1392(t1)
    80000618:	58731023          	sh	t2,1408(t1)
    8000061c:	58931823          	sh	s1,1424(t1)
    80000620:	5b231823          	sh	s2,1456(t1)
    80000624:	5c731023          	sh	t2,1472(t1)
    80000628:	5c931823          	sh	s1,1488(t1)
    8000062c:	5f231823          	sh	s2,1520(t1)
    80000630:	60731023          	sh	t2,1536(t1)
    80000634:	60931823          	sh	s1,1552(t1)
    80000638:	63231823          	sh	s2,1584(t1)
    8000063c:	64731023          	sh	t2,1600(t1)
    80000640:	64931823          	sh	s1,1616(t1)
    80000644:	67231823          	sh	s2,1648(t1)
    80000648:	68731023          	sh	t2,1664(t1)
    8000064c:	68931823          	sh	s1,1680(t1)
    80000650:	6b231823          	sh	s2,1712(t1)
    80000654:	6c731023          	sh	t2,1728(t1)
    80000658:	6c931823          	sh	s1,1744(t1)
    8000065c:	6f231823          	sh	s2,1776(t1)
    80000660:	70731023          	sh	t2,1792(t1)
    80000664:	70931823          	sh	s1,1808(t1)
    80000668:	73231823          	sh	s2,1840(t1)
    8000066c:	74731023          	sh	t2,1856(t1)
    80000670:	74931823          	sh	s1,1872(t1)
    80000674:	77231823          	sh	s2,1904(t1)
    80000678:	78731023          	sh	t2,1920(t1)
    8000067c:	78931823          	sh	s1,1936(t1)
    80000680:	7b231823          	sh	s2,1968(t1)
    80000684:	7c731023          	sh	t2,1984(t1)
    80000688:	7c931823          	sh	s1,2000(t1)
    8000068c:	7f231823          	sh	s2,2032(t1)
    80000690:	92d6                	add	t0,t0,s5
    80000692:	9356                	add	t1,t1,s5
    80000694:	0f85                	add	t6,t6,1
    80000696:	cebf9de3          	bne	t6,a1,80000390 <loop_page>
    8000069a:	4f81                	li	t6,0
    8000069c:	45c1                	li	a1,16

000000008000069e <loop_page2>:
    8000069e:	0002b383          	ld	t2,0(t0)
    800006a2:	0402b383          	ld	t2,64(t0)
    800006a6:	0802b383          	ld	t2,128(t0)
    800006aa:	0c02b383          	ld	t2,192(t0)
    800006ae:	1002b383          	ld	t2,256(t0)
    800006b2:	1402b383          	ld	t2,320(t0)
    800006b6:	1802b383          	ld	t2,384(t0)
    800006ba:	1c02b383          	ld	t2,448(t0)
    800006be:	2002b383          	ld	t2,512(t0)
    800006c2:	2402b383          	ld	t2,576(t0)
    800006c6:	2802b383          	ld	t2,640(t0)
    800006ca:	2c02b383          	ld	t2,704(t0)
    800006ce:	3002b383          	ld	t2,768(t0)
    800006d2:	3402b383          	ld	t2,832(t0)
    800006d6:	3802b383          	ld	t2,896(t0)
    800006da:	3c02b383          	ld	t2,960(t0)
    800006de:	4002b383          	ld	t2,1024(t0)
    800006e2:	4402b383          	ld	t2,1088(t0)
    800006e6:	4802b383          	ld	t2,1152(t0)
    800006ea:	4c02b383          	ld	t2,1216(t0)
    800006ee:	5002b383          	ld	t2,1280(t0)
    800006f2:	5402b383          	ld	t2,1344(t0)
    800006f6:	5802b383          	ld	t2,1408(t0)
    800006fa:	5c02b383          	ld	t2,1472(t0)
    800006fe:	6002b383          	ld	t2,1536(t0)
    80000702:	6402b383          	ld	t2,1600(t0)
    80000706:	6802b383          	ld	t2,1664(t0)
    8000070a:	6c02b383          	ld	t2,1728(t0)
    8000070e:	7002b383          	ld	t2,1792(t0)
    80000712:	7402b383          	ld	t2,1856(t0)
    80000716:	7802b383          	ld	t2,1920(t0)
    8000071a:	7c02b383          	ld	t2,1984(t0)
    8000071e:	00033383          	ld	t2,0(t1)
    80000722:	04033383          	ld	t2,64(t1)
    80000726:	08033383          	ld	t2,128(t1)
    8000072a:	0c033383          	ld	t2,192(t1)
    8000072e:	10033383          	ld	t2,256(t1)
    80000732:	14033383          	ld	t2,320(t1)
    80000736:	18033383          	ld	t2,384(t1)
    8000073a:	1c033383          	ld	t2,448(t1)
    8000073e:	20033383          	ld	t2,512(t1)
    80000742:	24033383          	ld	t2,576(t1)
    80000746:	28033383          	ld	t2,640(t1)
    8000074a:	2c033383          	ld	t2,704(t1)
    8000074e:	30033383          	ld	t2,768(t1)
    80000752:	34033383          	ld	t2,832(t1)
    80000756:	38033383          	ld	t2,896(t1)
    8000075a:	3c033383          	ld	t2,960(t1)
    8000075e:	40033383          	ld	t2,1024(t1)
    80000762:	44033383          	ld	t2,1088(t1)
    80000766:	48033383          	ld	t2,1152(t1)
    8000076a:	4c033383          	ld	t2,1216(t1)
    8000076e:	50033383          	ld	t2,1280(t1)
    80000772:	54033383          	ld	t2,1344(t1)
    80000776:	58033383          	ld	t2,1408(t1)
    8000077a:	5c033383          	ld	t2,1472(t1)
    8000077e:	60033383          	ld	t2,1536(t1)
    80000782:	64033383          	ld	t2,1600(t1)
    80000786:	68033383          	ld	t2,1664(t1)
    8000078a:	6c033383          	ld	t2,1728(t1)
    8000078e:	70033383          	ld	t2,1792(t1)
    80000792:	74033383          	ld	t2,1856(t1)
    80000796:	78033383          	ld	t2,1920(t1)
    8000079a:	7c033383          	ld	t2,1984(t1)
    8000079e:	92d6                	add	t0,t0,s5
    800007a0:	9356                	add	t1,t1,s5
    800007a2:	0f85                	add	t6,t6,1
    800007a4:	eebf9de3          	bne	t6,a1,8000069e <loop_page2>
    800007a8:	72a2                	ld	t0,40(sp)
    800007aa:	7342                	ld	t1,48(sp)
    800007ac:	73e2                	ld	t2,56(sp)
    800007ae:	64a6                	ld	s1,72(sp)
    800007b0:	694a                	ld	s2,144(sp)
    800007b2:	69ea                	ld	s3,152(sp)
    800007b4:	7fee                	ld	t6,248(sp)
    800007b6:	65e6                	ld	a1,88(sp)
    800007b8:	7aaa                	ld	s5,168(sp)
    800007ba:	610d                	add	sp,sp,160
    800007bc:	8082                	ret
    800007be:	0001                	nop

00000000800007c0 <main>:
    800007c0:	00000033          	add	zero,zero,zero
    800007c4:	000e0117          	auipc	sp,0xe0
    800007c8:	83c10113          	add	sp,sp,-1988 # 800e0000 <begin_signature>
    800007cc:	632d                	lui	t1,0xb
    800007ce:	7483031b          	addw	t1,t1,1864 # b748 <_tbss_end+0xb748>
    800007d2:	911a                	add	sp,sp,t1

00000000800007d4 <i0000000000>:
    800007d4:	4e29                	li	t3,10

00000000800007d6 <i0000000001>:
    800007d6:	b7bff0ef          	jal	80000350 <func1>

00000000800007da <i0000000002>:
    800007da:	b77ff0ef          	jal	80000350 <func1>

00000000800007de <i0000000003>:
    800007de:	1b78                	add	a4,sp,444

00000000800007e0 <i0000000004>:
    800007e0:	b71ff0ef          	jal	80000350 <func1>

00000000800007e4 <i0000000005>:
    800007e4:	b6dff0ef          	jal	80000350 <func1>

00000000800007e8 <i0000000006>:
    800007e8:	b69ff0ef          	jal	80000350 <func1>

00000000800007ec <i0000000007>:
    800007ec:	e83e                	sd	a5,16(sp)
    800007ee:	000e0117          	auipc	sp,0xe0
    800007f2:	81210113          	add	sp,sp,-2030 # 800e0000 <begin_signature>
    800007f6:	6331                	lui	t1,0xc
    800007f8:	2583031b          	addw	t1,t1,600 # c258 <_tbss_end+0xc258>
    800007fc:	911a                	add	sp,sp,t1

00000000800007fe <i0000000008>:
    800007fe:	7722                	ld	a4,40(sp)

0000000080000800 <i0000000009>:
    80000800:	b51ff0ef          	jal	80000350 <func1>

0000000080000804 <i000000000a>:
    80000804:	e1012aaf          	amomaxu.w	s5,a6,(sp)

0000000080000808 <i000000000b>:
    80000808:	d008c3d3          	fcvt.s.w	ft7,a7,rmm

000000008000080c <i000000000c>:
    8000080c:	b45ff0ef          	jal	80000350 <func1>

0000000080000810 <i000000000d>:
    80000810:	b41ff0ef          	jal	80000350 <func1>

0000000080000814 <i000000000e>:
    80000814:	206128af          	amoxor.w	a7,t1,(sp)

0000000080000818 <i000000000f>:
    80000818:	c0218353          	fcvt.l.s	t1,ft3,rne

000000008000081c <i0000000010>:
    8000081c:	1a3c                	add	a5,sp,312

000000008000081e <i0000000011>:
    8000081e:	85816303          	lwu	t1,-1960(sp)
    80000822:	000df117          	auipc	sp,0xdf
    80000826:	7de10113          	add	sp,sp,2014 # 800e0000 <begin_signature>
    8000082a:	633d                	lui	t1,0xf
    8000082c:	8303031b          	addw	t1,t1,-2000 # e830 <_tbss_end+0xe830>
    80000830:	911a                	add	sp,sp,t1

0000000080000832 <i0000000012>:
    80000832:	80613c23          	sd	t1,-2024(sp)

0000000080000836 <i0000000013>:
    80000836:	b1bff0ef          	jal	80000350 <func1>

000000008000083a <i0000000014>:
    8000083a:	4087d31b          	sraw	t1,a5,0x8

000000008000083e <i0000000015>:
    8000083e:	b13ff0ef          	jal	80000350 <func1>

0000000080000842 <i0000000016>:
    80000842:	b0fff0ef          	jal	80000350 <func1>

0000000080000846 <i0000000017>:
    80000846:	b0bff0ef          	jal	80000350 <func1>

000000008000084a <i0000000018>:
    8000084a:	b07ff0ef          	jal	80000350 <func1>

000000008000084e <i0000000019>:
    8000084e:	b03ff0ef          	jal	80000350 <func1>

0000000080000852 <i000000001a>:
    80000852:	02679333          	mulh	t1,a5,t1

0000000080000856 <i000000001b>:
    80000856:	afbff0ef          	jal	80000350 <func1>

000000008000085a <i000000001c>:
    8000085a:	1782                	sll	a5,a5,0x20

000000008000085c <i000000001d>:
    8000085c:	af5ff0ef          	jal	80000350 <func1>

0000000080000860 <i000000001e>:
    80000860:	20e1232f          	amoxor.w	t1,a4,(sp)

0000000080000864 <i000000001f>:
    80000864:	aedff0ef          	jal	80000350 <func1>

0000000080000868 <i0000000020>:
    80000868:	8f39                	xor	a4,a4,a4

000000008000086a <i0000000021>:
    8000086a:	ae7ff0ef          	jal	80000350 <func1>

000000008000086e <i0000000022>:
    8000086e:	ae3ff0ef          	jal	80000350 <func1>

0000000080000872 <i0000000023>:
    80000872:	c2177753          	fcvt.wu.d	a4,fa4

0000000080000876 <i0000000024>:
    80000876:	adbff0ef          	jal	80000350 <func1>

000000008000087a <i0000000025>:
    8000087a:	ad7ff0ef          	jal	80000350 <func1>

000000008000087e <i0000000026>:
    8000087e:	420f0f53          	fcvt.d.s	ft10,ft10

0000000080000882 <i0000000027>:
    80000882:	acfff0ef          	jal	80000350 <func1>

0000000080000886 <i0000000028>:
    80000886:	41835713          	sra	a4,t1,0x18

000000008000088a <i0000000029>:
    8000088a:	0ff0000f          	fence

000000008000088e <i000000002a>:
    8000088e:	e217071b          	addw	a4,a4,-479

0000000080000892 <i000000002b>:
    80000892:	abfff0ef          	jal	80000350 <func1>

0000000080000896 <i000000002c>:
    80000896:	02f327b3          	mulhsu	a5,t1,a5

000000008000089a <i000000002d>:
    8000089a:	ab7ff0ef          	jal	80000350 <func1>

000000008000089e <i000000002e>:
    8000089e:	dd811303          	lh	t1,-552(sp)

00000000800008a2 <i000000002f>:
    800008a2:	aafff0ef          	jal	80000350 <func1>

00000000800008a6 <i0000000030>:
    800008a6:	aabff0ef          	jal	80000350 <func1>

00000000800008aa <i0000000031>:
    800008aa:	aa7ff0ef          	jal	80000350 <func1>

00000000800008ae <i0000000032>:
    800008ae:	0358                	add	a4,sp,388

00000000800008b0 <i0000000033>:
    800008b0:	aa1ff0ef          	jal	80000350 <func1>
    800008b4:	000df117          	auipc	sp,0xdf
    800008b8:	74c10113          	add	sp,sp,1868 # 800e0000 <begin_signature>
    800008bc:	632d                	lui	t1,0xb
    800008be:	ca03031b          	addw	t1,t1,-864 # aca0 <_tbss_end+0xaca0>
    800008c2:	911a                	add	sp,sp,t1
    800008c4:	4058d89b          	sraw	a7,a7,0x5
    800008c8:	f43a                	sd	a4,40(sp)
    800008ca:	1098                	add	a4,sp,96
    800008cc:	6129                	add	sp,sp,192
    800008ce:	e11138af          	amomaxu.d	a7,a7,(sp)
    800008d2:	9f1d                	subw	a4,a4,a5
    800008d4:	98d14883          	lbu	a7,-1651(sp)

00000000800008d8 <b0000000034>:
    800008d8:	00000917          	auipc	s2,0x0
    800008dc:	05a90913          	add	s2,s2,90 # 80000932 <i000000003f>
    800008e0:	00090567          	jalr	a0,s2
    800008e4:	02f8a7b3          	mulhsu	a5,a7,a5
    800008e8:	5772                	lw	a4,60(sp)
    800008ea:	bc9a                	fsd	ft6,120(sp)
    800008ec:	03179733          	mulh	a4,a5,a7
    800008f0:	1123bf4b          	fnmsub.s	ft10,ft7,fs2,ft2,rup
    800008f4:	0ff0000f          	fence
    800008f8:	15016703          	lwu	a4,336(sp)

00000000800008fc <i0000000034>:
    800008fc:	edc15783          	lhu	a5,-292(sp)

0000000080000900 <i0000000035>:
    80000900:	8f39                	xor	a4,a4,a4

0000000080000902 <i0000000036>:
    80000902:	a4fff0ef          	jal	80000350 <func1>

0000000080000906 <i0000000037>:
    80000906:	19fc                	add	a5,sp,252

0000000080000908 <i0000000038>:
    80000908:	24910303          	lb	t1,585(sp)
    8000090c:	000df117          	auipc	sp,0xdf
    80000910:	6f410113          	add	sp,sp,1780 # 800e0000 <begin_signature>
    80000914:	6339                	lui	t1,0xe
    80000916:	3c83031b          	addw	t1,t1,968 # e3c8 <_tbss_end+0xe3c8>
    8000091a:	911a                	add	sp,sp,t1

000000008000091c <i0000000039>:
    8000091c:	e9be                	sd	a5,208(sp)

000000008000091e <i000000003a>:
    8000091e:	0ff0000f          	fence

0000000080000922 <i000000003b>:
    80000922:	0061332f          	amoadd.d	t1,t1,(sp)

0000000080000926 <i000000003c>:
    80000926:	02f3433b          	divw	t1,t1,a5

000000008000092a <i000000003d>:
    8000092a:	c0237353          	fcvt.l.s	t1,ft6

000000008000092e <i000000003e>:
    8000092e:	a23ff0ef          	jal	80000350 <func1>

0000000080000932 <i000000003f>:
    80000932:	a1fff0ef          	jal	80000350 <func1>

0000000080000936 <i0000000040>:
    80000936:	a8e11523          	sh	a4,-1398(sp)

000000008000093a <i0000000041>:
    8000093a:	a17ff0ef          	jal	80000350 <func1>

000000008000093e <i0000000042>:
    8000093e:	a13ff0ef          	jal	80000350 <func1>

0000000080000942 <i0000000043>:
    80000942:	a0fff0ef          	jal	80000350 <func1>

0000000080000946 <i0000000044>:
    80000946:	c22377d3          	fcvt.l.d	a5,ft6

000000008000094a <i0000000045>:
    8000094a:	de3e                	sw	a5,60(sp)

000000008000094c <i0000000046>:
    8000094c:	00e3573b          	srlw	a4,t1,a4

0000000080000950 <i0000000047>:
    80000950:	a375a353          	feq.d	t1,fa1,fs7

0000000080000954 <i0000000048>:
    80000954:	0023d073          	fsrmi	zero,7

0000000080000958 <i0000000049>:
    80000958:	7782                	ld	a5,32(sp)

000000008000095a <i000000004a>:
    8000095a:	8f1d                	sub	a4,a4,a5

000000008000095c <i000000004b>:
    8000095c:	8aa8f1c7          	fmsub.d	ft3,fa7,fa0,fa7

0000000080000960 <i000000004c>:
    80000960:	18b8                	add	a4,sp,120

0000000080000962 <i000000004d>:
    80000962:	9efff0ef          	jal	80000350 <func1>

0000000080000966 <i000000004e>:
    80000966:	87c9                	sra	a5,a5,0x12

0000000080000968 <i000000004f>:
    80000968:	9e9ff0ef          	jal	80000350 <func1>

000000008000096c <i0000000050>:
    8000096c:	3715                	addw	a4,a4,-27

000000008000096e <i0000000051>:
    8000096e:	9e3ff0ef          	jal	80000350 <func1>

0000000080000972 <i0000000052>:
    80000972:	87bd                	sra	a5,a5,0xf

0000000080000974 <i0000000053>:
    80000974:	9ddff0ef          	jal	80000350 <func1>

0000000080000978 <i0000000054>:
    80000978:	0ff0000f          	fence

000000008000097c <i0000000055>:
    8000097c:	9d5ff0ef          	jal	80000350 <func1>

0000000080000980 <i0000000056>:
    80000980:	9bcd                	and	a5,a5,-13
    80000982:	4aa5                	li	s5,9
    80000984:	e8c6                	sd	a7,80(sp)
    80000986:	d237f753          	fcvt.d.lu	fa4,a5
    8000098a:	acba                	fsd	fa4,88(sp)
    8000098c:	d238f753          	fcvt.d.lu	fa4,a7
    80000990:	02f7a733          	mulhsu	a4,a5,a5
    80000994:	c22f78d3          	fcvt.l.d	a7,ft10
    80000998:	3746                	fld	fa4,112(sp)

000000008000099a <b0000000057>:
    8000099a:	00000033          	add	zero,zero,zero
    8000099e:	fbcadde3          	bge	s5,t3,80000958 <i0000000049>
    800009a2:	00000033          	add	zero,zero,zero
    800009a6:	c03f37d3          	fcvt.lu.s	a5,ft10,rup
    800009aa:	02f7c7b3          	div	a5,a5,a5
    800009ae:	42018f53          	fcvt.d.s	ft10,ft3
    800009b2:	a0e1372f          	amomax.d	a4,a4,(sp)
    800009b6:	68b1                	lui	a7,0xc
    800009b8:	c02f17d3          	fcvt.l.s	a5,ft10,rtz
    800009bc:	02f7c7bb          	divw	a5,a5,a5
    800009c0:	4e29                	li	t3,10

00000000800009c2 <i0000000057>:
    800009c2:	f43e                	sd	a5,40(sp)
    800009c4:	000df117          	auipc	sp,0xdf
    800009c8:	63c10113          	add	sp,sp,1596 # 800e0000 <begin_signature>
    800009cc:	6335                	lui	t1,0xd
    800009ce:	9583031b          	addw	t1,t1,-1704 # c958 <_tbss_end+0xc958>
    800009d2:	911a                	add	sp,sp,t1

00000000800009d4 <i0000000058>:
    800009d4:	16812187          	flw	ft3,360(sp)

00000000800009d8 <i0000000059>:
    800009d8:	979ff0ef          	jal	80000350 <func1>

00000000800009dc <i000000005a>:
    800009dc:	8361                	srl	a4,a4,0x18

00000000800009de <i000000005b>:
    800009de:	026767bb          	remw	a5,a4,t1

00000000800009e2 <i000000005c>:
    800009e2:	00a79713          	sll	a4,a5,0xa
    800009e6:	000df117          	auipc	sp,0xdf
    800009ea:	61a10113          	add	sp,sp,1562 # 800e0000 <begin_signature>
    800009ee:	6331                	lui	t1,0xc
    800009f0:	1683031b          	addw	t1,t1,360 # c168 <_tbss_end+0xc168>
    800009f4:	911a                	add	sp,sp,t1

00000000800009f6 <i000000005d>:
    800009f6:	c9c15703          	lhu	a4,-868(sp)

00000000800009fa <i000000005e>:
    800009fa:	d0272753          	fcvt.s.l	fa4,a4,rdn

00000000800009fe <i000000005f>:
    800009fe:	953ff0ef          	jal	80000350 <func1>

0000000080000a02 <i0000000060>:
    80000a02:	94fff0ef          	jal	80000350 <func1>

0000000080000a06 <i0000000061>:
    80000a06:	94bff0ef          	jal	80000350 <func1>

0000000080000a0a <i0000000062>:
    80000a0a:	8795                	sra	a5,a5,0x5

0000000080000a0c <i0000000063>:
    80000a0c:	72e3ff47          	fmsub.d	ft10,ft7,fa4,fa4

0000000080000a10 <i0000000064>:
    80000a10:	93b5                	srl	a5,a5,0x2d

0000000080000a12 <i0000000065>:
    80000a12:	e061332f          	amomaxu.d	t1,t1,(sp)

0000000080000a16 <i0000000066>:
    80000a16:	00f7a333          	slt	t1,a5,a5

0000000080000a1a <i0000000067>:
    80000a1a:	de016303          	lwu	t1,-544(sp)

0000000080000a1e <i0000000068>:
    80000a1e:	0267473b          	divw	a4,a4,t1

0000000080000a22 <i0000000069>:
    80000a22:	c003c7d3          	fcvt.w.s	a5,ft7,rmm

0000000080000a26 <i000000006a>:
    80000a26:	0000100f          	fence.i
    80000a2a:	000df117          	auipc	sp,0xdf
    80000a2e:	5d610113          	add	sp,sp,1494 # 800e0000 <begin_signature>
    80000a32:	6309                	lui	t1,0x2
    80000a34:	a083031b          	addw	t1,t1,-1528 # 1a08 <_tbss_end+0x1a08>
    80000a38:	911a                	add	sp,sp,t1

0000000080000a3a <i000000006b>:
    80000a3a:	4786                	lw	a5,64(sp)

0000000080000a3c <i000000006c>:
    80000a3c:	4729                	li	a4,10

0000000080000a3e <i000000006d>:
    80000a3e:	bcfa                	fsd	ft10,120(sp)
    80000a40:	000df117          	auipc	sp,0xdf
    80000a44:	5c010113          	add	sp,sp,1472 # 800e0000 <begin_signature>
    80000a48:	6305                	lui	t1,0x1
    80000a4a:	d183031b          	addw	t1,t1,-744 # d18 <_tbss_end+0xd18>
    80000a4e:	911a                	add	sp,sp,t1

0000000080000a50 <i000000006e>:
    80000a50:	3f4e                	fld	ft10,240(sp)
    80000a52:	000df117          	auipc	sp,0xdf
    80000a56:	5ae10113          	add	sp,sp,1454 # 800e0000 <begin_signature>
    80000a5a:	6305                	lui	t1,0x1
    80000a5c:	be83031b          	addw	t1,t1,-1048 # be8 <_tbss_end+0xbe8>
    80000a60:	911a                	add	sp,sp,t1

0000000080000a62 <i000000006f>:
    80000a62:	57e2                	lw	a5,56(sp)

0000000080000a64 <i0000000070>:
    80000a64:	207f1353          	fsgnjn.s	ft6,ft10,ft7

0000000080000a68 <i0000000071>:
    80000a68:	8e9ff0ef          	jal	80000350 <func1>

0000000080000a6c <i0000000072>:
    80000a6c:	026707b3          	mul	a5,a4,t1
    80000a70:	4901                	li	s2,0
    80000a72:	000df117          	auipc	sp,0xdf
    80000a76:	58e10113          	add	sp,sp,1422 # 800e0000 <begin_signature>
    80000a7a:	6321                	lui	t1,0x8
    80000a7c:	7803031b          	addw	t1,t1,1920 # 8780 <_tbss_end+0x8780>
    80000a80:	911a                	add	sp,sp,t1
    80000a82:	f20883d3          	fmv.d.x	ft7,a7
    80000a86:	8b35                	and	a4,a4,13
    80000a88:	2151372f          	amoxor.d	a4,s5,(sp)
    80000a8c:	70e13023          	sd	a4,1792(sp)
    80000a90:	17bd                	add	a5,a5,-17
    80000a92:	815127af          	amomin.w	a5,s5,(sp)
    80000a96:	5a01f753          	fsqrt.d	fa4,ft3

0000000080000a9a <b0000000073>:
    80000a9a:	00000033          	add	zero,zero,zero
    80000a9e:	052e0d63          	beq	t3,s2,80000af8 <i0000000082>
    80000aa2:	00000033          	add	zero,zero,zero
    80000aa6:	08e1272f          	amoswap.w	a4,a4,(sp)
    80000aaa:	1a37774f          	fnmadd.d	fa4,fa4,ft3,ft3
    80000aae:	02fab733          	mulhu	a4,s5,a5
    80000ab2:	9b39                	and	a4,a4,-18
    80000ab4:	8f39                	xor	a4,a4,a4
    80000ab6:	02fac733          	div	a4,s5,a5
    80000aba:	a11127af          	amomax.w	a5,a7,(sp)
    80000abe:	4e29                	li	t3,10

0000000080000ac0 <i0000000073>:
    80000ac0:	5d013303          	ld	t1,1488(sp)

0000000080000ac4 <i0000000074>:
    80000ac4:	f2030753          	fmv.d.x	fa4,t1

0000000080000ac8 <i0000000075>:
    80000ac8:	0ff0000f          	fence

0000000080000acc <i0000000076>:
    80000acc:	02630733          	mul	a4,t1,t1

0000000080000ad0 <i0000000077>:
    80000ad0:	e061372f          	amomaxu.d	a4,t1,(sp)

0000000080000ad4 <i0000000078>:
    80000ad4:	87dff0ef          	jal	80000350 <func1>

0000000080000ad8 <i0000000079>:
    80000ad8:	00f1272f          	amoadd.w	a4,a5,(sp)

0000000080000adc <i000000007a>:
    80000adc:	d6be                	sw	a5,108(sp)

0000000080000ade <i000000007b>:
    80000ade:	873ff0ef          	jal	80000350 <func1>

0000000080000ae2 <i000000007c>:
    80000ae2:	d2377753          	fcvt.d.lu	fa4,a4

0000000080000ae6 <i000000007d>:
    80000ae6:	80e1232f          	amomin.w	t1,a4,(sp)

0000000080000aea <i000000007e>:
    80000aea:	2726                	fld	fa4,72(sp)

0000000080000aec <i000000007f>:
    80000aec:	c0270353          	fcvt.l.s	t1,fa4,rne

0000000080000af0 <i0000000080>:
    80000af0:	861ff0ef          	jal	80000350 <func1>

0000000080000af4 <i0000000081>:
    80000af4:	d027bf53          	fcvt.s.l	ft10,a5,rup

0000000080000af8 <i0000000082>:
    80000af8:	a13a                	fsd	fa4,128(sp)

0000000080000afa <i0000000083>:
    80000afa:	00205073          	fsrmi	zero,0

0000000080000afe <i0000000084>:
    80000afe:	c23f7353          	fcvt.lu.d	t1,ft10

0000000080000b02 <i0000000085>:
    80000b02:	c83a                	sw	a4,16(sp)

0000000080000b04 <i0000000086>:
    80000b04:	b8fa                	fsd	ft10,112(sp)
    80000b06:	4185                	li	gp,1
    80000b08:	000f1f17          	auipc	t5,0xf1
    80000b0c:	4e3f2c23          	sw	gp,1272(t5) # 800f2000 <tohost>
    80000b10:	0000100f          	fence.i
    80000b14:	00020fb7          	lui	t6,0x20
    80000b18:	000dff17          	auipc	t5,0xdf
    80000b1c:	4e8f0f13          	add	t5,t5,1256 # 800e0000 <begin_signature>
    80000b20:	01efa023          	sw	t5,0(t6) # 20000 <_tbss_end+0x20000>
    80000b24:	000eff17          	auipc	t5,0xef
    80000b28:	4dcf0f13          	add	t5,t5,1244 # 800f0000 <end_signature>
    80000b2c:	01efa423          	sw	t5,8(t6)
    80000b30:	01efa623          	sw	t5,12(t6)

0000000080000b34 <i0000000087>:
    80000b34:	e061372f          	amomaxu.d	a4,t1,(sp)
	...

Disassembly of section .tohost:

00000000800f2000 <tohost>:
	...

00000000800f2040 <fromhost>:
	...

00000000800f2050 <ecause_num>:
	...
