
work/bin/out_pg_excep7_00000.riscv:     file format elf64-littleriscv


Disassembly of section .text.init:

0000000080000000 <_start>:
    80000000:	000e0117          	auipc	sp,0xe0
    80000004:	00010113          	mv	sp,sp
    80000008:	6082                	ld	ra,0(sp)
    8000000a:	61a2                	ld	gp,8(sp)
    8000000c:	6242                	ld	tp,16(sp)
    8000000e:	62e2                	ld	t0,24(sp)
    80000010:	7302                	ld	t1,32(sp)
    80000012:	73a2                	ld	t2,40(sp)
    80000014:	7442                	ld	s0,48(sp)
    80000016:	74e2                	ld	s1,56(sp)
    80000018:	6506                	ld	a0,64(sp)
    8000001a:	65a6                	ld	a1,72(sp)
    8000001c:	6646                	ld	a2,80(sp)
    8000001e:	66e6                	ld	a3,88(sp)
    80000020:	7706                	ld	a4,96(sp)
    80000022:	77a6                	ld	a5,104(sp)
    80000024:	7846                	ld	a6,112(sp)
    80000026:	78e6                	ld	a7,120(sp)
    80000028:	690a                	ld	s2,128(sp)
    8000002a:	69aa                	ld	s3,136(sp)
    8000002c:	6a4a                	ld	s4,144(sp)
    8000002e:	6aea                	ld	s5,152(sp)
    80000030:	7b0a                	ld	s6,160(sp)
    80000032:	7baa                	ld	s7,168(sp)
    80000034:	7c4a                	ld	s8,176(sp)
    80000036:	7cea                	ld	s9,184(sp)
    80000038:	6d0e                	ld	s10,192(sp)
    8000003a:	6dae                	ld	s11,200(sp)
    8000003c:	6e4e                	ld	t3,208(sp)
    8000003e:	6eee                	ld	t4,216(sp)
    80000040:	7f0e                	ld	t5,224(sp)
    80000042:	7fae                	ld	t6,232(sp)
    80000044:	62f9                	lui	t0,0x1e
    80000046:	3002a073          	csrs	mstatus,t0
    8000004a:	4285                	li	t0,1
    8000004c:	02fe                	sll	t0,t0,0x1f
    8000004e:	0002d863          	bgez	t0,8000005e <_start+0x5e>
    80000052:	4505                	li	a0,1
    80000054:	000f2297          	auipc	t0,0xf2
    80000058:	faa2a623          	sw	a0,-84(t0) # 800f2000 <tohost>
    8000005c:	bfdd                	j	80000052 <_start+0x52>
    8000005e:	00000297          	auipc	t0,0x0
    80000062:	09228293          	add	t0,t0,146 # 800000f0 <_start+0xf0>
    80000066:	30529073          	csrw	mtvec,t0
    8000006a:	00301073          	fscsr	zero
    8000006e:	f2008053          	fmv.d.x	ft0,ra
    80000072:	f20080d3          	fmv.d.x	ft1,ra
    80000076:	f2010153          	fmv.d.x	ft2,sp
    8000007a:	f20181d3          	fmv.d.x	ft3,gp
    8000007e:	f2020253          	fmv.d.x	ft4,tp
    80000082:	f20282d3          	fmv.d.x	ft5,t0
    80000086:	f2030353          	fmv.d.x	ft6,t1
    8000008a:	f20383d3          	fmv.d.x	ft7,t2
    8000008e:	f2040453          	fmv.d.x	fs0,s0
    80000092:	f20484d3          	fmv.d.x	fs1,s1
    80000096:	f2050553          	fmv.d.x	fa0,a0
    8000009a:	f20585d3          	fmv.d.x	fa1,a1
    8000009e:	f2060653          	fmv.d.x	fa2,a2
    800000a2:	f20686d3          	fmv.d.x	fa3,a3
    800000a6:	f2070753          	fmv.d.x	fa4,a4
    800000aa:	f20787d3          	fmv.d.x	fa5,a5
    800000ae:	f2080853          	fmv.d.x	fa6,a6
    800000b2:	f20888d3          	fmv.d.x	fa7,a7
    800000b6:	f2090953          	fmv.d.x	fs2,s2
    800000ba:	f20989d3          	fmv.d.x	fs3,s3
    800000be:	f20a0a53          	fmv.d.x	fs4,s4
    800000c2:	f20a8ad3          	fmv.d.x	fs5,s5
    800000c6:	f20b0b53          	fmv.d.x	fs6,s6
    800000ca:	f20b8bd3          	fmv.d.x	fs7,s7
    800000ce:	f20c0c53          	fmv.d.x	fs8,s8
    800000d2:	f20c8cd3          	fmv.d.x	fs9,s9
    800000d6:	f20d0d53          	fmv.d.x	fs10,s10
    800000da:	f20d8dd3          	fmv.d.x	fs11,s11
    800000de:	f20e0e53          	fmv.d.x	ft8,t3
    800000e2:	f20e8ed3          	fmv.d.x	ft9,t4
    800000e6:	f20f0f53          	fmv.d.x	ft10,t5
    800000ea:	f20f8fd3          	fmv.d.x	ft11,t6
    800000ee:	0001                	nop
    800000f0:	00000297          	auipc	t0,0x0
    800000f4:	03428293          	add	t0,t0,52 # 80000124 <trap_entry>
    800000f8:	30529073          	csrw	mtvec,t0
    800000fc:	000f3217          	auipc	tp,0xf3
    80000100:	84420213          	add	tp,tp,-1980 # 800f2940 <_end+0x3f>
    80000104:	fc027213          	and	tp,tp,-64
    80000108:	f1402573          	csrr	a0,mhartid
    8000010c:	4585                	li	a1,1
    8000010e:	00b57063          	bgeu	a0,a1,8000010e <_start+0x10e>
    80000112:	01151613          	sll	a2,a0,0x11
    80000116:	9232                	add	tp,tp,a2
    80000118:	00150113          	add	sp,a0,1
    8000011c:	0146                	sll	sp,sp,0x11
    8000011e:	9112                	add	sp,sp,tp
    80000120:	2400006f          	j	80000360 <main>

0000000080000124 <trap_entry>:
    80000124:	716d                	add	sp,sp,-272
    80000126:	e406                	sd	ra,8(sp)
    80000128:	e80a                	sd	sp,16(sp)
    8000012a:	ec0e                	sd	gp,24(sp)
    8000012c:	f012                	sd	tp,32(sp)
    8000012e:	f416                	sd	t0,40(sp)
    80000130:	f81a                	sd	t1,48(sp)
    80000132:	fc1e                	sd	t2,56(sp)
    80000134:	e0a2                	sd	s0,64(sp)
    80000136:	e4a6                	sd	s1,72(sp)
    80000138:	e8aa                	sd	a0,80(sp)
    8000013a:	ecae                	sd	a1,88(sp)
    8000013c:	f0b2                	sd	a2,96(sp)
    8000013e:	f4b6                	sd	a3,104(sp)
    80000140:	f8ba                	sd	a4,112(sp)
    80000142:	fcbe                	sd	a5,120(sp)
    80000144:	e142                	sd	a6,128(sp)
    80000146:	e546                	sd	a7,136(sp)
    80000148:	e94a                	sd	s2,144(sp)
    8000014a:	ed4e                	sd	s3,152(sp)
    8000014c:	f152                	sd	s4,160(sp)
    8000014e:	f556                	sd	s5,168(sp)
    80000150:	f95a                	sd	s6,176(sp)
    80000152:	fd5e                	sd	s7,184(sp)
    80000154:	e1e2                	sd	s8,192(sp)
    80000156:	e5e6                	sd	s9,200(sp)
    80000158:	e9ea                	sd	s10,208(sp)
    8000015a:	edee                	sd	s11,216(sp)
    8000015c:	f1f2                	sd	t3,224(sp)
    8000015e:	f5f6                	sd	t4,232(sp)
    80000160:	f9fa                	sd	t5,240(sp)
    80000162:	fdfe                	sd	t6,248(sp)
    80000164:	34202573          	csrr	a0,mcause
    80000168:	341025f3          	csrr	a1,mepc
    8000016c:	0005d603          	lhu	a2,0(a1)
    80000170:	8a0d                	and	a2,a2,3
    80000172:	428d                	li	t0,3
    80000174:	00561563          	bne	a2,t0,8000017e <inst16>

0000000080000178 <inst32>:
    80000178:	0591                	add	a1,a1,4
    8000017a:	00000363          	beqz	zero,80000180 <inst16+0x2>

000000008000017e <inst16>:
    8000017e:	0589                	add	a1,a1,2
    80000180:	34159073          	csrw	mepc,a1
    80000184:	6289                	lui	t0,0x2
    80000186:	8002829b          	addw	t0,t0,-2048 # 1800 <_tbss_end+0x1800>
    8000018a:	3002a073          	csrs	mstatus,t0
    8000018e:	60a2                	ld	ra,8(sp)
    80000190:	6142                	ld	sp,16(sp)
    80000192:	61e2                	ld	gp,24(sp)
    80000194:	7202                	ld	tp,32(sp)
    80000196:	72a2                	ld	t0,40(sp)
    80000198:	7342                	ld	t1,48(sp)
    8000019a:	73e2                	ld	t2,56(sp)
    8000019c:	6406                	ld	s0,64(sp)
    8000019e:	64a6                	ld	s1,72(sp)
    800001a0:	6546                	ld	a0,80(sp)
    800001a2:	65e6                	ld	a1,88(sp)
    800001a4:	7606                	ld	a2,96(sp)
    800001a6:	76a6                	ld	a3,104(sp)
    800001a8:	7746                	ld	a4,112(sp)
    800001aa:	77e6                	ld	a5,120(sp)
    800001ac:	680a                	ld	a6,128(sp)
    800001ae:	68aa                	ld	a7,136(sp)
    800001b0:	694a                	ld	s2,144(sp)
    800001b2:	69ea                	ld	s3,152(sp)
    800001b4:	7a0a                	ld	s4,160(sp)
    800001b6:	7aaa                	ld	s5,168(sp)
    800001b8:	7b4a                	ld	s6,176(sp)
    800001ba:	7bea                	ld	s7,184(sp)
    800001bc:	6c0e                	ld	s8,192(sp)
    800001be:	6cae                	ld	s9,200(sp)
    800001c0:	6d4e                	ld	s10,208(sp)
    800001c2:	6dee                	ld	s11,216(sp)
    800001c4:	7e0e                	ld	t3,224(sp)
    800001c6:	7eae                	ld	t4,232(sp)
    800001c8:	7f4e                	ld	t5,240(sp)
    800001ca:	7fee                	ld	t6,248(sp)
    800001cc:	6151                	add	sp,sp,272
    800001ce:	30200073          	mret

Disassembly of section .text:

00000000800001e0 <custom_trap_handler_s>:
    800001e0:	7129                	add	sp,sp,-320
    800001e2:	e406                	sd	ra,8(sp)
    800001e4:	ec0e                	sd	gp,24(sp)
    800001e6:	f012                	sd	tp,32(sp)
    800001e8:	f416                	sd	t0,40(sp)
    800001ea:	f81a                	sd	t1,48(sp)
    800001ec:	fc1e                	sd	t2,56(sp)
    800001ee:	e0a2                	sd	s0,64(sp)
    800001f0:	e4a6                	sd	s1,72(sp)
    800001f2:	e8aa                	sd	a0,80(sp)
    800001f4:	ecae                	sd	a1,88(sp)
    800001f6:	f0b2                	sd	a2,96(sp)
    800001f8:	f4b6                	sd	a3,104(sp)
    800001fa:	f8ba                	sd	a4,112(sp)
    800001fc:	fcbe                	sd	a5,120(sp)
    800001fe:	e142                	sd	a6,128(sp)
    80000200:	e546                	sd	a7,136(sp)
    80000202:	e94a                	sd	s2,144(sp)
    80000204:	ed4e                	sd	s3,152(sp)
    80000206:	f152                	sd	s4,160(sp)
    80000208:	f556                	sd	s5,168(sp)
    8000020a:	f95a                	sd	s6,176(sp)
    8000020c:	fd5e                	sd	s7,184(sp)
    8000020e:	e1e2                	sd	s8,192(sp)
    80000210:	e5e6                	sd	s9,200(sp)
    80000212:	e9ea                	sd	s10,208(sp)
    80000214:	edee                	sd	s11,216(sp)
    80000216:	f1f2                	sd	t3,224(sp)
    80000218:	f5f6                	sd	t4,232(sp)
    8000021a:	f9fa                	sd	t5,240(sp)
    8000021c:	fdfe                	sd	t6,248(sp)
    8000021e:	10002573          	csrr	a0,sstatus
    80000222:	14102573          	csrr	a0,sepc
    80000226:	10502573          	csrr	a0,stvec
    8000022a:	14202573          	csrr	a0,scause
    8000022e:	4601                	li	a2,0
    80000230:	00c50763          	beq	a0,a2,8000023e <custom_trap_handler_s+0x5e>
    80000234:	4605                	li	a2,1
    80000236:	00c50463          	beq	a0,a2,8000023e <custom_trap_handler_s+0x5e>
    8000023a:	141025f3          	csrr	a1,sepc
    8000023e:	00059603          	lh	a2,0(a1)
    80000242:	8a0d                	and	a2,a2,3
    80000244:	428d                	li	t0,3
    80000246:	00561563          	bne	a2,t0,80000250 <inst16_s>

000000008000024a <inst32_s>:
    8000024a:	0591                	add	a1,a1,4
    8000024c:	00000363          	beqz	zero,80000252 <inst16_s+0x2>

0000000080000250 <inst16_s>:
    80000250:	0589                	add	a1,a1,2
    80000252:	14159073          	csrw	sepc,a1
    80000256:	60a2                	ld	ra,8(sp)
    80000258:	61e2                	ld	gp,24(sp)
    8000025a:	7202                	ld	tp,32(sp)
    8000025c:	72a2                	ld	t0,40(sp)
    8000025e:	7342                	ld	t1,48(sp)
    80000260:	73e2                	ld	t2,56(sp)
    80000262:	6406                	ld	s0,64(sp)
    80000264:	64a6                	ld	s1,72(sp)
    80000266:	6546                	ld	a0,80(sp)
    80000268:	65e6                	ld	a1,88(sp)
    8000026a:	7606                	ld	a2,96(sp)
    8000026c:	76a6                	ld	a3,104(sp)
    8000026e:	7746                	ld	a4,112(sp)
    80000270:	77e6                	ld	a5,120(sp)
    80000272:	680a                	ld	a6,128(sp)
    80000274:	68aa                	ld	a7,136(sp)
    80000276:	694a                	ld	s2,144(sp)
    80000278:	69ea                	ld	s3,152(sp)
    8000027a:	7a0a                	ld	s4,160(sp)
    8000027c:	7aaa                	ld	s5,168(sp)
    8000027e:	7b4a                	ld	s6,176(sp)
    80000280:	7bea                	ld	s7,184(sp)
    80000282:	6c0e                	ld	s8,192(sp)
    80000284:	6cae                	ld	s9,200(sp)
    80000286:	6d4e                	ld	s10,208(sp)
    80000288:	6dee                	ld	s11,216(sp)
    8000028a:	7e0e                	ld	t3,224(sp)
    8000028c:	7eae                	ld	t4,232(sp)
    8000028e:	7f4e                	ld	t5,240(sp)
    80000290:	7fee                	ld	t6,248(sp)
    80000292:	6131                	add	sp,sp,320
    80000294:	10200073          	sret

0000000080000298 <custom_trap_handler>:
    80000298:	7129                	add	sp,sp,-320
    8000029a:	e406                	sd	ra,8(sp)
    8000029c:	ec0e                	sd	gp,24(sp)
    8000029e:	f012                	sd	tp,32(sp)
    800002a0:	f416                	sd	t0,40(sp)
    800002a2:	f81a                	sd	t1,48(sp)
    800002a4:	fc1e                	sd	t2,56(sp)
    800002a6:	e0a2                	sd	s0,64(sp)
    800002a8:	e4a6                	sd	s1,72(sp)
    800002aa:	e8aa                	sd	a0,80(sp)
    800002ac:	ecae                	sd	a1,88(sp)
    800002ae:	f0b2                	sd	a2,96(sp)
    800002b0:	f4b6                	sd	a3,104(sp)
    800002b2:	f8ba                	sd	a4,112(sp)
    800002b4:	fcbe                	sd	a5,120(sp)
    800002b6:	e142                	sd	a6,128(sp)
    800002b8:	e546                	sd	a7,136(sp)
    800002ba:	e94a                	sd	s2,144(sp)
    800002bc:	ed4e                	sd	s3,152(sp)
    800002be:	f152                	sd	s4,160(sp)
    800002c0:	f556                	sd	s5,168(sp)
    800002c2:	f95a                	sd	s6,176(sp)
    800002c4:	fd5e                	sd	s7,184(sp)
    800002c6:	e1e2                	sd	s8,192(sp)
    800002c8:	e5e6                	sd	s9,200(sp)
    800002ca:	e9ea                	sd	s10,208(sp)
    800002cc:	edee                	sd	s11,216(sp)
    800002ce:	f1f2                	sd	t3,224(sp)
    800002d0:	f5f6                	sd	t4,232(sp)
    800002d2:	f9fa                	sd	t5,240(sp)
    800002d4:	fdfe                	sd	t6,248(sp)
    800002d6:	30002573          	csrr	a0,mstatus
    800002da:	34102573          	csrr	a0,mepc
    800002de:	30502573          	csrr	a0,mtvec
    800002e2:	34202573          	csrr	a0,mcause
    800002e6:	4601                	li	a2,0
    800002e8:	00c50763          	beq	a0,a2,800002f6 <custom_trap_handler+0x5e>
    800002ec:	4605                	li	a2,1
    800002ee:	00c50463          	beq	a0,a2,800002f6 <custom_trap_handler+0x5e>
    800002f2:	341025f3          	csrr	a1,mepc
    800002f6:	00059603          	lh	a2,0(a1)
    800002fa:	8a0d                	and	a2,a2,3
    800002fc:	428d                	li	t0,3
    800002fe:	00561563          	bne	a2,t0,80000308 <inst16>

0000000080000302 <inst32>:
    80000302:	0591                	add	a1,a1,4
    80000304:	00000363          	beqz	zero,8000030a <inst16+0x2>

0000000080000308 <inst16>:
    80000308:	0589                	add	a1,a1,2
    8000030a:	34159073          	csrw	mepc,a1
    8000030e:	60a2                	ld	ra,8(sp)
    80000310:	61e2                	ld	gp,24(sp)
    80000312:	7202                	ld	tp,32(sp)
    80000314:	72a2                	ld	t0,40(sp)
    80000316:	7342                	ld	t1,48(sp)
    80000318:	73e2                	ld	t2,56(sp)
    8000031a:	6406                	ld	s0,64(sp)
    8000031c:	64a6                	ld	s1,72(sp)
    8000031e:	6546                	ld	a0,80(sp)
    80000320:	65e6                	ld	a1,88(sp)
    80000322:	7606                	ld	a2,96(sp)
    80000324:	76a6                	ld	a3,104(sp)
    80000326:	7746                	ld	a4,112(sp)
    80000328:	77e6                	ld	a5,120(sp)
    8000032a:	680a                	ld	a6,128(sp)
    8000032c:	68aa                	ld	a7,136(sp)
    8000032e:	694a                	ld	s2,144(sp)
    80000330:	69ea                	ld	s3,152(sp)
    80000332:	7a0a                	ld	s4,160(sp)
    80000334:	7aaa                	ld	s5,168(sp)
    80000336:	7b4a                	ld	s6,176(sp)
    80000338:	7bea                	ld	s7,184(sp)
    8000033a:	6c0e                	ld	s8,192(sp)
    8000033c:	6cae                	ld	s9,200(sp)
    8000033e:	6d4e                	ld	s10,208(sp)
    80000340:	6dee                	ld	s11,216(sp)
    80000342:	7e0e                	ld	t3,224(sp)
    80000344:	7eae                	ld	t4,232(sp)
    80000346:	7f4e                	ld	t5,240(sp)
    80000348:	7fee                	ld	t6,248(sp)
    8000034a:	6131                	add	sp,sp,320
    8000034c:	30200073          	mret

0000000080000350 <func1>:
    80000350:	00000033          	add	zero,zero,zero
    80000354:	8082                	ret
    80000356:	00000013          	nop
    8000035a:	00000013          	nop
    8000035e:	0001                	nop

0000000080000360 <main>:
    80000360:	00000033          	add	zero,zero,zero
    80000364:	00000297          	auipc	t0,0x0
    80000368:	f3428293          	add	t0,t0,-204 # 80000298 <custom_trap_handler>
    8000036c:	30529073          	csrw	mtvec,t0
    80000370:	000e0117          	auipc	sp,0xe0
    80000374:	c9010113          	add	sp,sp,-880 # 800e0000 <begin_signature>
    80000378:	630d                	lui	t1,0x3
    8000037a:	1c83031b          	addw	t1,t1,456 # 31c8 <_tbss_end+0x31c8>
    8000037e:	911a                	add	sp,sp,t1

0000000080000380 <i0000000000>:
    80000380:	4aa9                	li	s5,10

0000000080000382 <i0000000001>:
    80000382:	e1c13a2f          	amomaxu.d	s4,t3,(sp)

0000000080000386 <i0000000002>:
    80000386:	0259c9bb          	divw	s3,s3,t0

000000008000038a <i0000000003>:
    8000038a:	c01bbf53          	fcvt.wu.s	t5,fs7,rup

000000008000038e <i0000000004>:
    8000038e:	c0d1242f          	amominu.w	s0,a3,(sp)

0000000080000392 <i0000000005>:
    80000392:	0365023b          	mulw	tp,a0,s6

0000000080000396 <i0000000006>:
    80000396:	3779                	addw	a4,a4,-2

0000000080000398 <i0000000007>:
    80000398:	0522                	sll	a0,a0,0x8

000000008000039a <i0000000008>:
    8000039a:	c23bf653          	fcvt.lu.d	a2,fs7

000000008000039e <i0000000009>:
    8000039e:	9c1d                	subw	s0,s0,a5

00000000800003a0 <i000000000a>:
    800003a0:	0ff0000f          	fence

00000000800003a4 <i000000000b>:
    800003a4:	1c816783          	lwu	a5,456(sp)
    800003a8:	4ca5                	li	s9,9
    800003aa:	404a0033          	sub	zero,s4,tp
    800003ae:	03d9093b          	mulw	s2,s2,t4
    800003b2:	8fe5                	and	a5,a5,s1
    800003b4:	414058b3          	sra	a7,zero,s4
    800003b8:	9c05                	subw	s0,s0,s1
    800003ba:	41f1342f          	amoor.d	s0,t6,(sp)
    800003be:	fd42                	sd	a6,184(sp)

00000000800003c0 <b000000000c>:
    800003c0:	00000033          	add	zero,zero,zero
    800003c4:	fd5cdae3          	bge	s9,s5,80000398 <i0000000007>
    800003c8:	00000033          	add	zero,zero,zero
    800003cc:	0ff0000f          	fence
    800003d0:	2ee6                	fld	ft9,88(sp)
    800003d2:	d22a76d3          	fcvt.d.l	fa3,s4
    800003d6:	5462                	lw	s0,56(sp)
    800003d8:	80f1272f          	amomin.w	a4,a5,(sp)
    800003dc:	607127af          	amoand.w	a5,t2,(sp)
    800003e0:	a8c16183          	lwu	gp,-1396(sp)
    800003e4:	4aa9                	li	s5,10

00000000800003e6 <i000000000c>:
    800003e6:	02a9cbbb          	divw	s7,s3,a0

00000000800003ea <i000000000d>:
    800003ea:	014a52bb          	srlw	t0,s4,s4

00000000800003ee <i000000000e>:
    800003ee:	087139af          	amoswap.d	s3,t2,(sp)

00000000800003f2 <i000000000f>:
    800003f2:	a0d3a553          	feq.s	a0,ft7,fa3

00000000800003f6 <i0000000010>:
    800003f6:	c036                	sw	a3,0(sp)

00000000800003f8 <i0000000011>:
    800003f8:	013468b3          	or	a7,s0,s3

00000000800003fc <i0000000012>:
    800003fc:	dca2                	sw	s0,120(sp)

00000000800003fe <i0000000013>:
    800003fe:	4161232f          	amoor.w	t1,s6,(sp)

0000000080000402 <i0000000014>:
    80000402:	0861252f          	amoswap.w	a0,t1,(sp)

0000000080000406 <i0000000015>:
    80000406:	c0218ed3          	fcvt.l.s	t4,ft3,rne

000000008000040a <i0000000016>:
    8000040a:	03ba063b          	mulw	a2,s4,s11
    8000040e:	4c2d                	li	s8,11
    80000410:	0a85                	add	s5,s5,1
    80000412:	000e0117          	auipc	sp,0xe0
    80000416:	bee10113          	add	sp,sp,-1042 # 800e0000 <begin_signature>
    8000041a:	6305                	lui	t1,0x1
    8000041c:	1e03031b          	addw	t1,t1,480 # 11e0 <_tbss_end+0x11e0>
    80000420:	911a                	add	sp,sp,t1
    80000422:	bd3e                	fsd	fa5,184(sp)
    80000424:	c222f253          	fcvt.l.d	tp,ft5
    80000428:	c0361453          	fcvt.lu.s	s0,fa2,rtz
    8000042c:	008209bb          	addw	s3,tp,s0
    80000430:	0094843b          	addw	s0,s1,s1
    80000434:	6e510403          	lb	s0,1765(sp)
    80000438:	03b01933          	mulh	s2,zero,s11

000000008000043c <b0000000017>:
    8000043c:	00000033          	add	zero,zero,zero
    80000440:	fb8a8ee3          	beq	s5,s8,800003fc <i0000000012>
    80000444:	00000033          	add	zero,zero,zero
    80000448:	c23ef9d3          	fcvt.lu.d	s3,ft9
    8000044c:	03320cb3          	mul	s9,tp,s3
    80000450:	b8411c83          	lh	s9,-1148(sp)
    80000454:	9cc16883          	lwu	a7,-1588(sp)
    80000458:	032d5e33          	divu	t3,s10,s2
    8000045c:	a4b6                	fsd	fa3,72(sp)
    8000045e:	d021bcd3          	fcvt.s.l	fs9,gp,rup
    80000462:	4aa9                	li	s5,10

0000000080000464 <i0000000017>:
    80000464:	1169fd13          	and	s10,s3,278

0000000080000468 <i0000000018>:
    80000468:	a131392f          	amomax.d	s2,s3,(sp)

000000008000046c <i0000000019>:
    8000046c:	c03e0c53          	fcvt.lu.s	s8,ft8,rne

0000000080000470 <i000000001a>:
    80000470:	0a0ab07b          	.insn	4, 0x0a0ab07b

0000000080000474 <i000000001b>:
    80000474:	028529b3          	mulhsu	s3,a0,s0

0000000080000478 <i000000001c>:
    80000478:	c0be                	sw	a5,64(sp)

000000008000047a <i000000001d>:
    8000047a:	024d89bb          	mulw	s3,s11,tp

000000008000047e <i000000001e>:
    8000047e:	040d                	add	s0,s0,3

0000000080000480 <i000000001f>:
    80000480:	f42e                	sd	a1,40(sp)

0000000080000482 <i0000000020>:
    80000482:	d02513d3          	fcvt.s.l	ft7,a0,rtz

0000000080000486 <i0000000021>:
    80000486:	0382e8bb          	remw	a7,t0,s8

000000008000048a <i0000000022>:
    8000048a:	c02a3453          	fcvt.l.s	s0,fs4,rup
    8000048e:	4a29                	li	s4,10
    80000490:	000e0117          	auipc	sp,0xe0
    80000494:	b7010113          	add	sp,sp,-1168 # 800e0000 <begin_signature>
    80000498:	6339                	lui	t1,0xe
    8000049a:	5b83031b          	addw	t1,t1,1464 # e5b8 <_tbss_end+0xe5b8>
    8000049e:	911a                	add	sp,sp,t1
    800004a0:	3708ac93          	slti	s9,a7,880
    800004a4:	1b78                	add	a4,sp,444
    800004a6:	c026                	sw	s1,0(sp)
    800004a8:	99c14183          	lbu	gp,-1636(sp)
    800004ac:	f00c83d3          	fmv.w.x	ft7,s9
    800004b0:	02e41433          	mulh	s0,s0,a4
    800004b4:	00795413          	srl	s0,s2,0x7

00000000800004b8 <b0000000023>:
    800004b8:	00000033          	add	zero,zero,zero
    800004bc:	fd4a91e3          	bne	s5,s4,8000047e <i000000001e>
    800004c0:	00000033          	add	zero,zero,zero
    800004c4:	c1b12d2f          	amominu.w	s10,s11,(sp)
    800004c8:	8cb9                	xor	s1,s1,a4
    800004ca:	02780ebb          	mulw	t4,a6,t2
    800004ce:	0390793b          	remuw	s2,zero,s9
    800004d2:	8cb9                	xor	s1,s1,a4
    800004d4:	a1f2                	fsd	ft8,192(sp)
    800004d6:	d03ebbd3          	fcvt.s.lu	fs7,t4,rup
    800004da:	4aa9                	li	s5,10

00000000800004dc <i0000000023>:
    800004dc:	81d1362f          	amomin.d	a2,t4,(sp)

00000000800004e0 <i0000000024>:
    800004e0:	0ab0                	add	a2,sp,344

00000000800004e2 <i0000000025>:
    800004e2:	e061242f          	amomaxu.w	s0,t1,(sp)

00000000800004e6 <i0000000026>:
    800004e6:	9d09                	subw	a0,a0,a0
    800004e8:	000e0117          	auipc	sp,0xe0
    800004ec:	b1810113          	add	sp,sp,-1256 # 800e0000 <begin_signature>
    800004f0:	631d                	lui	t1,0x7
    800004f2:	ba83031b          	addw	t1,t1,-1112 # 6ba8 <_tbss_end+0x6ba8>
    800004f6:	911a                	add	sp,sp,t1

00000000800004f8 <i0000000027>:
    800004f8:	3606                	fld	fa2,96(sp)

00000000800004fa <i0000000028>:
    800004fa:	8f89                	sub	a5,a5,a0

00000000800004fc <i0000000029>:
    800004fc:	235013d3          	fsgnjn.d	ft7,ft0,fs5

0000000080000500 <i000000002a>:
    80000500:	7bce                	ld	s7,240(sp)

0000000080000502 <i000000002b>:
    80000502:	5a415283          	lhu	t0,1444(sp)

0000000080000506 <i000000002c>:
    80000506:	2e813403          	ld	s0,744(sp)

000000008000050a <i000000002d>:
    8000050a:	80613d2f          	amomin.d	s10,t1,(sp)
    8000050e:	4b29                	li	s6,10
    80000510:	8cb9                	xor	s1,s1,a4
    80000512:	0289823b          	mulw	tp,s3,s0
    80000516:	0000100f          	fence.i
    8000051a:	003033b3          	snez	t2,gp
    8000051e:	712d                	add	sp,sp,-288
    80000520:	2b26                	fld	fs6,72(sp)
    80000522:	41525e13          	sra	t3,tp,0x15

0000000080000526 <b000000002e>:
    80000526:	016a8463          	beq	s5,s6,8000052e <b000000002e+0x8>
    8000052a:	fd1ff06f          	j	800004fa <i0000000028>
    8000052e:	4aa9                	li	s5,10
    80000530:	0289fd3b          	remuw	s10,s3,s0
    80000534:	9fa1                	addw	a5,a5,s0
    80000536:	89be                	mv	s3,a5
    80000538:	025a1893          	sll	a7,s4,0x25
    8000053c:	02f8cbbb          	divw	s7,a7,a5
    80000540:	607129af          	amoand.w	s3,t2,(sp)
    80000544:	0b9c74c3          	fmadd.d	fs1,fs8,fs9,ft1

0000000080000548 <i000000002e>:
    80000548:	0021d073          	fsrmi	zero,3

000000008000054c <i000000002f>:
    8000054c:	d0354b53          	fcvt.s.lu	fs6,a0,rmm

0000000080000550 <i0000000030>:
    80000550:	02534fbb          	divw	t6,t1,t0

0000000080000554 <i0000000031>:
    80000554:	f472                	sd	t3,40(sp)

0000000080000556 <i0000000032>:
    80000556:	608131af          	amoand.d	gp,s0,(sp)

000000008000055a <i0000000033>:
    8000055a:	d229f853          	fcvt.d.l	fa6,s3

000000008000055e <i0000000034>:
    8000055e:	e2080bd3          	fmv.x.d	s7,fa6

0000000080000562 <i0000000035>:
    80000562:	09312caf          	amoswap.w	s9,s3,(sp)

0000000080000566 <i0000000036>:
    80000566:	00c121af          	amoadd.w	gp,a2,(sp)

000000008000056a <i0000000037>:
    8000056a:	024ffb3b          	remuw	s6,t6,tp

000000008000056e <i0000000038>:
    8000056e:	84a2                	mv	s1,s0

0000000080000570 <i0000000039>:
    80000570:	20813983          	ld	s3,520(sp)
    80000574:	4e81                	li	t4,0
    80000576:	000e0117          	auipc	sp,0xe0
    8000057a:	a8a10113          	add	sp,sp,-1398 # 800e0000 <begin_signature>
    8000057e:	630d                	lui	t1,0x3
    80000580:	4b83031b          	addw	t1,t1,1208 # 34b8 <_tbss_end+0x34b8>
    80000584:	911a                	add	sp,sp,t1
    80000586:	13bc                	add	a5,sp,488
    80000588:	4d96                	lw	s11,68(sp)
    8000058a:	d03415d3          	fcvt.s.lu	fa1,s0,rtz
    8000058e:	03623433          	mulhu	s0,tp,s6
    80000592:	045e                	sll	s0,s0,0x17
    80000594:	aa811023          	sh	s0,-1376(sp)
    80000598:	9895                	and	s1,s1,-27

000000008000059a <b000000003a>:
    8000059a:	00000033          	add	zero,zero,zero
    8000059e:	05da8163          	beq	s5,t4,800005e0 <i0000000040>
    800005a2:	00000033          	add	zero,zero,zero
    800005a6:	d01b7453          	fcvt.s.wu	fs0,s6
    800005aa:	7151                	add	sp,sp,-240
    800005ac:	c02027d3          	fcvt.l.s	a5,ft0,rdn
    800005b0:	404489bb          	subw	s3,s1,tp
    800005b4:	a266                	fsd	fs9,256(sp)
    800005b6:	8fa5                	xor	a5,a5,s1
    800005b8:	c23a7b53          	fcvt.lu.d	s6,fs4
    800005bc:	4aa9                	li	s5,10

00000000800005be <i000000003a>:
    800005be:	acb2                	fsd	fa2,88(sp)

00000000800005c0 <i000000003b>:
    800005c0:	1873a853          	fdiv.s	fa6,ft7,ft7,rdn
    800005c4:	000e0117          	auipc	sp,0xe0
    800005c8:	a3c10113          	add	sp,sp,-1476 # 800e0000 <begin_signature>
    800005cc:	6335                	lui	t1,0xd
    800005ce:	8a03031b          	addw	t1,t1,-1888 # c8a0 <_tbss_end+0xc8a0>
    800005d2:	911a                	add	sp,sp,t1

00000000800005d4 <i000000003c>:
    800005d4:	7466                	ld	s0,120(sp)

00000000800005d6 <i000000003d>:
    800005d6:	e2098553          	fmv.x.d	a0,fs3

00000000800005da <i000000003e>:
    800005da:	02847fbb          	remuw	t6,s0,s0

00000000800005de <i000000003f>:
    800005de:	5442                	lw	s0,48(sp)

00000000800005e0 <i0000000040>:
    800005e0:	b8b6                	fsd	fa3,112(sp)

00000000800005e2 <i0000000041>:
    800005e2:	403d5513          	sra	a0,s10,0x3

00000000800005e6 <i0000000042>:
    800005e6:	e2080453          	fmv.x.d	s0,fa6

00000000800005ea <i0000000043>:
    800005ea:	9d810503          	lb	a0,-1576(sp)

00000000800005ee <i0000000044>:
    800005ee:	5462                	lw	s0,56(sp)
    800005f0:	4e31                	li	t3,12
    800005f2:	0a85                	add	s5,s5,1
    800005f4:	000e0117          	auipc	sp,0xe0
    800005f8:	a0c10113          	add	sp,sp,-1524 # 800e0000 <begin_signature>
    800005fc:	6321                	lui	t1,0x8
    800005fe:	9183031b          	addw	t1,t1,-1768 # 7918 <_tbss_end+0x7918>
    80000602:	911a                	add	sp,sp,t1
    80000604:	d0272853          	fcvt.s.l	fa6,a4,rdn
    80000608:	f96e                	sd	s11,176(sp)
    8000060a:	4762                	lw	a4,24(sp)
    8000060c:	384e                	fld	fa6,240(sp)
    8000060e:	7d273197          	auipc	gp,0x7d273
    80000612:	14bd                	add	s1,s1,-17
    80000614:	40813d83          	ld	s11,1032(sp)

0000000080000618 <b0000000045>:
    80000618:	00000033          	add	zero,zero,zero
    8000061c:	fd5e51e3          	bge	t3,s5,800005de <i000000003f>
    80000620:	00000033          	add	zero,zero,zero
    80000624:	2b02                	fld	fs6,0(sp)
    80000626:	04ea                	sll	s1,s1,0x1a
    80000628:	9c312423          	sw	gp,-1592(sp)
    8000062c:	01249d93          	sll	s11,s1,0x12
    80000630:	c02601d3          	fcvt.l.s	gp,fa2,rne
    80000634:	0161322f          	amoadd.d	tp,s6,(sp)
    80000638:	e1a129af          	amomaxu.w	s3,s10,(sp)
    8000063c:	4aa9                	li	s5,10

000000008000063e <i0000000045>:
    8000063e:	5a00fbd3          	fsqrt.d	fs7,ft1

0000000080000642 <i0000000046>:
    80000642:	36c5                	addw	a3,a3,-15

0000000080000644 <i0000000047>:
    80000644:	0089943b          	sllw	s0,s3,s0

0000000080000648 <i0000000048>:
    80000648:	c23d7953          	fcvt.lu.d	s2,fs10
    8000064c:	000e0117          	auipc	sp,0xe0
    80000650:	9b410113          	add	sp,sp,-1612 # 800e0000 <begin_signature>
    80000654:	6311                	lui	t1,0x4
    80000656:	e403031b          	addw	t1,t1,-448 # 3e40 <_tbss_end+0x3e40>
    8000065a:	911a                	add	sp,sp,t1

000000008000065c <i0000000049>:
    8000065c:	4586                	lw	a1,64(sp)

000000008000065e <i000000004a>:
    8000065e:	3475                	addw	s0,s0,-3

0000000080000660 <i000000004b>:
    80000660:	b4ae                	fsd	fa1,104(sp)

0000000080000662 <i000000004c>:
    80000662:	01c6d6bb          	srlw	a3,a3,t3

0000000080000666 <i000000004d>:
    80000666:	c1de23c7          	fmsub.s	ft7,ft8,ft9,fs8,rdn

000000008000066a <i000000004e>:
    8000066a:	105c                	add	a5,sp,36

000000008000066c <i000000004f>:
    8000066c:	0398d533          	divu	a0,a7,s9
    80000670:	000e0117          	auipc	sp,0xe0
    80000674:	99010113          	add	sp,sp,-1648 # 800e0000 <begin_signature>
    80000678:	6339                	lui	t1,0xe
    8000067a:	4b03031b          	addw	t1,t1,1200 # e4b0 <_tbss_end+0xe4b0>
    8000067e:	911a                	add	sp,sp,t1
    80000680:	000e0117          	auipc	sp,0xe0
    80000684:	98010113          	add	sp,sp,-1664 # 800e0000 <begin_signature>
    80000688:	6325                	lui	t1,0x9
    8000068a:	4e03031b          	addw	t1,t1,1248 # 94e0 <_tbss_end+0x94e0>
    8000068e:	911a                	add	sp,sp,t1
    80000690:	97e2                	add	a5,a5,s8
    80000692:	4d016983          	lwu	s3,1232(sp)
    80000696:	d6be                	sw	a5,108(sp)
    80000698:	5f8d8db7          	lui	s11,0x5f8d8
    8000069c:	87d5                	sra	a5,a5,0x15
    8000069e:	7169                	add	sp,sp,-304
    800006a0:	0244d9b3          	divu	s3,s1,tp

00000000800006a4 <b0000000050>:
    800006a4:	02e0056f          	jal	a0,800006d2 <i0000000055>
    800006a8:	d22476d3          	fcvt.d.l	fa3,s0
    800006ac:	0287e93b          	remw	s2,a5,s0
    800006b0:	02f45db3          	divu	s11,s0,a5
    800006b4:	5eaf8993          	add	s3,t6,1514
    800006b8:	c22677d3          	fcvt.l.d	a5,fa2
    800006bc:	84f13823          	sd	a5,-1968(sp)
    800006c0:	b8b2                	fsd	fa2,112(sp)

00000000800006c2 <i0000000050>:
    800006c2:	02ea0e3b          	mulw	t3,s4,a4

00000000800006c6 <i0000000051>:
    800006c6:	612d                	add	sp,sp,224

00000000800006c8 <i0000000052>:
    800006c8:	9ca1                	addw	s1,s1,s0

00000000800006ca <i0000000053>:
    800006ca:	c03a72d3          	fcvt.lu.s	t0,fs4

00000000800006ce <i0000000054>:
    800006ce:	036309bb          	mulw	s3,t1,s6

00000000800006d2 <i0000000055>:
    800006d2:	253d                	addw	a0,a0,15

00000000800006d4 <i0000000056>:
    800006d4:	c03849d3          	fcvt.lu.s	s3,fa6,rmm

00000000800006d8 <i0000000057>:
    800006d8:	0ff0000f          	fence

00000000800006dc <i0000000058>:
    800006dc:	8541                	sra	a0,a0,0x10

00000000800006de <i0000000059>:
    800006de:	d03f11d3          	fcvt.s.lu	ft3,t5,rtz

00000000800006e2 <i000000005a>:
    800006e2:	08e1262f          	amoswap.w	a2,a4,(sp)
    800006e6:	4ca9                	li	s9,10
    800006e8:	a1b139af          	amomax.d	s3,s11,(sp)
    800006ec:	a1c1342f          	amomax.d	s0,t3,(sp)
    800006f0:	d2307bd3          	fcvt.d.lu	fs7,zero
    800006f4:	c03829d3          	fcvt.lu.s	s3,fa6,rdn
    800006f8:	7402                	ld	s0,32(sp)
    800006fa:	0000100f          	fence.i
    800006fe:	0004c833          	xor	a6,s1,zero

0000000080000702 <b000000005b>:
    80000702:	00000033          	add	zero,zero,zero
    80000706:	039a8b63          	beq	s5,s9,8000073c <i0000000061>
    8000070a:	00000033          	add	zero,zero,zero
    8000070e:	1782                	sll	a5,a5,0x20
    80000710:	34c9                	addw	s1,s1,-14
    80000712:	e2080253          	fmv.x.d	tp,fa6
    80000716:	401d74d3          	fcvt.s.d	fs1,fs10
    8000071a:	240d                	addw	s0,s0,3
    8000071c:	031db433          	mulhu	s0,s11,a7
    80000720:	02846a33          	rem	s4,s0,s0
    80000724:	4aa9                	li	s5,10

0000000080000726 <i000000005b>:
    80000726:	7d015983          	lhu	s3,2000(sp)

000000008000072a <i000000005c>:
    8000072a:	0384d413          	srl	s0,s1,0x38

000000008000072e <i000000005d>:
    8000072e:	00840533          	add	a0,s0,s0

0000000080000732 <i000000005e>:
    80000732:	2af302d3          	fmin.d	ft5,ft6,fa5

0000000080000736 <i000000005f>:
    80000736:	43045513          	sra	a0,s0,0x30

000000008000073a <i0000000060>:
    8000073a:	d62a                	sw	a0,44(sp)

000000008000073c <i0000000061>:
    8000073c:	8c29                	xor	s0,s0,a0

000000008000073e <i0000000062>:
    8000073e:	02a5463b          	divw	a2,a0,a0

0000000080000742 <i0000000063>:
    80000742:	26a2                	fld	fa3,8(sp)

0000000080000744 <i0000000064>:
    80000744:	8d21                	xor	a0,a0,s0

0000000080000746 <i0000000065>:
    80000746:	d019a753          	fcvt.s.wu	fa4,s3,rdn
    8000074a:	4b81                	li	s7,0
    8000074c:	5196                	lw	gp,100(sp)
    8000074e:	bcb2                	fsd	fa2,120(sp)
    80000750:	e121242f          	amomaxu.w	s0,s2,(sp)
    80000754:	024b4e3b          	divw	t3,s6,tp
    80000758:	07ea                	sll	a5,a5,0x1a
    8000075a:	a015a753          	feq.s	a4,fa1,ft1
    8000075e:	2592                	fld	fa1,256(sp)

0000000080000760 <b0000000066>:
    80000760:	00000033          	add	zero,zero,zero
    80000764:	fd7a8ce3          	beq	s5,s7,8000073c <i0000000061>
    80000768:	00000033          	add	zero,zero,zero
    8000076c:	208133af          	amoxor.d	t2,s0,(sp)
    80000770:	7a0e                	ld	s4,224(sp)
    80000772:	c43e                	sw	a5,8(sp)
    80000774:	076e                	sll	a4,a4,0x1b
    80000776:	b5fe                	fsd	ft11,232(sp)
    80000778:	00699b13          	sll	s6,s3,0x6
    8000077c:	712d                	add	sp,sp,-288
    8000077e:	4aa9                	li	s5,10

0000000080000780 <i0000000066>:
    80000780:	d22a                	sw	a0,36(sp)

0000000080000782 <i0000000067>:
    80000782:	00003023          	sd	zero,0(zero) # 0 <_tbss_end>

0000000080000786 <i0000000068>:
    80000786:	c40e                	sw	gp,8(sp)

0000000080000788 <i0000000069>:
    80000788:	347d                	addw	s0,s0,-1

000000008000078a <i000000006a>:
    8000078a:	14b1                	add	s1,s1,-20

000000008000078c <i000000006b>:
    8000078c:	0009df1b          	srlw	t5,s3,0x0

0000000080000790 <i000000006c>:
    80000790:	8cc9                	or	s1,s1,a0

0000000080000792 <i000000006d>:
    80000792:	56c12b87          	flw	fs7,1388(sp)

0000000080000796 <i000000006e>:
    80000796:	2541                	addw	a0,a0,16

0000000080000798 <i000000006f>:
    80000798:	00205073          	fsrmi	zero,0

000000008000079c <i0000000070>:
    8000079c:	b973b3c7          	fmsub.s	ft7,ft7,fs7,fs7,rup
    800007a0:	000e0117          	auipc	sp,0xe0
    800007a4:	86010113          	add	sp,sp,-1952 # 800e0000 <begin_signature>
    800007a8:	6311                	lui	t1,0x4
    800007aa:	a683031b          	addw	t1,t1,-1432 # 3a68 <_tbss_end+0x3a68>
    800007ae:	911a                	add	sp,sp,t1

00000000800007b0 <i0000000071>:
    800007b0:	4502                	lw	a0,0(sp)

00000000800007b2 <i0000000072>:
    800007b2:	235c2853          	fsgnjx.d	fa6,fs8,fs5
    800007b6:	4929                	li	s2,10
    800007b8:	c0281bd3          	fcvt.l.s	s7,fa6,rtz
    800007bc:	f2080053          	fmv.d.x	ft0,a6
    800007c0:	daa2                	sw	s0,116(sp)
    800007c2:	a3781dd3          	flt.d	s11,fa6,fs7
    800007c6:	01081a13          	sll	s4,a6,0x10
    800007ca:	029471bb          	remuw	gp,s0,s1
    800007ce:	12787853          	fmul.d	fa6,fa6,ft7

00000000800007d2 <b0000000073>:
    800007d2:	012a8863          	beq	s5,s2,800007e2 <b0000000073+0x10>
    800007d6:	00000917          	auipc	s2,0x0
    800007da:	fbc90913          	add	s2,s2,-68 # 80000792 <i000000006d>
    800007de:	00090567          	jalr	a0,s2
    800007e2:	4aa9                	li	s5,10
    800007e4:	116000d3          	fmul.s	ft1,ft0,fs6,rne
    800007e8:	0b98                	add	a4,sp,464
    800007ea:	0334873b          	mulw	a4,s1,s3
    800007ee:	9fb9                	addw	a5,a5,a4
    800007f0:	439fdd93          	sra	s11,t6,0x39
    800007f4:	043d                	add	s0,s0,15
    800007f6:	60712c2f          	amoand.w	s8,t2,(sp)

00000000800007fa <i0000000073>:
    800007fa:	84c12983          	lw	s3,-1972(sp)

00000000800007fe <i0000000074>:
    800007fe:	e2061453          	fclass.d	s0,fa2

0000000080000802 <i0000000075>:
    80000802:	1208                	add	a0,sp,288

0000000080000804 <i0000000076>:
    80000804:	0521                	add	a0,a0,8

0000000080000806 <i0000000077>:
    80000806:	e20805d3          	fmv.x.d	a1,fa6

000000008000080a <i0000000078>:
    8000080a:	0021d073          	fsrmi	zero,3

000000008000080e <i0000000079>:
    8000080e:	a30b86d3          	fle.d	a3,fs7,fa6

0000000080000812 <i000000007a>:
    80000812:	0020                	add	s0,sp,8

0000000080000814 <i000000007b>:
    80000814:	42f55813          	sra	a6,a0,0x2f

0000000080000818 <i000000007c>:
    80000818:	02b2fdbb          	remuw	s11,t0,a1

000000008000081c <i000000007d>:
    8000081c:	0000100f          	fence.i

0000000080000820 <i000000007e>:
    80000820:	c02f09d3          	fcvt.l.s	s3,ft10,rne
    80000824:	4e25                	li	t3,9
    80000826:	4aa9                	li	s5,10
    80000828:	000df117          	auipc	sp,0xdf
    8000082c:	7d810113          	add	sp,sp,2008 # 800e0000 <begin_signature>
    80000830:	6309                	lui	t1,0x2
    80000832:	e403031b          	addw	t1,t1,-448 # 1e40 <_tbss_end+0x1e40>
    80000836:	911a                	add	sp,sp,t1
    80000838:	000df117          	auipc	sp,0xdf
    8000083c:	7c810113          	add	sp,sp,1992 # 800e0000 <begin_signature>
    80000840:	632d                	lui	t1,0xb
    80000842:	4e83031b          	addw	t1,t1,1256 # b4e8 <_tbss_end+0xb4e8>
    80000846:	911a                	add	sp,sp,t1
    80000848:	d22c7fd3          	fcvt.d.l	ft11,s8
    8000084c:	d22c74d3          	fcvt.d.l	fs1,s8
    80000850:	19610a03          	lb	s4,406(sp)
    80000854:	13277853          	fmul.d	fa6,fa4,fs2
    80000858:	3daa                	fld	fs11,168(sp)
    8000085a:	8e013183          	ld	gp,-1824(sp)
    8000085e:	72812423          	sw	s0,1832(sp)

0000000080000862 <b000000007f>:
    80000862:	00000033          	add	zero,zero,zero
    80000866:	035e5a63          	bge	t3,s5,8000089a <i0000000085>
    8000086a:	00000033          	add	zero,zero,zero
    8000086e:	036d7833          	remu	a6,s10,s6
    80000872:	41478bbb          	subw	s7,a5,s4
    80000876:	49415d83          	lhu	s11,1172(sp)
    8000087a:	61713daf          	amoand.d	s11,s7,(sp)
    8000087e:	610139af          	amoand.d	s3,a6,(sp)
    80000882:	e7013b03          	ld	s6,-400(sp)
    80000886:	7149                	add	sp,sp,-368
    80000888:	4aa9                	li	s5,10

000000008000088a <i000000007f>:
    8000088a:	3646                	fld	fa2,112(sp)

000000008000088c <i0000000080>:
    8000088c:	02a449bb          	divw	s3,s0,a0

0000000080000890 <i0000000081>:
    80000890:	384e                	fld	fa6,240(sp)

0000000080000892 <i0000000082>:
    80000892:	8dc9                	or	a1,a1,a0

0000000080000894 <i0000000083>:
    80000894:	a11b2453          	feq.s	s0,fs6,fa7

0000000080000898 <i0000000084>:
    80000898:	3775                	addw	a4,a4,-3

000000008000089a <i0000000085>:
    8000089a:	f04e                	sd	s3,32(sp)
    8000089c:	000df117          	auipc	sp,0xdf
    800008a0:	76410113          	add	sp,sp,1892 # 800e0000 <begin_signature>
    800008a4:	6309                	lui	t1,0x2
    800008a6:	a403031b          	addw	t1,t1,-1472 # 1a40 <_tbss_end+0x1a40>
    800008aa:	911a                	add	sp,sp,t1

00000000800008ac <i0000000086>:
    800008ac:	5726                	lw	a4,104(sp)

00000000800008ae <i0000000087>:
    800008ae:	02a9a433          	mulhsu	s0,s3,a0

00000000800008b2 <i0000000088>:
    800008b2:	29f58853          	fmin.s	fa6,fa1,ft11

00000000800008b6 <i0000000089>:
    800008b6:	d02043d3          	fcvt.s.l	ft7,zero,rmm
    800008ba:	4929                	li	s2,10
    800008bc:	000df117          	auipc	sp,0xdf
    800008c0:	74410113          	add	sp,sp,1860 # 800e0000 <begin_signature>
    800008c4:	6321                	lui	t1,0x8
    800008c6:	f283031b          	addw	t1,t1,-216 # 7f28 <_tbss_end+0x7f28>
    800008ca:	911a                	add	sp,sp,t1
    800008cc:	000df117          	auipc	sp,0xdf
    800008d0:	73410113          	add	sp,sp,1844 # 800e0000 <begin_signature>
    800008d4:	632d                	lui	t1,0xb
    800008d6:	d883031b          	addw	t1,t1,-632 # ad88 <_tbss_end+0xad88>
    800008da:	911a                	add	sp,sp,t1
    800008dc:	408451bb          	sraw	gp,s0,s0
    800008e0:	02d9d493          	srl	s1,s3,0x2d
    800008e4:	9b31                	and	a4,a4,-20
    800008e6:	3726                	fld	fa4,104(sp)
    800008e8:	c02999d3          	fcvt.l.s	s3,fs3,rtz
    800008ec:	af612223          	sw	s6,-1308(sp)
    800008f0:	0ff0000f          	fence

00000000800008f4 <b000000008a>:
    800008f4:	012a8863          	beq	s5,s2,80000904 <b000000008a+0x10>
    800008f8:	00000917          	auipc	s2,0x0
    800008fc:	fa090913          	add	s2,s2,-96 # 80000898 <i0000000084>
    80000900:	00090067          	jr	s2
    80000904:	4aa9                	li	s5,10
    80000906:	c22877d3          	fcvt.l.d	a5,fa6
    8000090a:	4712                	lw	a4,4(sp)
    8000090c:	2c0a                	fld	fs8,128(sp)
    8000090e:	e20f9753          	fclass.d	a4,ft11
    80000912:	59c6                	lw	s3,112(sp)
    80000914:	c01f4453          	fcvt.wu.s	s0,ft10,rmm
    80000918:	6d6a                	ld	s10,152(sp)

000000008000091a <i000000008a>:
    8000091a:	e569879b          	addw	a5,s3,-426

000000008000091e <i000000008b>:
    8000091e:	a0c38bd3          	fle.s	s7,ft7,fa2

0000000080000922 <i000000008c>:
    80000922:	0089f9b3          	and	s3,s3,s0

0000000080000926 <i000000008d>:
    80000926:	b3c16403          	lwu	s0,-1220(sp)

000000008000092a <i000000008e>:
    8000092a:	9f85                	subw	a5,a5,s1

000000008000092c <i000000008f>:
    8000092c:	e8012f87          	flw	ft11,-384(sp)

0000000080000930 <i0000000090>:
    80000930:	bd016503          	lwu	a0,-1072(sp)

0000000080000934 <i0000000091>:
    80000934:	a552                	fsd	fs4,136(sp)

0000000080000936 <i0000000092>:
    80000936:	0592                	sll	a1,a1,0x4

0000000080000938 <i0000000093>:
    80000938:	02a449bb          	divw	s3,s0,a0

000000008000093c <i0000000094>:
    8000093c:	6462                	ld	s0,24(sp)
    8000093e:	031f84bb          	mulw	s1,t6,a7
    80000942:	d23473d3          	fcvt.d.lu	ft7,s0
    80000946:	1138                	add	a4,sp,168
    80000948:	0000100f          	fence.i
    8000094c:	4d813483          	ld	s1,1240(sp)
    80000950:	0000100f          	fence.i
    80000954:	0000100f          	fence.i

0000000080000958 <b0000000095>:
    80000958:	00000c17          	auipc	s8,0x0
    8000095c:	03ac0c13          	add	s8,s8,58 # 80000992 <i000000009b>
    80000960:	000c0067          	jr	s8
    80000964:	a09138af          	amomax.d	a7,s1,(sp)
    80000968:	a432                	fsd	fa2,8(sp)
    8000096a:	00761ed3          	fadd.s	ft9,fa2,ft7,rtz
    8000096e:	0299f433          	remu	s0,s3,s1
    80000972:	024014b3          	mulh	s1,zero,tp
    80000976:	216137af          	amoxor.d	a5,s6,(sp)
    8000097a:	0ff0000f          	fence

000000008000097e <i0000000095>:
    8000097e:	a0f129af          	amomax.w	s3,a5,(sp)

0000000080000982 <i0000000096>:
    80000982:	40ed8833          	sub	a6,s11,a4

0000000080000986 <i0000000097>:
    80000986:	0978                	add	a4,sp,156

0000000080000988 <i0000000098>:
    80000988:	40f90433          	sub	s0,s2,a5

000000008000098c <i0000000099>:
    8000098c:	fcca                	sd	s2,120(sp)

000000008000098e <i000000009a>:
    8000098e:	21e1252f          	amoxor.w	a0,t5,(sp)

0000000080000992 <i000000009b>:
    80000992:	48812b87          	flw	fs7,1160(sp)

0000000080000996 <i000000009c>:
    80000996:	37e2                	fld	fa5,56(sp)

0000000080000998 <i000000009d>:
    80000998:	9d21                	addw	a0,a0,s0

000000008000099a <i000000009e>:
    8000099a:	b4de                	fsd	fs7,104(sp)

000000008000099c <i000000009f>:
    8000099c:	408459b3          	sra	s3,s0,s0
    800009a0:	48ad                	li	a7,11
    800009a2:	0a85                	add	s5,s5,1
    800009a4:	000df117          	auipc	sp,0xdf
    800009a8:	65c10113          	add	sp,sp,1628 # 800e0000 <begin_signature>
    800009ac:	6305                	lui	t1,0x1
    800009ae:	5303031b          	addw	t1,t1,1328 # 1530 <_tbss_end+0x1530>
    800009b2:	911a                	add	sp,sp,t1
    800009b4:	000df117          	auipc	sp,0xdf
    800009b8:	64c10113          	add	sp,sp,1612 # 800e0000 <begin_signature>
    800009bc:	6319                	lui	t1,0x6
    800009be:	7383031b          	addw	t1,t1,1848 # 6738 <_tbss_end+0x6738>
    800009c2:	911a                	add	sp,sp,t1
    800009c4:	02eeefbb          	remw	t6,t4,a4
    800009c8:	7125                	add	sp,sp,-416
    800009ca:	c032f453          	fcvt.lu.s	s0,ft5
    800009ce:	01e7dc93          	srl	s9,a5,0x1e
    800009d2:	41011783          	lh	a5,1040(sp)
    800009d6:	d5c12403          	lw	s0,-676(sp)
    800009da:	8fd9                	or	a5,a5,a4

00000000800009dc <b00000000a0>:
    800009dc:	00000033          	add	zero,zero,zero
    800009e0:	fb1a89e3          	beq	s5,a7,80000992 <i000000009b>
    800009e4:	00000033          	add	zero,zero,zero
    800009e8:	a1d707d3          	fle.s	a5,fa4,ft9
    800009ec:	d0c16983          	lwu	s3,-756(sp)
    800009f0:	003f97b3          	sll	a5,t6,gp
    800009f4:	c889fb13          	and	s6,s3,-888
    800009f8:	e0080e53          	fmv.x.w	t3,fa6
    800009fc:	d0e6                	sw	s9,96(sp)
    800009fe:	aca6                	fsd	fs1,88(sp)
    80000a00:	4aa9                	li	s5,10

0000000080000a02 <i00000000a0>:
    80000a02:	0339f43b          	remuw	s0,s3,s3

0000000080000a06 <i00000000a1>:
    80000a06:	036b83bb          	mulw	t2,s7,s6

0000000080000a0a <i00000000a2>:
    80000a0a:	33907f4f          	fnmadd.d	ft10,ft0,fs9,ft6

0000000080000a0e <i00000000a3>:
    80000a0e:	a081292f          	amomax.w	s2,s0,(sp)

0000000080000a12 <i00000000a4>:
    80000a12:	25913c23          	sd	s9,600(sp)
    80000a16:	000df117          	auipc	sp,0xdf
    80000a1a:	5ea10113          	add	sp,sp,1514 # 800e0000 <begin_signature>
    80000a1e:	6335                	lui	t1,0xd
    80000a20:	c483031b          	addw	t1,t1,-952 # cc48 <_tbss_end+0xcc48>
    80000a24:	911a                	add	sp,sp,t1

0000000080000a26 <i00000000a5>:
    80000a26:	c4612023          	sw	t1,-960(sp)

0000000080000a2a <i00000000a6>:
    80000a2a:	4406                	lw	s0,64(sp)

0000000080000a2c <i00000000a7>:
    80000a2c:	09a139af          	amoswap.d	s3,s10,(sp)

0000000080000a30 <i00000000a8>:
    80000a30:	0bc0                	add	s0,sp,468

0000000080000a32 <i00000000a9>:
    80000a32:	61e1222f          	amoand.w	tp,t5,(sp)

0000000080000a36 <i00000000aa>:
    80000a36:	c2287553          	fcvt.l.d	a0,fa6
    80000a3a:	000df117          	auipc	sp,0xdf
    80000a3e:	5c610113          	add	sp,sp,1478 # 800e0000 <begin_signature>
    80000a42:	6331                	lui	t1,0xc
    80000a44:	7e03031b          	addw	t1,t1,2016 # c7e0 <_tbss_end+0xc7e0>
    80000a48:	911a                	add	sp,sp,t1
    80000a4a:	3686                	fld	fa3,96(sp)
    80000a4c:	e9a2                	sd	s0,208(sp)
    80000a4e:	03720d3b          	mulw	s10,tp,s7
    80000a52:	c033fb53          	fcvt.lu.s	s6,ft7
    80000a56:	d029c853          	fcvt.s.l	fa6,s3,rmm
    80000a5a:	37e2                	fld	fa5,56(sp)
    80000a5c:	8ca5                	xor	s1,s1,s1

0000000080000a5e <b00000000ab>:
    80000a5e:	0340006f          	j	80000a92 <i00000000b1>
    80000a62:	f20f8853          	fmv.d.x	fa6,t6
    80000a66:	00912a2f          	amoadd.w	s4,s1,(sp)
    80000a6a:	2a813423          	sd	s0,680(sp)
    80000a6e:	80f124af          	amomin.w	s1,a5,(sp)
    80000a72:	c23871d3          	fcvt.lu.d	gp,fa6
    80000a76:	eaa6                	sd	s1,336(sp)
    80000a78:	c14134af          	amominu.d	s1,s4,(sp)

0000000080000a7c <i00000000ab>:
    80000a7c:	c23879d3          	fcvt.lu.d	s3,fa6

0000000080000a80 <i00000000ac>:
    80000a80:	08a139af          	amoswap.d	s3,a0,(sp)

0000000080000a84 <i00000000ad>:
    80000a84:	8c5d                	or	s0,s0,a5

0000000080000a86 <i00000000ae>:
    80000a86:	4029d413          	sra	s0,s3,0x2

0000000080000a8a <i00000000af>:
    80000a8a:	011dd9bb          	srlw	s3,s11,a7

0000000080000a8e <i00000000b0>:
    80000a8e:	f20c8ed3          	fmv.d.x	ft9,s9

0000000080000a92 <i00000000b1>:
    80000a92:	4089843b          	subw	s0,s3,s0

0000000080000a96 <i00000000b2>:
    80000a96:	a06c1bd3          	flt.s	s7,fs8,ft6

0000000080000a9a <i00000000b3>:
    80000a9a:	a131342f          	amomax.d	s0,s3,(sp)

0000000080000a9e <i00000000b4>:
    80000a9e:	a9c2                	fsd	fa6,208(sp)

0000000080000aa0 <i00000000b5>:
    80000aa0:	0000100f          	fence.i
    80000aa4:	4d25                	li	s10,9
    80000aa6:	4aa9                	li	s5,10
    80000aa8:	000df117          	auipc	sp,0xdf
    80000aac:	55810113          	add	sp,sp,1368 # 800e0000 <begin_signature>
    80000ab0:	6319                	lui	t1,0x6
    80000ab2:	be03031b          	addw	t1,t1,-1056 # 5be0 <_tbss_end+0x5be0>
    80000ab6:	911a                	add	sp,sp,t1
    80000ab8:	0379f43b          	remuw	s0,s3,s7
    80000abc:	248d                	addw	s1,s1,3
    80000abe:	e8615883          	lhu	a7,-378(sp)
    80000ac2:	42028853          	fcvt.d.s	fa6,ft5
    80000ac6:	2791                	addw	a5,a5,4
    80000ac8:	0034579b          	srlw	a5,s0,0x3
    80000acc:	c10123af          	amominu.w	t2,a6,(sp)

0000000080000ad0 <b00000000b6>:
    80000ad0:	00000033          	add	zero,zero,zero
    80000ad4:	035d5a63          	bge	s10,s5,80000b08 <i00000000bc>
    80000ad8:	00000033          	add	zero,zero,zero
    80000adc:	04ca                	sll	s1,s1,0x12
    80000ade:	b7313023          	sd	s3,-1184(sp)
    80000ae2:	8f81                	sub	a5,a5,s0
    80000ae4:	013789bb          	addw	s3,a5,s3
    80000ae8:	82f100a3          	sb	a5,-2015(sp)
    80000aec:	c1c1372f          	amominu.d	a4,t3,(sp)
    80000af0:	0058                	add	a4,sp,4
    80000af2:	4aa9                	li	s5,10

0000000080000af4 <i00000000b6>:
    80000af4:	a615a213          	slti	tp,a1,-1439

0000000080000af8 <i00000000b7>:
    80000af8:	d5c12983          	lw	s3,-676(sp)

0000000080000afc <i00000000b8>:
    80000afc:	01e6c533          	xor	a0,a3,t5

0000000080000b00 <i00000000b9>:
    80000b00:	f3313c23          	sd	s3,-200(sp)

0000000080000b04 <i00000000ba>:
    80000b04:	09b4                	add	a3,sp,216

0000000080000b06 <i00000000bb>:
    80000b06:	7131                	add	sp,sp,-192

0000000080000b08 <i00000000bc>:
    80000b08:	0000100f          	fence.i

0000000080000b0c <i00000000bd>:
    80000b0c:	77ea                	ld	a5,184(sp)

0000000080000b0e <i00000000be>:
    80000b0e:	7179                	add	sp,sp,-48

0000000080000b10 <i00000000bf>:
    80000b10:	4c32                	lw	s8,12(sp)

0000000080000b12 <i00000000c0>:
    80000b12:	e061252f          	amomaxu.w	a0,t1,(sp)
    80000b16:	4829                	li	a6,10
    80000b18:	000df117          	auipc	sp,0xdf
    80000b1c:	4e810113          	add	sp,sp,1256 # 800e0000 <begin_signature>
    80000b20:	632d                	lui	t1,0xb
    80000b22:	1d83031b          	addw	t1,t1,472 # b1d8 <_tbss_end+0xb1d8>
    80000b26:	911a                	add	sp,sp,t1
    80000b28:	0131322f          	amoadd.d	tp,s3,(sp)
    80000b2c:	eb713427          	fsd	fs7,-344(sp)
    80000b30:	2eee                	fld	ft9,216(sp)
    80000b32:	01591b13          	sll	s6,s2,0x15
    80000b36:	24e6                	fld	fs1,88(sp)
    80000b38:	4d514983          	lbu	s3,1237(sp)
    80000b3c:	73ae                	ld	t2,232(sp)

0000000080000b3e <b00000000c1>:
    80000b3e:	010a8463          	beq	s5,a6,80000b46 <b00000000c1+0x8>
    80000b42:	fc7ff56f          	jal	a0,80000b08 <i00000000bc>
    80000b46:	4aa9                	li	s5,10
    80000b48:	0ff0000f          	fence
    80000b4c:	996a                	add	s2,s2,s10
    80000b4e:	b2215983          	lhu	s3,-1246(sp)
    80000b52:	8711                	sra	a4,a4,0x4
    80000b54:	71013983          	ld	s3,1808(sp)
    80000b58:	9c99                	subw	s1,s1,a4
    80000b5a:	0380                	add	s0,sp,448

0000000080000b5c <i00000000c1>:
    80000b5c:	f20204d3          	fmv.d.x	fs1,tp

0000000080000b60 <i00000000c2>:
    80000b60:	55813e83          	ld	t4,1368(sp)

0000000080000b64 <i00000000c3>:
    80000b64:	95f6                	add	a1,a1,t4

0000000080000b66 <i00000000c4>:
    80000b66:	00f7153b          	sllw	a0,a4,a5

0000000080000b6a <i00000000c5>:
    80000b6a:	2766                	fld	fa4,88(sp)

0000000080000b6c <i00000000c6>:
    80000b6c:	25611383          	lh	t2,598(sp)

0000000080000b70 <i00000000c7>:
    80000b70:	0139b9b3          	sltu	s3,s3,s3

0000000080000b74 <i00000000c8>:
    80000b74:	39c12387          	flw	ft7,924(sp)

0000000080000b78 <i00000000c9>:
    80000b78:	a8012503          	lw	a0,-1408(sp)

0000000080000b7c <i00000000ca>:
    80000b7c:	0056fdb3          	and	s11,a3,t0

0000000080000b80 <i00000000cb>:
    80000b80:	7562                	ld	a0,56(sp)
    80000b82:	68c16783          	lwu	a5,1676(sp)
    80000b86:	007e57b3          	srl	a5,t3,t2
    80000b8a:	1e016783          	lwu	a5,480(sp)
    80000b8e:	a08137af          	amomax.d	a5,s0,(sp)
    80000b92:	0284023b          	mulw	tp,s0,s0
    80000b96:	0000100f          	fence.i
    80000b9a:	f20783d3          	fmv.d.x	ft7,a5

0000000080000b9e <b00000000cc>:
    80000b9e:	00000a17          	auipc	s4,0x0
    80000ba2:	04ea0a13          	add	s4,s4,78 # 80000bec <i00000000d2>
    80000ba6:	000a00e7          	jalr	s4
    80000baa:	260a                	fld	fa2,128(sp)
    80000bac:	039d743b          	remuw	s0,s10,s9
    80000bb0:	093129af          	amoswap.w	s3,s3,(sp)
    80000bb4:	8121342f          	amomin.d	s0,s2,(sp)
    80000bb8:	01fbd81b          	srlw	a6,s7,0x1f
    80000bbc:	4279de13          	sra	t3,s3,0x27
    80000bc0:	02f7f9bb          	remuw	s3,a5,a5

0000000080000bc4 <i00000000cc>:
    80000bc4:	01751693          	sll	a3,a0,0x17

0000000080000bc8 <i00000000cd>:
    80000bc8:	0952f5d3          	fsub.s	fa1,ft5,fs5
    80000bcc:	000df117          	auipc	sp,0xdf
    80000bd0:	43410113          	add	sp,sp,1076 # 800e0000 <begin_signature>
    80000bd4:	6329                	lui	t1,0xa
    80000bd6:	5083031b          	addw	t1,t1,1288 # a508 <_tbss_end+0xa508>
    80000bda:	911a                	add	sp,sp,t1

0000000080000bdc <i00000000ce>:
    80000bdc:	16912627          	fsw	fs1,364(sp)

0000000080000be0 <i00000000cf>:
    80000be0:	0931352f          	amoswap.d	a0,s3,(sp)

0000000080000be4 <i00000000d0>:
    80000be4:	420e8f53          	fcvt.d.s	ft10,ft9

0000000080000be8 <i00000000d1>:
    80000be8:	a1081553          	flt.s	a0,fa6,fa6

0000000080000bec <i00000000d2>:
    80000bec:	1bc0                	add	s0,sp,500

0000000080000bee <i00000000d3>:
    80000bee:	7101                	add	sp,sp,-512
    80000bf0:	000df117          	auipc	sp,0xdf
    80000bf4:	41010113          	add	sp,sp,1040 # 800e0000 <begin_signature>
    80000bf8:	6309                	lui	t1,0x2
    80000bfa:	2b83031b          	addw	t1,t1,696 # 22b8 <_tbss_end+0x22b8>
    80000bfe:	911a                	add	sp,sp,t1

0000000080000c00 <i00000000d4>:
    80000c00:	d8412b03          	lw	s6,-636(sp)

0000000080000c04 <i00000000d5>:
    80000c04:	c2287553          	fcvt.l.d	a0,fa6

0000000080000c08 <i00000000d6>:
    80000c08:	5432                	lw	s0,44(sp)
    80000c0a:	4ca9                	li	s9,10
    80000c0c:	000df117          	auipc	sp,0xdf
    80000c10:	3f410113          	add	sp,sp,1012 # 800e0000 <begin_signature>
    80000c14:	6319                	lui	t1,0x6
    80000c16:	6503031b          	addw	t1,t1,1616 # 6650 <_tbss_end+0x6650>
    80000c1a:	911a                	add	sp,sp,t1
    80000c1c:	1273f853          	fmul.d	fa6,ft7,ft7
    80000c20:	a10ba9d3          	feq.s	s3,fs7,fa6
    80000c24:	404f8db3          	sub	s11,t6,tp
    80000c28:	64278393          	add	t2,a5,1602
    80000c2c:	4089d43b          	sraw	s0,s3,s0
    80000c30:	c03889d3          	fcvt.lu.s	s3,fa7,rne
    80000c34:	03b8c3bb          	divw	t2,a7,s11

0000000080000c38 <b00000000d7>:
    80000c38:	019a8863          	beq	s5,s9,80000c48 <b00000000d7+0x10>
    80000c3c:	00000c97          	auipc	s9,0x0
    80000c40:	facc8c93          	add	s9,s9,-84 # 80000be8 <i00000000d1>
    80000c44:	000c80e7          	jalr	s9
    80000c48:	4aa9                	li	s5,10
    80000c4a:	0339e7b3          	rem	a5,s3,s3
    80000c4e:	3dee                	fld	fs11,248(sp)
    80000c50:	0ff0000f          	fence
    80000c54:	9e013807          	fld	fa6,-1568(sp)
    80000c58:	d8910d23          	sb	s1,-614(sp)
    80000c5c:	41618733          	sub	a4,gp,s6
    80000c60:	0ff0000f          	fence

0000000080000c64 <i00000000d7>:
    80000c64:	66e6                	ld	a3,88(sp)

0000000080000c66 <i00000000d8>:
    80000c66:	0021d073          	fsrmi	zero,3

0000000080000c6a <i00000000d9>:
    80000c6a:	e822                	sd	s0,16(sp)

0000000080000c6c <i00000000da>:
    80000c6c:	7149                	add	sp,sp,-368

0000000080000c6e <i00000000db>:
    80000c6e:	c21079d3          	fcvt.wu.d	s3,ft0

0000000080000c72 <i00000000dc>:
    80000c72:	e081342f          	amomaxu.d	s0,s0,(sp)

0000000080000c76 <i00000000dd>:
    80000c76:	c22875d3          	fcvt.l.d	a1,fa6

0000000080000c7a <i00000000de>:
    80000c7a:	03dfc8bb          	divw	a7,t6,t4

0000000080000c7e <i00000000df>:
    80000c7e:	5562                	lw	a0,56(sp)

0000000080000c80 <i00000000e0>:
    80000c80:	0339c533          	div	a0,s3,s3

0000000080000c84 <i00000000e1>:
    80000c84:	8c45                	or	s0,s0,s1

0000000080000c86 <i00000000e2>:
    80000c86:	9d29                	addw	a0,a0,a0
    80000c88:	000df117          	auipc	sp,0xdf
    80000c8c:	37810113          	add	sp,sp,888 # 800e0000 <begin_signature>
    80000c90:	6325                	lui	t1,0x9
    80000c92:	bb83031b          	addw	t1,t1,-1096 # 8bb8 <_tbss_end+0x8bb8>
    80000c96:	911a                	add	sp,sp,t1
    80000c98:	80813c2f          	amomin.d	s8,s0,(sp)
    80000c9c:	35e6                	fld	fa1,120(sp)
    80000c9e:	a3c16403          	lwu	s0,-1476(sp)
    80000ca2:	60713023          	sd	t2,1536(sp)
    80000ca6:	9c85                	subw	s1,s1,s1
    80000ca8:	ce22                	sw	s0,28(sp)
    80000caa:	97be                	add	a5,a5,a5

0000000080000cac <b00000000e3>:
    80000cac:	03a0056f          	jal	a0,80000ce6 <i00000000e8>
    80000cb0:	3706                	fld	fa4,96(sp)
    80000cb2:	6169                	add	sp,sp,208
    80000cb4:	0337c7bb          	divw	a5,a5,s3
    80000cb8:	0ff0000f          	fence
    80000cbc:	ed72                	sd	t3,152(sp)
    80000cbe:	f2078b53          	fmv.d.x	fs6,a5
    80000cc2:	0236fe53          	fadd.d	ft8,fa3,ft3
    80000cc6:	000df117          	auipc	sp,0xdf
    80000cca:	33a10113          	add	sp,sp,826 # 800e0000 <begin_signature>
    80000cce:	6311                	lui	t1,0x4
    80000cd0:	6583031b          	addw	t1,t1,1624 # 4658 <_tbss_end+0x4658>
    80000cd4:	911a                	add	sp,sp,t1

0000000080000cd6 <i00000000e3>:
    80000cd6:	bc012623          	sw	zero,-1076(sp)

0000000080000cda <i00000000e4>:
    80000cda:	09e13baf          	amoswap.d	s7,t5,(sp)

0000000080000cde <i00000000e5>:
    80000cde:	050e                	sll	a0,a0,0x3

0000000080000ce0 <i00000000e6>:
    80000ce0:	f8aa                	sd	a0,112(sp)

0000000080000ce2 <i00000000e7>:
    80000ce2:	c051372f          	amominu.d	a4,t0,(sp)

0000000080000ce6 <i00000000e8>:
    80000ce6:	4ca1                	li	s9,8

0000000080000ce8 <i00000000e9>:
    80000ce8:	40ec0e3b          	subw	t3,s8,a4

0000000080000cec <i00000000ea>:
    80000cec:	c23bfbd3          	fcvt.lu.d	s7,fs7

0000000080000cf0 <i00000000eb>:
    80000cf0:	02a9a633          	mulhsu	a2,s3,a0

0000000080000cf4 <i00000000ec>:
    80000cf4:	9ca9                	addw	s1,s1,a0

0000000080000cf6 <i00000000ed>:
    80000cf6:	00bd119b          	sllw	gp,s10,0xb
    80000cfa:	4831                	li	a6,12
    80000cfc:	0a85                	add	s5,s5,1
    80000cfe:	03d9743b          	remuw	s0,s2,t4
    80000d02:	fcea                	sd	s10,120(sp)
    80000d04:	5fc10483          	lb	s1,1532(sp)
    80000d08:	97710723          	sb	s7,-1682(sp)
    80000d0c:	f00b8bd3          	fmv.w.x	fs7,s7
    80000d10:	64816783          	lwu	a5,1608(sp)
    80000d14:	a001342f          	amomax.d	s0,zero,(sp)

0000000080000d18 <b00000000ee>:
    80000d18:	00000033          	add	zero,zero,zero
    80000d1c:	fd0a95e3          	bne	s5,a6,80000ce6 <i00000000e8>
    80000d20:	00000033          	add	zero,zero,zero
    80000d24:	c2287453          	fcvt.l.d	s0,fa6
    80000d28:	01738ad3          	fadd.s	fs5,ft7,fs7,rne
    80000d2c:	37b1                	addw	a5,a5,-20
    80000d2e:	4246                	lw	tp,80(sp)
    80000d30:	020d43b3          	div	t2,s10,zero
    80000d34:	413988b3          	sub	a7,s3,s3
    80000d38:	0ff0000f          	fence
    80000d3c:	4aa9                	li	s5,10

0000000080000d3e <i00000000ee>:
    80000d3e:	c01643d3          	fcvt.wu.s	t2,fa2,rmm

0000000080000d42 <i00000000ef>:
    80000d42:	8891                	and	s1,s1,4

0000000080000d44 <i00000000f0>:
    80000d44:	c22ef553          	fcvt.l.d	a0,ft9

0000000080000d48 <i00000000f1>:
    80000d48:	21d129af          	amoxor.w	s3,t4,(sp)

0000000080000d4c <i00000000f2>:
    80000d4c:	c02bc453          	fcvt.l.s	s0,fs7,rmm

0000000080000d50 <i00000000f3>:
    80000d50:	fff40993          	add	s3,s0,-1
    80000d54:	000df117          	auipc	sp,0xdf
    80000d58:	2ac10113          	add	sp,sp,684 # 800e0000 <begin_signature>
    80000d5c:	6329                	lui	t1,0xa
    80000d5e:	9003031b          	addw	t1,t1,-1792 # 9900 <_tbss_end+0x9900>
    80000d62:	911a                	add	sp,sp,t1

0000000080000d64 <i00000000f4>:
    80000d64:	5772                	lw	a4,60(sp)

0000000080000d66 <i00000000f5>:
    80000d66:	6081342f          	amoand.d	s0,s0,(sp)

0000000080000d6a <i00000000f6>:
    80000d6a:	01343533          	sltu	a0,s0,s3

0000000080000d6e <i00000000f7>:
    80000d6e:	e8a6                	sd	s1,80(sp)

0000000080000d70 <i00000000f8>:
    80000d70:	f02a                	sd	a0,32(sp)
    80000d72:	4b81                	li	s7,0
    80000d74:	000df117          	auipc	sp,0xdf
    80000d78:	28c10113          	add	sp,sp,652 # 800e0000 <begin_signature>
    80000d7c:	632d                	lui	t1,0xb
    80000d7e:	da03031b          	addw	t1,t1,-608 # ada0 <_tbss_end+0xada0>
    80000d82:	911a                	add	sp,sp,t1
    80000d84:	b43a                	fsd	fa4,40(sp)
    80000d86:	ee812483          	lw	s1,-280(sp)
    80000d8a:	00841ebb          	sllw	t4,s0,s0
    80000d8e:	1451                	add	s0,s0,-12
    80000d90:	4722                	lw	a4,8(sp)
    80000d92:	0284e433          	rem	s0,s1,s0
    80000d96:	0000100f          	fence.i

0000000080000d9a <b00000000f9>:
    80000d9a:	00000033          	add	zero,zero,zero
    80000d9e:	037a8b63          	beq	s5,s7,80000dd4 <i00000000fe>
    80000da2:	00000033          	add	zero,zero,zero
    80000da6:	4012f953          	fcvt.s.d	fs2,ft5
    80000daa:	54911223          	sh	s1,1348(sp)
    80000dae:	11016483          	lwu	s1,272(sp)
    80000db2:	38013183          	ld	gp,896(sp)
    80000db6:	0334e9bb          	remw	s3,s1,s3
    80000dba:	d02443d3          	fcvt.s.l	ft7,s0,rmm
    80000dbe:	036f873b          	mulw	a4,t6,s6
    80000dc2:	4aa9                	li	s5,10

0000000080000dc4 <i00000000f9>:
    80000dc4:	8e21                	xor	a2,a2,s0

0000000080000dc6 <i00000000fa>:
    80000dc6:	9e31                	addw	a2,a2,a2

0000000080000dc8 <i00000000fb>:
    80000dc8:	41ea09bb          	subw	s3,s4,t5

0000000080000dcc <i00000000fc>:
    80000dcc:	613129af          	amoand.w	s3,s3,(sp)

0000000080000dd0 <i00000000fd>:
    80000dd0:	02840433          	mul	s0,s0,s0

0000000080000dd4 <i00000000fe>:
    80000dd4:	400a59b3          	sra	s3,s4,zero

0000000080000dd8 <i00000000ff>:
    80000dd8:	ec16                	sd	t0,24(sp)

0000000080000dda <i0000000100>:
    80000dda:	d03904d3          	fcvt.s.lu	fs1,s2,rne

0000000080000dde <i0000000101>:
    80000dde:	37e2                	fld	fa5,56(sp)

0000000080000de0 <i0000000102>:
    80000de0:	38f44993          	xor	s3,s0,911

0000000080000de4 <i0000000103>:
    80000de4:	1161                	add	sp,sp,-8
    80000de6:	e416                	sd	t0,8(sp)
    80000de8:	4281                	li	t0,0
    80000dea:	00028283          	lb	t0,0(t0)
    80000dee:	62a2                	ld	t0,8(sp)
    80000df0:	0121                	add	sp,sp,8

0000000080000df2 <i0000000104>:
    80000df2:	800129af          	amomin.w	s3,zero,(sp)
    80000df6:	0000100f          	fence.i
    80000dfa:	7786                	ld	a5,96(sp)
    80000dfc:	19fc2b13          	slti	s6,s8,415
    80000e00:	c233fa53          	fcvt.lu.d	s4,ft7
    80000e04:	f20a0053          	fmv.d.x	ft0,s4
    80000e08:	dcca                	sw	s2,120(sp)
    80000e0a:	018fd393          	srl	t2,t6,0x18

0000000080000e0e <b0000000105>:
    80000e0e:	00000e97          	auipc	t4,0x0
    80000e12:	036e8e93          	add	t4,t4,54 # 80000e44 <i000000010a>
    80000e16:	000e8567          	jalr	a0,t4
    80000e1a:	405bdc1b          	sraw	s8,s7,0x5
    80000e1e:	00813d2f          	amoadd.d	s10,s0,(sp)
    80000e22:	60f1272f          	amoand.w	a4,a5,(sp)
    80000e26:	d0041bd3          	fcvt.s.w	fs7,s0,rtz
    80000e2a:	0000100f          	fence.i
    80000e2e:	ee812403          	lw	s0,-280(sp)
    80000e32:	ec3e                	sd	a5,24(sp)

0000000080000e34 <i0000000105>:
    80000e34:	31416d83          	lwu	s11,788(sp)

0000000080000e38 <i0000000106>:
    80000e38:	0262e53b          	remw	a0,t0,t1

0000000080000e3c <i0000000107>:
    80000e3c:	d616                	sw	t0,44(sp)

0000000080000e3e <i0000000108>:
    80000e3e:	9e21                	addw	a2,a2,s0

0000000080000e40 <i0000000109>:
    80000e40:	0347793b          	remuw	s2,a4,s4

0000000080000e44 <i000000010a>:
    80000e44:	00845333          	srl	t1,s0,s0

0000000080000e48 <i000000010b>:
    80000e48:	d8898f13          	add	t5,s3,-632

0000000080000e4c <i000000010c>:
    80000e4c:	d0332853          	fcvt.s.lu	fa6,t1,rdn

0000000080000e50 <i000000010d>:
    80000e50:	d03804d3          	fcvt.s.lu	fs1,a6,rne

0000000080000e54 <i000000010e>:
    80000e54:	02c5a6b3          	mulhsu	a3,a1,a2
    80000e58:	000df117          	auipc	sp,0xdf
    80000e5c:	1a810113          	add	sp,sp,424 # 800e0000 <begin_signature>
    80000e60:	630d                	lui	t1,0x3
    80000e62:	6083031b          	addw	t1,t1,1544 # 3608 <_tbss_end+0x3608>
    80000e66:	911a                	add	sp,sp,t1

0000000080000e68 <i000000010f>:
    80000e68:	e0611823          	sh	t1,-496(sp)
    80000e6c:	000df117          	auipc	sp,0xdf
    80000e70:	19410113          	add	sp,sp,404 # 800e0000 <begin_signature>
    80000e74:	6325                	lui	t1,0x9
    80000e76:	1e83031b          	addw	t1,t1,488 # 91e8 <_tbss_end+0x91e8>
    80000e7a:	911a                	add	sp,sp,t1
    80000e7c:	0000100f          	fence.i
    80000e80:	37b9                	addw	a5,a5,-18
    80000e82:	0ff0000f          	fence
    80000e86:	a27829d3          	feq.d	s3,fa6,ft7
    80000e8a:	6121                	add	sp,sp,64
    80000e8c:	00f127af          	amoadd.w	a5,a5,(sp)
    80000e90:	0147da13          	srl	s4,a5,0x14

0000000080000e94 <b0000000110>:
    80000e94:	00000c97          	auipc	s9,0x0
    80000e98:	03ac8c93          	add	s9,s9,58 # 80000ece <i0000000116>
    80000e9c:	000c8067          	jr	s9
    80000ea0:	e1b123af          	amomaxu.w	t2,s11,(sp)
    80000ea4:	027ddfbb          	divuw	t6,s11,t2
    80000ea8:	032807bb          	mulw	a5,a6,s2
    80000eac:	7826                	ld	a6,104(sp)
    80000eae:	2a02                	fld	fs4,0(sp)
    80000eb0:	032ed7bb          	divuw	a5,t4,s2
    80000eb4:	8e49ef93          	or	t6,s3,-1820

0000000080000eb8 <i0000000110>:
    80000eb8:	c233f953          	fcvt.lu.d	s2,ft7

0000000080000ebc <i0000000111>:
    80000ebc:	2101332f          	amoxor.d	t1,a6,(sp)

0000000080000ec0 <i0000000112>:
    80000ec0:	4412                	lw	s0,4(sp)

0000000080000ec2 <i0000000113>:
    80000ec2:	cd542493          	slti	s1,s0,-811

0000000080000ec6 <i0000000114>:
    80000ec6:	a2f103a3          	sb	a5,-1497(sp)

0000000080000eca <i0000000115>:
    80000eca:	d2190153          	fcvt.d.wu	ft2,s2

0000000080000ece <i0000000116>:
    80000ece:	c23afb53          	fcvt.lu.d	s6,fs5

0000000080000ed2 <i0000000117>:
    80000ed2:	4525                	li	a0,9

0000000080000ed4 <i0000000118>:
    80000ed4:	f9113823          	sd	a7,-112(sp)

0000000080000ed8 <i0000000119>:
    80000ed8:	e20389d3          	fmv.x.d	s3,ft7

0000000080000edc <i000000011a>:
    80000edc:	946a                	add	s0,s0,s10
    80000ede:	000df117          	auipc	sp,0xdf
    80000ee2:	12210113          	add	sp,sp,290 # 800e0000 <begin_signature>
    80000ee6:	6329                	lui	t1,0xa
    80000ee8:	8a03031b          	addw	t1,t1,-1888 # 98a0 <_tbss_end+0x98a0>
    80000eec:	911a                	add	sp,sp,t1
    80000eee:	acf2                	fsd	ft8,88(sp)
    80000ef0:	0776                	sll	a4,a4,0x1d
    80000ef2:	00591b1b          	sllw	s6,s2,0x5
    80000ef6:	6402                	ld	s0,0(sp)
    80000ef8:	2a01b797          	auipc	a5,0x2a01b
    80000efc:	a5f10983          	lb	s3,-1441(sp)
    80000f00:	60e137af          	amoand.d	a5,a4,(sp)

0000000080000f04 <b000000011b>:
    80000f04:	00000f97          	auipc	t6,0x0
    80000f08:	04af8f93          	add	t6,t6,74 # 80000f4e <i0000000121>
    80000f0c:	000f8067          	jr	t6
    80000f10:	1e012003          	lw	zero,480(sp)
    80000f14:	d24e                	sw	s3,36(sp)
    80000f16:	e0f1242f          	amomaxu.w	s0,a5,(sp)
    80000f1a:	02879433          	mulh	s0,a5,s0
    80000f1e:	0398                	add	a4,sp,448
    80000f20:	00e79733          	sll	a4,a5,a4
    80000f24:	d221ff53          	fcvt.d.l	ft10,gp

0000000080000f28 <i000000011b>:
    80000f28:	ad26                	fsd	fs1,152(sp)

0000000080000f2a <i000000011c>:
    80000f2a:	4019dc93          	sra	s9,s3,0x1
    80000f2e:	000df117          	auipc	sp,0xdf
    80000f32:	0d210113          	add	sp,sp,210 # 800e0000 <begin_signature>
    80000f36:	6311                	lui	t1,0x4
    80000f38:	cf83031b          	addw	t1,t1,-776 # 3cf8 <_tbss_end+0x3cf8>
    80000f3c:	911a                	add	sp,sp,t1

0000000080000f3e <i000000011d>:
    80000f3e:	e4812d83          	lw	s11,-440(sp)

0000000080000f42 <i000000011e>:
    80000f42:	0b815503          	lhu	a0,184(sp)

0000000080000f46 <i000000011f>:
    80000f46:	017139af          	amoadd.d	s3,s7,(sp)

0000000080000f4a <i0000000120>:
    80000f4a:	c034f753          	fcvt.lu.s	a4,fs1

0000000080000f4e <i0000000121>:
    80000f4e:	f20401d3          	fmv.d.x	ft3,s0

0000000080000f52 <i0000000122>:
    80000f52:	6105                	add	sp,sp,32

0000000080000f54 <i0000000123>:
    80000f54:	0289d533          	divu	a0,s3,s0

0000000080000f58 <i0000000124>:
    80000f58:	0ff0000f          	fence

0000000080000f5c <i0000000125>:
    80000f5c:	c0348bd3          	fcvt.lu.s	s7,fs1,rne
    80000f60:	49a9                	li	s3,10
    80000f62:	9922                	add	s2,s2,s0
    80000f64:	0000100f          	fence.i
    80000f68:	03fc5cbb          	divuw	s9,s8,t6
    80000f6c:	00e4d833          	srl	a6,s1,a4
    80000f70:	c03bcc53          	fcvt.lu.s	s8,fs7,rmm
    80000f74:	c6e14883          	lbu	a7,-914(sp)
    80000f78:	ce1e                	sw	t2,28(sp)

0000000080000f7a <b0000000126>:
    80000f7a:	013a8863          	beq	s5,s3,80000f8a <b0000000126+0x10>
    80000f7e:	00000997          	auipc	s3,0x0
    80000f82:	fcc98993          	add	s3,s3,-52 # 80000f4a <i0000000120>
    80000f86:	00098067          	jr	s3
    80000f8a:	4aa9                	li	s5,10
    80000f8c:	0000100f          	fence.i
    80000f90:	009124af          	amoadd.w	s1,s1,(sp)
    80000f94:	c233f753          	fcvt.lu.d	a4,ft7
    80000f98:	410907bb          	subw	a5,s2,a6
    80000f9c:	006bd41b          	srlw	s0,s7,0x6
    80000fa0:	02ebdeb3          	divu	t4,s7,a4
    80000fa4:	d02a2853          	fcvt.s.l	fa6,s4,rdn

0000000080000fa8 <i0000000126>:
    80000fa8:	0000100f          	fence.i

0000000080000fac <i0000000127>:
    80000fac:	0326ddbb          	divuw	s11,a3,s2

0000000080000fb0 <i0000000128>:
    80000fb0:	0ff0000f          	fence

0000000080000fb4 <i0000000129>:
    80000fb4:	0000100f          	fence.i

0000000080000fb8 <i000000012a>:
    80000fb8:	02a9a2b3          	mulhsu	t0,s3,a0

0000000080000fbc <i000000012b>:
    80000fbc:	00847933          	and	s2,s0,s0

0000000080000fc0 <i000000012c>:
    80000fc0:	2609                	addw	a2,a2,2
    80000fc2:	000df117          	auipc	sp,0xdf
    80000fc6:	03e10113          	add	sp,sp,62 # 800e0000 <begin_signature>
    80000fca:	6311                	lui	t1,0x4
    80000fcc:	7d83031b          	addw	t1,t1,2008 # 47d8 <_tbss_end+0x47d8>
    80000fd0:	911a                	add	sp,sp,t1

0000000080000fd2 <i000000012d>:
    80000fd2:	49b2                	lw	s3,12(sp)
    80000fd4:	000df117          	auipc	sp,0xdf
    80000fd8:	02c10113          	add	sp,sp,44 # 800e0000 <begin_signature>
    80000fdc:	6311                	lui	t1,0x4
    80000fde:	7b03031b          	addw	t1,t1,1968 # 47b0 <_tbss_end+0x47b0>
    80000fe2:	911a                	add	sp,sp,t1

0000000080000fe4 <i000000012e>:
    80000fe4:	8d013983          	ld	s3,-1840(sp)

0000000080000fe8 <i000000012f>:
    80000fe8:	2fb14383          	lbu	t2,763(sp)

0000000080000fec <i0000000130>:
    80000fec:	40d1352f          	amoor.d	a0,a3,(sp)
    80000ff0:	000df117          	auipc	sp,0xdf
    80000ff4:	01010113          	add	sp,sp,16 # 800e0000 <begin_signature>
    80000ff8:	6331                	lui	t1,0xc
    80000ffa:	ea03031b          	addw	t1,t1,-352 # bea0 <_tbss_end+0xbea0>
    80000ffe:	911a                	add	sp,sp,t1
    80001000:	3626                	fld	fa2,104(sp)
    80001002:	0ff0000f          	fence
    80001006:	f9816983          	lwu	s3,-104(sp)
    8000100a:	a05e89d3          	fle.s	s3,ft9,ft5
    8000100e:	2502                	fld	fa0,0(sp)
    80001010:	809d                	srl	s1,s1,0x7
    80001012:	0000100f          	fence.i

0000000080001016 <b0000000131>:
    80001016:	00000897          	auipc	a7,0x0
    8000101a:	03488893          	add	a7,a7,52 # 8000104a <i0000000136>
    8000101e:	00088067          	jr	a7
    80001022:	c220f053          	fcvt.l.d	zero,ft1
    80001026:	8755                	sra	a4,a4,0x15
    80001028:	74e6                	ld	s1,120(sp)
    8000102a:	e131242f          	amomaxu.w	s0,s3,(sp)
    8000102e:	4010599b          	sraw	s3,zero,0x1
    80001032:	11016983          	lwu	s3,272(sp)
    80001036:	03dc2fb3          	mulhsu	t6,s8,t4

000000008000103a <i0000000131>:
    8000103a:	20a13f2f          	amoxor.d	t5,a0,(sp)

000000008000103e <i0000000132>:
    8000103e:	60a1242f          	amoand.w	s0,a0,(sp)

0000000080001042 <i0000000133>:
    80001042:	d816                	sw	t0,48(sp)

0000000080001044 <i0000000134>:
    80001044:	b35c8f93          	add	t6,s9,-1227

0000000080001048 <i0000000135>:
    80001048:	6486                	ld	s1,64(sp)

000000008000104a <i0000000136>:
    8000104a:	7105                	add	sp,sp,-480

000000008000104c <i0000000137>:
    8000104c:	a2632553          	feq.d	a0,ft6,ft6

0000000080001050 <i0000000138>:
    80001050:	400122af          	amoor.w	t0,zero,(sp)

0000000080001054 <i0000000139>:
    80001054:	10eb03cf          	fnmadd.s	ft7,fs6,fa4,ft2,rne

0000000080001058 <i000000013a>:
    80001058:	0000100f          	fence.i

000000008000105c <i000000013b>:
    8000105c:	e86a                	sd	s10,16(sp)
    8000105e:	4a31                	li	s4,12
    80001060:	0a85                	add	s5,s5,1
    80001062:	000df117          	auipc	sp,0xdf
    80001066:	f9e10113          	add	sp,sp,-98 # 800e0000 <begin_signature>
    8000106a:	6325                	lui	t1,0x9
    8000106c:	9803031b          	addw	t1,t1,-1664 # 8980 <_tbss_end+0x8980>
    80001070:	911a                	add	sp,sp,t1
    80001072:	000df117          	auipc	sp,0xdf
    80001076:	f8e10113          	add	sp,sp,-114 # 800e0000 <begin_signature>
    8000107a:	6325                	lui	t1,0x9
    8000107c:	c103031b          	addw	t1,t1,-1008 # 8c10 <_tbss_end+0x8c10>
    80001080:	911a                	add	sp,sp,t1
    80001082:	e422                	sd	s0,8(sp)
    80001084:	714d                	add	sp,sp,-336
    80001086:	ba814e83          	lbu	t4,-1112(sp)
    8000108a:	e20497d3          	fclass.d	a5,fs1
    8000108e:	8371                	srl	a4,a4,0x1c
    80001090:	10e0                	add	s0,sp,108
    80001092:	0000100f          	fence.i

0000000080001096 <b000000013c>:
    80001096:	00000033          	add	zero,zero,zero
    8000109a:	fb5a58e3          	bge	s4,s5,8000104a <i0000000136>
    8000109e:	00000033          	add	zero,zero,zero
    800010a2:	c612                	sw	tp,12(sp)
    800010a4:	09c16403          	lwu	s0,156(sp)
    800010a8:	5c3e9797          	auipc	a5,0x5c3e9
    800010ac:	1a5c7fcf          	fnmadd.d	ft11,fs8,ft5,ft3
    800010b0:	d028abd3          	fcvt.s.l	fs7,a7,rdn
    800010b4:	0000100f          	fence.i
    800010b8:	9ae5f84f          	fnmadd.d	fa6,fa1,fa4,fs3
    800010bc:	4aa9                	li	s5,10

00000000800010be <i000000013c>:
    800010be:	02a9a533          	mulhsu	a0,s3,a0

00000000800010c2 <i000000013d>:
    800010c2:	01c35593          	srl	a1,t1,0x1c

00000000800010c6 <i000000013e>:
    800010c6:	cc298c9b          	addw	s9,s3,-830

00000000800010ca <i000000013f>:
    800010ca:	b9311323          	sh	s3,-1146(sp)

00000000800010ce <i0000000140>:
    800010ce:	c23efbd3          	fcvt.lu.d	s7,ft9
    800010d2:	000df117          	auipc	sp,0xdf
    800010d6:	f2e10113          	add	sp,sp,-210 # 800e0000 <begin_signature>
    800010da:	633d                	lui	t1,0xf
    800010dc:	e983031b          	addw	t1,t1,-360 # ee98 <_tbss_end+0xee98>
    800010e0:	911a                	add	sp,sp,t1

00000000800010e2 <i0000000141>:
    800010e2:	2746                	fld	fa4,80(sp)

00000000800010e4 <i0000000142>:
    800010e4:	413125af          	amoor.w	a1,s3,(sp)

00000000800010e8 <i0000000143>:
    800010e8:	41625993          	sra	s3,tp,0x16

00000000800010ec <i0000000144>:
    800010ec:	20812a2f          	amoxor.w	s4,s0,(sp)
    800010f0:	000df117          	auipc	sp,0xdf
    800010f4:	f1010113          	add	sp,sp,-240 # 800e0000 <begin_signature>
    800010f8:	6305                	lui	t1,0x1
    800010fa:	4c83031b          	addw	t1,t1,1224 # 14c8 <_tbss_end+0x14c8>
    800010fe:	911a                	add	sp,sp,t1

0000000080001100 <i0000000145>:
    80001100:	a832                	fsd	fa2,16(sp)

0000000080001102 <i0000000146>:
    80001102:	c22779d3          	fcvt.l.d	s3,fa4
    80001106:	4dad                	li	s11,11
    80001108:	4aa9                	li	s5,10
    8000110a:	000df117          	auipc	sp,0xdf
    8000110e:	ef610113          	add	sp,sp,-266 # 800e0000 <begin_signature>
    80001112:	630d                	lui	t1,0x3
    80001114:	5383031b          	addw	t1,t1,1336 # 3538 <_tbss_end+0x3538>
    80001118:	911a                	add	sp,sp,t1
    8000111a:	d03d23d3          	fcvt.s.lu	ft7,s10,rdn
    8000111e:	2dc11183          	lh	gp,732(sp)
    80001122:	03a709bb          	mulw	s3,a4,s10
    80001126:	c03d3a53          	fcvt.lu.s	s4,fs10,rup
    8000112a:	d223f853          	fcvt.d.l	fa6,t2
    8000112e:	d22973d3          	fcvt.d.l	ft7,s2
    80001132:	678a                	ld	a5,128(sp)

0000000080001134 <b0000000147>:
    80001134:	00000033          	add	zero,zero,zero
    80001138:	03ba9863          	bne	s5,s11,80001168 <i000000014c>
    8000113c:	00000033          	add	zero,zero,zero
    80001140:	8f79c893          	xor	a7,s3,-1801
    80001144:	674d                	lui	a4,0x13
    80001146:	6e26                	ld	t3,72(sp)
    80001148:	d02b85d3          	fcvt.s.l	fa1,s7,rne
    8000114c:	e83a                	sd	a4,16(sp)
    8000114e:	613129af          	amoand.w	s3,s3,(sp)
    80001152:	8c7d                	and	s0,s0,a5
    80001154:	4aa9                	li	s5,10

0000000080001156 <i0000000147>:
    80001156:	02efe83b          	remw	a6,t6,a4

000000008000115a <i0000000148>:
    8000115a:	08d8                	add	a4,sp,84

000000008000115c <i0000000149>:
    8000115c:	0339dfb3          	divu	t6,s3,s3

0000000080001160 <i000000014a>:
    80001160:	21cd2553          	fsgnjx.s	fa0,fs10,ft8

0000000080001164 <i000000014b>:
    80001164:	4ae4f64f          	fnmadd.d	fa2,fs1,fa4,fs1

0000000080001168 <i000000014c>:
    80001168:	d01843d3          	fcvt.s.wu	ft7,a6,rmm

000000008000116c <i000000014d>:
    8000116c:	c2197ed3          	fcvt.wu.d	t4,fs2
    80001170:	000df117          	auipc	sp,0xdf
    80001174:	e9010113          	add	sp,sp,-368 # 800e0000 <begin_signature>
    80001178:	630d                	lui	t1,0x3
    8000117a:	bd03031b          	addw	t1,t1,-1072 # 2bd0 <_tbss_end+0x2bd0>
    8000117e:	911a                	add	sp,sp,t1

0000000080001180 <i000000014e>:
    80001180:	ce3a                	sw	a4,28(sp)

0000000080001182 <i000000014f>:
    80001182:	02eb49bb          	divw	s3,s6,a4

0000000080001186 <i0000000150>:
    80001186:	8992                	mv	s3,tp

0000000080001188 <i0000000151>:
    80001188:	227722d3          	fsgnjx.d	ft5,fa4,ft7
    8000118c:	4fa9                	li	t6,10
    8000118e:	000df117          	auipc	sp,0xdf
    80001192:	e7210113          	add	sp,sp,-398 # 800e0000 <begin_signature>
    80001196:	632d                	lui	t1,0xb
    80001198:	8903031b          	addw	t1,t1,-1904 # a890 <_tbss_end+0xa890>
    8000119c:	911a                	add	sp,sp,t1
    8000119e:	000df117          	auipc	sp,0xdf
    800011a2:	e6210113          	add	sp,sp,-414 # 800e0000 <begin_signature>
    800011a6:	6309                	lui	t1,0x2
    800011a8:	d383031b          	addw	t1,t1,-712 # 1d38 <_tbss_end+0x1d38>
    800011ac:	911a                	add	sp,sp,t1
    800011ae:	2ac11783          	lh	a5,684(sp)
    800011b2:	56611983          	lh	s3,1382(sp)
    800011b6:	f20c8d53          	fmv.d.x	fs10,s9
    800011ba:	83b9                	srl	a5,a5,0xe
    800011bc:	6762                	ld	a4,24(sp)
    800011be:	0000100f          	fence.i
    800011c2:	11e4                	add	s1,sp,236

00000000800011c4 <b0000000152>:
    800011c4:	01fa8863          	beq	s5,t6,800011d4 <b0000000152+0x10>
    800011c8:	00000f97          	auipc	t6,0x0
    800011cc:	fa4f8f93          	add	t6,t6,-92 # 8000116c <i000000014d>
    800011d0:	000f8067          	jr	t6
    800011d4:	4aa9                	li	s5,10
    800011d6:	b432                	fsd	fa2,40(sp)
    800011d8:	d0172853          	fcvt.s.wu	fa6,a4,rdn
    800011dc:	c02c9853          	fcvt.l.s	a6,fs9,rtz
    800011e0:	e1d131af          	amomaxu.d	gp,t4,(sp)
    800011e4:	d239fe53          	fcvt.d.lu	ft8,s3
    800011e8:	818139af          	amomin.d	s3,s8,(sp)
    800011ec:	0ff0000f          	fence

00000000800011f0 <i0000000152>:
    800011f0:	e20519d3          	fclass.d	s3,fa0

00000000800011f4 <i0000000153>:
    800011f4:	d039f3d3          	fcvt.s.lu	ft7,s3

00000000800011f8 <i0000000154>:
    800011f8:	1f414503          	lbu	a0,500(sp)

00000000800011fc <i0000000155>:
    800011fc:	8d21                	xor	a0,a0,s0

00000000800011fe <i0000000156>:
    800011fe:	d035a7d3          	fcvt.s.lu	fa5,a1,rdn

0000000080001202 <i0000000157>:
    80001202:	d2257853          	fcvt.d.l	fa6,a0

0000000080001206 <i0000000158>:
    80001206:	007c                	add	a5,sp,12

0000000080001208 <i0000000159>:
    80001208:	d237f553          	fcvt.d.lu	fa0,a5

000000008000120c <i000000015a>:
    8000120c:	8629                	sra	a2,a2,0xa

000000008000120e <i000000015b>:
    8000120e:	9d11                	subw	a0,a0,a2

0000000080001210 <i000000015c>:
    80001210:	020d3533          	mulhu	a0,s10,zero
    80001214:	4ea5                	li	t4,9
    80001216:	000df117          	auipc	sp,0xdf
    8000121a:	dea10113          	add	sp,sp,-534 # 800e0000 <begin_signature>
    8000121e:	6321                	lui	t1,0x8
    80001220:	ef83031b          	addw	t1,t1,-264 # 7ef8 <_tbss_end+0x7ef8>
    80001224:	911a                	add	sp,sp,t1
    80001226:	4406                	lw	s0,64(sp)
    80001228:	96813d03          	ld	s10,-1688(sp)
    8000122c:	c023a453          	fcvt.l.s	s0,ft7,rdn
    80001230:	0289c433          	div	s0,s3,s0
    80001234:	df016403          	lwu	s0,-528(sp)
    80001238:	d23bfad3          	fcvt.d.lu	fs5,s7
    8000123c:	d03b20d3          	fcvt.s.lu	ft1,s6,rdn

0000000080001240 <b000000015d>:
    80001240:	00000033          	add	zero,zero,zero
    80001244:	fd5ed1e3          	bge	t4,s5,80001206 <i0000000158>
    80001248:	00000033          	add	zero,zero,zero
    8000124c:	0ff0000f          	fence
    80001250:	d03bfbd3          	fcvt.s.lu	fs7,s7
    80001254:	d239fbd3          	fcvt.d.lu	fs7,s3
    80001258:	0248d43b          	divuw	s0,a7,tp
    8000125c:	d7016703          	lwu	a4,-656(sp)
    80001260:	c2287cd3          	fcvt.l.d	s9,fa6
    80001264:	290381d3          	fmin.s	ft3,ft7,fa6
    80001268:	4aa9                	li	s5,10

000000008000126a <i000000015d>:
    8000126a:	0000100f          	fence.i

000000008000126e <i000000015e>:
    8000126e:	b51e                	fsd	ft7,168(sp)

0000000080001270 <i000000015f>:
    80001270:	49c16983          	lwu	s3,1180(sp)

0000000080001274 <i0000000160>:
    80001274:	bc26                	fsd	fs1,56(sp)

0000000080001276 <i0000000161>:
    80001276:	80a12caf          	amomin.w	s9,a0,(sp)

000000008000127a <i0000000162>:
    8000127a:	a03e                	fsd	fa5,0(sp)

000000008000127c <i0000000163>:
    8000127c:	a12d09d3          	fle.s	s3,fs10,fs2

0000000080001280 <i0000000164>:
    80001280:	1141                	add	sp,sp,-16
    80001282:	e42e                	sd	a1,8(sp)
    80001284:	e80e                	sd	gp,16(sp)
    80001286:	00000597          	auipc	a1,0x0
    8000128a:	00858593          	add	a1,a1,8 # 8000128e <i0000000164+0xe>
    8000128e:	000001e7          	jalr	gp,zero # 0 <_tbss_end>
    80001292:	65a2                	ld	a1,8(sp)
    80001294:	61c2                	ld	gp,16(sp)
    80001296:	0141                	add	sp,sp,16

0000000080001298 <i0000000165>:
    80001298:	5803ca53          	fsqrt.s	fs4,ft7,rmm

000000008000129c <i0000000166>:
    8000129c:	0841252f          	amoswap.w	a0,tp,(sp)

00000000800012a0 <i0000000167>:
    800012a0:	8c21                	xor	s0,s0,s0

00000000800012a2 <i0000000168>:
    800012a2:	eb29a513          	slti	a0,s3,-334
    800012a6:	4ea9                	li	t4,10
    800012a8:	000df117          	auipc	sp,0xdf
    800012ac:	d5810113          	add	sp,sp,-680 # 800e0000 <begin_signature>
    800012b0:	6329                	lui	t1,0xa
    800012b2:	2a03031b          	addw	t1,t1,672 # a2a0 <_tbss_end+0xa2a0>
    800012b6:	911a                	add	sp,sp,t1
    800012b8:	e8a2                	sd	s0,80(sp)
    800012ba:	a041242f          	amomax.w	s0,tp,(sp)
    800012be:	b0ba                	fsd	fa4,96(sp)
    800012c0:	0891272f          	amoswap.w	a4,s1,(sp)
    800012c4:	79ca                	ld	s3,176(sp)
    800012c6:	22c16983          	lwu	s3,556(sp)
    800012ca:	f2020853          	fmv.d.x	fa6,tp

00000000800012ce <b0000000169>:
    800012ce:	00000033          	add	zero,zero,zero
    800012d2:	05da8063          	beq	s5,t4,80001312 <i000000016e>
    800012d6:	00000033          	add	zero,zero,zero
    800012da:	678a                	ld	a5,128(sp)
    800012dc:	1b84                	add	s1,sp,496
    800012de:	f5c14983          	lbu	s3,-164(sp)
    800012e2:	ed8e                	sd	gp,216(sp)
    800012e4:	fa813023          	sd	s0,-96(sp)
    800012e8:	5a02fbd3          	fsqrt.d	fs7,ft5
    800012ec:	0134f9b3          	and	s3,s1,s3
    800012f0:	4aa9                	li	s5,10
    800012f2:	000df117          	auipc	sp,0xdf
    800012f6:	d0e10113          	add	sp,sp,-754 # 800e0000 <begin_signature>
    800012fa:	6329                	lui	t1,0xa
    800012fc:	e103031b          	addw	t1,t1,-496 # 9e10 <_tbss_end+0x9e10>
    80001300:	911a                	add	sp,sp,t1

0000000080001302 <i0000000169>:
    80001302:	e8b6                	sd	a3,80(sp)

0000000080001304 <i000000016a>:
    80001304:	d229ffd3          	fcvt.d.l	ft11,s3

0000000080001308 <i000000016b>:
    80001308:	a0e3a653          	feq.s	a2,ft7,fa4

000000008000130c <i000000016c>:
    8000130c:	c2207453          	fcvt.l.d	s0,ft0

0000000080001310 <i000000016d>:
    80001310:	b926                	fsd	fs1,176(sp)

0000000080001312 <i000000016e>:
    80001312:	6346                	ld	t1,80(sp)

0000000080001314 <i000000016f>:
    80001314:	62aa                	ld	t0,136(sp)

0000000080001316 <i0000000170>:
    80001316:	038b59bb          	divuw	s3,s6,s8
    8000131a:	000df117          	auipc	sp,0xdf
    8000131e:	ce610113          	add	sp,sp,-794 # 800e0000 <begin_signature>
    80001322:	632d                	lui	t1,0xb
    80001324:	6003031b          	addw	t1,t1,1536 # b600 <_tbss_end+0xb600>
    80001328:	911a                	add	sp,sp,t1

000000008000132a <i0000000171>:
    8000132a:	3562                	fld	fa0,56(sp)

000000008000132c <i0000000172>:
    8000132c:	d622                	sw	s0,44(sp)

000000008000132e <i0000000173>:
    8000132e:	d02f8653          	fcvt.s.l	fa2,t6,rne
    80001332:	4c2d                	li	s8,11
    80001334:	4aa9                	li	s5,10
    80001336:	004e1993          	sll	s3,t3,0x4
    8000133a:	8131242f          	amomin.w	s0,s3,(sp)
    8000133e:	7179                	add	sp,sp,-48
    80001340:	e0089453          	fclass.s	s0,fa7
    80001344:	032e3cb3          	mulhu	s9,t3,s2
    80001348:	77a6                	ld	a5,104(sp)
    8000134a:	2006                	fld	ft0,64(sp)

000000008000134c <b0000000174>:
    8000134c:	00000033          	add	zero,zero,zero
    80001350:	035c5d63          	bge	s8,s5,8000138a <i000000017a>
    80001354:	00000033          	add	zero,zero,zero
    80001358:	44013783          	ld	a5,1088(sp)
    8000135c:	036c823b          	mulw	tp,s9,s6
    80001360:	0337a033          	mulhsu	zero,a5,s3
    80001364:	01c1222f          	amoadd.w	tp,t3,(sp)
    80001368:	d23bfbd3          	fcvt.d.lu	fs7,s7
    8000136c:	c223fbd3          	fcvt.l.d	s7,ft7
    80001370:	00f3ecb3          	or	s9,t2,a5
    80001374:	4aa9                	li	s5,10

0000000080001376 <i0000000174>:
    80001376:	e2013583          	ld	a1,-480(sp)

000000008000137a <i0000000175>:
    8000137a:	69c10323          	sb	t3,1670(sp)

000000008000137e <i0000000176>:
    8000137e:	d03273d3          	fcvt.s.lu	ft7,tp

0000000080001382 <i0000000177>:
    80001382:	b81e                	fsd	ft7,48(sp)

0000000080001384 <i0000000178>:
    80001384:	d029f553          	fcvt.s.l	fa0,s3

0000000080001388 <i0000000179>:
    80001388:	8d29                	xor	a0,a0,a0

000000008000138a <i000000017a>:
    8000138a:	7422                	ld	s0,40(sp)

000000008000138c <i000000017b>:
    8000138c:	0ff0000f          	fence

0000000080001390 <i000000017c>:
    80001390:	9c21                	addw	s0,s0,s0

0000000080001392 <i000000017d>:
    80001392:	43c9d413          	sra	s0,s3,0x3c

0000000080001396 <i000000017e>:
    80001396:	0000100f          	fence.i
    8000139a:	42058753          	fcvt.d.s	fa4,fa1
    8000139e:	41ad07bb          	subw	a5,s10,s10
    800013a2:	c21879d3          	fcvt.wu.d	s3,fa6
    800013a6:	0ff0000f          	fence
    800013aa:	c03d7453          	fcvt.lu.s	s0,fs10
    800013ae:	004db233          	sltu	tp,s11,tp
    800013b2:	c04123af          	amominu.w	t2,tp,(sp)

00000000800013b6 <b000000017f>:
    800013b6:	00000e97          	auipc	t4,0x0
    800013ba:	04ae8e93          	add	t4,t4,74 # 80001400 <i0000000185>
    800013be:	000e8067          	jr	t4
    800013c2:	0313f9bb          	remuw	s3,t2,a7
    800013c6:	d20d03d3          	fcvt.d.w	ft7,s10
    800013ca:	d0812e23          	sw	s0,-740(sp)
    800013ce:	d022                	sw	s0,32(sp)
    800013d0:	1184                	add	s1,sp,224
    800013d2:	d0341bd3          	fcvt.s.lu	fs7,s0,rtz
    800013d6:	50514903          	lbu	s2,1285(sp)
    800013da:	000df117          	auipc	sp,0xdf
    800013de:	c2610113          	add	sp,sp,-986 # 800e0000 <begin_signature>
    800013e2:	6329                	lui	t1,0xa
    800013e4:	b583031b          	addw	t1,t1,-1192 # 9b58 <_tbss_end+0x9b58>
    800013e8:	911a                	add	sp,sp,t1

00000000800013ea <i000000017f>:
    800013ea:	9aa13023          	sd	a0,-1632(sp)

00000000800013ee <i0000000180>:
    800013ee:	f63fe0ef          	jal	80000350 <func1>

00000000800013f2 <i0000000181>:
    800013f2:	005f843b          	addw	s0,t6,t0

00000000800013f6 <i0000000182>:
    800013f6:	da22                	sw	s0,52(sp)

00000000800013f8 <i0000000183>:
    800013f8:	66626517          	auipc	a0,0x66626

00000000800013fc <i0000000184>:
    800013fc:	013999bb          	sllw	s3,s3,s3

0000000080001400 <i0000000185>:
    80001400:	a04a                	fsd	fs2,0(sp)

0000000080001402 <i0000000186>:
    80001402:	0ff0000f          	fence

0000000080001406 <i0000000187>:
    80001406:	01131433          	sll	s0,t1,a7

000000008000140a <i0000000188>:
    8000140a:	1141                	add	sp,sp,-16
    8000140c:	e416                	sd	t0,8(sp)
    8000140e:	e81e                	sd	t2,16(sp)
    80001410:	828a                	mv	t0,sp
    80001412:	4385                	li	t2,1
    80001414:	027282b3          	mul	t0,t0,t2
    80001418:	0072b123          	sd	t2,2(t0)
    8000141c:	027282b3          	mul	t0,t0,t2
    80001420:	62a2                	ld	t0,8(sp)
    80001422:	63c2                	ld	t2,16(sp)
    80001424:	0141                	add	sp,sp,16
    80001426:	000df117          	auipc	sp,0xdf
    8000142a:	bda10113          	add	sp,sp,-1062 # 800e0000 <begin_signature>
    8000142e:	631d                	lui	t1,0x7
    80001430:	dc83031b          	addw	t1,t1,-568 # 6dc8 <_tbss_end+0x6dc8>
    80001434:	911a                	add	sp,sp,t1

0000000080001436 <i0000000189>:
    80001436:	c8aa                	sw	a0,80(sp)

0000000080001438 <i000000018a>:
    80001438:	293213d3          	fmax.s	ft7,ft4,fs3

000000008000143c <i000000018b>:
    8000143c:	0400                	add	s0,sp,512
    8000143e:	4fb1                	li	t6,12
    80001440:	0a85                	add	s5,s5,1
    80001442:	000df117          	auipc	sp,0xdf
    80001446:	bbe10113          	add	sp,sp,-1090 # 800e0000 <begin_signature>
    8000144a:	632d                	lui	t1,0xb
    8000144c:	1c03031b          	addw	t1,t1,448 # b1c0 <_tbss_end+0xb1c0>
    80001450:	911a                	add	sp,sp,t1
    80001452:	c1c1242f          	amominu.w	s0,t3,(sp)
    80001456:	b026                	fsd	fs1,32(sp)
    80001458:	8e42                	mv	t3,a6
    8000145a:	f20c04d3          	fmv.d.x	fs1,s8
    8000145e:	417bdcbb          	sraw	s9,s7,s7
    80001462:	c23d77d3          	fcvt.lu.d	a5,fs10
    80001466:	ac3e                	fsd	fa5,24(sp)

0000000080001468 <b000000018c>:
    80001468:	00000033          	add	zero,zero,zero
    8000146c:	f9fa9de3          	bne	s5,t6,80001406 <i0000000187>
    80001470:	00000033          	add	zero,zero,zero
    80001474:	1a412703          	lw	a4,420(sp)
    80001478:	03812003          	lw	zero,56(sp)
    8000147c:	027b443b          	divw	s0,s6,t2
    80001480:	aca2                	fsd	fs0,88(sp)
    80001482:	039ec833          	div	a6,t4,s9
    80001486:	b7b11823          	sh	s11,-1168(sp)
    8000148a:	40ebda3b          	sraw	s4,s7,a4
    8000148e:	4aa9                	li	s5,10

0000000080001490 <i000000018c>:
    80001490:	408459bb          	sraw	s3,s0,s0

0000000080001494 <i000000018d>:
    80001494:	24e6                	fld	fs1,88(sp)
    80001496:	000df117          	auipc	sp,0xdf
    8000149a:	b6a10113          	add	sp,sp,-1174 # 800e0000 <begin_signature>
    8000149e:	6309                	lui	t1,0x2
    800014a0:	da03031b          	addw	t1,t1,-608 # 1da0 <_tbss_end+0x1da0>
    800014a4:	911a                	add	sp,sp,t1

00000000800014a6 <i000000018e>:
    800014a6:	47d2                	lw	a5,20(sp)

00000000800014a8 <i000000018f>:
    800014a8:	213122af          	amoxor.w	t0,s3,(sp)

00000000800014ac <i0000000190>:
    800014ac:	4129d993          	sra	s3,s3,0x12

00000000800014b0 <i0000000191>:
    800014b0:	230488d3          	fsgnj.d	fa7,fs1,fa6

00000000800014b4 <i0000000192>:
    800014b4:	1b00                	add	s0,sp,432

00000000800014b6 <i0000000193>:
    800014b6:	16fd                	add	a3,a3,-1

00000000800014b8 <i0000000194>:
    800014b8:	0334053b          	mulw	a0,s0,s3

00000000800014bc <i0000000195>:
    800014bc:	0022d073          	fsrmi	zero,5

00000000800014c0 <i0000000196>:
    800014c0:	d03526d3          	fcvt.s.lu	fa3,a0,rdn

00000000800014c4 <i0000000197>:
    800014c4:	a1612caf          	amomax.w	s9,s6,(sp)
    800014c8:	48ad                	li	a7,11
    800014ca:	0a85                	add	s5,s5,1
    800014cc:	000df117          	auipc	sp,0xdf
    800014d0:	b3410113          	add	sp,sp,-1228 # 800e0000 <begin_signature>
    800014d4:	6325                	lui	t1,0x9
    800014d6:	5b83031b          	addw	t1,t1,1464 # 95b8 <_tbss_end+0x95b8>
    800014da:	911a                	add	sp,sp,t1
    800014dc:	00899733          	sll	a4,s3,s0
    800014e0:	0ff0000f          	fence
    800014e4:	ee016983          	lwu	s3,-288(sp)
    800014e8:	f6811983          	lh	s3,-152(sp)
    800014ec:	012d183b          	sllw	a6,s10,s2
    800014f0:	81013e2f          	amomin.d	t3,a6,(sp)
    800014f4:	9f25                	addw	a4,a4,s1

00000000800014f6 <b0000000198>:
    800014f6:	00000033          	add	zero,zero,zero
    800014fa:	fb1a8de3          	beq	s5,a7,800014b4 <i0000000192>
    800014fe:	00000033          	add	zero,zero,zero
    80001502:	42945f93          	sra	t6,s0,0x29
    80001506:	297f13d3          	fmax.s	ft7,ft10,fs7
    8000150a:	d2297053          	fcvt.d.l	ft0,s2
    8000150e:	8c25                	xor	s0,s0,s1
    80001510:	8c7d                	and	s0,s0,a5
    80001512:	030ddc33          	divu	s8,s11,a6
    80001516:	810a                	mv	sp,sp
    80001518:	4aa9                	li	s5,10

000000008000151a <i0000000198>:
    8000151a:	c0381453          	fcvt.lu.s	s0,fa6,rtz

000000008000151e <i0000000199>:
    8000151e:	0814                	add	a3,sp,16

0000000080001520 <i000000019a>:
    80001520:	8325                	srl	a4,a4,0x9

0000000080001522 <i000000019b>:
    80001522:	010c4033          	xor	zero,s8,a6

0000000080001526 <i000000019c>:
    80001526:	0000100f          	fence.i

000000008000152a <i000000019d>:
    8000152a:	0ff0000f          	fence

000000008000152e <i000000019e>:
    8000152e:	028469bb          	remw	s3,s0,s0

0000000080001532 <i000000019f>:
    80001532:	a06121af          	amomax.w	gp,t1,(sp)

0000000080001536 <i00000001a0>:
    80001536:	01b1352f          	amoadd.d	a0,s11,(sp)

000000008000153a <i00000001a1>:
    8000153a:	033549bb          	divw	s3,a0,s3
    8000153e:	000df117          	auipc	sp,0xdf
    80001542:	ac210113          	add	sp,sp,-1342 # 800e0000 <begin_signature>
    80001546:	630d                	lui	t1,0x3
    80001548:	2b03031b          	addw	t1,t1,688 # 32b0 <_tbss_end+0x32b0>
    8000154c:	911a                	add	sp,sp,t1

000000008000154e <i00000001a2>:
    8000154e:	c822                	sw	s0,16(sp)
    80001550:	482d                	li	a6,11
    80001552:	0a85                	add	s5,s5,1
    80001554:	000df117          	auipc	sp,0xdf
    80001558:	aac10113          	add	sp,sp,-1364 # 800e0000 <begin_signature>
    8000155c:	6329                	lui	t1,0xa
    8000155e:	1803031b          	addw	t1,t1,384 # a180 <_tbss_end+0xa180>
    80001562:	911a                	add	sp,sp,t1
    80001564:	000df117          	auipc	sp,0xdf
    80001568:	a9c10113          	add	sp,sp,-1380 # 800e0000 <begin_signature>
    8000156c:	630d                	lui	t1,0x3
    8000156e:	d203031b          	addw	t1,t1,-736 # 2d20 <_tbss_end+0x2d20>
    80001572:	911a                	add	sp,sp,t1
    80001574:	1499f037          	lui	zero,0x1499f
    80001578:	e8c16703          	lwu	a4,-372(sp)
    8000157c:	74e2                	ld	s1,56(sp)
    8000157e:	0ff0000f          	fence
    80001582:	803d                	srl	s0,s0,0xf
    80001584:	80b5                	srl	s1,s1,0xd
    80001586:	5a057253          	fsqrt.d	ft4,fa0

000000008000158a <b00000001a3>:
    8000158a:	00000033          	add	zero,zero,zero
    8000158e:	f90a8ee3          	beq	s5,a6,8000152a <i000000019d>
    80001592:	00000033          	add	zero,zero,zero
    80001596:	38761843          	fmadd.s	fa6,fa2,ft7,ft7,rtz
    8000159a:	401afbd3          	fcvt.s.d	fs7,fs5
    8000159e:	49e6                	lw	s3,88(sp)
    800015a0:	0341843b          	mulw	s0,gp,s4
    800015a4:	fb012783          	lw	a5,-80(sp)
    800015a8:	22961853          	fsgnjn.d	fa6,fa2,fs1
    800015ac:	8fbd                	xor	a5,a5,a5
    800015ae:	4aa9                	li	s5,10

00000000800015b0 <i00000001a3>:
    800015b0:	d0244953          	fcvt.s.l	fs2,s0,rmm

00000000800015b4 <i00000001a4>:
    800015b4:	612129af          	amoand.w	s3,s2,(sp)

00000000800015b8 <i00000001a5>:
    800015b8:	d232f053          	fcvt.d.lu	ft0,t0

00000000800015bc <i00000001a6>:
    800015bc:	941a                	add	s0,s0,t1

00000000800015be <i00000001a7>:
    800015be:	6946                	ld	s2,80(sp)

00000000800015c0 <i00000001a8>:
    800015c0:	02b1e9bb          	remw	s3,gp,a1

00000000800015c4 <i00000001a9>:
    800015c4:	00f93433          	sltu	s0,s2,a5

00000000800015c8 <i00000001aa>:
    800015c8:	ab1e                	fsd	ft7,400(sp)

00000000800015ca <i00000001ab>:
    800015ca:	d02572d3          	fcvt.s.l	ft5,a0

00000000800015ce <i00000001ac>:
    800015ce:	2061342f          	amoxor.d	s0,t1,(sp)

00000000800015d2 <i00000001ad>:
    800015d2:	8041                	srl	s0,s0,0x10
    800015d4:	20312eaf          	amoxor.w	t4,gp,(sp)
    800015d8:	e2038453          	fmv.x.d	s0,ft7
    800015dc:	4422                	lw	s0,8(sp)
    800015de:	0274bcb3          	mulhu	s9,s1,t2
    800015e2:	c029a8d3          	fcvt.l.s	a7,fs3,rdn
    800015e6:	01d1272f          	amoadd.w	a4,t4,(sp)
    800015ea:	e081342f          	amomaxu.d	s0,s0,(sp)

00000000800015ee <b00000001ae>:
    800015ee:	00000d97          	auipc	s11,0x0
    800015f2:	034d8d93          	add	s11,s11,52 # 80001622 <i00000001b3>
    800015f6:	000d80e7          	jalr	s11
    800015fa:	d0142a53          	fcvt.s.wu	fs4,s0,rdn
    800015fe:	b8040843          	fmadd.s	fa6,fs0,ft0,fs7,rne
    80001602:	032ba733          	mulhsu	a4,s7,s2
    80001606:	088129af          	amoswap.w	s3,s0,(sp)
    8000160a:	9f81                	subw	a5,a5,s0
    8000160c:	7930884f          	fnmadd.s	fa6,ft1,fs3,fa5,rne
    80001610:	64f14783          	lbu	a5,1615(sp)

0000000080001614 <i00000001ae>:
    80001614:	9002                	ebreak

0000000080001616 <i00000001af>:
    80001616:	37a5                	addw	a5,a5,-23 # ffffffffdc3ea091 <_end+0xffffffff5c2f7790>

0000000080001618 <i00000001b0>:
    80001618:	0000100f          	fence.i

000000008000161c <i00000001b1>:
    8000161c:	33c6                	fld	ft7,112(sp)

000000008000161e <i00000001b2>:
    8000161e:	02f64433          	div	s0,a2,a5

0000000080001622 <i00000001b3>:
    80001622:	64b10983          	lb	s3,1611(sp)

0000000080001626 <i00000001b4>:
    80001626:	027df9b3          	remu	s3,s11,t2

000000008000162a <i00000001b5>:
    8000162a:	7171                	add	sp,sp,-176

000000008000162c <i00000001b6>:
    8000162c:	c02528d3          	fcvt.l.s	a7,fa0,rdn

0000000080001630 <i00000001b7>:
    80001630:	719d034f          	fnmadd.s	ft6,fs10,fs9,fa4,rne

0000000080001634 <i00000001b8>:
    80001634:	008123af          	amoadd.w	t2,s0,(sp)

0000000080001638 <i00000001b9>:
    80001638:	1141                	add	sp,sp,-16
    8000163a:	e422                	sd	s0,8(sp)
    8000163c:	e80e                	sd	gp,16(sp)
    8000163e:	840a                	mv	s0,sp
    80001640:	4185                	li	gp,1
    80001642:	02340433          	mul	s0,s0,gp
    80001646:	00142183          	lw	gp,1(s0)
    8000164a:	02340433          	mul	s0,s0,gp
    8000164e:	6422                	ld	s0,8(sp)
    80001650:	61c2                	ld	gp,16(sp)
    80001652:	0141                	add	sp,sp,16

0000000080001654 <i00000001ba>:
    80001654:	0000100f          	fence.i
    80001658:	4831                	li	a6,12
    8000165a:	0a85                	add	s5,s5,1
    8000165c:	000df117          	auipc	sp,0xdf
    80001660:	9a410113          	add	sp,sp,-1628 # 800e0000 <begin_signature>
    80001664:	6321                	lui	t1,0x8
    80001666:	2183031b          	addw	t1,t1,536 # 8218 <_tbss_end+0x8218>
    8000166a:	911a                	add	sp,sp,t1
    8000166c:	000df117          	auipc	sp,0xdf
    80001670:	99410113          	add	sp,sp,-1644 # 800e0000 <begin_signature>
    80001674:	6319                	lui	t1,0x6
    80001676:	6403031b          	addw	t1,t1,1600 # 6640 <_tbss_end+0x6640>
    8000167a:	911a                	add	sp,sp,t1
    8000167c:	4089d713          	sra	a4,s3,0x8
    80001680:	94816703          	lwu	a4,-1720(sp)
    80001684:	02bc                	add	a5,sp,328
    80001686:	f0070e53          	fmv.w.x	ft8,a4
    8000168a:	1eb07793          	and	a5,zero,491
    8000168e:	3806                	fld	fa6,96(sp)
    80001690:	038bfa3b          	remuw	s4,s7,s8

0000000080001694 <b00000001bb>:
    80001694:	00000033          	add	zero,zero,zero
    80001698:	f9585ae3          	bge	a6,s5,8000162c <i00000001b6>
    8000169c:	00000033          	add	zero,zero,zero
    800016a0:	03141393          	sll	t2,s0,0x31
    800016a4:	80d9                	srl	s1,s1,0x16
    800016a6:	0d816883          	lwu	a7,216(sp)
    800016aa:	c0912b2f          	amominu.w	s6,s1,(sp)
    800016ae:	acbe                	fsd	fa5,88(sp)
    800016b0:	7105                	add	sp,sp,-480
    800016b2:	c2257b53          	fcvt.l.d	s6,fa0
    800016b6:	4aa9                	li	s5,10

00000000800016b8 <i00000001bb>:
    800016b8:	d028c4d3          	fcvt.s.l	fs1,a7,rmm

00000000800016bc <i00000001bc>:
    800016bc:	8511                	sra	a0,a0,0x4

00000000800016be <i00000001bd>:
    800016be:	40910403          	lb	s0,1033(sp)

00000000800016c2 <i00000001be>:
    800016c2:	57c12983          	lw	s3,1404(sp)

00000000800016c6 <i00000001bf>:
    800016c6:	00a539b3          	sltu	s3,a0,a0

00000000800016ca <i00000001c0>:
    800016ca:	00215073          	fsrmi	zero,2

00000000800016ce <i00000001c1>:
    800016ce:	d0252dd3          	fcvt.s.l	fs11,a0,rdn

00000000800016d2 <i00000001c2>:
    800016d2:	eb5473c3          	fmadd.d	ft7,fs0,fs5,ft9

00000000800016d6 <i00000001c3>:
    800016d6:	a37ea453          	feq.d	s0,ft9,fs7

00000000800016da <i00000001c4>:
    800016da:	0ff0000f          	fence

00000000800016de <i00000001c5>:
    800016de:	42080e53          	fcvt.d.s	ft8,fa6

00000000800016e2 <i00000001c6>:
    800016e2:	01355bbb          	srlw	s7,a0,s3
    800016e6:	4eb1                	li	t4,12
    800016e8:	0a85                	add	s5,s5,1
    800016ea:	000df117          	auipc	sp,0xdf
    800016ee:	91610113          	add	sp,sp,-1770 # 800e0000 <begin_signature>
    800016f2:	6309                	lui	t1,0x2
    800016f4:	7b83031b          	addw	t1,t1,1976 # 27b8 <_tbss_end+0x27b8>
    800016f8:	911a                	add	sp,sp,t1
    800016fa:	000df117          	auipc	sp,0xdf
    800016fe:	90610113          	add	sp,sp,-1786 # 800e0000 <begin_signature>
    80001702:	630d                	lui	t1,0x3
    80001704:	a183031b          	addw	t1,t1,-1512 # 2a18 <_tbss_end+0x2a18>
    80001708:	911a                	add	sp,sp,t1
    8000170a:	0139bd33          	sltu	s10,s3,s3
    8000170e:	f4d2                	sd	s4,104(sp)
    80001710:	c224f853          	fcvt.l.d	a6,fs1
    80001714:	409134af          	amoor.d	s1,s1,(sp)
    80001718:	7101                	add	sp,sp,-512
    8000171a:	033bc3bb          	divw	t2,s7,s3
    8000171e:	8a412b83          	lw	s7,-1884(sp)

0000000080001722 <b00000001c7>:
    80001722:	01da8463          	beq	s5,t4,8000172a <b00000001c7+0x8>
    80001726:	fa9ff06f          	j	800016ce <i00000001c1>
    8000172a:	4aa9                	li	s5,10
    8000172c:	99a2                	add	s3,s3,s0
    8000172e:	810a                	mv	sp,sp
    80001730:	037428b3          	mulhsu	a7,s0,s7
    80001734:	d822                	sw	s0,48(sp)
    80001736:	407883bb          	subw	t2,a7,t2
    8000173a:	8f59                	or	a4,a4,a4
    8000173c:	4bd2                	lw	s7,20(sp)

000000008000173e <i00000001c7>:
    8000173e:	a0416383          	lwu	t2,-1532(sp)

0000000080001742 <i00000001c8>:
    80001742:	f20404d3          	fmv.d.x	fs1,s0

0000000080001746 <i00000001c9>:
    80001746:	02f1b433          	mulhu	s0,gp,a5

000000008000174a <i00000001ca>:
    8000174a:	4049d49b          	sraw	s1,s3,0x4

000000008000174e <i00000001cb>:
    8000174e:	08e1242f          	amoswap.w	s0,a4,(sp)

0000000080001752 <i00000001cc>:
    80001752:	02a539b3          	mulhu	s3,a0,a0

0000000080001756 <i00000001cd>:
    80001756:	612e7213          	and	tp,t3,1554

000000008000175a <i00000001ce>:
    8000175a:	02016003          	lwu	zero,32(sp)

000000008000175e <i00000001cf>:
    8000175e:	0167941b          	sllw	s0,a5,0x16

0000000080001762 <i00000001d0>:
    80001762:	06c16983          	lwu	s3,108(sp)

0000000080001766 <i00000001d1>:
    80001766:	e8016e83          	lwu	t4,-384(sp)
    8000176a:	4ea9                	li	t4,10
    8000176c:	000df117          	auipc	sp,0xdf
    80001770:	89410113          	add	sp,sp,-1900 # 800e0000 <begin_signature>
    80001774:	632d                	lui	t1,0xb
    80001776:	2361                	addw	t1,t1,24 # b018 <_tbss_end+0xb018>
    80001778:	911a                	add	sp,sp,t1
    8000177a:	000df117          	auipc	sp,0xdf
    8000177e:	88610113          	add	sp,sp,-1914 # 800e0000 <begin_signature>
    80001782:	630d                	lui	t1,0x3
    80001784:	7d83031b          	addw	t1,t1,2008 # 37d8 <_tbss_end+0x37d8>
    80001788:	911a                	add	sp,sp,t1
    8000178a:	cc3a                	sw	a4,24(sp)
    8000178c:	037419b3          	mulh	s3,s0,s7
    80001790:	4456                	lw	s0,84(sp)
    80001792:	4452                	lw	s0,20(sp)
    80001794:	612d                	add	sp,sp,224
    80001796:	4179d93b          	sraw	s2,s3,s7
    8000179a:	a9c15e03          	lhu	t3,-1380(sp)

000000008000179e <b00000001d2>:
    8000179e:	01da8863          	beq	s5,t4,800017ae <b00000001d2+0x10>
    800017a2:	00000e97          	auipc	t4,0x0
    800017a6:	fb0e8e93          	add	t4,t4,-80 # 80001752 <i00000001cc>
    800017aa:	000e8067          	jr	t4
    800017ae:	4aa9                	li	s5,10
    800017b0:	217129af          	amoxor.w	s3,s7,(sp)
    800017b4:	03b7f9bb          	remuw	s3,a5,s11
    800017b8:	ed013807          	fld	fa6,-304(sp)
    800017bc:	f20003d3          	fmv.d.x	ft7,zero
    800017c0:	028bf7bb          	remuw	a5,s7,s0
    800017c4:	01c13e2f          	amoadd.d	t3,t3,(sp)
    800017c8:	8f21                	xor	a4,a4,s0
    800017ca:	000df117          	auipc	sp,0xdf
    800017ce:	83610113          	add	sp,sp,-1994 # 800e0000 <begin_signature>
    800017d2:	6329                	lui	t1,0xa
    800017d4:	4403031b          	addw	t1,t1,1088 # a440 <_tbss_end+0xa440>
    800017d8:	911a                	add	sp,sp,t1

00000000800017da <i00000001d2>:
    800017da:	c12a                	sw	a0,128(sp)

00000000800017dc <i00000001d3>:
    800017dc:	acbe                	fsd	fa5,88(sp)

00000000800017de <i00000001d4>:
    800017de:	75fe                	ld	a1,504(sp)

00000000800017e0 <i00000001d5>:
    800017e0:	0941332f          	amoswap.d	t1,s4,(sp)

00000000800017e4 <i00000001d6>:
    800017e4:	00225073          	fsrmi	zero,4

00000000800017e8 <i00000001d7>:
    800017e8:	580613d3          	fsqrt.s	ft7,fa2,rtz

00000000800017ec <i00000001d8>:
    800017ec:	b43f4a13          	xor	s4,t5,-1213

00000000800017f0 <i00000001d9>:
    800017f0:	55813c23          	sd	s8,1368(sp)

00000000800017f4 <i00000001da>:
    800017f4:	02a519b3          	mulh	s3,a0,a0

00000000800017f8 <i00000001db>:
    800017f8:	a04139af          	amomax.d	s3,tp,(sp)

00000000800017fc <i00000001dc>:
    800017fc:	0327793b          	remuw	s2,a4,s2

0000000080001800 <i00000001dd>:
    80001800:	c1c1342f          	amominu.d	s0,t3,(sp)
    80001804:	000de117          	auipc	sp,0xde
    80001808:	7fc10113          	add	sp,sp,2044 # 800e0000 <begin_signature>
    8000180c:	632d                	lui	t1,0xb
    8000180e:	6303031b          	addw	t1,t1,1584 # b630 <_tbss_end+0xb630>
    80001812:	911a                	add	sp,sp,t1
    80001814:	d23bfad3          	fcvt.d.lu	fs5,s7
    80001818:	6129                	add	sp,sp,192
    8000181a:	8749                	sra	a4,a4,0x12
    8000181c:	038cefb3          	rem	t6,s9,s8
    80001820:	00416c03          	lwu	s8,4(sp)
    80001824:	80b5                	srl	s1,s1,0xd
    80001826:	642d                	lui	s0,0xb

0000000080001828 <b00000001de>:
    80001828:	00000e17          	auipc	t3,0x0
    8000182c:	058e0e13          	add	t3,t3,88 # 80001880 <i00000001e4>
    80001830:	000e0067          	jr	t3
    80001834:	116a14d3          	fmul.s	fs1,fs4,fs6,rtz
    80001838:	a34d19d3          	flt.d	s3,fs10,fs4
    8000183c:	a1a1242f          	amomax.w	s0,s10,(sp)
    80001840:	2b7a0153          	fmin.d	ft2,fs4,fs7
    80001844:	9c81                	subw	s1,s1,s0
    80001846:	7982                	ld	s3,32(sp)
    80001848:	21313baf          	amoxor.d	s7,s3,(sp)

000000008000184c <i00000001de>:
    8000184c:	f67bb513          	sltiu	a0,s7,-153

0000000080001850 <i00000001df>:
    80001850:	6129                	add	sp,sp,192
    80001852:	000de117          	auipc	sp,0xde
    80001856:	7ae10113          	add	sp,sp,1966 # 800e0000 <begin_signature>
    8000185a:	630d                	lui	t1,0x3
    8000185c:	e283031b          	addw	t1,t1,-472 # 2e28 <_tbss_end+0x2e28>
    80001860:	911a                	add	sp,sp,t1

0000000080001862 <i00000001e0>:
    80001862:	d4f2                	sw	t3,104(sp)

0000000080001864 <i00000001e1>:
    80001864:	8081372f          	amomin.d	a4,s0,(sp)

0000000080001868 <i00000001e2>:
    80001868:	211139af          	amoxor.d	s3,a7,(sp)

000000008000186c <i00000001e3>:
    8000186c:	02e1d93b          	divuw	s2,gp,a4
    80001870:	000de117          	auipc	sp,0xde
    80001874:	79010113          	add	sp,sp,1936 # 800e0000 <begin_signature>
    80001878:	631d                	lui	t1,0x7
    8000187a:	d383031b          	addw	t1,t1,-712 # 6d38 <_tbss_end+0x6d38>
    8000187e:	911a                	add	sp,sp,t1

0000000080001880 <i00000001e4>:
    80001880:	bcc12a03          	lw	s4,-1076(sp)

0000000080001884 <i00000001e5>:
    80001884:	0189d413          	srl	s0,s3,0x18

0000000080001888 <i00000001e6>:
    80001888:	189c                	add	a5,sp,112

000000008000188a <i00000001e7>:
    8000188a:	2104ae53          	fsgnjx.s	ft8,fs1,fa6

000000008000188e <i00000001e8>:
    8000188e:	00235073          	fsrmi	zero,6

0000000080001892 <i00000001e9>:
    80001892:	2a7483d3          	fmin.d	ft7,fs1,ft7
    80001896:	4e2d                	li	t3,11
    80001898:	0a85                	add	s5,s5,1
    8000189a:	34a2                	fld	fs1,40(sp)
    8000189c:	a3080753          	fle.d	a4,fa6,fa6
    800018a0:	12fc                	add	a5,sp,364
    800018a2:	e0f123af          	amomaxu.w	t2,a5,(sp)
    800018a6:	24a11d03          	lh	s10,586(sp)
    800018aa:	aa0f7843          	fmadd.d	fa6,ft10,ft0,fs5
    800018ae:	03db39b3          	mulhu	s3,s6,t4

00000000800018b2 <b00000001ea>:
    800018b2:	00000033          	add	zero,zero,zero
    800018b6:	fdca87e3          	beq	s5,t3,80001884 <i00000001e5>
    800018ba:	00000033          	add	zero,zero,zero
    800018be:	0000100f          	fence.i
    800018c2:	0284743b          	remuw	s0,s0,s0
    800018c6:	a026                	fsd	fs1,0(sp)
    800018c8:	1320                	add	s0,sp,424
    800018ca:	0ff0000f          	fence
    800018ce:	0394ad33          	mulhsu	s10,s1,s9
    800018d2:	287484d3          	fmin.s	fs1,fs1,ft7
    800018d6:	4aa9                	li	s5,10

00000000800018d8 <i00000001ea>:
    800018d8:	42615403          	lhu	s0,1062(sp)

00000000800018dc <i00000001eb>:
    800018dc:	7155                	add	sp,sp,-208
    800018de:	000de117          	auipc	sp,0xde
    800018e2:	72210113          	add	sp,sp,1826 # 800e0000 <begin_signature>
    800018e6:	6329                	lui	t1,0xa
    800018e8:	5d03031b          	addw	t1,t1,1488 # a5d0 <_tbss_end+0xa5d0>
    800018ec:	911a                	add	sp,sp,t1

00000000800018ee <i00000001ec>:
    800018ee:	fdfe                	sd	t6,248(sp)

00000000800018f0 <i00000001ed>:
    800018f0:	01355733          	srl	a4,a0,s3

00000000800018f4 <i00000001ee>:
    800018f4:	0030                	add	a2,sp,8

00000000800018f6 <i00000001ef>:
    800018f6:	6f91                	lui	t6,0x4

00000000800018f8 <i00000001f0>:
    800018f8:	19011403          	lh	s0,400(sp)

00000000800018fc <i00000001f1>:
    800018fc:	e20804d3          	fmv.x.d	s1,fa6
    80001900:	000de117          	auipc	sp,0xde
    80001904:	70010113          	add	sp,sp,1792 # 800e0000 <begin_signature>
    80001908:	632d                	lui	t1,0xb
    8000190a:	5b03031b          	addw	t1,t1,1456 # b5b0 <_tbss_end+0xb5b0>
    8000190e:	911a                	add	sp,sp,t1

0000000080001910 <i00000001f2>:
    80001910:	fdba                	sd	a4,248(sp)

0000000080001912 <i00000001f3>:
    80001912:	92710c03          	lb	s8,-1753(sp)

0000000080001916 <i00000001f4>:
    80001916:	e0079b53          	fclass.s	s6,fa5
    8000191a:	034213b3          	mulh	t2,tp,s4
    8000191e:	416bd23b          	sraw	tp,s7,s6
    80001922:	e08121af          	amomaxu.w	gp,s0,(sp)
    80001926:	9f21                	addw	a4,a4,s0
    80001928:	80890d9b          	addw	s11,s2,-2040
    8000192c:	1ae12027          	fsw	fa4,416(sp)
    80001930:	0081272f          	amoadd.w	a4,s0,(sp)

0000000080001934 <b00000001f5>:
    80001934:	00000c97          	auipc	s9,0x0
    80001938:	036c8c93          	add	s9,s9,54 # 8000196a <i00000001fa>
    8000193c:	000c8567          	jalr	a0,s9
    80001940:	65310b23          	sb	s3,1622(sp)
    80001944:	01dbf9b3          	and	s3,s7,t4
    80001948:	03ac703b          	remuw	zero,s8,s10
    8000194c:	02781a13          	sll	s4,a6,0x27
    80001950:	0000100f          	fence.i
    80001954:	716d                	add	sp,sp,-272
    80001956:	f889174f          	fnmadd.s	fa4,fs2,fs0,ft11,rtz

000000008000195a <i00000001f5>:
    8000195a:	e2081753          	fclass.d	a4,fa6

000000008000195e <i00000001f6>:
    8000195e:	877d                	sra	a4,a4,0x1f

0000000080001960 <i00000001f7>:
    80001960:	5e67a9b7          	lui	s3,0x5e67a

0000000080001964 <i00000001f8>:
    80001964:	6426                	ld	s0,72(sp)

0000000080001966 <i00000001f9>:
    80001966:	f20d04d3          	fmv.d.x	fs1,s10

000000008000196a <i00000001fa>:
    8000196a:	19c0                	add	s0,sp,244

000000008000196c <i00000001fb>:
    8000196c:	03e8                	add	a0,sp,460

000000008000196e <i00000001fc>:
    8000196e:	9922                	add	s2,s2,s0

0000000080001970 <i00000001fd>:
    80001970:	0ff0000f          	fence

0000000080001974 <i00000001fe>:
    80001974:	0491                	add	s1,s1,4

0000000080001976 <i00000001ff>:
    80001976:	cafa                	sw	t5,84(sp)
    80001978:	48a5                	li	a7,9
    8000197a:	4aa9                	li	s5,10
    8000197c:	000de117          	auipc	sp,0xde
    80001980:	68410113          	add	sp,sp,1668 # 800e0000 <begin_signature>
    80001984:	6339                	lui	t1,0xe
    80001986:	3203031b          	addw	t1,t1,800 # e320 <_tbss_end+0xe320>
    8000198a:	911a                	add	sp,sp,t1
    8000198c:	000de117          	auipc	sp,0xde
    80001990:	67410113          	add	sp,sp,1652 # 800e0000 <begin_signature>
    80001994:	6309                	lui	t1,0x2
    80001996:	1983031b          	addw	t1,t1,408 # 2198 <_tbss_end+0x2198>
    8000199a:	911a                	add	sp,sp,t1
    8000199c:	d4ba                	sw	a4,104(sp)
    8000199e:	9452                	add	s0,s0,s4
    800019a0:	02971f93          	sll	t6,a4,0x29
    800019a4:	2662                	fld	fa2,24(sp)
    800019a6:	1938                	add	a4,sp,184
    800019a8:	87d1                	sra	a5,a5,0x14
    800019aa:	213139af          	amoxor.d	s3,s3,(sp)

00000000800019ae <b0000000200>:
    800019ae:	00000033          	add	zero,zero,zero
    800019b2:	0358dc63          	bge	a7,s5,800019ea <i0000000205>
    800019b6:	00000033          	add	zero,zero,zero
    800019ba:	02e41733          	mulh	a4,s0,a4
    800019be:	d03dcf53          	fcvt.s.lu	ft10,s11,rmm
    800019c2:	02e9ad33          	mulhsu	s10,s3,a4
    800019c6:	02e47d3b          	remuw	s10,s0,a4
    800019ca:	b4c16003          	lwu	zero,-1204(sp)
    800019ce:	013747b3          	xor	a5,a4,s3
    800019d2:	40f7519b          	sraw	gp,a4,0xf
    800019d6:	4aa9                	li	s5,10

00000000800019d8 <i0000000200>:
    800019d8:	d0340c53          	fcvt.s.lu	fs8,s0,rne

00000000800019dc <i0000000201>:
    800019dc:	58c16983          	lwu	s3,1420(sp)

00000000800019e0 <i0000000202>:
    800019e0:	d2357dd3          	fcvt.d.lu	fs11,a0

00000000800019e4 <i0000000203>:
    800019e4:	c14e                	sw	s3,128(sp)

00000000800019e6 <i0000000204>:
    800019e6:	c1b139af          	amominu.d	s3,s11,(sp)

00000000800019ea <i0000000205>:
    800019ea:	f2038b53          	fmv.d.x	fs6,t2

00000000800019ee <i0000000206>:
    800019ee:	0ff0000f          	fence

00000000800019f2 <i0000000207>:
    800019f2:	48813c83          	ld	s9,1160(sp)

00000000800019f6 <i0000000208>:
    800019f6:	6a29                	lui	s4,0xa

00000000800019f8 <i0000000209>:
    800019f8:	c071342f          	amominu.d	s0,t2,(sp)

00000000800019fc <i000000020a>:
    800019fc:	bd012a27          	fsw	fa6,-1068(sp)
    80001a00:	4925                	li	s2,9
    80001a02:	000de117          	auipc	sp,0xde
    80001a06:	5fe10113          	add	sp,sp,1534 # 800e0000 <begin_signature>
    80001a0a:	633d                	lui	t1,0xf
    80001a0c:	5e03031b          	addw	t1,t1,1504 # f5e0 <_tbss_end+0xf5e0>
    80001a10:	911a                	add	sp,sp,t1
    80001a12:	c00849d3          	fcvt.w.s	s3,fa6,rmm
    80001a16:	69bd                	lui	s3,0xf
    80001a18:	41a1322f          	amoor.d	tp,s10,(sp)
    80001a1c:	e20809d3          	fmv.x.d	s3,fa6
    80001a20:	c1d12daf          	amominu.w	s11,t4,(sp)
    80001a24:	60813baf          	amoand.d	s7,s0,(sp)
    80001a28:	0237ecbb          	remw	s9,a5,gp

0000000080001a2c <b000000020b>:
    80001a2c:	00000033          	add	zero,zero,zero
    80001a30:	fb2acfe3          	blt	s5,s2,800019ee <i0000000206>
    80001a34:	00000033          	add	zero,zero,zero
    80001a38:	c94a784f          	fnmadd.s	fa6,fs4,fs4,fs9
    80001a3c:	34c2                	fld	fs1,48(sp)
    80001a3e:	ccfe                	sw	t6,88(sp)
    80001a40:	b4aa                	fsd	fa0,104(sp)
    80001a42:	6d113823          	sd	a7,1744(sp)
    80001a46:	034de9b3          	rem	s3,s11,s4
    80001a4a:	89a2                	mv	s3,s0
    80001a4c:	4aa9                	li	s5,10

0000000080001a4e <i000000020b>:
    80001a4e:	a2738053          	fle.d	zero,ft7,ft7

0000000080001a52 <i000000020c>:
    80001a52:	34212027          	fsw	ft2,832(sp)

0000000080001a56 <i000000020d>:
    80001a56:	4766                	lw	a4,88(sp)

0000000080001a58 <i000000020e>:
    80001a58:	40b1242f          	amoor.w	s0,a1,(sp)

0000000080001a5c <i000000020f>:
    80001a5c:	84a12a23          	sw	a0,-1964(sp)

0000000080001a60 <i0000000210>:
    80001a60:	0000100f          	fence.i

0000000080001a64 <i0000000211>:
    80001a64:	034589bb          	mulw	s3,a1,s4

0000000080001a68 <i0000000212>:
    80001a68:	e1c16483          	lwu	s1,-484(sp)

0000000080001a6c <i0000000213>:
    80001a6c:	0000100f          	fence.i

0000000080001a70 <i0000000214>:
    80001a70:	c023a553          	fcvt.l.s	a0,ft7,rdn

0000000080001a74 <i0000000215>:
    80001a74:	08a129af          	amoswap.w	s3,a0,(sp)
    80001a78:	4c25                	li	s8,9
    80001a7a:	c9e11e83          	lh	t4,-866(sp)
    80001a7e:	c233f7d3          	fcvt.lu.d	a5,ft7
    80001a82:	f83e                	sd	a5,48(sp)
    80001a84:	cc816403          	lwu	s0,-824(sp)
    80001a88:	0000100f          	fence.i
    80001a8c:	c026                	sw	s1,0(sp)
    80001a8e:	8449                	sra	s0,s0,0x12

0000000080001a90 <b0000000216>:
    80001a90:	00000033          	add	zero,zero,zero
    80001a94:	fd5c58e3          	bge	s8,s5,80001a64 <i0000000211>
    80001a98:	00000033          	add	zero,zero,zero
    80001a9c:	6131372f          	amoand.d	a4,s3,(sp)
    80001aa0:	0300573b          	divuw	a4,zero,a6
    80001aa4:	02099713          	sll	a4,s3,0x20
    80001aa8:	ec3a                	sd	a4,24(sp)
    80001aaa:	041e                	sll	s0,s0,0x7
    80001aac:	0476                	sll	s0,s0,0x1d
    80001aae:	23608253          	fsgnj.d	ft4,ft1,fs6
    80001ab2:	4aa9                	li	s5,10

0000000080001ab4 <i0000000216>:
    80001ab4:	d2357cd3          	fcvt.d.lu	fs9,a0

0000000080001ab8 <i0000000217>:
    80001ab8:	c023b653          	fcvt.l.s	a2,ft7,rup

0000000080001abc <i0000000218>:
    80001abc:	0c414783          	lbu	a5,196(sp)

0000000080001ac0 <i0000000219>:
    80001ac0:	41f1252f          	amoor.w	a0,t6,(sp)

0000000080001ac4 <i000000021a>:
    80001ac4:	40a129af          	amoor.w	s3,a0,(sp)

0000000080001ac8 <i000000021b>:
    80001ac8:	8d41                	or	a0,a0,s0

0000000080001aca <i000000021c>:
    80001aca:	dc22                	sw	s0,56(sp)

0000000080001acc <i000000021d>:
    80001acc:	63810e03          	lb	t3,1592(sp)

0000000080001ad0 <i000000021e>:
    80001ad0:	d2247dd3          	fcvt.d.l	fs11,s0

0000000080001ad4 <i000000021f>:
    80001ad4:	1928                	add	a0,sp,184

0000000080001ad6 <i0000000220>:
    80001ad6:	5b013603          	ld	a2,1456(sp)
    80001ada:	4a29                	li	s4,10
    80001adc:	f0040253          	fmv.w.x	ft4,s0
    80001ae0:	02846d3b          	remw	s10,s0,s0
    80001ae4:	c22df9d3          	fcvt.l.d	s3,fs11
    80001ae8:	b426                	fsd	fs1,40(sp)
    80001aea:	a7310e23          	sb	s3,-1412(sp)
    80001aee:	9c01                	subw	s0,s0,s0
    80001af0:	7f913823          	sd	s9,2032(sp)

0000000080001af4 <b0000000221>:
    80001af4:	014a8863          	beq	s5,s4,80001b04 <b0000000221+0x10>
    80001af8:	00000a17          	auipc	s4,0x0
    80001afc:	fd0a0a13          	add	s4,s4,-48 # 80001ac8 <i000000021b>
    80001b00:	000a0567          	jalr	a0,s4
    80001b04:	4aa9                	li	s5,10
    80001b06:	810a                	mv	sp,sp
    80001b08:	000e54bb          	srlw	s1,t3,zero
    80001b0c:	49a9                	li	s3,10
    80001b0e:	e20c18d3          	fclass.d	a7,fs8
    80001b12:	d0241a53          	fcvt.s.l	fs4,s0,rtz
    80001b16:	c2287dd3          	fcvt.l.d	s11,fa6
    80001b1a:	87bd                	sra	a5,a5,0xf

0000000080001b1c <i0000000221>:
    80001b1c:	9d39                	addw	a0,a0,a4

0000000080001b1e <i0000000222>:
    80001b1e:	02a54433          	div	s0,a0,a0

0000000080001b22 <i0000000223>:
    80001b22:	0b04f3d3          	fsub.d	ft7,fs1,fa6

0000000080001b26 <i0000000224>:
    80001b26:	d229f3d3          	fcvt.d.l	ft7,s3

0000000080001b2a <i0000000225>:
    80001b2a:	0ae2b513          	sltiu	a0,t0,174
    80001b2e:	000de117          	auipc	sp,0xde
    80001b32:	4d210113          	add	sp,sp,1234 # 800e0000 <begin_signature>
    80001b36:	6331                	lui	t1,0xc
    80001b38:	5583031b          	addw	t1,t1,1368 # c558 <_tbss_end+0xc558>
    80001b3c:	911a                	add	sp,sp,t1

0000000080001b3e <i0000000226>:
    80001b3e:	24aa                	fld	fs1,136(sp)

0000000080001b40 <i0000000227>:
    80001b40:	1121                	add	sp,sp,-24
    80001b42:	e42e                	sd	a1,8(sp)
    80001b44:	e816                	sd	t0,16(sp)
    80001b46:	ec0e                	sd	gp,24(sp)
    80001b48:	00000297          	auipc	t0,0x0
    80001b4c:	01428293          	add	t0,t0,20 # 80001b5c <i0000000227+0x1c>
    80001b50:	00000597          	auipc	a1,0x0
    80001b54:	00858593          	add	a1,a1,8 # 80001b58 <i0000000227+0x18>
    80001b58:	002281e7          	jalr	gp,2(t0)
    80001b5c:	0001                	nop
    80001b5e:	0001                	nop
    80001b60:	65a2                	ld	a1,8(sp)
    80001b62:	62c2                	ld	t0,16(sp)
    80001b64:	61e2                	ld	gp,24(sp)
    80001b66:	0161                	add	sp,sp,24

0000000080001b68 <i0000000228>:
    80001b68:	1bc4                	add	s1,sp,500

0000000080001b6a <i0000000229>:
    80001b6a:	2486                	fld	fs1,64(sp)
    80001b6c:	000de117          	auipc	sp,0xde
    80001b70:	49410113          	add	sp,sp,1172 # 800e0000 <begin_signature>
    80001b74:	6315                	lui	t1,0x5
    80001b76:	e103031b          	addw	t1,t1,-496 # 4e10 <_tbss_end+0x4e10>
    80001b7a:	911a                	add	sp,sp,t1

0000000080001b7c <i000000022a>:
    80001b7c:	c1612223          	sw	s6,-1020(sp)

0000000080001b80 <i000000022b>:
    80001b80:	6546                	ld	a0,80(sp)

0000000080001b82 <i000000022c>:
    80001b82:	6539                	lui	a0,0xe

0000000080001b84 <i000000022d>:
    80001b84:	fccfe0ef          	jal	80000350 <func1>
    80001b88:	482d                	li	a6,11
    80001b8a:	0a85                	add	s5,s5,1
    80001b8c:	000de117          	auipc	sp,0xde
    80001b90:	47410113          	add	sp,sp,1140 # 800e0000 <begin_signature>
    80001b94:	6331                	lui	t1,0xc
    80001b96:	f003031b          	addw	t1,t1,-256 # bf00 <_tbss_end+0xbf00>
    80001b9a:	911a                	add	sp,sp,t1
    80001b9c:	9f85                	subw	a5,a5,s1
    80001b9e:	c0272753          	fcvt.l.s	a4,fa4,rdn
    80001ba2:	c02b9dd3          	fcvt.l.s	s11,fs7,rtz
    80001ba6:	088139af          	amoswap.d	s3,s0,(sp)
    80001baa:	acbe                	fsd	fa5,88(sp)
    80001bac:	414959b3          	sra	s3,s2,s4
    80001bb0:	e20813d3          	fclass.d	t2,fa6

0000000080001bb4 <b000000022e>:
    80001bb4:	00000033          	add	zero,zero,zero
    80001bb8:	fb0a88e3          	beq	s5,a6,80001b68 <i0000000228>
    80001bbc:	00000033          	add	zero,zero,zero
    80001bc0:	0ff0000f          	fence
    80001bc4:	d23ff7d3          	fcvt.d.lu	fa5,t6
    80001bc8:	c213f753          	fcvt.wu.d	a4,ft7
    80001bcc:	c004ce53          	fcvt.w.s	t3,fs1,rmm
    80001bd0:	f8f2                	sd	t3,112(sp)
    80001bd2:	1224                	add	s1,sp,296
    80001bd4:	a104a453          	feq.s	s0,fs1,fa6
    80001bd8:	4aa9                	li	s5,10

0000000080001bda <i000000022e>:
    80001bda:	02a9a9b3          	mulhsu	s3,s3,a0

0000000080001bde <i000000022f>:
    80001bde:	0ff0000f          	fence

0000000080001be2 <i0000000230>:
    80001be2:	8e69                	and	a2,a2,a0

0000000080001be4 <i0000000231>:
    80001be4:	c223f453          	fcvt.l.d	s0,ft7

0000000080001be8 <i0000000232>:
    80001be8:	033567b3          	rem	a5,a0,s3

0000000080001bec <i0000000233>:
    80001bec:	8c29                	xor	s0,s0,a0

0000000080001bee <i0000000234>:
    80001bee:	e20809d3          	fmv.x.d	s3,fa6

0000000080001bf2 <i0000000235>:
    80001bf2:	f82e                	sd	a1,48(sp)

0000000080001bf4 <i0000000236>:
    80001bf4:	24c2                	fld	fs1,16(sp)

0000000080001bf6 <i0000000237>:
    80001bf6:	668a                	ld	a3,128(sp)

0000000080001bf8 <i0000000238>:
    80001bf8:	8461                	sra	s0,s0,0x18
    80001bfa:	000de117          	auipc	sp,0xde
    80001bfe:	40610113          	add	sp,sp,1030 # 800e0000 <begin_signature>
    80001c02:	6321                	lui	t1,0x8
    80001c04:	9283031b          	addw	t1,t1,-1752 # 7928 <_tbss_end+0x7928>
    80001c08:	911a                	add	sp,sp,t1
    80001c0a:	00025893          	srl	a7,tp,0x0
    80001c0e:	02e779bb          	remuw	s3,a4,a4
    80001c12:	f4016e03          	lwu	t3,-192(sp)
    80001c16:	6d012403          	lw	s0,1744(sp)
    80001c1a:	9fce                	add	t6,t6,s3
    80001c1c:	c0415983          	lhu	s3,-1020(sp)
    80001c20:	00e759b3          	srl	s3,a4,a4

0000000080001c24 <b0000000239>:
    80001c24:	00000d17          	auipc	s10,0x0
    80001c28:	036d0d13          	add	s10,s10,54 # 80001c5a <i000000023f>
    80001c2c:	000d00e7          	jalr	s10
    80001c30:	0084143b          	sllw	s0,s0,s0
    80001c34:	89e6                	mv	s3,s9
    80001c36:	07b6                	sll	a5,a5,0xd
    80001c38:	c17129af          	amominu.w	s3,s7,(sp)
    80001c3c:	5746                	lw	a4,112(sp)
    80001c3e:	e7e15403          	lhu	s0,-386(sp)
    80001c42:	00300033          	add	zero,zero,gp

0000000080001c46 <i0000000239>:
    80001c46:	0101342f          	amoadd.d	s0,a6,(sp)

0000000080001c4a <i000000023a>:
    80001c4a:	5532                	lw	a0,44(sp)

0000000080001c4c <i000000023b>:
    80001c4c:	f3a2                	sd	s0,480(sp)

0000000080001c4e <i000000023c>:
    80001c4e:	3d013f83          	ld	t6,976(sp)

0000000080001c52 <i000000023d>:
    80001c52:	35416183          	lwu	gp,852(sp)

0000000080001c56 <i000000023e>:
    80001c56:	c09132af          	amominu.d	t0,s1,(sp)

0000000080001c5a <i000000023f>:
    80001c5a:	8a988293          	add	t0,a7,-1879

0000000080001c5e <i0000000240>:
    80001c5e:	0ff0000f          	fence

0000000080001c62 <i0000000241>:
    80001c62:	410957b3          	sra	a5,s2,a6

0000000080001c66 <i0000000242>:
    80001c66:	02a9f9b3          	remu	s3,s3,a0

0000000080001c6a <i0000000243>:
    80001c6a:	6662                	ld	a2,24(sp)
    80001c6c:	4cad                	li	s9,11
    80001c6e:	0a85                	add	s5,s5,1
    80001c70:	3586                	fld	fa1,96(sp)
    80001c72:	7175                	add	sp,sp,-144
    80001c74:	7125                	add	sp,sp,-416
    80001c76:	c033c453          	fcvt.lu.s	s0,ft7,rmm
    80001c7a:	c024a8d3          	fcvt.l.s	a7,fs1,rdn
    80001c7e:	7762                	ld	a4,56(sp)
    80001c80:	d20982d3          	fcvt.d.w	ft5,s3

0000000080001c84 <b0000000244>:
    80001c84:	00000033          	add	zero,zero,zero
    80001c88:	fd9a87e3          	beq	s5,s9,80001c56 <i000000023e>
    80001c8c:	00000033          	add	zero,zero,zero
    80001c90:	00981d53          	fadd.s	fs10,fa6,fs1,rtz
    80001c94:	0772                	sll	a4,a4,0x1c
    80001c96:	25412d87          	flw	fs11,596(sp)
    80001c9a:	80e139af          	amomin.d	s3,a4,(sp)
    80001c9e:	f00d0553          	fmv.w.x	fa0,s10
    80001ca2:	008b171b          	sllw	a4,s6,0x8
    80001ca6:	c029f753          	fcvt.l.s	a4,fs3
    80001caa:	4aa9                	li	s5,10

0000000080001cac <i0000000244>:
    80001cac:	5f416403          	lwu	s0,1524(sp)

0000000080001cb0 <i0000000245>:
    80001cb0:	0ff0000f          	fence

0000000080001cb4 <i0000000246>:
    80001cb4:	b03a                	fsd	fa4,32(sp)

0000000080001cb6 <i0000000247>:
    80001cb6:	617139af          	amoand.d	s3,s7,(sp)

0000000080001cba <i0000000248>:
    80001cba:	a37a28d3          	feq.d	a7,fs4,fs7

0000000080001cbe <i0000000249>:
    80001cbe:	01a209bb          	addw	s3,tp,s10

0000000080001cc2 <i000000024a>:
    80001cc2:	0022d073          	fsrmi	zero,5

0000000080001cc6 <i000000024b>:
    80001cc6:	ecae                	sd	a1,88(sp)

0000000080001cc8 <i000000024c>:
    80001cc8:	144d                	add	s0,s0,-13 # aff3 <_tbss_end+0xaff3>

0000000080001cca <i000000024d>:
    80001cca:	8659                	sra	a2,a2,0x16
    80001ccc:	000de117          	auipc	sp,0xde
    80001cd0:	33410113          	add	sp,sp,820 # 800e0000 <begin_signature>
    80001cd4:	6329                	lui	t1,0xa
    80001cd6:	0d83031b          	addw	t1,t1,216 # a0d8 <_tbss_end+0xa0d8>
    80001cda:	911a                	add	sp,sp,t1

0000000080001cdc <i000000024e>:
    80001cdc:	e43e                	sd	a5,8(sp)

0000000080001cde <i000000024f>:
    80001cde:	0064d9bb          	srlw	s3,s1,t1
    80001ce2:	4ba9                	li	s7,10
    80001ce4:	4aa9                	li	s5,10
    80001ce6:	000de117          	auipc	sp,0xde
    80001cea:	31a10113          	add	sp,sp,794 # 800e0000 <begin_signature>
    80001cee:	6311                	lui	t1,0x4
    80001cf0:	1d83031b          	addw	t1,t1,472 # 41d8 <_tbss_end+0x41d8>
    80001cf4:	911a                	add	sp,sp,t1
    80001cf6:	12d8                	add	a4,sp,356
    80001cf8:	8fc1                	or	a5,a5,s0
    80001cfa:	0894b8d3          	fsub.s	fa7,fs1,fs1,rup
    80001cfe:	974e                	add	a4,a4,s3
    80001d00:	9c25                	addw	s0,s0,s1
    80001d02:	c0289453          	fcvt.l.s	s0,fa7,rtz
    80001d06:	02e73233          	mulhu	tp,a4,a4

0000000080001d0a <b0000000250>:
    80001d0a:	00000033          	add	zero,zero,zero
    80001d0e:	037a9763          	bne	s5,s7,80001d3c <i0000000255>
    80001d12:	00000033          	add	zero,zero,zero
    80001d16:	9c81                	subw	s1,s1,s0
    80001d18:	b836                	fsd	fa3,48(sp)
    80001d1a:	f8a2                	sd	s0,112(sp)
    80001d1c:	280e                	fld	fa6,192(sp)
    80001d1e:	58088253          	fsqrt.s	ft4,fa7,rne
    80001d22:	63813983          	ld	s3,1592(sp)
    80001d26:	e0e129af          	amomaxu.w	s3,a4,(sp)
    80001d2a:	4aa9                	li	s5,10

0000000080001d2c <i0000000250>:
    80001d2c:	40bbd19b          	sraw	gp,s7,0xb

0000000080001d30 <i0000000251>:
    80001d30:	acc2                	fsd	fa6,88(sp)

0000000080001d32 <i0000000252>:
    80001d32:	43c25693          	sra	a3,tp,0x3c

0000000080001d36 <i0000000253>:
    80001d36:	8439                	sra	s0,s0,0xe

0000000080001d38 <i0000000254>:
    80001d38:	d22273d3          	fcvt.d.l	ft7,tp

0000000080001d3c <i0000000255>:
    80001d3c:	653d                	lui	a0,0xf

0000000080001d3e <i0000000256>:
    80001d3e:	e12fe0ef          	jal	80000350 <func1>

0000000080001d42 <i0000000257>:
    80001d42:	0021d073          	fsrmi	zero,3

0000000080001d46 <i0000000258>:
    80001d46:	f20503d3          	fmv.d.x	ft7,a0

0000000080001d4a <i0000000259>:
    80001d4a:	aa812423          	sw	s0,-1368(sp)

0000000080001d4e <i000000025a>:
    80001d4e:	a8fa                	fsd	ft10,80(sp)

0000000080001d50 <i000000025b>:
    80001d50:	b82a                	fsd	fa0,48(sp)

0000000080001d52 <i000000025c>:
    80001d52:	057a                	sll	a0,a0,0x1e
    80001d54:	4bad                	li	s7,11
    80001d56:	4aa9                	li	s5,10
    80001d58:	000de117          	auipc	sp,0xde
    80001d5c:	2a810113          	add	sp,sp,680 # 800e0000 <begin_signature>
    80001d60:	631d                	lui	t1,0x7
    80001d62:	2303031b          	addw	t1,t1,560 # 7230 <_tbss_end+0x7230>
    80001d66:	911a                	add	sp,sp,t1
    80001d68:	000de117          	auipc	sp,0xde
    80001d6c:	29810113          	add	sp,sp,664 # 800e0000 <begin_signature>
    80001d70:	6329                	lui	t1,0xa
    80001d72:	b303031b          	addw	t1,t1,-1232 # 9b30 <_tbss_end+0x9b30>
    80001d76:	911a                	add	sp,sp,t1
    80001d78:	67a6                	ld	a5,72(sp)
    80001d7a:	2a7813d3          	fmax.d	ft7,fa6,ft7
    80001d7e:	f2013703          	ld	a4,-224(sp)
    80001d82:	e13124af          	amomaxu.w	s1,s3,(sp)
    80001d86:	d02816d3          	fcvt.s.l	fa3,a6,rtz
    80001d8a:	a001392f          	amomax.d	s2,zero,(sp)
    80001d8e:	a0ea                	fsd	fs10,64(sp)

0000000080001d90 <b000000025d>:
    80001d90:	00000033          	add	zero,zero,zero
    80001d94:	035bd963          	bge	s7,s5,80001dc6 <i0000000263>
    80001d98:	00000033          	add	zero,zero,zero
    80001d9c:	0339c23b          	divw	tp,s3,s3
    80001da0:	d03e                	sw	a5,32(sp)
    80001da2:	02e0                	add	s0,sp,332
    80001da4:	dace                	sw	s3,116(sp)
    80001da6:	b2416403          	lwu	s0,-1244(sp)
    80001daa:	0000100f          	fence.i
    80001dae:	19e15883          	lhu	a7,414(sp)
    80001db2:	4aa9                	li	s5,10

0000000080001db4 <i000000025d>:
    80001db4:	6bca                	ld	s7,144(sp)

0000000080001db6 <i000000025e>:
    80001db6:	6105                	add	sp,sp,32

0000000080001db8 <i000000025f>:
    80001db8:	97aa                	add	a5,a5,a0

0000000080001dba <i0000000260>:
    80001dba:	f20683d3          	fmv.d.x	ft7,a3

0000000080001dbe <i0000000261>:
    80001dbe:	d92fe0ef          	jal	80000350 <func1>

0000000080001dc2 <i0000000262>:
    80001dc2:	0022d073          	fsrmi	zero,5

0000000080001dc6 <i0000000263>:
    80001dc6:	3a93f343          	fmadd.d	ft6,ft7,fs1,ft7

0000000080001dca <i0000000264>:
    80001dca:	9ae11583          	lh	a1,-1618(sp)

0000000080001dce <i0000000265>:
    80001dce:	e20a0c53          	fmv.x.d	s8,fs4

0000000080001dd2 <i0000000266>:
    80001dd2:	009133af          	amoadd.d	t2,s1,(sp)

0000000080001dd6 <i0000000267>:
    80001dd6:	0000100f          	fence.i

0000000080001dda <i0000000268>:
    80001dda:	bc2a                	fsd	fa0,56(sp)

0000000080001ddc <i0000000269>:
    80001ddc:	065a                	sll	a2,a2,0x16
    80001dde:	4829                	li	a6,10
    80001de0:	51313823          	sd	s3,1296(sp)
    80001de4:	0131272f          	amoadd.w	a4,s3,(sp)
    80001de8:	842d                	sra	s0,s0,0xb
    80001dea:	33ae                	fld	ft7,232(sp)
    80001dec:	01313daf          	amoadd.d	s11,s3,(sp)
    80001df0:	8f39                	xor	a4,a4,a4
    80001df2:	d3d13c23          	sd	t4,-712(sp)

0000000080001df6 <b000000026a>:
    80001df6:	010a8863          	beq	s5,a6,80001e06 <b000000026a+0x10>
    80001dfa:	00000817          	auipc	a6,0x0
    80001dfe:	fd480813          	add	a6,a6,-44 # 80001dce <i0000000265>
    80001e02:	00080567          	jalr	a0,a6
    80001e06:	4aa9                	li	s5,10
    80001e08:	7161                	add	sp,sp,-432
    80001e0a:	c032fcd3          	fcvt.lu.s	s9,ft5
    80001e0e:	0339feb3          	remu	t4,s3,s3
    80001e12:	8081242f          	amomin.w	s0,s0,(sp)
    80001e16:	030bde93          	srl	t4,s7,0x30
    80001e1a:	024e843b          	mulw	s0,t4,tp
    80001e1e:	08891853          	fsub.s	fa6,fs2,fs0,rtz

0000000080001e22 <i000000026a>:
    80001e22:	8b8d                	and	a5,a5,3

0000000080001e24 <i000000026b>:
    80001e24:	d23778d3          	fcvt.d.lu	fa7,a4

0000000080001e28 <i000000026c>:
    80001e28:	d236f3d3          	fcvt.d.lu	ft7,a3

0000000080001e2c <i000000026d>:
    80001e2c:	a294a9d3          	feq.d	s3,fs1,fs1

0000000080001e30 <i000000026e>:
    80001e30:	c22e7553          	fcvt.l.d	a0,ft8

0000000080001e34 <i000000026f>:
    80001e34:	d233f8d3          	fcvt.d.lu	fa7,t2

0000000080001e38 <i0000000270>:
    80001e38:	ac12                	fsd	ft4,24(sp)

0000000080001e3a <i0000000271>:
    80001e3a:	00e808b3          	add	a7,a6,a4

0000000080001e3e <i0000000272>:
    80001e3e:	c23b79d3          	fcvt.lu.d	s3,fs6

0000000080001e42 <i0000000273>:
    80001e42:	8bc6                	mv	s7,a7

0000000080001e44 <i0000000274>:
    80001e44:	fc22                	sd	s0,56(sp)
    80001e46:	48ad                	li	a7,11
    80001e48:	4aa9                	li	s5,10
    80001e4a:	71a1a993          	slti	s3,gp,1818
    80001e4e:	034fb733          	mulhu	a4,t6,s4
    80001e52:	0337f73b          	remuw	a4,a5,s3
    80001e56:	03449433          	mulh	s0,s1,s4
    80001e5a:	8ce1                	and	s1,s1,s0
    80001e5c:	8cb9                	xor	s1,s1,a4
    80001e5e:	a1313faf          	amomax.d	t6,s3,(sp)

0000000080001e62 <b0000000275>:
    80001e62:	00000033          	add	zero,zero,zero
    80001e66:	031a9963          	bne	s5,a7,80001e98 <i000000027a>
    80001e6a:	00000033          	add	zero,zero,zero
    80001e6e:	028441bb          	divw	gp,s0,s0
    80001e72:	408127af          	amoor.w	a5,s0,(sp)
    80001e76:	c224f753          	fcvt.l.d	a4,fs1
    80001e7a:	e7312623          	sw	s3,-404(sp)
    80001e7e:	60713c2f          	amoand.d	s8,t2,(sp)
    80001e82:	c0011983          	lh	s3,-1024(sp)
    80001e86:	9c3d                	addw	s0,s0,a5
    80001e88:	4aa9                	li	s5,10

0000000080001e8a <i0000000275>:
    80001e8a:	ad46                	fsd	fa7,152(sp)

0000000080001e8c <i0000000276>:
    80001e8c:	6562                	ld	a0,24(sp)

0000000080001e8e <i0000000277>:
    80001e8e:	02842433          	mulhsu	s0,s0,s0

0000000080001e92 <i0000000278>:
    80001e92:	05d6                	sll	a1,a1,0x15

0000000080001e94 <i0000000279>:
    80001e94:	c221f453          	fcvt.l.d	s0,ft3

0000000080001e98 <i000000027a>:
    80001e98:	0022d073          	fsrmi	zero,5
    80001e9c:	000de117          	auipc	sp,0xde
    80001ea0:	16410113          	add	sp,sp,356 # 800e0000 <begin_signature>
    80001ea4:	6311                	lui	t1,0x4
    80001ea6:	7983031b          	addw	t1,t1,1944 # 4798 <_tbss_end+0x4798>
    80001eaa:	911a                	add	sp,sp,t1

0000000080001eac <i000000027b>:
    80001eac:	e022                	sd	s0,0(sp)

0000000080001eae <i000000027c>:
    80001eae:	82a1                	srl	a3,a3,0x8

0000000080001eb0 <i000000027d>:
    80001eb0:	c22ff553          	fcvt.l.d	a0,ft11

0000000080001eb4 <i000000027e>:
    80001eb4:	262a                	fld	fa2,136(sp)

0000000080001eb6 <i000000027f>:
    80001eb6:	d2347dd3          	fcvt.d.lu	fs11,s0

0000000080001eba <i0000000280>:
    80001eba:	c2377453          	fcvt.lu.d	s0,fa4
    80001ebe:	3656ac17          	auipc	s8,0x3656a
    80001ec2:	c2be                	sw	a5,68(sp)
    80001ec4:	6181342f          	amoand.d	s0,s8,(sp)
    80001ec8:	fcbe                	sd	a5,120(sp)
    80001eca:	c0f13caf          	amominu.d	s9,a5,(sp)
    80001ece:	227823d3          	fsgnjx.d	ft7,fa6,ft7
    80001ed2:	81f129af          	amomin.w	s3,t6,(sp)

0000000080001ed6 <b0000000281>:
    80001ed6:	00000b97          	auipc	s7,0x0
    80001eda:	042b8b93          	add	s7,s7,66 # 80001f18 <i0000000286>
    80001ede:	000b80e7          	jalr	s7
    80001ee2:	ecbe                	sd	a5,88(sp)
    80001ee4:	d2347853          	fcvt.d.lu	fa6,s0
    80001ee8:	02f4043b          	mulw	s0,s0,a5
    80001eec:	c038bc53          	fcvt.lu.s	s8,fa7,rup
    80001ef0:	7135                	add	sp,sp,-160
    80001ef2:	b5416403          	lwu	s0,-1196(sp)
    80001ef6:	0000100f          	fence.i

0000000080001efa <i0000000281>:
    80001efa:	00235073          	fsrmi	zero,6

0000000080001efe <i0000000282>:
    80001efe:	d22479d3          	fcvt.d.l	fs3,s0

0000000080001f02 <i0000000283>:
    80001f02:	fca2                	sd	s0,120(sp)
    80001f04:	000de117          	auipc	sp,0xde
    80001f08:	0fc10113          	add	sp,sp,252 # 800e0000 <begin_signature>
    80001f0c:	6335                	lui	t1,0xd
    80001f0e:	3583031b          	addw	t1,t1,856 # d358 <_tbss_end+0xd358>
    80001f12:	911a                	add	sp,sp,t1

0000000080001f14 <i0000000284>:
    80001f14:	d03a                	sw	a4,32(sp)

0000000080001f16 <i0000000285>:
    80001f16:	14a5                	add	s1,s1,-23

0000000080001f18 <i0000000286>:
    80001f18:	3746                	fld	fa4,112(sp)

0000000080001f1a <i0000000287>:
    80001f1a:	241d                	addw	s0,s0,7

0000000080001f1c <i0000000288>:
    80001f1c:	013579b3          	and	s3,a0,s3
    80001f20:	000de117          	auipc	sp,0xde
    80001f24:	0e010113          	add	sp,sp,224 # 800e0000 <begin_signature>
    80001f28:	632d                	lui	t1,0xb
    80001f2a:	aa83031b          	addw	t1,t1,-1368 # aaa8 <_tbss_end+0xaaa8>
    80001f2e:	911a                	add	sp,sp,t1

0000000080001f30 <i0000000289>:
    80001f30:	bcee                	fsd	fs11,120(sp)

0000000080001f32 <i000000028a>:
    80001f32:	0000100f          	fence.i

0000000080001f36 <i000000028b>:
    80001f36:	0ff0000f          	fence

0000000080001f3a <i000000028c>:
    80001f3a:	67013983          	ld	s3,1648(sp)
    80001f3e:	4db1                	li	s11,12
    80001f40:	0a85                	add	s5,s5,1
    80001f42:	09d1292f          	amoswap.w	s2,t4,(sp)
    80001f46:	80813823          	sd	s0,-2032(sp)
    80001f4a:	c034f453          	fcvt.lu.s	s0,fs1
    80001f4e:	109c                	add	a5,sp,96
    80001f50:	4122023b          	subw	tp,tp,s2
    80001f54:	08f127af          	amoswap.w	a5,a5,(sp)
    80001f58:	40812eaf          	amoor.w	t4,s0,(sp)

0000000080001f5c <b000000028d>:
    80001f5c:	01ba8863          	beq	s5,s11,80001f6c <b000000028d+0x10>
    80001f60:	00000d97          	auipc	s11,0x0
    80001f64:	fbcd8d93          	add	s11,s11,-68 # 80001f1c <i0000000288>
    80001f68:	000d8067          	jr	s11
    80001f6c:	4aa9                	li	s5,10
    80001f6e:	0000100f          	fence.i
    80001f72:	c224fcd3          	fcvt.l.d	s9,fs1
    80001f76:	c03d4753          	fcvt.lu.s	a4,fs10,rmm
    80001f7a:	07ba                	sll	a5,a5,0xe
    80001f7c:	e0050453          	fmv.x.w	s0,fa0
    80001f80:	088139af          	amoswap.d	s3,s0,(sp)
    80001f84:	00a9d813          	srl	a6,s3,0xa

0000000080001f88 <i000000028d>:
    80001f88:	678a                	ld	a5,128(sp)

0000000080001f8a <i000000028e>:
    80001f8a:	9c09                	subw	s0,s0,a0

0000000080001f8c <i000000028f>:
    80001f8c:	033569b3          	rem	s3,a0,s3

0000000080001f90 <i0000000290>:
    80001f90:	016d3333          	sltu	t1,s10,s6

0000000080001f94 <i0000000291>:
    80001f94:	d22a                	sw	a0,36(sp)

0000000080001f96 <i0000000292>:
    80001f96:	0000100f          	fence.i
    80001f9a:	000de117          	auipc	sp,0xde
    80001f9e:	06610113          	add	sp,sp,102 # 800e0000 <begin_signature>
    80001fa2:	6331                	lui	t1,0xc
    80001fa4:	4f83031b          	addw	t1,t1,1272 # c4f8 <_tbss_end+0xc4f8>
    80001fa8:	911a                	add	sp,sp,t1

0000000080001faa <i0000000293>:
    80001faa:	bca6                	fsd	fs1,120(sp)
    80001fac:	000de117          	auipc	sp,0xde
    80001fb0:	05410113          	add	sp,sp,84 # 800e0000 <begin_signature>
    80001fb4:	632d                	lui	t1,0xb
    80001fb6:	cd03031b          	addw	t1,t1,-816 # acd0 <_tbss_end+0xacd0>
    80001fba:	911a                	add	sp,sp,t1

0000000080001fbc <i0000000294>:
    80001fbc:	67a6                	ld	a5,72(sp)
    80001fbe:	000de117          	auipc	sp,0xde
    80001fc2:	04210113          	add	sp,sp,66 # 800e0000 <begin_signature>
    80001fc6:	6325                	lui	t1,0x9
    80001fc8:	cd83031b          	addw	t1,t1,-808 # 8cd8 <_tbss_end+0x8cd8>
    80001fcc:	911a                	add	sp,sp,t1

0000000080001fce <i0000000295>:
    80001fce:	2486                	fld	fs1,64(sp)

0000000080001fd0 <i0000000296>:
    80001fd0:	1659                	add	a2,a2,-10

0000000080001fd2 <i0000000297>:
    80001fd2:	e2080553          	fmv.x.d	a0,fa6
    80001fd6:	4fa5                	li	t6,9
    80001fd8:	4aa9                	li	s5,10
    80001fda:	a1313c2f          	amomax.d	s8,s3,(sp)
    80001fde:	c234f753          	fcvt.lu.d	a4,fs1
    80001fe2:	875a                	mv	a4,s6
    80001fe4:	816129af          	amomin.w	s3,s6,(sp)
    80001fe8:	de22                	sw	s0,60(sp)
    80001fea:	5801a3d3          	fsqrt.s	ft7,ft3,rdn
    80001fee:	d0340853          	fcvt.s.lu	fa6,s0,rne

0000000080001ff2 <b0000000298>:
    80001ff2:	00000033          	add	zero,zero,zero
    80001ff6:	03fac763          	blt	s5,t6,80002024 <i000000029e>
    80001ffa:	00000033          	add	zero,zero,zero
    80001ffe:	4706                	lw	a4,64(sp)
    80002000:	3782                	fld	fa5,32(sp)
    80002002:	04c6                	sll	s1,s1,0x11
    80002004:	7466                	ld	s0,120(sp)
    80002006:	8785                	sra	a5,a5,0x1
    80002008:	6ee2                	ld	t4,24(sp)
    8000200a:	f48e                	sd	gp,104(sp)
    8000200c:	4aa9                	li	s5,10

000000008000200e <i0000000298>:
    8000200e:	03981533          	mulh	a0,a6,s9

0000000080002012 <i0000000299>:
    80002012:	0ff0000f          	fence

0000000080002016 <i000000029a>:
    80002016:	006ddd33          	srl	s10,s11,t1

000000008000201a <i000000029b>:
    8000201a:	5602                	lw	a2,32(sp)

000000008000201c <i000000029c>:
    8000201c:	02853533          	mulhu	a0,a0,s0

0000000080002020 <i000000029d>:
    80002020:	018dc433          	xor	s0,s11,s8

0000000080002024 <i000000029e>:
    80002024:	985e                	add	a6,a6,s7

0000000080002026 <i000000029f>:
    80002026:	2b080953          	fmin.d	fs2,fa6,fa6

000000008000202a <i00000002a0>:
    8000202a:	b26fe0ef          	jal	80000350 <func1>

000000008000202e <i00000002a1>:
    8000202e:	c2387453          	fcvt.lu.d	s0,fa6

0000000080002032 <i00000002a2>:
    80002032:	4402                	lw	s0,0(sp)

0000000080002034 <i00000002a3>:
    80002034:	14bd                	add	s1,s1,-17
    80002036:	4b25                	li	s6,9
    80002038:	4aa9                	li	s5,10
    8000203a:	000de117          	auipc	sp,0xde
    8000203e:	fc610113          	add	sp,sp,-58 # 800e0000 <begin_signature>
    80002042:	633d                	lui	t1,0xf
    80002044:	3d03031b          	addw	t1,t1,976 # f3d0 <_tbss_end+0xf3d0>
    80002048:	911a                	add	sp,sp,t1
    8000204a:	c227f8d3          	fcvt.l.d	a7,fa5
    8000204e:	7139                	add	sp,sp,-64
    80002050:	0287c73b          	divw	a4,a5,s0
    80002054:	2e62                	fld	ft8,24(sp)
    80002056:	c081372f          	amominu.d	a4,s0,(sp)
    8000205a:	023ee73b          	remw	a4,t4,gp
    8000205e:	80f129af          	amomin.w	s3,a5,(sp)

0000000080002062 <b00000002a4>:
    80002062:	00000033          	add	zero,zero,zero
    80002066:	056ac263          	blt	s5,s6,800020aa <i00000002a9>
    8000206a:	00000033          	add	zero,zero,zero
    8000206e:	d9fc44cb          	fnmsub.s	fs1,fs8,ft11,fs11,rmm
    80002072:	c1410823          	sb	s4,-1008(sp)
    80002076:	0334783b          	remuw	a6,s0,s3
    8000207a:	02e4643b          	remw	s0,s0,a4
    8000207e:	0301d7bb          	divuw	a5,gp,a6
    80002082:	f20184d3          	fmv.d.x	fs1,gp
    80002086:	dbc7f64b          	fnmsub.d	fa2,fa5,ft8,fs11
    8000208a:	4aa9                	li	s5,10

000000008000208c <i00000002a4>:
    8000208c:	1445                	add	s0,s0,-15

000000008000208e <i00000002a5>:
    8000208e:	ecba                	sd	a4,88(sp)

0000000080002090 <i00000002a6>:
    80002090:	e7013883          	ld	a7,-400(sp)
    80002094:	000de117          	auipc	sp,0xde
    80002098:	f6c10113          	add	sp,sp,-148 # 800e0000 <begin_signature>
    8000209c:	6321                	lui	t1,0x8
    8000209e:	7103031b          	addw	t1,t1,1808 # 8710 <_tbss_end+0x8710>
    800020a2:	911a                	add	sp,sp,t1

00000000800020a4 <i00000002a7>:
    800020a4:	aca6                	fsd	fs1,88(sp)

00000000800020a6 <i00000002a8>:
    800020a6:	014bf9b3          	and	s3,s7,s4

00000000800020aa <i00000002a9>:
    800020aa:	5552                	lw	a0,52(sp)
    800020ac:	000de117          	auipc	sp,0xde
    800020b0:	f5410113          	add	sp,sp,-172 # 800e0000 <begin_signature>
    800020b4:	631d                	lui	t1,0x7
    800020b6:	2383031b          	addw	t1,t1,568 # 7238 <_tbss_end+0x7238>
    800020ba:	911a                	add	sp,sp,t1

00000000800020bc <i00000002aa>:
    800020bc:	cc813403          	ld	s0,-824(sp)

00000000800020c0 <i00000002ab>:
    800020c0:	23048853          	fsgnj.d	fa6,fs1,fa6

00000000800020c4 <i00000002ac>:
    800020c4:	5572                	lw	a0,60(sp)

00000000800020c6 <i00000002ad>:
    800020c6:	fcaa                	sd	a0,120(sp)

00000000800020c8 <i00000002ae>:
    800020c8:	82a1                	srl	a3,a3,0x8
    800020ca:	492d                	li	s2,11
    800020cc:	0a85                	add	s5,s5,1
    800020ce:	d23b74d3          	fcvt.d.lu	fs1,s6
    800020d2:	0339fb33          	remu	s6,s3,s3
    800020d6:	68daf4c7          	fmsub.s	fs1,fs5,fa3,fa3
    800020da:	da813823          	sd	s0,-592(sp)
    800020de:	c23cf453          	fcvt.lu.d	s0,fs9
    800020e2:	015bd19b          	srlw	gp,s7,0x15
    800020e6:	3586                	fld	fa1,96(sp)

00000000800020e8 <b00000002af>:
    800020e8:	00000033          	add	zero,zero,zero
    800020ec:	fd2a88e3          	beq	s5,s2,800020bc <i00000002aa>
    800020f0:	00000033          	add	zero,zero,zero
    800020f4:	80f137af          	amomin.d	a5,a5,(sp)
    800020f8:	d0378e53          	fcvt.s.lu	ft8,a5,rne
    800020fc:	d03ec3d3          	fcvt.s.lu	ft7,t4,rmm
    80002100:	870d                	sra	a4,a4,0x3
    80002102:	2c813023          	sd	s0,704(sp)
    80002106:	09c12e2f          	amoswap.w	t3,t3,(sp)
    8000210a:	02878a33          	mul	s4,a5,s0
    8000210e:	4aa9                	li	s5,10

0000000080002110 <i00000002af>:
    80002110:	9d11                	subw	a0,a0,a2

0000000080002112 <i00000002b0>:
    80002112:	0908                	add	a0,sp,144

0000000080002114 <i00000002b1>:
    80002114:	698a                	ld	s3,128(sp)

0000000080002116 <i00000002b2>:
    80002116:	ca46                	sw	a7,20(sp)

0000000080002118 <i00000002b3>:
    80002118:	00a57d33          	and	s10,a0,a0

000000008000211c <i00000002b4>:
    8000211c:	a942                	fsd	fa6,144(sp)

000000008000211e <i00000002b5>:
    8000211e:	d2357053          	fcvt.d.lu	ft0,a0

0000000080002122 <i00000002b6>:
    80002122:	5406                	lw	s0,96(sp)

0000000080002124 <i00000002b7>:
    80002124:	11a0                	add	s0,sp,232

0000000080002126 <i00000002b8>:
    80002126:	865d                	sra	a2,a2,0x17

0000000080002128 <i00000002b9>:
    80002128:	45c1                	li	a1,16
    8000212a:	4b2d                	li	s6,11
    8000212c:	4aa9                	li	s5,10
    8000212e:	000de117          	auipc	sp,0xde
    80002132:	ed210113          	add	sp,sp,-302 # 800e0000 <begin_signature>
    80002136:	6335                	lui	t1,0xd
    80002138:	b203031b          	addw	t1,t1,-1248 # cb20 <_tbss_end+0xcb20>
    8000213c:	911a                	add	sp,sp,t1
    8000213e:	8ca5                	xor	s1,s1,s1
    80002140:	40016983          	lwu	s3,1024(sp)
    80002144:	5805bcd3          	fsqrt.s	fs9,fa1,rup
    80002148:	a3038cd3          	fle.d	s9,ft7,fa6
    8000214c:	0289bfb3          	mulhu	t6,s3,s0
    80002150:	0334743b          	remuw	s0,s0,s3
    80002154:	c0241753          	fcvt.l.s	a4,fs0,rtz

0000000080002158 <b00000002ba>:
    80002158:	00000033          	add	zero,zero,zero
    8000215c:	036a9763          	bne	s5,s6,8000218a <i00000002bf>
    80002160:	00000033          	add	zero,zero,zero
    80002164:	f9615403          	lhu	s0,-106(sp)
    80002168:	b7013823          	sd	a6,-1168(sp)
    8000216c:	411f873b          	subw	a4,t6,a7
    80002170:	01a1372f          	amoadd.d	a4,s10,(sp)
    80002174:	8f79                	and	a4,a4,a4
    80002176:	7145                	add	sp,sp,-464
    80002178:	f00a0953          	fmv.w.x	fs2,s4
    8000217c:	4aa9                	li	s5,10

000000008000217e <i00000002ba>:
    8000217e:	3435                	addw	s0,s0,-19

0000000080002180 <i00000002bb>:
    80002180:	610d                	add	sp,sp,160

0000000080002182 <i00000002bc>:
    80002182:	9fa9                	addw	a5,a5,a0

0000000080002184 <i00000002bd>:
    80002184:	2a4c1553          	fmax.d	fa0,fs8,ft4

0000000080002188 <i00000002be>:
    80002188:	8145                	srl	a0,a0,0x11

000000008000218a <i00000002bf>:
    8000218a:	f2050853          	fmv.d.x	fa6,a0

000000008000218e <i00000002c0>:
    8000218e:	c2287e53          	fcvt.l.d	t3,fa6

0000000080002192 <i00000002c1>:
    80002192:	f1e6                	sd	s9,224(sp)

0000000080002194 <i00000002c2>:
    80002194:	0089f9b3          	and	s3,s3,s0

0000000080002198 <i00000002c3>:
    80002198:	03356533          	rem	a0,a0,s3

000000008000219c <i00000002c4>:
    8000219c:	5442                	lw	s0,48(sp)
    8000219e:	4dad                	li	s11,11
    800021a0:	4aa9                	li	s5,10
    800021a2:	000de117          	auipc	sp,0xde
    800021a6:	e5e10113          	add	sp,sp,-418 # 800e0000 <begin_signature>
    800021aa:	6325                	lui	t1,0x9
    800021ac:	9803031b          	addw	t1,t1,-1664 # 8980 <_tbss_end+0x8980>
    800021b0:	911a                	add	sp,sp,t1
    800021b2:	000de117          	auipc	sp,0xde
    800021b6:	e4e10113          	add	sp,sp,-434 # 800e0000 <begin_signature>
    800021ba:	6309                	lui	t1,0x2
    800021bc:	0983031b          	addw	t1,t1,152 # 2098 <_tbss_end+0x2098>
    800021c0:	911a                	add	sp,sp,t1
    800021c2:	00f9d1bb          	srlw	gp,s3,a5
    800021c6:	a104a753          	feq.s	a4,fs1,fa6
    800021ca:	42912627          	fsw	fs1,1068(sp)
    800021ce:	01fc9e3b          	sllw	t3,s9,t6
    800021d2:	c0013387          	fld	ft7,-1024(sp)
    800021d6:	a0c58453          	fle.s	s0,fa1,fa2
    800021da:	9c1d                	subw	s0,s0,a5

00000000800021dc <b00000002c5>:
    800021dc:	00000033          	add	zero,zero,zero
    800021e0:	035dd963          	bge	s11,s5,80002212 <i00000002ca>
    800021e4:	00000033          	add	zero,zero,zero
    800021e8:	8c19                	sub	s0,s0,a4
    800021ea:	d001fe53          	fcvt.s.w	ft8,gp
    800021ee:	40f98fb3          	sub	t6,s3,a5
    800021f2:	01342033          	slt	zero,s0,s3
    800021f6:	f00984d3          	fmv.w.x	fs1,s3
    800021fa:	5482                	lw	s1,32(sp)
    800021fc:	79016883          	lwu	a7,1936(sp)
    80002200:	4aa9                	li	s5,10

0000000080002202 <i00000002c5>:
    80002202:	0022d073          	fsrmi	zero,5

0000000080002206 <i00000002c6>:
    80002206:	e2070ed3          	fmv.x.d	t4,fa4

000000008000220a <i00000002c7>:
    8000220a:	8569                	sra	a0,a0,0x1a

000000008000220c <i00000002c8>:
    8000220c:	02fbb433          	mulhu	s0,s7,a5

0000000080002210 <i00000002c9>:
    80002210:	9d21                	addw	a0,a0,s0

0000000080002212 <i00000002ca>:
    80002212:	c23ef553          	fcvt.lu.d	a0,ft9

0000000080002216 <i00000002cb>:
    80002216:	03398a33          	mul	s4,s3,s3

000000008000221a <i00000002cc>:
    8000221a:	1274fbd3          	fmul.d	fs7,fs1,ft7

000000008000221e <i00000002cd>:
    8000221e:	9c19                	subw	s0,s0,a4

0000000080002220 <i00000002ce>:
    80002220:	d82a                	sw	a0,48(sp)

0000000080002222 <i00000002cf>:
    80002222:	8f49                	or	a4,a4,a0

0000000080002224 <i00000002d0>:
    80002224:	01049293          	sll	t0,s1,0x10
    80002228:	4f81                	li	t6,0
    8000222a:	0ff0000f          	fence
    8000222e:	4da2                	lw	s11,8(sp)
    80002230:	3878384f          	fnmadd.s	fa6,fa6,ft7,ft7,rup
    80002234:	036188bb          	mulw	a7,gp,s6
    80002238:	02f9f733          	remu	a4,s3,a5
    8000223c:	2293a2d3          	fsgnjx.d	ft5,ft7,fs1
    80002240:	10c4                	add	s1,sp,100

0000000080002242 <b00000002d1>:
    80002242:	00000033          	add	zero,zero,zero
    80002246:	03fa8d63          	beq	s5,t6,80002280 <i00000002d6>
    8000224a:	00000033          	add	zero,zero,zero
    8000224e:	55813c83          	ld	s9,1368(sp)
    80002252:	2582                	fld	fa1,0(sp)
    80002254:	c111372f          	amominu.d	a4,a7,(sp)
    80002258:	0000100f          	fence.i
    8000225c:	59f6                	lw	s3,124(sp)
    8000225e:	ca02                	sw	zero,20(sp)
    80002260:	e20e8453          	fmv.x.d	s0,ft9
    80002264:	4aa9                	li	s5,10
    80002266:	000de117          	auipc	sp,0xde
    8000226a:	d9a10113          	add	sp,sp,-614 # 800e0000 <begin_signature>
    8000226e:	6329                	lui	t1,0xa
    80002270:	d683031b          	addw	t1,t1,-664 # 9d68 <_tbss_end+0x9d68>
    80002274:	911a                	add	sp,sp,t1

0000000080002276 <i00000002d1>:
    80002276:	640a                	ld	s0,128(sp)

0000000080002278 <i00000002d2>:
    80002278:	11f4                	add	a3,sp,236

000000008000227a <i00000002d3>:
    8000227a:	8c6d                	and	s0,s0,a1

000000008000227c <i00000002d4>:
    8000227c:	1571                	add	a0,a0,-4 # effc <_tbss_end+0xeffc>

000000008000227e <i00000002d5>:
    8000227e:	49e2                	lw	s3,24(sp)

0000000080002280 <i00000002d6>:
    80002280:	250d                	addw	a0,a0,3

0000000080002282 <i00000002d7>:
    80002282:	9f01                	subw	a4,a4,s0
    80002284:	000de117          	auipc	sp,0xde
    80002288:	d7c10113          	add	sp,sp,-644 # 800e0000 <begin_signature>
    8000228c:	633d                	lui	t1,0xf
    8000228e:	7503031b          	addw	t1,t1,1872 # f750 <_tbss_end+0xf750>
    80002292:	911a                	add	sp,sp,t1

0000000080002294 <i00000002d8>:
    80002294:	a026                	fsd	fs1,0(sp)

0000000080002296 <i00000002d9>:
    80002296:	69d1                	lui	s3,0x14

0000000080002298 <i00000002da>:
    80002298:	8369                	srl	a4,a4,0x1a

000000008000229a <i00000002db>:
    8000229a:	f4aa                	sd	a0,104(sp)
    8000229c:	4c81                	li	s9,0
    8000229e:	000de117          	auipc	sp,0xde
    800022a2:	d6210113          	add	sp,sp,-670 # 800e0000 <begin_signature>
    800022a6:	6329                	lui	t1,0xa
    800022a8:	a483031b          	addw	t1,t1,-1464 # 9a48 <_tbss_end+0x9a48>
    800022ac:	911a                	add	sp,sp,t1
    800022ae:	000de117          	auipc	sp,0xde
    800022b2:	d5210113          	add	sp,sp,-686 # 800e0000 <begin_signature>
    800022b6:	6319                	lui	t1,0x6
    800022b8:	c083031b          	addw	t1,t1,-1016 # 5c08 <_tbss_end+0x5c08>
    800022bc:	911a                	add	sp,sp,t1
    800022be:	20f12eaf          	amoxor.w	t4,a5,(sp)
    800022c2:	a000a64f          	fnmadd.s	fa2,ft1,ft0,fs4,rdn
    800022c6:	d2013203          	ld	tp,-736(sp)
    800022ca:	02f9f833          	remu	a6,s3,a5
    800022ce:	02f9cfbb          	divw	t6,s3,a5
    800022d2:	60813d2f          	amoand.d	s10,s0,(sp)
    800022d6:	8b29                	and	a4,a4,10

00000000800022d8 <b00000002dc>:
    800022d8:	00000033          	add	zero,zero,zero
    800022dc:	039a8f63          	beq	s5,s9,8000231a <i00000002e2>
    800022e0:	00000033          	add	zero,zero,zero
    800022e4:	0000100f          	fence.i
    800022e8:	e2018453          	fmv.x.d	s0,ft3
    800022ec:	10e12423          	sw	a4,264(sp)
    800022f0:	246a                	fld	fs0,152(sp)
    800022f2:	d227fbd3          	fcvt.d.l	fs7,a5
    800022f6:	b4a6                	fsd	fs1,104(sp)
    800022f8:	6d013983          	ld	s3,1744(sp)
    800022fc:	4aa9                	li	s5,10

00000000800022fe <i00000002dc>:
    800022fe:	6149                	add	sp,sp,144

0000000080002300 <i00000002dd>:
    80002300:	6125                	add	sp,sp,96

0000000080002302 <i00000002de>:
    80002302:	c822                	sw	s0,16(sp)

0000000080002304 <i00000002df>:
    80002304:	2482                	fld	fs1,0(sp)
    80002306:	000de117          	auipc	sp,0xde
    8000230a:	cfa10113          	add	sp,sp,-774 # 800e0000 <begin_signature>
    8000230e:	633d                	lui	t1,0xf
    80002310:	3183031b          	addw	t1,t1,792 # f318 <_tbss_end+0xf318>
    80002314:	911a                	add	sp,sp,t1

0000000080002316 <i00000002e0>:
    80002316:	6c4e                	ld	s8,208(sp)

0000000080002318 <i00000002e1>:
    80002318:	8c81                	sub	s1,s1,s0

000000008000231a <i00000002e2>:
    8000231a:	33a6                	fld	ft7,104(sp)

000000008000231c <i00000002e3>:
    8000231c:	f20381d3          	fmv.d.x	ft3,t2

0000000080002320 <i00000002e4>:
    80002320:	5742                	lw	a4,48(sp)

0000000080002322 <i00000002e5>:
    80002322:	59c9                	li	s3,-14

0000000080002324 <i00000002e6>:
    80002324:	406a56b3          	sra	a3,s4,t1
    80002328:	48a9                	li	a7,10
    8000232a:	000de117          	auipc	sp,0xde
    8000232e:	cd610113          	add	sp,sp,-810 # 800e0000 <begin_signature>
    80002332:	630d                	lui	t1,0x3
    80002334:	dc83031b          	addw	t1,t1,-568 # 2dc8 <_tbss_end+0x2dc8>
    80002338:	911a                	add	sp,sp,t1
    8000233a:	20813803          	ld	a6,520(sp)
    8000233e:	02e459bb          	divuw	s3,s0,a4
    80002342:	01fedc1b          	srlw	s8,t4,0x1f
    80002346:	9f21                	addw	a4,a4,s0
    80002348:	ec26                	sd	s1,24(sp)
    8000234a:	c03ec953          	fcvt.lu.s	s2,ft9,rmm
    8000234e:	cd811d03          	lh	s10,-808(sp)

0000000080002352 <b00000002e7>:
    80002352:	011a8863          	beq	s5,a7,80002362 <b00000002e7+0x10>
    80002356:	00000897          	auipc	a7,0x0
    8000235a:	fc288893          	add	a7,a7,-62 # 80002318 <i00000002e1>
    8000235e:	00088067          	jr	a7
    80002362:	4aa9                	li	s5,10
    80002364:	8061                	srl	s0,s0,0x18
    80002366:	48f9c993          	xor	s3,s3,1167
    8000236a:	02871433          	mulh	s0,a4,s0
    8000236e:	0334043b          	mulw	s0,s0,s3
    80002372:	b9d6                	fsd	fs5,240(sp)
    80002374:	e0813d83          	ld	s11,-504(sp)
    80002378:	614d                	add	sp,sp,176

000000008000237a <i00000002e7>:
    8000237a:	01820d33          	add	s10,tp,s8

000000008000237e <i00000002e8>:
    8000237e:	d2347153          	fcvt.d.lu	ft2,s0

0000000080002382 <i00000002e9>:
    80002382:	03cc28b3          	mulhsu	a7,s8,t3

0000000080002386 <i00000002ea>:
    80002386:	0b44                	add	s1,sp,404

0000000080002388 <i00000002eb>:
    80002388:	9c29                	addw	s0,s0,a0

000000008000238a <i00000002ec>:
    8000238a:	33ea                	fld	ft7,184(sp)

000000008000238c <i00000002ed>:
    8000238c:	da8e                	sw	gp,116(sp)

000000008000238e <i00000002ee>:
    8000238e:	03031433          	mulh	s0,t1,a6

0000000080002392 <i00000002ef>:
    80002392:	8426                	mv	s0,s1

0000000080002394 <i00000002f0>:
    80002394:	4706                	lw	a4,64(sp)

0000000080002396 <i00000002f1>:
    80002396:	e20802d3          	fmv.x.d	t0,fa6
    8000239a:	4ea9                	li	t4,10
    8000239c:	60e139af          	amoand.d	s3,a4,(sp)
    800023a0:	02e72433          	mulhsu	s0,a4,a4
    800023a4:	d0370853          	fcvt.s.lu	fa6,a4,rne
    800023a8:	69016183          	lwu	gp,1680(sp)
    800023ac:	b962                	fsd	fs8,176(sp)
    800023ae:	ef813403          	ld	s0,-264(sp)
    800023b2:	c13134af          	amominu.d	s1,s3,(sp)

00000000800023b6 <b00000002f2>:
    800023b6:	01da8863          	beq	s5,t4,800023c6 <b00000002f2+0x10>
    800023ba:	00000e97          	auipc	t4,0x0
    800023be:	fd2e8e93          	add	t4,t4,-46 # 8000238c <i00000002ed>
    800023c2:	000e80e7          	jalr	t4
    800023c6:	4aa9                	li	s5,10
    800023c8:	00978433          	add	s0,a5,s1
    800023cc:	8351                	srl	a4,a4,0x14
    800023ce:	03cc3933          	mulhu	s2,s8,t3
    800023d2:	a0712c2f          	amomax.w	s8,t2,(sp)
    800023d6:	874e                	mv	a4,s3
    800023d8:	d2040a53          	fcvt.d.w	fs4,s0
    800023dc:	40e1372f          	amoor.d	a4,a4,(sp)
    800023e0:	000de117          	auipc	sp,0xde
    800023e4:	c2010113          	add	sp,sp,-992 # 800e0000 <begin_signature>
    800023e8:	6339                	lui	t1,0xe
    800023ea:	2003031b          	addw	t1,t1,512 # e200 <_tbss_end+0xe200>
    800023ee:	911a                	add	sp,sp,t1

00000000800023f0 <i00000002f2>:
    800023f0:	c162                	sw	s8,128(sp)

00000000800023f2 <i00000002f3>:
    800023f2:	011879b3          	and	s3,a6,a7

00000000800023f6 <i00000002f4>:
    800023f6:	85f9                	sra	a1,a1,0x1e

00000000800023f8 <i00000002f5>:
    800023f8:	b482                	fsd	ft0,104(sp)

00000000800023fa <i00000002f6>:
    800023fa:	0436                	sll	s0,s0,0xd

00000000800023fc <i00000002f7>:
    800023fc:	de36                	sw	a3,60(sp)

00000000800023fe <i00000002f8>:
    800023fe:	031e7cb3          	remu	s9,t3,a7

0000000080002402 <i00000002f9>:
    80002402:	8d05                	sub	a0,a0,s1

0000000080002404 <i00000002fa>:
    80002404:	f20988d3          	fmv.d.x	fa7,s3

0000000080002408 <i00000002fb>:
    80002408:	9fb1                	addw	a5,a5,a2

000000008000240a <i00000002fc>:
    8000240a:	7169                	add	sp,sp,-304
    8000240c:	c214f9d3          	fcvt.wu.d	s3,fs1
    80002410:	9c25                	addw	s0,s0,s1
    80002412:	84fd                	sra	s1,s1,0x1f
    80002414:	ac416f83          	lwu	t6,-1340(sp)
    80002418:	c4ea                	sw	s10,72(sp)
    8000241a:	c220fb53          	fcvt.l.d	s6,ft1
    8000241e:	1a93f6d3          	fdiv.d	fa3,ft7,fs1

0000000080002422 <b00000002fd>:
    80002422:	0240056f          	jal	a0,80002446 <i0000000302>
    80002426:	b3416d83          	lwu	s11,-1228(sp)
    8000242a:	aa813007          	fld	ft0,-1368(sp)
    8000242e:	9ca5                	addw	s1,s1,s1
    80002430:	01f04733          	xor	a4,zero,t6
    80002434:	b4be                	fsd	fa5,104(sp)
    80002436:	d43a                	sw	a4,40(sp)
    80002438:	f20986d3          	fmv.d.x	fa3,s3

000000008000243c <i00000002fd>:
    8000243c:	8c0d                	sub	s0,s0,a1

000000008000243e <i00000002fe>:
    8000243e:	d82a                	sw	a0,48(sp)

0000000080002440 <i00000002ff>:
    80002440:	b426                	fsd	fs1,40(sp)

0000000080002442 <i0000000300>:
    80002442:	5522                	lw	a0,40(sp)

0000000080002444 <i0000000301>:
    80002444:	1178                	add	a4,sp,172

0000000080002446 <i0000000302>:
    80002446:	10fc                	add	a5,sp,108

0000000080002448 <i0000000303>:
    80002448:	2721e993          	or	s3,gp,626

000000008000244c <i0000000304>:
    8000244c:	f05fd0ef          	jal	80000350 <func1>

0000000080002450 <i0000000305>:
    80002450:	7111                	add	sp,sp,-256

0000000080002452 <i0000000306>:
    80002452:	b426                	fsd	fs1,40(sp)

0000000080002454 <i0000000307>:
    80002454:	01751213          	sll	tp,a0,0x17

0000000080002458 <i0000000308>:
    80002458:	0904                	add	s1,sp,144
    8000245a:	000de117          	auipc	sp,0xde
    8000245e:	ba610113          	add	sp,sp,-1114 # 800e0000 <begin_signature>
    80002462:	6331                	lui	t1,0xc
    80002464:	7783031b          	addw	t1,t1,1912 # c778 <_tbss_end+0xc778>
    80002468:	911a                	add	sp,sp,t1
    8000246a:	d00993d3          	fcvt.s.w	ft7,s3,rtz
    8000246e:	4071342f          	amoor.d	s0,t2,(sp)
    80002472:	d0b10803          	lb	a6,-757(sp)
    80002476:	4a74f9cf          	fnmadd.d	fs3,fs1,ft7,fs1
    8000247a:	d0222853          	fcvt.s.l	fa6,tp,rdn
    8000247e:	0000100f          	fence.i
    80002482:	711d                	add	sp,sp,-96

0000000080002484 <b0000000309>:
    80002484:	03c0056f          	jal	a0,800024c0 <i000000030f>
    80002488:	e191342f          	amomaxu.d	s0,s9,(sp)
    8000248c:	c03914d3          	fcvt.lu.s	s1,fs2,rtz
    80002490:	c626                	sw	s1,12(sp)
    80002492:	0339fb33          	remu	s6,s3,s3
    80002496:	86dc7713          	and	a4,s8,-1939
    8000249a:	e131382f          	amomaxu.d	a6,s3,(sp)
    8000249e:	c082                	sw	zero,64(sp)
    800024a0:	000de117          	auipc	sp,0xde
    800024a4:	b6010113          	add	sp,sp,-1184 # 800e0000 <begin_signature>
    800024a8:	6325                	lui	t1,0x9
    800024aa:	0e03031b          	addw	t1,t1,224 # 90e0 <_tbss_end+0x90e0>
    800024ae:	911a                	add	sp,sp,t1

00000000800024b0 <i0000000309>:
    800024b0:	e21a                	sd	t1,256(sp)

00000000800024b2 <i000000030a>:
    800024b2:	34e2                	fld	fs1,56(sp)

00000000800024b4 <i000000030b>:
    800024b4:	a43e                	fsd	fa5,8(sp)

00000000800024b6 <i000000030c>:
    800024b6:	8d39                	xor	a0,a0,a4

00000000800024b8 <i000000030d>:
    800024b8:	0023d073          	fsrmi	zero,7

00000000800024bc <i000000030e>:
    800024bc:	d23374d3          	fcvt.d.lu	fs1,t1

00000000800024c0 <i000000030f>:
    800024c0:	9c35                	addw	s0,s0,a3

00000000800024c2 <i0000000310>:
    800024c2:	b0a6                	fsd	fs1,96(sp)

00000000800024c4 <i0000000311>:
    800024c4:	3691                	addw	a3,a3,-28

00000000800024c6 <i0000000312>:
    800024c6:	e8a2                	sd	s0,80(sp)

00000000800024c8 <i0000000313>:
    800024c8:	b8a6                	fsd	fs1,112(sp)
    800024ca:	000de117          	auipc	sp,0xde
    800024ce:	b3610113          	add	sp,sp,-1226 # 800e0000 <begin_signature>
    800024d2:	6319                	lui	t1,0x6
    800024d4:	1d03031b          	addw	t1,t1,464 # 61d0 <_tbss_end+0x61d0>
    800024d8:	911a                	add	sp,sp,t1

00000000800024da <i0000000314>:
    800024da:	dc4e                	sw	s3,56(sp)
    800024dc:	4d29                	li	s10,10
    800024de:	4aa9                	li	s5,10
    800024e0:	000de117          	auipc	sp,0xde
    800024e4:	b2010113          	add	sp,sp,-1248 # 800e0000 <begin_signature>
    800024e8:	6309                	lui	t1,0x2
    800024ea:	4183031b          	addw	t1,t1,1048 # 2418 <_tbss_end+0x2418>
    800024ee:	911a                	add	sp,sp,t1
    800024f0:	000de117          	auipc	sp,0xde
    800024f4:	b1010113          	add	sp,sp,-1264 # 800e0000 <begin_signature>
    800024f8:	631d                	lui	t1,0x7
    800024fa:	6a03031b          	addw	t1,t1,1696 # 76a0 <_tbss_end+0x76a0>
    800024fe:	911a                	add	sp,sp,t1
    80002500:	d2170c53          	fcvt.d.wu	fs8,a4
    80002504:	22782e53          	fsgnjx.d	ft8,fa6,ft7
    80002508:	6c813803          	ld	a6,1736(sp)
    8000250c:	5dad                	li	s11,-21
    8000250e:	c23679d3          	fcvt.lu.d	s3,fa2
    80002512:	7ba6                	ld	s7,104(sp)
    80002514:	e0e1342f          	amomaxu.d	s0,a4,(sp)

0000000080002518 <b0000000315>:
    80002518:	00000033          	add	zero,zero,zero
    8000251c:	05aa9863          	bne	s5,s10,8000256c <i000000031b>
    80002520:	00000033          	add	zero,zero,zero
    80002524:	d02b74d3          	fcvt.s.l	fs1,s6
    80002528:	64c2                	ld	s1,16(sp)
    8000252a:	c8a2                	sw	s0,80(sp)
    8000252c:	6ec16703          	lwu	a4,1772(sp)
    80002530:	98c16183          	lwu	gp,-1652(sp)
    80002534:	d20208d3          	fcvt.d.w	fa7,tp
    80002538:	03b8543b          	divuw	s0,a6,s11
    8000253c:	4aa9                	li	s5,10

000000008000253e <i0000000315>:
    8000253e:	e0aa                	sd	a0,64(sp)

0000000080002540 <i0000000316>:
    80002540:	9fa1                	addw	a5,a5,s0
    80002542:	000de117          	auipc	sp,0xde
    80002546:	abe10113          	add	sp,sp,-1346 # 800e0000 <begin_signature>
    8000254a:	6339                	lui	t1,0xe
    8000254c:	ba83031b          	addw	t1,t1,-1112 # dba8 <_tbss_end+0xdba8>
    80002550:	911a                	add	sp,sp,t1

0000000080002552 <i0000000317>:
    80002552:	7426                	ld	s0,104(sp)

0000000080002554 <i0000000318>:
    80002554:	f2098dd3          	fmv.d.x	fs11,s3

0000000080002558 <i0000000319>:
    80002558:	19f8                	add	a4,sp,252
    8000255a:	000de117          	auipc	sp,0xde
    8000255e:	aa610113          	add	sp,sp,-1370 # 800e0000 <begin_signature>
    80002562:	6335                	lui	t1,0xd
    80002564:	0883031b          	addw	t1,t1,136 # d088 <_tbss_end+0xd088>
    80002568:	911a                	add	sp,sp,t1

000000008000256a <i000000031a>:
    8000256a:	640a                	ld	s0,128(sp)

000000008000256c <i000000031b>:
    8000256c:	03a8                	add	a0,sp,456

000000008000256e <i000000031c>:
    8000256e:	7145                	add	sp,sp,-464

0000000080002570 <i000000031d>:
    80002570:	9209b293          	sltiu	t0,s3,-1760

0000000080002574 <i000000031e>:
    80002574:	9c09                	subw	s0,s0,a0

0000000080002576 <i000000031f>:
    80002576:	248a                	fld	fs1,128(sp)
    80002578:	4ead                	li	t4,11
    8000257a:	4aa9                	li	s5,10
    8000257c:	2526                	fld	fa0,72(sp)
    8000257e:	5f85                	li	t6,-31
    80002580:	33ca                	fld	ft7,176(sp)
    80002582:	49b2                	lw	s3,12(sp)
    80002584:	c181282f          	amominu.w	a6,s8,(sp)
    80002588:	7d110ea3          	sb	a7,2013(sp)
    8000258c:	0840                	add	s0,sp,20

000000008000258e <b0000000320>:
    8000258e:	00000033          	add	zero,zero,zero
    80002592:	03da9863          	bne	s5,t4,800025c2 <i0000000326>
    80002596:	00000033          	add	zero,zero,zero
    8000259a:	0289e23b          	remw	tp,s3,s0
    8000259e:	44713423          	sd	t2,1096(sp)
    800025a2:	a826                	fsd	fs1,16(sp)
    800025a4:	57a2                	lw	a5,40(sp)
    800025a6:	20f1272f          	amoxor.w	a4,a5,(sp)
    800025aa:	2304ab53          	fsgnjx.d	fs6,fs1,fa6
    800025ae:	09b123af          	amoswap.w	t2,s11,(sp)
    800025b2:	4aa9                	li	s5,10

00000000800025b4 <i0000000320>:
    800025b4:	d9dfd0ef          	jal	80000350 <func1>

00000000800025b8 <i0000000321>:
    800025b8:	a43e                	fsd	fa5,8(sp)

00000000800025ba <i0000000322>:
    800025ba:	6165                	add	sp,sp,112

00000000800025bc <i0000000323>:
    800025bc:	0120                	add	s0,sp,136

00000000800025be <i0000000324>:
    800025be:	854d                	sra	a0,a0,0x13

00000000800025c0 <i0000000325>:
    800025c0:	7105                	add	sp,sp,-480

00000000800025c2 <i0000000326>:
    800025c2:	40e28433          	sub	s0,t0,a4

00000000800025c6 <i0000000327>:
    800025c6:	de22                	sw	s0,60(sp)

00000000800025c8 <i0000000328>:
    800025c8:	c230f9d3          	fcvt.lu.d	s3,ft1

00000000800025cc <i0000000329>:
    800025cc:	09bb14b7          	lui	s1,0x9bb1

00000000800025d0 <i000000032a>:
    800025d0:	00000d33          	add	s10,zero,zero

00000000800025d4 <i000000032b>:
    800025d4:	0a68                	add	a0,sp,284
    800025d6:	4ea5                	li	t4,9
    800025d8:	000de117          	auipc	sp,0xde
    800025dc:	a2810113          	add	sp,sp,-1496 # 800e0000 <begin_signature>
    800025e0:	6335                	lui	t1,0xd
    800025e2:	7c03031b          	addw	t1,t1,1984 # d7c0 <_tbss_end+0xd7c0>
    800025e6:	911a                	add	sp,sp,t1
    800025e8:	000de117          	auipc	sp,0xde
    800025ec:	a1810113          	add	sp,sp,-1512 # 800e0000 <begin_signature>
    800025f0:	6339                	lui	t1,0xe
    800025f2:	5103031b          	addw	t1,t1,1296 # e510 <_tbss_end+0xe510>
    800025f6:	911a                	add	sp,sp,t1
    800025f8:	382a                	fld	fa6,168(sp)
    800025fa:	0ff0000f          	fence
    800025fe:	3795                	addw	a5,a5,-27
    80002600:	0361f8bb          	remuw	a7,gp,s6
    80002604:	7149                	add	sp,sp,-368
    80002606:	9946                	add	s2,s2,a7
    80002608:	035b7153          	fadd.d	ft2,fs6,fs5

000000008000260c <b000000032c>:
    8000260c:	00000033          	add	zero,zero,zero
    80002610:	fbdac9e3          	blt	s5,t4,800025c2 <i0000000326>
    80002614:	00000033          	add	zero,zero,zero
    80002618:	0000100f          	fence.i
    8000261c:	03adca3b          	divw	s4,s11,s10
    80002620:	caf11d23          	sh	a5,-838(sp)
    80002624:	c202                	sw	zero,4(sp)
    80002626:	01f7599b          	srlw	s3,a4,0x1f
    8000262a:	a49107a3          	sb	s1,-1457(sp)
    8000262e:	01f4591b          	srlw	s2,s0,0x1f
    80002632:	4aa9                	li	s5,10

0000000080002634 <i000000032c>:
    80002634:	5b82                	lw	s7,32(sp)

0000000080002636 <i000000032d>:
    80002636:	46f2                	lw	a3,28(sp)

0000000080002638 <i000000032e>:
    80002638:	00078633          	add	a2,a5,zero

000000008000263c <i000000032f>:
    8000263c:	9e2d                	addw	a2,a2,a1

000000008000263e <i0000000330>:
    8000263e:	8469                	sra	s0,s0,0x1a

0000000080002640 <i0000000331>:
    80002640:	1aa8                	add	a0,sp,376

0000000080002642 <i0000000332>:
    80002642:	d0ffd0ef          	jal	80000350 <func1>

0000000080002646 <i0000000333>:
    80002646:	0048                	add	a0,sp,4

0000000080002648 <i0000000334>:
    80002648:	4ee6                	lw	t4,88(sp)

000000008000264a <i0000000335>:
    8000264a:	376a                	fld	fa4,184(sp)

000000008000264c <i0000000336>:
    8000264c:	3866                	fld	fa6,120(sp)

000000008000264e <i0000000337>:
    8000264e:	b8be                	fsd	fa5,112(sp)
    80002650:	4fa9                	li	t6,10
    80002652:	000de117          	auipc	sp,0xde
    80002656:	9ae10113          	add	sp,sp,-1618 # 800e0000 <begin_signature>
    8000265a:	6321                	lui	t1,0x8
    8000265c:	9e03031b          	addw	t1,t1,-1568 # 79e0 <_tbss_end+0x79e0>
    80002660:	911a                	add	sp,sp,t1
    80002662:	c0280853          	fcvt.l.s	a6,fa6,rne
    80002666:	02e47b33          	remu	s6,s0,a4
    8000266a:	c0f13823          	sd	a5,-1008(sp)
    8000266e:	0ff0000f          	fence
    80002672:	6169                	add	sp,sp,208
    80002674:	1255ffd3          	fmul.d	ft11,fa1,ft5
    80002678:	c222                	sw	s0,4(sp)

000000008000267a <b0000000338>:
    8000267a:	00000033          	add	zero,zero,zero
    8000267e:	03fa8c63          	beq	s5,t6,800026b6 <i000000033d>
    80002682:	00000033          	add	zero,zero,zero
    80002686:	87d5                	sra	a5,a5,0x15
    80002688:	b0be                	fsd	fa5,96(sp)
    8000268a:	8778a193          	slti	gp,a7,-1929
    8000268e:	009383d3          	fadd.s	ft7,ft7,fs1,rne
    80002692:	c14e                	sw	s3,128(sp)
    80002694:	f8a6                	sd	s1,112(sp)
    80002696:	030d1433          	mulh	s0,s10,a6
    8000269a:	4aa9                	li	s5,10

000000008000269c <i0000000338>:
    8000269c:	182c                	add	a1,sp,56

000000008000269e <i0000000339>:
    8000269e:	8ea9                	xor	a3,a3,a0

00000000800026a0 <i000000033a>:
    800026a0:	1431                	add	s0,s0,-20
    800026a2:	000de117          	auipc	sp,0xde
    800026a6:	95e10113          	add	sp,sp,-1698 # 800e0000 <begin_signature>
    800026aa:	632d                	lui	t1,0xb
    800026ac:	2d03031b          	addw	t1,t1,720 # b2d0 <_tbss_end+0xb2d0>
    800026b0:	911a                	add	sp,sp,t1

00000000800026b2 <i000000033b>:
    800026b2:	4412                	lw	s0,4(sp)

00000000800026b4 <i000000033c>:
    800026b4:	8c49                	or	s0,s0,a0

00000000800026b6 <i000000033d>:
    800026b6:	e4e6                	sd	s9,72(sp)

00000000800026b8 <i000000033e>:
    800026b8:	d22bf853          	fcvt.d.l	fa6,s7

00000000800026bc <i000000033f>:
    800026bc:	9f89                	subw	a5,a5,a0

00000000800026be <i0000000340>:
    800026be:	5492                	lw	s1,36(sp)

00000000800026c0 <i0000000341>:
    800026c0:	c91fd0ef          	jal	80000350 <func1>

00000000800026c4 <i0000000342>:
    800026c4:	4fe6                	lw	t6,88(sp)

00000000800026c6 <i0000000343>:
    800026c6:	89c6                	mv	s3,a7
    800026c8:	4825                	li	a6,9
    800026ca:	4aa9                	li	s5,10
    800026cc:	24013983          	ld	s3,576(sp)
    800026d0:	7722                	ld	a4,40(sp)
    800026d2:	b9611703          	lh	a4,-1130(sp)
    800026d6:	31891417          	auipc	s0,0x31891
    800026da:	40a98b13          	add	s6,s3,1034 # 1440a <_tbss_end+0x1440a>
    800026de:	17a10983          	lb	s3,378(sp)
    800026e2:	8fc1                	or	a5,a5,s0

00000000800026e4 <b0000000344>:
    800026e4:	00000033          	add	zero,zero,zero
    800026e8:	03585663          	bge	a6,s5,80002714 <i000000034a>
    800026ec:	00000033          	add	zero,zero,zero
    800026f0:	c0337753          	fcvt.lu.s	a4,ft6
    800026f4:	170d                	add	a4,a4,-29 # 12fe3 <_tbss_end+0x12fe3>
    800026f6:	98e9                	and	s1,s1,-6
    800026f8:	4179573b          	sraw	a4,s2,s7
    800026fc:	6706                	ld	a4,64(sp)
    800026fe:	20cb1c53          	fsgnjn.s	fs8,fs6,fa2
    80002702:	c03491d3          	fcvt.lu.s	gp,fs1,rtz
    80002706:	4aa9                	li	s5,10

0000000080002708 <i0000000344>:
    80002708:	7101                	add	sp,sp,-512

000000008000270a <i0000000345>:
    8000270a:	5532                	lw	a0,44(sp)

000000008000270c <i0000000346>:
    8000270c:	36d1                	addw	a3,a3,-12

000000008000270e <i0000000347>:
    8000270e:	ccaa                	sw	a0,88(sp)

0000000080002710 <i0000000348>:
    80002710:	9c39                	addw	s0,s0,a4

0000000080002712 <i0000000349>:
    80002712:	e122                	sd	s0,128(sp)

0000000080002714 <i000000034a>:
    80002714:	0732                	sll	a4,a4,0xc

0000000080002716 <i000000034b>:
    80002716:	49e2                	lw	s3,24(sp)

0000000080002718 <i000000034c>:
    80002718:	715d                	add	sp,sp,-80

000000008000271a <i000000034d>:
    8000271a:	c03a                	sw	a4,0(sp)

000000008000271c <i000000034e>:
    8000271c:	f1d2                	sd	s4,224(sp)
    8000271e:	4d29                	li	s10,10
    80002720:	41d9073b          	subw	a4,s2,t4
    80002724:	26e6                	fld	fa3,88(sp)
    80002726:	a132                	fsd	fa2,128(sp)
    80002728:	9f99                	subw	a5,a5,a4
    8000272a:	40e7573b          	sraw	a4,a4,a4
    8000272e:	1b3173d3          	fdiv.d	ft7,ft2,fs3
    80002732:	034b7dbb          	remuw	s11,s6,s4

0000000080002736 <b000000034f>:
    80002736:	01aa8463          	beq	s5,s10,8000273e <b000000034f+0x8>
    8000273a:	fdbff56f          	jal	a0,80002714 <i000000034a>
    8000273e:	4aa9                	li	s5,10
    80002740:	00899b93          	sll	s7,s3,0x8
    80002744:	8cc5                	or	s1,s1,s1
    80002746:	7175                	add	sp,sp,-144
    80002748:	bb69f0cb          	fnmsub.d	ft1,fs3,fs6,fs7
    8000274c:	0398                	add	a4,sp,448
    8000274e:	0289e7bb          	remw	a5,s3,s0
    80002752:	00b8d993          	srl	s3,a7,0xb

0000000080002756 <i000000034f>:
    80002756:	0a48                	add	a0,sp,276

0000000080002758 <i0000000350>:
    80002758:	dc22                	sw	s0,56(sp)

000000008000275a <i0000000351>:
    8000275a:	f822                	sd	s0,48(sp)

000000008000275c <i0000000352>:
    8000275c:	2b8a                	fld	fs7,128(sp)

000000008000275e <i0000000353>:
    8000275e:	da26                	sw	s1,52(sp)

0000000080002760 <i0000000354>:
    80002760:	7169                	add	sp,sp,-304

0000000080002762 <i0000000355>:
    80002762:	fc22                	sd	s0,56(sp)

0000000080002764 <i0000000356>:
    80002764:	612d                	add	sp,sp,224

0000000080002766 <i0000000357>:
    80002766:	95a2                	add	a1,a1,s0

0000000080002768 <i0000000358>:
    80002768:	6145                	add	sp,sp,48

000000008000276a <i0000000359>:
    8000276a:	a426                	fsd	fs1,8(sp)
    8000276c:	4ca9                	li	s9,10
    8000276e:	000de117          	auipc	sp,0xde
    80002772:	89210113          	add	sp,sp,-1902 # 800e0000 <begin_signature>
    80002776:	6311                	lui	t1,0x4
    80002778:	e383031b          	addw	t1,t1,-456 # 3e38 <_tbss_end+0x3e38>
    8000277c:	911a                	add	sp,sp,t1
    8000277e:	0078ebb3          	or	s7,a7,t2
    80002782:	02f9f73b          	remuw	a4,s3,a5
    80002786:	023fe9bb          	remw	s3,t6,gp
    8000278a:	e43a                	sd	a4,8(sp)
    8000278c:	b61e                	fsd	ft7,296(sp)
    8000278e:	60013983          	ld	s3,1536(sp)
    80002792:	d2247853          	fcvt.d.l	fa6,s0

0000000080002796 <b000000035a>:
    80002796:	019a8463          	beq	s5,s9,8000279e <b000000035a+0x8>
    8000279a:	fc7ff56f          	jal	a0,80002760 <i0000000354>
    8000279e:	4aa9                	li	s5,10
    800027a0:	28748353          	fmin.s	ft6,fs1,ft7
    800027a4:	80e121af          	amomin.w	gp,a4,(sp)
    800027a8:	2111202f          	amoxor.w	zero,a7,(sp)
    800027ac:	a06d3c13          	sltiu	s8,s10,-1530
    800027b0:	0ff0000f          	fence
    800027b4:	0000100f          	fence.i
    800027b8:	0b48f4d3          	fsub.d	fs1,fa7,fs4

00000000800027bc <i000000035a>:
    800027bc:	812d                	srl	a0,a0,0xb

00000000800027be <i000000035b>:
    800027be:	85dd                	sra	a1,a1,0x17

00000000800027c0 <i000000035c>:
    800027c0:	0368                	add	a0,sp,396

00000000800027c2 <i000000035d>:
    800027c2:	c42a                	sw	a0,8(sp)

00000000800027c4 <i000000035e>:
    800027c4:	c224f8d3          	fcvt.l.d	a7,fs1
    800027c8:	000de117          	auipc	sp,0xde
    800027cc:	83810113          	add	sp,sp,-1992 # 800e0000 <begin_signature>
    800027d0:	6325                	lui	t1,0x9
    800027d2:	6383031b          	addw	t1,t1,1592 # 9638 <_tbss_end+0x9638>
    800027d6:	911a                	add	sp,sp,t1

00000000800027d8 <i000000035f>:
    800027d8:	a0be                	fsd	fa5,64(sp)

00000000800027da <i0000000360>:
    800027da:	9d15                	subw	a0,a0,a3

00000000800027dc <i0000000361>:
    800027dc:	c22a                	sw	a0,4(sp)

00000000800027de <i0000000362>:
    800027de:	c0b6                	sw	a3,64(sp)

00000000800027e0 <i0000000363>:
    800027e0:	4e140993          	add	s3,s0,1249 # b1893bb7 <_end+0x317a12b6>

00000000800027e4 <i0000000364>:
    800027e4:	8e51                	or	a2,a2,a2
    800027e6:	4829                	li	a6,10
    800027e8:	bac16e83          	lwu	t4,-1108(sp)
    800027ec:	c16139af          	amominu.d	s3,s6,(sp)
    800027f0:	b0ff13c7          	fmsub.s	ft7,ft10,fa5,fs6,rtz
    800027f4:	a41e                	fsd	ft7,8(sp)
    800027f6:	a5a11783          	lh	a5,-1446(sp)
    800027fa:	03bc                	add	a5,sp,456
    800027fc:	d02e10d3          	fcvt.s.l	ft1,t3,rtz

0000000080002800 <b0000000365>:
    80002800:	00000033          	add	zero,zero,zero
    80002804:	030a8e63          	beq	s5,a6,80002840 <i000000036b>
    80002808:	00000033          	add	zero,zero,zero
    8000280c:	09312eaf          	amoswap.w	t4,s3,(sp)
    80002810:	24913027          	fsd	fs1,576(sp)
    80002814:	fe4e                	sd	s3,312(sp)
    80002816:	de3a                	sw	a4,60(sp)
    80002818:	8c52                	mv	s8,s4
    8000281a:	6431                	lui	s0,0xc
    8000281c:	034fcb33          	div	s6,t6,s4
    80002820:	4aa9                	li	s5,10

0000000080002822 <i0000000365>:
    80002822:	006c                	add	a1,sp,12

0000000080002824 <i0000000366>:
    80002824:	85e5                	sra	a1,a1,0x19
    80002826:	000dd117          	auipc	sp,0xdd
    8000282a:	7da10113          	add	sp,sp,2010 # 800e0000 <begin_signature>
    8000282e:	630d                	lui	t1,0x3
    80002830:	8883031b          	addw	t1,t1,-1912 # 2888 <_tbss_end+0x2888>
    80002834:	911a                	add	sp,sp,t1

0000000080002836 <i0000000367>:
    80002836:	fc26                	sd	s1,56(sp)

0000000080002838 <i0000000368>:
    80002838:	8419                	sra	s0,s0,0x6

000000008000283a <i0000000369>:
    8000283a:	a9643d13          	sltiu	s10,s0,-1386

000000008000283e <i000000036a>:
    8000283e:	8ff1                	and	a5,a5,a2

0000000080002840 <i000000036b>:
    80002840:	8faa                	mv	t6,a0

0000000080002842 <i000000036c>:
    80002842:	f2050ad3          	fmv.d.x	fs5,a0

0000000080002846 <i000000036d>:
    80002846:	00a52433          	slt	s0,a0,a0
    8000284a:	000dd117          	auipc	sp,0xdd
    8000284e:	7b610113          	add	sp,sp,1974 # 800e0000 <begin_signature>
    80002852:	6329                	lui	t1,0xa
    80002854:	f583031b          	addw	t1,t1,-168 # 9f58 <_tbss_end+0x9f58>
    80002858:	911a                	add	sp,sp,t1

000000008000285a <i000000036e>:
    8000285a:	59a2                	lw	s3,40(sp)

000000008000285c <i000000036f>:
    8000285c:	019b9933          	sll	s2,s7,s9
    80002860:	4d25                	li	s10,9
    80002862:	2ab7b413          	sltiu	s0,a5,683
    80002866:	03145e13          	srl	t3,s0,0x31
    8000286a:	c033b1d3          	fcvt.lu.s	gp,ft7,rup
    8000286e:	d20e03d3          	fcvt.d.w	ft7,t3
    80002872:	a21c0dd3          	fle.d	s11,fs8,ft1
    80002876:	07a6                	sll	a5,a5,0x9
    80002878:	40313faf          	amoor.d	t6,gp,(sp)

000000008000287c <b0000000370>:
    8000287c:	00000033          	add	zero,zero,zero
    80002880:	fdaac0e3          	blt	s5,s10,80002840 <i000000036b>
    80002884:	00000033          	add	zero,zero,zero
    80002888:	9c81                	subw	s1,s1,s0
    8000288a:	3582                	fld	fa1,32(sp)
    8000288c:	d03e                	sw	a5,32(sp)
    8000288e:	b03e                	fsd	fa5,32(sp)
    80002890:	029fd43b          	divuw	s0,t6,s1
    80002894:	c1b139af          	amominu.d	s3,s11,(sp)
    80002898:	b0a6                	fsd	fs1,96(sp)
    8000289a:	4aa9                	li	s5,10

000000008000289c <i0000000370>:
    8000289c:	34ea                	fld	fs1,184(sp)

000000008000289e <i0000000371>:
    8000289e:	59ad                	li	s3,-21
    800028a0:	000dd117          	auipc	sp,0xdd
    800028a4:	76010113          	add	sp,sp,1888 # 800e0000 <begin_signature>
    800028a8:	6325                	lui	t1,0x9
    800028aa:	5983031b          	addw	t1,t1,1432 # 9598 <_tbss_end+0x9598>
    800028ae:	911a                	add	sp,sp,t1

00000000800028b0 <i0000000372>:
    800028b0:	2a6e                	fld	fs4,216(sp)

00000000800028b2 <i0000000373>:
    800028b2:	a9ffd0ef          	jal	80000350 <func1>

00000000800028b6 <i0000000374>:
    800028b6:	74a6                	ld	s1,104(sp)

00000000800028b8 <i0000000375>:
    800028b8:	1b00                	add	s0,sp,432

00000000800028ba <i0000000376>:
    800028ba:	ac12                	fsd	ft4,24(sp)

00000000800028bc <i0000000377>:
    800028bc:	b5a6                	fsd	fs1,232(sp)

00000000800028be <i0000000378>:
    800028be:	312ffc93          	and	s9,t6,786

00000000800028c2 <i0000000379>:
    800028c2:	8e99                	sub	a3,a3,a4

00000000800028c4 <i000000037a>:
    800028c4:	35e2                	fld	fa1,56(sp)

00000000800028c6 <i000000037b>:
    800028c6:	c2217553          	fcvt.l.d	a0,ft2
    800028ca:	4da5                	li	s11,9
    800028cc:	000dd117          	auipc	sp,0xdd
    800028d0:	73410113          	add	sp,sp,1844 # 800e0000 <begin_signature>
    800028d4:	6325                	lui	t1,0x9
    800028d6:	2103031b          	addw	t1,t1,528 # 9210 <_tbss_end+0x9210>
    800028da:	911a                	add	sp,sp,t1
    800028dc:	1924                	add	s1,sp,184
    800028de:	cf815403          	lhu	s0,-776(sp)
    800028e2:	6766                	ld	a4,88(sp)
    800028e4:	024be3bb          	remw	t2,s7,tp
    800028e8:	c0280953          	fcvt.l.s	s2,fa6,rne
    800028ec:	0231c433          	div	s0,gp,gp
    800028f0:	d02e94d3          	fcvt.s.l	fs1,t4,rtz

00000000800028f4 <b000000037c>:
    800028f4:	00000033          	add	zero,zero,zero
    800028f8:	fdbac1e3          	blt	s5,s11,800028ba <i0000000376>
    800028fc:	00000033          	add	zero,zero,zero
    80002900:	c4310c23          	sb	gp,-936(sp)
    80002904:	0f012187          	flw	ft3,240(sp)
    80002908:	0000100f          	fence.i
    8000290c:	00075993          	srl	s3,a4,0x0
    80002910:	0000100f          	fence.i
    80002914:	0289bbb3          	mulhu	s7,s3,s0
    80002918:	19eba853          	fdiv.s	fa6,fs7,ft10,rdn
    8000291c:	4aa9                	li	s5,10

000000008000291e <i000000037c>:
    8000291e:	8011                	srl	s0,s0,0x4

0000000080002920 <i000000037d>:
    80002920:	c234ff53          	fcvt.lu.d	t5,fs1

0000000080002924 <i000000037e>:
    80002924:	6098ab13          	slti	s6,a7,1545

0000000080002928 <i000000037f>:
    80002928:	b03a                	fsd	fa4,32(sp)

000000008000292a <i0000000380>:
    8000292a:	5b257413          	and	s0,a0,1458

000000008000292e <i0000000381>:
    8000292e:	7b11b893          	sltiu	a7,gp,1969

0000000080002932 <i0000000382>:
    80002932:	1141                	add	sp,sp,-16

0000000080002934 <i0000000383>:
    80002934:	90720513          	add	a0,tp,-1785 # fffffffffffff907 <_end+0xffffffff7ff0d006>

0000000080002938 <i0000000384>:
    80002938:	1d08f993          	and	s3,a7,464

000000008000293c <i0000000385>:
    8000293c:	00a55533          	srl	a0,a0,a0

0000000080002940 <i0000000386>:
    80002940:	d239f853          	fcvt.d.lu	fa6,s3
    80002944:	4ca5                	li	s9,9
    80002946:	000dd117          	auipc	sp,0xdd
    8000294a:	6ba10113          	add	sp,sp,1722 # 800e0000 <begin_signature>
    8000294e:	6309                	lui	t1,0x2
    80002950:	9903031b          	addw	t1,t1,-1648 # 1990 <_tbss_end+0x1990>
    80002954:	911a                	add	sp,sp,t1
    80002956:	0287c733          	div	a4,a5,s0
    8000295a:	e81e                	sd	t2,16(sp)
    8000295c:	40f98d3b          	subw	s10,s3,a5
    80002960:	41e7d79b          	sraw	a5,a5,0x1e
    80002964:	caa2                	sw	s0,84(sp)
    80002966:	c03179d3          	fcvt.lu.s	s3,ft2
    8000296a:	9f19                	subw	a4,a4,a4

000000008000296c <b0000000387>:
    8000296c:	00000033          	add	zero,zero,zero
    80002970:	fb5cdfe3          	bge	s9,s5,8000292e <i0000000381>
    80002974:	00000033          	add	zero,zero,zero
    80002978:	80d1                	srl	s1,s1,0x14
    8000297a:	0287f9bb          	remuw	s3,a5,s0
    8000297e:	e4a2                	sd	s0,72(sp)
    80002980:	8111272f          	amomin.w	a4,a7,(sp)
    80002984:	afc12783          	lw	a5,-1284(sp)
    80002988:	c036b9d3          	fcvt.lu.s	s3,fa3,rup
    8000298c:	e1d134af          	amomaxu.d	s1,t4,(sp)
    80002990:	4aa9                	li	s5,10

0000000080002992 <i0000000387>:
    80002992:	cb447993          	and	s3,s0,-844

0000000080002996 <i0000000388>:
    80002996:	644a                	ld	s0,144(sp)

0000000080002998 <i0000000389>:
    80002998:	0ff0000f          	fence

000000008000299c <i000000038a>:
    8000299c:	7c214f03          	lbu	t5,1986(sp)

00000000800029a0 <i000000038b>:
    800029a0:	e181342f          	amomaxu.d	s0,s8,(sp)

00000000800029a4 <i000000038c>:
    800029a4:	79a2                	ld	s3,40(sp)

00000000800029a6 <i000000038d>:
    800029a6:	025ba433          	mulhsu	s0,s7,t0

00000000800029aa <i000000038e>:
    800029aa:	33e6                	fld	ft7,120(sp)

00000000800029ac <i000000038f>:
    800029ac:	86a2                	mv	a3,s0

00000000800029ae <i0000000390>:
    800029ae:	9bce                	add	s7,s7,s3

00000000800029b0 <i0000000391>:
    800029b0:	02b3403b          	divw	zero,t1,a1
    800029b4:	49b1                	li	s3,12
    800029b6:	0a85                	add	s5,s5,1
    800029b8:	000dd117          	auipc	sp,0xdd
    800029bc:	64810113          	add	sp,sp,1608 # 800e0000 <begin_signature>
    800029c0:	6329                	lui	t1,0xa
    800029c2:	8883031b          	addw	t1,t1,-1912 # 9888 <_tbss_end+0x9888>
    800029c6:	911a                	add	sp,sp,t1
    800029c8:	20e1272f          	amoxor.w	a4,a4,(sp)
    800029cc:	0000100f          	fence.i
    800029d0:	4b410fa3          	sb	s4,1215(sp)
    800029d4:	0000100f          	fence.i
    800029d8:	8f41                	or	a4,a4,s0
    800029da:	9af13c23          	sd	a5,-1608(sp)
    800029de:	038a47bb          	divw	a5,s4,s8

00000000800029e2 <b0000000392>:
    800029e2:	00000033          	add	zero,zero,zero
    800029e6:	fd59d0e3          	bge	s3,s5,800029a6 <i000000038d>
    800029ea:	00000033          	add	zero,zero,zero
    800029ee:	77a2                	ld	a5,40(sp)
    800029f0:	e0be                	sd	a5,64(sp)
    800029f2:	2b013907          	fld	fs2,688(sp)
    800029f6:	e1d13caf          	amomaxu.d	s9,t4,(sp)
    800029fa:	00e123af          	amoadd.w	t2,a4,(sp)
    800029fe:	74c2                	ld	s1,48(sp)
    80002a00:	9f05                	subw	a4,a4,s1
    80002a02:	4aa9                	li	s5,10

0000000080002a04 <i0000000392>:
    80002a04:	40a9d53b          	sraw	a0,s3,a0

0000000080002a08 <i0000000393>:
    80002a08:	6081352f          	amoand.d	a0,s0,(sp)

0000000080002a0c <i0000000394>:
    80002a0c:	0023d073          	fsrmi	zero,7

0000000080002a10 <i0000000395>:
    80002a10:	c02c19d3          	fcvt.l.s	s3,fs8,rtz

0000000080002a14 <i0000000396>:
    80002a14:	28748853          	fmin.s	fa6,fs1,ft7

0000000080002a18 <i0000000397>:
    80002a18:	0000100f          	fence.i

0000000080002a1c <i0000000398>:
    80002a1c:	d00423d3          	fcvt.s.w	ft7,s0,rdn

0000000080002a20 <i0000000399>:
    80002a20:	8f011383          	lh	t2,-1808(sp)

0000000080002a24 <i000000039a>:
    80002a24:	f43a                	sd	a4,40(sp)

0000000080002a26 <i000000039b>:
    80002a26:	ce26                	sw	s1,28(sp)

0000000080002a28 <i000000039c>:
    80002a28:	a0c12e2f          	amomax.w	t3,a2,(sp)
    80002a2c:	000dd117          	auipc	sp,0xdd
    80002a30:	5d410113          	add	sp,sp,1492 # 800e0000 <begin_signature>
    80002a34:	6329                	lui	t1,0xa
    80002a36:	6903031b          	addw	t1,t1,1680 # a690 <_tbss_end+0xa690>
    80002a3a:	911a                	add	sp,sp,t1

0000000080002a3c <i000000039d>:
    80002a3c:	7662                	ld	a2,56(sp)
    80002a3e:	0a84                	add	s1,sp,336
    80002a40:	e0018753          	fmv.x.w	a4,ft3
    80002a44:	59b2                	lw	s3,44(sp)
    80002a46:	c034b8d3          	fcvt.lu.s	a7,fs1,rup
    80002a4a:	c02d3cd3          	fcvt.l.s	s9,fs10,rup
    80002a4e:	19c4                	add	s1,sp,244
    80002a50:	648a                	ld	s1,128(sp)

0000000080002a52 <b000000039e>:
    80002a52:	00000f97          	auipc	t6,0x0
    80002a56:	034f8f93          	add	t6,t6,52 # 80002a86 <i00000003a3>
    80002a5a:	000f80e7          	jalr	t6
    80002a5e:	a1313eaf          	amomax.d	t4,s3,(sp)
    80002a62:	220c93d3          	fsgnjn.d	ft7,fs9,ft0
    80002a66:	e2081753          	fclass.d	a4,fa6
    80002a6a:	02bc                	add	a5,sp,328
    80002a6c:	6171242f          	amoand.w	s0,s7,(sp)
    80002a70:	bc1e                	fsd	ft7,56(sp)
    80002a72:	2081322f          	amoxor.d	tp,s0,(sp)

0000000080002a76 <i000000039e>:
    80002a76:	7155                	add	sp,sp,-208

0000000080002a78 <i000000039f>:
    80002a78:	6131352f          	amoand.d	a0,s3,(sp)

0000000080002a7c <i00000003a0>:
    80002a7c:	8c813c23          	sd	s0,-1832(sp)

0000000080002a80 <i00000003a1>:
    80002a80:	1a40                	add	s0,sp,308

0000000080002a82 <i00000003a2>:
    80002a82:	e00e1553          	fclass.s	a0,ft8

0000000080002a86 <i00000003a3>:
    80002a86:	03419513          	sll	a0,gp,0x34

0000000080002a8a <i00000003a4>:
    80002a8a:	02845933          	divu	s2,s0,s0

0000000080002a8e <i00000003a5>:
    80002a8e:	14514583          	lbu	a1,325(sp)

0000000080002a92 <i00000003a6>:
    80002a92:	c0281553          	fcvt.l.s	a0,fa6,rtz

0000000080002a96 <i00000003a7>:
    80002a96:	02a419b3          	mulh	s3,s0,a0

0000000080002a9a <i00000003a8>:
    80002a9a:	2a8c03d3          	fmin.d	ft7,fs8,fs0
    80002a9e:	49b1                	li	s3,12
    80002aa0:	0a85                	add	s5,s5,1
    80002aa2:	000dd117          	auipc	sp,0xdd
    80002aa6:	55e10113          	add	sp,sp,1374 # 800e0000 <begin_signature>
    80002aaa:	6321                	lui	t1,0x8
    80002aac:	aa83031b          	addw	t1,t1,-1368 # 7aa8 <_tbss_end+0x7aa8>
    80002ab0:	911a                	add	sp,sp,t1
    80002ab2:	aaf10123          	sb	a5,-1374(sp)
    80002ab6:	a11137af          	amomax.d	a5,a7,(sp)
    80002aba:	0274f8b3          	remu	a7,s1,t2
    80002abe:	6109                	add	sp,sp,128
    80002ac0:	08013faf          	amoswap.d	t6,zero,(sp)
    80002ac4:	d802                	sw	zero,48(sp)
    80002ac6:	0000100f          	fence.i

0000000080002aca <b00000003a9>:
    80002aca:	00000033          	add	zero,zero,zero
    80002ace:	fb59dce3          	bge	s3,s5,80002a86 <i00000003a3>
    80002ad2:	00000033          	add	zero,zero,zero
    80002ad6:	88810d23          	sb	s0,-1894(sp)
    80002ada:	0287543b          	divuw	s0,a4,s0
    80002ade:	a04127af          	amomax.w	a5,tp,(sp)
    80002ae2:	d2377353          	fcvt.d.lu	ft6,a4
    80002ae6:	deba                	sw	a4,124(sp)
    80002ae8:	a0e1242f          	amomax.w	s0,a4,(sp)
    80002aec:	0ff0000f          	fence
    80002af0:	4aa9                	li	s5,10
    80002af2:	000dd117          	auipc	sp,0xdd
    80002af6:	50e10113          	add	sp,sp,1294 # 800e0000 <begin_signature>
    80002afa:	6311                	lui	t1,0x4
    80002afc:	fd83031b          	addw	t1,t1,-40 # 3fd8 <_tbss_end+0x3fd8>
    80002b00:	911a                	add	sp,sp,t1

0000000080002b02 <i00000003a9>:
    80002b02:	4452                	lw	s0,20(sp)

0000000080002b04 <i00000003aa>:
    80002b04:	4061252f          	amoor.w	a0,t1,(sp)

0000000080002b08 <i00000003ab>:
    80002b08:	d2140953          	fcvt.d.wu	fs2,s0
    80002b0c:	4185                	li	gp,1
    80002b0e:	000eff17          	auipc	t5,0xef
    80002b12:	4e3f2923          	sw	gp,1266(t5) # 800f2000 <tohost>
    80002b16:	0000100f          	fence.i
    80002b1a:	00020fb7          	lui	t6,0x20
    80002b1e:	000ddf17          	auipc	t5,0xdd
    80002b22:	4e2f0f13          	add	t5,t5,1250 # 800e0000 <begin_signature>
    80002b26:	01efa023          	sw	t5,0(t6) # 20000 <_tbss_end+0x20000>
    80002b2a:	000edf17          	auipc	t5,0xed
    80002b2e:	4d6f0f13          	add	t5,t5,1238 # 800f0000 <end_signature>
    80002b32:	01efa423          	sw	t5,8(t6)
    80002b36:	01efa623          	sw	t5,12(t6)
    80002b3a:	0000                	unimp
    80002b3c:	0000                	unimp
	...

Disassembly of section .tohost:

00000000800f2000 <tohost>:
	...

00000000800f2040 <fromhost>:
	...

00000000800f2050 <ecause_num>:
	...
