
work/bin/out_pg_excep9_00000.riscv:     file format elf64-littleriscv


Disassembly of section .text.init:

0000000080000000 <_start>:
    80000000:	000e0117          	auipc	sp,0xe0
    80000004:	00010113          	mv	sp,sp
    80000008:	6082                	ld	ra,0(sp)
    8000000a:	61a2                	ld	gp,8(sp)
    8000000c:	6242                	ld	tp,16(sp)
    8000000e:	62e2                	ld	t0,24(sp)
    80000010:	7302                	ld	t1,32(sp)
    80000012:	73a2                	ld	t2,40(sp)
    80000014:	7442                	ld	s0,48(sp)
    80000016:	74e2                	ld	s1,56(sp)
    80000018:	6506                	ld	a0,64(sp)
    8000001a:	65a6                	ld	a1,72(sp)
    8000001c:	6646                	ld	a2,80(sp)
    8000001e:	66e6                	ld	a3,88(sp)
    80000020:	7706                	ld	a4,96(sp)
    80000022:	77a6                	ld	a5,104(sp)
    80000024:	7846                	ld	a6,112(sp)
    80000026:	78e6                	ld	a7,120(sp)
    80000028:	690a                	ld	s2,128(sp)
    8000002a:	69aa                	ld	s3,136(sp)
    8000002c:	6a4a                	ld	s4,144(sp)
    8000002e:	6aea                	ld	s5,152(sp)
    80000030:	7b0a                	ld	s6,160(sp)
    80000032:	7baa                	ld	s7,168(sp)
    80000034:	7c4a                	ld	s8,176(sp)
    80000036:	7cea                	ld	s9,184(sp)
    80000038:	6d0e                	ld	s10,192(sp)
    8000003a:	6dae                	ld	s11,200(sp)
    8000003c:	6e4e                	ld	t3,208(sp)
    8000003e:	6eee                	ld	t4,216(sp)
    80000040:	7f0e                	ld	t5,224(sp)
    80000042:	7fae                	ld	t6,232(sp)
    80000044:	62f9                	lui	t0,0x1e
    80000046:	3002a073          	csrs	mstatus,t0
    8000004a:	4285                	li	t0,1
    8000004c:	02fe                	sll	t0,t0,0x1f
    8000004e:	0002d863          	bgez	t0,8000005e <_start+0x5e>
    80000052:	4505                	li	a0,1
    80000054:	000f2297          	auipc	t0,0xf2
    80000058:	faa2a623          	sw	a0,-84(t0) # 800f2000 <tohost>
    8000005c:	bfdd                	j	80000052 <_start+0x52>
    8000005e:	00000297          	auipc	t0,0x0
    80000062:	09228293          	add	t0,t0,146 # 800000f0 <_start+0xf0>
    80000066:	30529073          	csrw	mtvec,t0
    8000006a:	00301073          	fscsr	zero
    8000006e:	f2008053          	fmv.d.x	ft0,ra
    80000072:	f20080d3          	fmv.d.x	ft1,ra
    80000076:	f2010153          	fmv.d.x	ft2,sp
    8000007a:	f20181d3          	fmv.d.x	ft3,gp
    8000007e:	f2020253          	fmv.d.x	ft4,tp
    80000082:	f20282d3          	fmv.d.x	ft5,t0
    80000086:	f2030353          	fmv.d.x	ft6,t1
    8000008a:	f20383d3          	fmv.d.x	ft7,t2
    8000008e:	f2040453          	fmv.d.x	fs0,s0
    80000092:	f20484d3          	fmv.d.x	fs1,s1
    80000096:	f2050553          	fmv.d.x	fa0,a0
    8000009a:	f20585d3          	fmv.d.x	fa1,a1
    8000009e:	f2060653          	fmv.d.x	fa2,a2
    800000a2:	f20686d3          	fmv.d.x	fa3,a3
    800000a6:	f2070753          	fmv.d.x	fa4,a4
    800000aa:	f20787d3          	fmv.d.x	fa5,a5
    800000ae:	f2080853          	fmv.d.x	fa6,a6
    800000b2:	f20888d3          	fmv.d.x	fa7,a7
    800000b6:	f2090953          	fmv.d.x	fs2,s2
    800000ba:	f20989d3          	fmv.d.x	fs3,s3
    800000be:	f20a0a53          	fmv.d.x	fs4,s4
    800000c2:	f20a8ad3          	fmv.d.x	fs5,s5
    800000c6:	f20b0b53          	fmv.d.x	fs6,s6
    800000ca:	f20b8bd3          	fmv.d.x	fs7,s7
    800000ce:	f20c0c53          	fmv.d.x	fs8,s8
    800000d2:	f20c8cd3          	fmv.d.x	fs9,s9
    800000d6:	f20d0d53          	fmv.d.x	fs10,s10
    800000da:	f20d8dd3          	fmv.d.x	fs11,s11
    800000de:	f20e0e53          	fmv.d.x	ft8,t3
    800000e2:	f20e8ed3          	fmv.d.x	ft9,t4
    800000e6:	f20f0f53          	fmv.d.x	ft10,t5
    800000ea:	f20f8fd3          	fmv.d.x	ft11,t6
    800000ee:	0001                	nop
    800000f0:	00000297          	auipc	t0,0x0
    800000f4:	03428293          	add	t0,t0,52 # 80000124 <trap_entry>
    800000f8:	30529073          	csrw	mtvec,t0
    800000fc:	000f3217          	auipc	tp,0xf3
    80000100:	84420213          	add	tp,tp,-1980 # 800f2940 <_end+0x3f>
    80000104:	fc027213          	and	tp,tp,-64
    80000108:	f1402573          	csrr	a0,mhartid
    8000010c:	4585                	li	a1,1
    8000010e:	00b57063          	bgeu	a0,a1,8000010e <_start+0x10e>
    80000112:	01151613          	sll	a2,a0,0x11
    80000116:	9232                	add	tp,tp,a2
    80000118:	00150113          	add	sp,a0,1
    8000011c:	0146                	sll	sp,sp,0x11
    8000011e:	9112                	add	sp,sp,tp
    80000120:	2400006f          	j	80000360 <main>

0000000080000124 <trap_entry>:
    80000124:	716d                	add	sp,sp,-272
    80000126:	e406                	sd	ra,8(sp)
    80000128:	e80a                	sd	sp,16(sp)
    8000012a:	ec0e                	sd	gp,24(sp)
    8000012c:	f012                	sd	tp,32(sp)
    8000012e:	f416                	sd	t0,40(sp)
    80000130:	f81a                	sd	t1,48(sp)
    80000132:	fc1e                	sd	t2,56(sp)
    80000134:	e0a2                	sd	s0,64(sp)
    80000136:	e4a6                	sd	s1,72(sp)
    80000138:	e8aa                	sd	a0,80(sp)
    8000013a:	ecae                	sd	a1,88(sp)
    8000013c:	f0b2                	sd	a2,96(sp)
    8000013e:	f4b6                	sd	a3,104(sp)
    80000140:	f8ba                	sd	a4,112(sp)
    80000142:	fcbe                	sd	a5,120(sp)
    80000144:	e142                	sd	a6,128(sp)
    80000146:	e546                	sd	a7,136(sp)
    80000148:	e94a                	sd	s2,144(sp)
    8000014a:	ed4e                	sd	s3,152(sp)
    8000014c:	f152                	sd	s4,160(sp)
    8000014e:	f556                	sd	s5,168(sp)
    80000150:	f95a                	sd	s6,176(sp)
    80000152:	fd5e                	sd	s7,184(sp)
    80000154:	e1e2                	sd	s8,192(sp)
    80000156:	e5e6                	sd	s9,200(sp)
    80000158:	e9ea                	sd	s10,208(sp)
    8000015a:	edee                	sd	s11,216(sp)
    8000015c:	f1f2                	sd	t3,224(sp)
    8000015e:	f5f6                	sd	t4,232(sp)
    80000160:	f9fa                	sd	t5,240(sp)
    80000162:	fdfe                	sd	t6,248(sp)
    80000164:	34202573          	csrr	a0,mcause
    80000168:	341025f3          	csrr	a1,mepc
    8000016c:	0005d603          	lhu	a2,0(a1)
    80000170:	8a0d                	and	a2,a2,3
    80000172:	428d                	li	t0,3
    80000174:	00561563          	bne	a2,t0,8000017e <inst16>

0000000080000178 <inst32>:
    80000178:	0591                	add	a1,a1,4
    8000017a:	00000363          	beqz	zero,80000180 <inst16+0x2>

000000008000017e <inst16>:
    8000017e:	0589                	add	a1,a1,2
    80000180:	34159073          	csrw	mepc,a1
    80000184:	6289                	lui	t0,0x2
    80000186:	8002829b          	addw	t0,t0,-2048 # 1800 <_tbss_end+0x1800>
    8000018a:	3002a073          	csrs	mstatus,t0
    8000018e:	60a2                	ld	ra,8(sp)
    80000190:	6142                	ld	sp,16(sp)
    80000192:	61e2                	ld	gp,24(sp)
    80000194:	7202                	ld	tp,32(sp)
    80000196:	72a2                	ld	t0,40(sp)
    80000198:	7342                	ld	t1,48(sp)
    8000019a:	73e2                	ld	t2,56(sp)
    8000019c:	6406                	ld	s0,64(sp)
    8000019e:	64a6                	ld	s1,72(sp)
    800001a0:	6546                	ld	a0,80(sp)
    800001a2:	65e6                	ld	a1,88(sp)
    800001a4:	7606                	ld	a2,96(sp)
    800001a6:	76a6                	ld	a3,104(sp)
    800001a8:	7746                	ld	a4,112(sp)
    800001aa:	77e6                	ld	a5,120(sp)
    800001ac:	680a                	ld	a6,128(sp)
    800001ae:	68aa                	ld	a7,136(sp)
    800001b0:	694a                	ld	s2,144(sp)
    800001b2:	69ea                	ld	s3,152(sp)
    800001b4:	7a0a                	ld	s4,160(sp)
    800001b6:	7aaa                	ld	s5,168(sp)
    800001b8:	7b4a                	ld	s6,176(sp)
    800001ba:	7bea                	ld	s7,184(sp)
    800001bc:	6c0e                	ld	s8,192(sp)
    800001be:	6cae                	ld	s9,200(sp)
    800001c0:	6d4e                	ld	s10,208(sp)
    800001c2:	6dee                	ld	s11,216(sp)
    800001c4:	7e0e                	ld	t3,224(sp)
    800001c6:	7eae                	ld	t4,232(sp)
    800001c8:	7f4e                	ld	t5,240(sp)
    800001ca:	7fee                	ld	t6,248(sp)
    800001cc:	6151                	add	sp,sp,272
    800001ce:	30200073          	mret

Disassembly of section .text:

00000000800001e0 <custom_trap_handler_s>:
    800001e0:	7129                	add	sp,sp,-320
    800001e2:	e406                	sd	ra,8(sp)
    800001e4:	ec0e                	sd	gp,24(sp)
    800001e6:	f012                	sd	tp,32(sp)
    800001e8:	f416                	sd	t0,40(sp)
    800001ea:	f81a                	sd	t1,48(sp)
    800001ec:	fc1e                	sd	t2,56(sp)
    800001ee:	e0a2                	sd	s0,64(sp)
    800001f0:	e4a6                	sd	s1,72(sp)
    800001f2:	e8aa                	sd	a0,80(sp)
    800001f4:	ecae                	sd	a1,88(sp)
    800001f6:	f0b2                	sd	a2,96(sp)
    800001f8:	f4b6                	sd	a3,104(sp)
    800001fa:	f8ba                	sd	a4,112(sp)
    800001fc:	fcbe                	sd	a5,120(sp)
    800001fe:	e142                	sd	a6,128(sp)
    80000200:	e546                	sd	a7,136(sp)
    80000202:	e94a                	sd	s2,144(sp)
    80000204:	ed4e                	sd	s3,152(sp)
    80000206:	f152                	sd	s4,160(sp)
    80000208:	f556                	sd	s5,168(sp)
    8000020a:	f95a                	sd	s6,176(sp)
    8000020c:	fd5e                	sd	s7,184(sp)
    8000020e:	e1e2                	sd	s8,192(sp)
    80000210:	e5e6                	sd	s9,200(sp)
    80000212:	e9ea                	sd	s10,208(sp)
    80000214:	edee                	sd	s11,216(sp)
    80000216:	f1f2                	sd	t3,224(sp)
    80000218:	f5f6                	sd	t4,232(sp)
    8000021a:	f9fa                	sd	t5,240(sp)
    8000021c:	fdfe                	sd	t6,248(sp)
    8000021e:	10002573          	csrr	a0,sstatus
    80000222:	14102573          	csrr	a0,sepc
    80000226:	10502573          	csrr	a0,stvec
    8000022a:	14202573          	csrr	a0,scause
    8000022e:	4601                	li	a2,0
    80000230:	00c50763          	beq	a0,a2,8000023e <custom_trap_handler_s+0x5e>
    80000234:	4605                	li	a2,1
    80000236:	00c50463          	beq	a0,a2,8000023e <custom_trap_handler_s+0x5e>
    8000023a:	141025f3          	csrr	a1,sepc
    8000023e:	00059603          	lh	a2,0(a1)
    80000242:	8a0d                	and	a2,a2,3
    80000244:	428d                	li	t0,3
    80000246:	00561563          	bne	a2,t0,80000250 <inst16_s>

000000008000024a <inst32_s>:
    8000024a:	0591                	add	a1,a1,4
    8000024c:	00000363          	beqz	zero,80000252 <inst16_s+0x2>

0000000080000250 <inst16_s>:
    80000250:	0589                	add	a1,a1,2
    80000252:	14159073          	csrw	sepc,a1
    80000256:	60a2                	ld	ra,8(sp)
    80000258:	61e2                	ld	gp,24(sp)
    8000025a:	7202                	ld	tp,32(sp)
    8000025c:	72a2                	ld	t0,40(sp)
    8000025e:	7342                	ld	t1,48(sp)
    80000260:	73e2                	ld	t2,56(sp)
    80000262:	6406                	ld	s0,64(sp)
    80000264:	64a6                	ld	s1,72(sp)
    80000266:	6546                	ld	a0,80(sp)
    80000268:	65e6                	ld	a1,88(sp)
    8000026a:	7606                	ld	a2,96(sp)
    8000026c:	76a6                	ld	a3,104(sp)
    8000026e:	7746                	ld	a4,112(sp)
    80000270:	77e6                	ld	a5,120(sp)
    80000272:	680a                	ld	a6,128(sp)
    80000274:	68aa                	ld	a7,136(sp)
    80000276:	694a                	ld	s2,144(sp)
    80000278:	69ea                	ld	s3,152(sp)
    8000027a:	7a0a                	ld	s4,160(sp)
    8000027c:	7aaa                	ld	s5,168(sp)
    8000027e:	7b4a                	ld	s6,176(sp)
    80000280:	7bea                	ld	s7,184(sp)
    80000282:	6c0e                	ld	s8,192(sp)
    80000284:	6cae                	ld	s9,200(sp)
    80000286:	6d4e                	ld	s10,208(sp)
    80000288:	6dee                	ld	s11,216(sp)
    8000028a:	7e0e                	ld	t3,224(sp)
    8000028c:	7eae                	ld	t4,232(sp)
    8000028e:	7f4e                	ld	t5,240(sp)
    80000290:	7fee                	ld	t6,248(sp)
    80000292:	6131                	add	sp,sp,320
    80000294:	10200073          	sret

0000000080000298 <custom_trap_handler>:
    80000298:	7129                	add	sp,sp,-320
    8000029a:	e406                	sd	ra,8(sp)
    8000029c:	ec0e                	sd	gp,24(sp)
    8000029e:	f012                	sd	tp,32(sp)
    800002a0:	f416                	sd	t0,40(sp)
    800002a2:	f81a                	sd	t1,48(sp)
    800002a4:	fc1e                	sd	t2,56(sp)
    800002a6:	e0a2                	sd	s0,64(sp)
    800002a8:	e4a6                	sd	s1,72(sp)
    800002aa:	e8aa                	sd	a0,80(sp)
    800002ac:	ecae                	sd	a1,88(sp)
    800002ae:	f0b2                	sd	a2,96(sp)
    800002b0:	f4b6                	sd	a3,104(sp)
    800002b2:	f8ba                	sd	a4,112(sp)
    800002b4:	fcbe                	sd	a5,120(sp)
    800002b6:	e142                	sd	a6,128(sp)
    800002b8:	e546                	sd	a7,136(sp)
    800002ba:	e94a                	sd	s2,144(sp)
    800002bc:	ed4e                	sd	s3,152(sp)
    800002be:	f152                	sd	s4,160(sp)
    800002c0:	f556                	sd	s5,168(sp)
    800002c2:	f95a                	sd	s6,176(sp)
    800002c4:	fd5e                	sd	s7,184(sp)
    800002c6:	e1e2                	sd	s8,192(sp)
    800002c8:	e5e6                	sd	s9,200(sp)
    800002ca:	e9ea                	sd	s10,208(sp)
    800002cc:	edee                	sd	s11,216(sp)
    800002ce:	f1f2                	sd	t3,224(sp)
    800002d0:	f5f6                	sd	t4,232(sp)
    800002d2:	f9fa                	sd	t5,240(sp)
    800002d4:	fdfe                	sd	t6,248(sp)
    800002d6:	30002573          	csrr	a0,mstatus
    800002da:	34102573          	csrr	a0,mepc
    800002de:	30502573          	csrr	a0,mtvec
    800002e2:	34202573          	csrr	a0,mcause
    800002e6:	4601                	li	a2,0
    800002e8:	00c50763          	beq	a0,a2,800002f6 <custom_trap_handler+0x5e>
    800002ec:	4605                	li	a2,1
    800002ee:	00c50463          	beq	a0,a2,800002f6 <custom_trap_handler+0x5e>
    800002f2:	341025f3          	csrr	a1,mepc
    800002f6:	00059603          	lh	a2,0(a1)
    800002fa:	8a0d                	and	a2,a2,3
    800002fc:	428d                	li	t0,3
    800002fe:	00561563          	bne	a2,t0,80000308 <inst16>

0000000080000302 <inst32>:
    80000302:	0591                	add	a1,a1,4
    80000304:	00000363          	beqz	zero,8000030a <inst16+0x2>

0000000080000308 <inst16>:
    80000308:	0589                	add	a1,a1,2
    8000030a:	34159073          	csrw	mepc,a1
    8000030e:	60a2                	ld	ra,8(sp)
    80000310:	61e2                	ld	gp,24(sp)
    80000312:	7202                	ld	tp,32(sp)
    80000314:	72a2                	ld	t0,40(sp)
    80000316:	7342                	ld	t1,48(sp)
    80000318:	73e2                	ld	t2,56(sp)
    8000031a:	6406                	ld	s0,64(sp)
    8000031c:	64a6                	ld	s1,72(sp)
    8000031e:	6546                	ld	a0,80(sp)
    80000320:	65e6                	ld	a1,88(sp)
    80000322:	7606                	ld	a2,96(sp)
    80000324:	76a6                	ld	a3,104(sp)
    80000326:	7746                	ld	a4,112(sp)
    80000328:	77e6                	ld	a5,120(sp)
    8000032a:	680a                	ld	a6,128(sp)
    8000032c:	68aa                	ld	a7,136(sp)
    8000032e:	694a                	ld	s2,144(sp)
    80000330:	69ea                	ld	s3,152(sp)
    80000332:	7a0a                	ld	s4,160(sp)
    80000334:	7aaa                	ld	s5,168(sp)
    80000336:	7b4a                	ld	s6,176(sp)
    80000338:	7bea                	ld	s7,184(sp)
    8000033a:	6c0e                	ld	s8,192(sp)
    8000033c:	6cae                	ld	s9,200(sp)
    8000033e:	6d4e                	ld	s10,208(sp)
    80000340:	6dee                	ld	s11,216(sp)
    80000342:	7e0e                	ld	t3,224(sp)
    80000344:	7eae                	ld	t4,232(sp)
    80000346:	7f4e                	ld	t5,240(sp)
    80000348:	7fee                	ld	t6,248(sp)
    8000034a:	6131                	add	sp,sp,320
    8000034c:	30200073          	mret

0000000080000350 <func1>:
    80000350:	00000033          	add	zero,zero,zero
    80000354:	8082                	ret
    80000356:	00000013          	nop
    8000035a:	00000013          	nop
    8000035e:	0001                	nop

0000000080000360 <main>:
    80000360:	00000033          	add	zero,zero,zero
    80000364:	00000297          	auipc	t0,0x0
    80000368:	f3428293          	add	t0,t0,-204 # 80000298 <custom_trap_handler>
    8000036c:	30529073          	csrw	mtvec,t0
    80000370:	000e0117          	auipc	sp,0xe0
    80000374:	c9010113          	add	sp,sp,-880 # 800e0000 <begin_signature>
    80000378:	6329                	lui	t1,0xa
    8000037a:	fd83031b          	addw	t1,t1,-40 # 9fd8 <_tbss_end+0x9fd8>
    8000037e:	911a                	add	sp,sp,t1

0000000080000380 <i0000000000>:
    80000380:	4c29                	li	s8,10

0000000080000382 <i0000000001>:
    80000382:	716d                	add	sp,sp,-272

0000000080000384 <i0000000002>:
    80000384:	0ff0000f          	fence

0000000080000388 <i0000000003>:
    80000388:	020f9413          	sll	s0,t6,0x20

000000008000038c <i0000000004>:
    8000038c:	0ff0000f          	fence

0000000080000390 <i0000000005>:
    80000390:	0ff0000f          	fence

0000000080000394 <i0000000006>:
    80000394:	da32                	sw	a2,52(sp)

0000000080000396 <i0000000007>:
    80000396:	a1313faf          	amomax.d	t6,s3,(sp)

000000008000039a <i0000000008>:
    8000039a:	5a097ed3          	fsqrt.d	ft9,fs2

000000008000039e <i0000000009>:
    8000039e:	c061202f          	amominu.w	zero,t1,(sp)

00000000800003a2 <i000000000a>:
    800003a2:	a242                	fsd	fa6,256(sp)
    800003a4:	4931                	li	s2,12
    800003a6:	0c05                	add	s8,s8,1
    800003a8:	d6813c23          	sd	s0,-648(sp)
    800003ac:	1878                	add	a4,sp,60
    800003ae:	3d215f83          	lhu	t6,978(sp)
    800003b2:	b5714403          	lbu	s0,-1193(sp)
    800003b6:	9a415f83          	lhu	t6,-1628(sp)
    800003ba:	96510983          	lb	s3,-1691(sp)
    800003be:	020fddbb          	divuw	s11,t6,zero

00000000800003c2 <b000000000b>:
    800003c2:	00000033          	add	zero,zero,zero
    800003c6:	fd2c47e3          	blt	s8,s2,80000394 <i0000000006>
    800003ca:	00000033          	add	zero,zero,zero
    800003ce:	d3813d83          	ld	s11,-712(sp)
    800003d2:	c03d2e53          	fcvt.lu.s	t3,fs10,rdn
    800003d6:	e1b134af          	amomaxu.d	s1,s11,(sp)
    800003da:	f0ba                	sd	a4,96(sp)
    800003dc:	0ff0000f          	fence
    800003e0:	8f110623          	sb	a7,-1812(sp)
    800003e4:	01bd979b          	sllw	a5,s11,0x1b
    800003e8:	4c29                	li	s8,10

00000000800003ea <i000000000b>:
    800003ea:	d02fa453          	fcvt.s.l	fs0,t6,rdn

00000000800003ee <i000000000c>:
    800003ee:	e86d9cc3          	fmadd.s	fs9,fs11,ft6,ft9,rtz
    800003f2:	000e0117          	auipc	sp,0xe0
    800003f6:	c0e10113          	add	sp,sp,-1010 # 800e0000 <begin_signature>
    800003fa:	6315                	lui	t1,0x5
    800003fc:	0703031b          	addw	t1,t1,112 # 5070 <_tbss_end+0x5070>
    80000400:	911a                	add	sp,sp,t1

0000000080000402 <i000000000d>:
    80000402:	0a813003          	ld	zero,168(sp)

0000000080000406 <i000000000e>:
    80000406:	d22577d3          	fcvt.d.l	fa5,a0

000000008000040a <i000000000f>:
    8000040a:	f2030dd3          	fmv.d.x	fs11,t1

000000008000040e <i0000000010>:
    8000040e:	200f0d53          	fsgnj.s	fs10,ft10,ft0

0000000080000412 <i0000000011>:
    80000412:	e20b8653          	fmv.x.d	a2,fs7

0000000080000416 <i0000000012>:
    80000416:	3c013583          	ld	a1,960(sp)
    8000041a:	000e0117          	auipc	sp,0xe0
    8000041e:	be610113          	add	sp,sp,-1050 # 800e0000 <begin_signature>
    80000422:	6325                	lui	t1,0x9
    80000424:	7003031b          	addw	t1,t1,1792 # 9700 <_tbss_end+0x9700>
    80000428:	911a                	add	sp,sp,t1

000000008000042a <i0000000013>:
    8000042a:	8e014503          	lbu	a0,-1824(sp)

000000008000042e <i0000000014>:
    8000042e:	00a13daf          	amoadd.d	s11,a0,(sp)
    80000432:	4cb1                	li	s9,12
    80000434:	0c05                	add	s8,s8,1
    80000436:	c02d81d3          	fcvt.l.s	gp,fs11,rne
    8000043a:	c111302f          	amominu.d	zero,a7,(sp)
    8000043e:	0ff0000f          	fence
    80000442:	c13139af          	amominu.d	s3,s3,(sp)
    80000446:	0ff0000f          	fence
    8000044a:	41c12eaf          	amoor.w	t4,t3,(sp)
    8000044e:	01c139af          	amoadd.d	s3,t3,(sp)

0000000080000452 <b0000000015>:
    80000452:	00000033          	add	zero,zero,zero
    80000456:	fb9c4ce3          	blt	s8,s9,8000040e <i0000000010>
    8000045a:	00000033          	add	zero,zero,zero
    8000045e:	030ae73b          	remw	a4,s5,a6
    80000462:	29bc8853          	fmin.s	fa6,fs9,fs11
    80000466:	c03d0953          	fcvt.lu.s	s2,fs10,rne
    8000046a:	013129af          	amoadd.w	s3,s3,(sp)
    8000046e:	d2140f53          	fcvt.d.wu	ft10,s0
    80000472:	00779e3b          	sllw	t3,a5,t2
    80000476:	010134af          	amoadd.d	s1,a6,(sp)
    8000047a:	4c29                	li	s8,10

000000008000047c <i0000000015>:
    8000047c:	5536                	lw	a0,108(sp)

000000008000047e <i0000000016>:
    8000047e:	c02ea7d3          	fcvt.l.s	a5,ft9,rdn

0000000080000482 <i0000000017>:
    80000482:	b0da                	fsd	fs6,96(sp)
    80000484:	000e0117          	auipc	sp,0xe0
    80000488:	b7c10113          	add	sp,sp,-1156 # 800e0000 <begin_signature>
    8000048c:	631d                	lui	t1,0x7
    8000048e:	2603031b          	addw	t1,t1,608 # 7260 <_tbss_end+0x7260>
    80000492:	911a                	add	sp,sp,t1

0000000080000494 <i0000000018>:
    80000494:	6322                	ld	t1,8(sp)

0000000080000496 <i0000000019>:
    80000496:	20013f2f          	amoxor.d	t5,zero,(sp)

000000008000049a <i000000001a>:
    8000049a:	efc11683          	lh	a3,-260(sp)

000000008000049e <i000000001b>:
    8000049e:	9d2d                	addw	a0,a0,a1

00000000800004a0 <i000000001c>:
    800004a0:	8cc5                	or	s1,s1,s1

00000000800004a2 <i000000001d>:
    800004a2:	09e13faf          	amoswap.d	t6,t5,(sp)

00000000800004a6 <i000000001e>:
    800004a6:	153d                	add	a0,a0,-17
    800004a8:	4ab1                	li	s5,12
    800004aa:	0c05                	add	s8,s8,1
    800004ac:	d023f2d3          	fcvt.s.l	ft5,t2
    800004b0:	06c12003          	lw	zero,108(sp)
    800004b4:	2ac12f83          	lw	t6,684(sp)
    800004b8:	1495                	add	s1,s1,-27
    800004ba:	73b14f83          	lbu	t6,1851(sp)
    800004be:	0000100f          	fence.i
    800004c2:	c2910c23          	sb	s1,-968(sp)

00000000800004c6 <b000000001f>:
    800004c6:	00000033          	add	zero,zero,zero
    800004ca:	fd8ad8e3          	bge	s5,s8,8000049a <i000000001a>
    800004ce:	00000033          	add	zero,zero,zero
    800004d2:	6c813a03          	ld	s4,1736(sp)
    800004d6:	412139af          	amoor.d	s3,s2,(sp)
    800004da:	0294c933          	div	s2,s1,s1
    800004de:	4732                	lw	a4,12(sp)
    800004e0:	6169                	add	sp,sp,208
    800004e2:	49813483          	ld	s1,1176(sp)
    800004e6:	44d2                	lw	s1,20(sp)
    800004e8:	4c29                	li	s8,10

00000000800004ea <i000000001f>:
    800004ea:	0489                	add	s1,s1,2

00000000800004ec <i0000000020>:
    800004ec:	f2912a23          	sw	s1,-204(sp)

00000000800004f0 <i0000000021>:
    800004f0:	03f56f3b          	remw	t5,a0,t6

00000000800004f4 <i0000000022>:
    800004f4:	1101                	add	sp,sp,-32

00000000800004f6 <i0000000023>:
    800004f6:	a0c134af          	amomax.d	s1,a2,(sp)

00000000800004fa <i0000000024>:
    800004fa:	7115                	add	sp,sp,-224

00000000800004fc <i0000000025>:
    800004fc:	84a5                	sra	s1,s1,0x9

00000000800004fe <i0000000026>:
    800004fe:	1af7f353          	fdiv.d	ft6,fa5,fa5

0000000080000502 <i0000000027>:
    80000502:	c9ddcc4b          	fnmsub.s	fs8,fs11,ft9,fs9,rmm

0000000080000506 <i0000000028>:
    80000506:	33184337          	lui	t1,0x33184
    8000050a:	000e0117          	auipc	sp,0xe0
    8000050e:	af610113          	add	sp,sp,-1290 # 800e0000 <begin_signature>
    80000512:	633d                	lui	t1,0xf
    80000514:	a403031b          	addw	t1,t1,-1472 # ea40 <_tbss_end+0xea40>
    80000518:	911a                	add	sp,sp,t1
    8000051a:	03ffe9bb          	remw	s3,t6,t6
    8000051e:	03dbc4b3          	div	s1,s7,t4
    80000522:	c23bfed3          	fcvt.lu.d	t4,fs7
    80000526:	3499                	addw	s1,s1,-26
    80000528:	d1813483          	ld	s1,-744(sp)
    8000052c:	029074b3          	remu	s1,zero,s1
    80000530:	0000100f          	fence.i

0000000080000534 <b0000000029>:
    80000534:	00000897          	auipc	a7,0x0
    80000538:	03488893          	add	a7,a7,52 # 80000568 <i000000002e>
    8000053c:	000880e7          	jalr	a7
    80000540:	52712e23          	sw	t2,1340(sp)
    80000544:	6c314483          	lbu	s1,1731(sp)
    80000548:	228ca7d3          	fsgnjx.d	fa5,fs9,fs0
    8000054c:	02846033          	rem	zero,s0,s0
    80000550:	b9d2                	fsd	fs4,240(sp)
    80000552:	84ed                	sra	s1,s1,0x1b
    80000554:	71013403          	ld	s0,1808(sp)

0000000080000558 <i0000000029>:
    80000558:	1491                	add	s1,s1,-28

000000008000055a <i000000002a>:
    8000055a:	40644dcf          	fnmadd.s	fs11,fs0,ft6,fs0,rmm

000000008000055e <i000000002b>:
    8000055e:	0329fdbb          	remuw	s11,s3,s2

0000000080000562 <i000000002c>:
    80000562:	a822                	fsd	fs0,16(sp)

0000000080000564 <i000000002d>:
    80000564:	019204b3          	add	s1,tp,s9

0000000080000568 <i000000002e>:
    80000568:	40147353          	fcvt.s.d	ft6,fs0

000000008000056c <i000000002f>:
    8000056c:	a0fc0a53          	fle.s	s4,fs8,fa5

0000000080000570 <i0000000030>:
    80000570:	9c9d                	subw	s1,s1,a5

0000000080000572 <i0000000031>:
    80000572:	5d91cfb7          	lui	t6,0x5d91c

0000000080000576 <i0000000032>:
    80000576:	01c4951b          	sllw	a0,s1,0x1c
    8000057a:	000e0117          	auipc	sp,0xe0
    8000057e:	a8610113          	add	sp,sp,-1402 # 800e0000 <begin_signature>
    80000582:	631d                	lui	t1,0x7
    80000584:	2403031b          	addw	t1,t1,576 # 7240 <_tbss_end+0x7240>
    80000588:	911a                	add	sp,sp,t1
    8000058a:	029ff43b          	remuw	s0,t6,s1
    8000058e:	03395193          	srl	gp,s2,0x33
    80000592:	c1913faf          	amominu.d	t6,s9,(sp)
    80000596:	7442                	ld	s0,48(sp)
    80000598:	c23f7fd3          	fcvt.lu.d	t6,ft10
    8000059c:	e08124af          	amomaxu.w	s1,s0,(sp)
    800005a0:	5892                	lw	a7,36(sp)

00000000800005a2 <b0000000033>:
    800005a2:	00000b97          	auipc	s7,0x0
    800005a6:	034b8b93          	add	s7,s7,52 # 800005d6 <i0000000038>
    800005aa:	000b8567          	jalr	a0,s7
    800005ae:	d22a7ed3          	fcvt.d.l	ft9,s4
    800005b2:	01cdc9b3          	xor	s3,s11,t3
    800005b6:	41f137af          	amoor.d	a5,t6,(sp)
    800005ba:	07416a03          	lwu	s4,116(sp)
    800005be:	4d3d089b          	addw	a7,s10,1235
    800005c2:	ec3a                	sd	a4,24(sp)
    800005c4:	9dfe                	add	s11,s11,t6

00000000800005c6 <i0000000033>:
    800005c6:	c03d1f53          	fcvt.lu.s	t5,fs10,rtz

00000000800005ca <i0000000034>:
    800005ca:	12e8                	add	a0,sp,364

00000000800005cc <i0000000035>:
    800005cc:	6706                	ld	a4,64(sp)

00000000800005ce <i0000000036>:
    800005ce:	299c8b53          	fmin.s	fs6,fs9,fs9

00000000800005d2 <i0000000037>:
    800005d2:	03ef3eb3          	mulhu	t4,t5,t5

00000000800005d6 <i0000000038>:
    800005d6:	74d2                	ld	s1,304(sp)

00000000800005d8 <i0000000039>:
    800005d8:	70c2c44f          	fnmadd.s	fs0,ft5,fa2,fa4,rmm

00000000800005dc <i000000003a>:
    800005dc:	139bfcd3          	fmul.d	fs9,fs7,fs9

00000000800005e0 <i000000003b>:
    800005e0:	9d05                	subw	a0,a0,s1

00000000800005e2 <i000000003c>:
    800005e2:	01f1252f          	amoadd.w	a0,t6,(sp)
    800005e6:	4a25                	li	s4,9
    800005e8:	000e0117          	auipc	sp,0xe0
    800005ec:	a1810113          	add	sp,sp,-1512 # 800e0000 <begin_signature>
    800005f0:	6315                	lui	t1,0x5
    800005f2:	7a83031b          	addw	t1,t1,1960 # 57a8 <_tbss_end+0x57a8>
    800005f6:	911a                	add	sp,sp,t1
    800005f8:	0000100f          	fence.i
    800005fc:	19c12907          	flw	fs2,412(sp)
    80000600:	249d                	addw	s1,s1,7
    80000602:	3482                	fld	fs1,32(sp)
    80000604:	0823b717          	auipc	a4,0x823b
    80000608:	0337cebb          	divw	t4,a5,s3
    8000060c:	6145                	add	sp,sp,48

000000008000060e <b000000003d>:
    8000060e:	00000033          	add	zero,zero,zero
    80000612:	fd4c42e3          	blt	s8,s4,800005d6 <i0000000038>
    80000616:	00000033          	add	zero,zero,zero
    8000061a:	42090f53          	fcvt.d.s	ft10,fs2
    8000061e:	8f05                	sub	a4,a4,s1
    80000620:	03d9b4b3          	mulhu	s1,s3,t4
    80000624:	42013483          	ld	s1,1056(sp)
    80000628:	e13124af          	amomaxu.w	s1,s3,(sp)
    8000062c:	5a816f83          	lwu	t6,1448(sp)
    80000630:	0ff0000f          	fence
    80000634:	4c29                	li	s8,10

0000000080000636 <i000000003d>:
    80000636:	a4a2                	fsd	fs0,72(sp)

0000000080000638 <i000000003e>:
    80000638:	a096                	fsd	ft5,64(sp)

000000008000063a <i000000003f>:
    8000063a:	85912627          	fsw	fs9,-1972(sp)

000000008000063e <i0000000040>:
    8000063e:	01e1252f          	amoadd.w	a0,t5,(sp)

0000000080000642 <i0000000041>:
    80000642:	0091352f          	amoadd.d	a0,s1,(sp)

0000000080000646 <i0000000042>:
    80000646:	d62a                	sw	a0,44(sp)

0000000080000648 <i0000000043>:
    80000648:	c02d8fd3          	fcvt.l.s	t6,fs11,rne

000000008000064c <i0000000044>:
    8000064c:	bc012b83          	lw	s7,-1088(sp)

0000000080000650 <i0000000045>:
    80000650:	4094d53b          	sraw	a0,s1,s1

0000000080000654 <i0000000046>:
    80000654:	295b0147          	fmsub.s	ft2,fs6,fs5,ft5,rne
    80000658:	000e0117          	auipc	sp,0xe0
    8000065c:	9a810113          	add	sp,sp,-1624 # 800e0000 <begin_signature>
    80000660:	631d                	lui	t1,0x7
    80000662:	3361                	addw	t1,t1,-8 # 6ff8 <_tbss_end+0x6ff8>
    80000664:	911a                	add	sp,sp,t1
    80000666:	000e0117          	auipc	sp,0xe0
    8000066a:	99a10113          	add	sp,sp,-1638 # 800e0000 <begin_signature>
    8000066e:	6321                	lui	t1,0x8
    80000670:	b203031b          	addw	t1,t1,-1248 # 7b20 <_tbss_end+0x7b20>
    80000674:	911a                	add	sp,sp,t1
    80000676:	000e0117          	auipc	sp,0xe0
    8000067a:	98a10113          	add	sp,sp,-1654 # 800e0000 <begin_signature>
    8000067e:	6315                	lui	t1,0x5
    80000680:	6583031b          	addw	t1,t1,1624 # 5658 <_tbss_end+0x5658>
    80000684:	911a                	add	sp,sp,t1
    80000686:	f846                	sd	a7,48(sp)
    80000688:	a43e                	fsd	fa5,8(sp)
    8000068a:	408d04bb          	subw	s1,s10,s0
    8000068e:	029df7bb          	remuw	a5,s11,s1
    80000692:	c002                	sw	zero,0(sp)
    80000694:	f00b8353          	fmv.w.x	ft6,s7
    80000698:	6892                	ld	a7,256(sp)

000000008000069a <b0000000047>:
    8000069a:	00000c97          	auipc	s9,0x0
    8000069e:	032c8c93          	add	s9,s9,50 # 800006cc <i000000004c>
    800006a2:	000c80e7          	jalr	s9
    800006a6:	4094d73b          	sraw	a4,s1,s1
    800006aa:	0059199b          	sllw	s3,s2,0x5
    800006ae:	08e4                	add	s1,sp,92
    800006b0:	a1b1302f          	amomax.d	zero,s11,(sp)
    800006b4:	1be0                	add	s0,sp,508
    800006b6:	0294b4b3          	mulhu	s1,s1,s1
    800006ba:	2b0d06d3          	fmin.d	fa3,fs10,fa6

00000000800006be <i0000000047>:
    800006be:	4502                	lw	a0,0(sp)

00000000800006c0 <i0000000048>:
    800006c0:	0978                	add	a4,sp,156

00000000800006c2 <i0000000049>:
    800006c2:	bca2                	fsd	fs0,120(sp)

00000000800006c4 <i000000004a>:
    800006c4:	091138af          	amoswap.d	a7,a7,(sp)

00000000800006c8 <i000000004b>:
    800006c8:	90013c23          	sd	zero,-1768(sp)

00000000800006cc <i000000004c>:
    800006cc:	024db2b3          	mulhu	t0,s11,tp

00000000800006d0 <i000000004d>:
    800006d0:	84a1                	sra	s1,s1,0x8

00000000800006d2 <i000000004e>:
    800006d2:	401d74d3          	fcvt.s.d	fs1,fs10

00000000800006d6 <i000000004f>:
    800006d6:	ba2f841b          	addw	s0,t6,-1118 # 5d91bba2 <_tbss_end+0x5d91bba2>

00000000800006da <i0000000050>:
    800006da:	0ff0000f          	fence
    800006de:	03b479d3          	fadd.d	fs3,fs0,fs11
    800006e2:	54d2                	lw	s1,52(sp)
    800006e4:	414b803b          	subw	zero,s7,s4
    800006e8:	6a811003          	lh	zero,1704(sp)
    800006ec:	471d                	li	a4,7
    800006ee:	028e79bb          	remuw	s3,t3,s0
    800006f2:	0000100f          	fence.i

00000000800006f6 <b0000000051>:
    800006f6:	00000917          	auipc	s2,0x0
    800006fa:	04490913          	add	s2,s2,68 # 8000073a <i0000000056>
    800006fe:	00090067          	jr	s2
    80000702:	a00138af          	amomax.d	a7,zero,(sp)
    80000706:	0000100f          	fence.i
    8000070a:	7d713823          	sd	s7,2000(sp)
    8000070e:	6121                	add	sp,sp,64
    80000710:	03fff03b          	remuw	zero,t6,t6
    80000714:	411254bb          	sraw	s1,tp,a7
    80000718:	319437c3          	fmadd.s	fa5,fs0,fs9,ft6,rup

000000008000071c <i0000000051>:
    8000071c:	f5a6                	sd	s1,232(sp)
    8000071e:	000e0117          	auipc	sp,0xe0
    80000722:	8e210113          	add	sp,sp,-1822 # 800e0000 <begin_signature>
    80000726:	6335                	lui	t1,0xd
    80000728:	9303031b          	addw	t1,t1,-1744 # c930 <_tbss_end+0xc930>
    8000072c:	911a                	add	sp,sp,t1

000000008000072e <i0000000052>:
    8000072e:	54a2                	lw	s1,40(sp)

0000000080000730 <i0000000053>:
    80000730:	2091252f          	amoxor.w	a0,s1,(sp)

0000000080000734 <i0000000054>:
    80000734:	81d1                	srl	a1,a1,0x14

0000000080000736 <i0000000055>:
    80000736:	024e54bb          	divuw	s1,t3,tp

000000008000073a <i0000000056>:
    8000073a:	c00b01d3          	fcvt.w.s	gp,fs6,rne

000000008000073e <i0000000057>:
    8000073e:	4031352f          	amoor.d	a0,gp,(sp)

0000000080000742 <i0000000058>:
    80000742:	fdf13823          	sd	t6,-48(sp)

0000000080000746 <i0000000059>:
    80000746:	5cb9                	li	s9,-18

0000000080000748 <i000000005a>:
    80000748:	95414903          	lbu	s2,-1708(sp)
    8000074c:	4ca5                	li	s9,9
    8000074e:	4c29                	li	s8,10
    80000750:	000e0117          	auipc	sp,0xe0
    80000754:	8b010113          	add	sp,sp,-1872 # 800e0000 <begin_signature>
    80000758:	6331                	lui	t1,0xc
    8000075a:	e703031b          	addw	t1,t1,-400 # be70 <_tbss_end+0xbe70>
    8000075e:	911a                	add	sp,sp,t1
    80000760:	44e6                	lw	s1,88(sp)
    80000762:	f20d85d3          	fmv.d.x	fa1,s11
    80000766:	6161                	add	sp,sp,80
    80000768:	22912623          	sw	s1,556(sp)
    8000076c:	27313823          	sd	s3,624(sp)
    80000770:	8085                	srl	s1,s1,0x1
    80000772:	e0f1302f          	amomaxu.d	zero,a5,(sp)

0000000080000776 <b000000005b>:
    80000776:	00000033          	add	zero,zero,zero
    8000077a:	038cd863          	bge	s9,s8,800007aa <i0000000060>
    8000077e:	00000033          	add	zero,zero,zero
    80000782:	f43a                	sd	a4,40(sp)
    80000784:	ac22                	fsd	fs0,24(sp)
    80000786:	5a027bd3          	fsqrt.d	fs7,ft4
    8000078a:	bdc2                	fsd	fa6,248(sp)
    8000078c:	5492                	lw	s1,36(sp)
    8000078e:	020054bb          	divuw	s1,zero,zero
    80000792:	01ffde3b          	srlw	t3,t6,t6
    80000796:	4c29                	li	s8,10

0000000080000798 <i000000005b>:
    80000798:	7149                	add	sp,sp,-368

000000008000079a <i000000005c>:
    8000079a:	32413023          	sd	tp,800(sp)

000000008000079e <i000000005d>:
    8000079e:	c03d9553          	fcvt.lu.s	a0,fs11,rtz

00000000800007a2 <i000000005e>:
    800007a2:	0294c7bb          	divw	a5,s1,s1

00000000800007a6 <i000000005f>:
    800007a6:	21cc12d3          	fsgnjn.s	ft5,fs8,ft8

00000000800007aa <i0000000060>:
    800007aa:	410807bb          	subw	a5,a6,a6

00000000800007ae <i0000000061>:
    800007ae:	13574fb7          	lui	t6,0x13574

00000000800007b2 <i0000000062>:
    800007b2:	e20a85d3          	fmv.x.d	a1,fs5

00000000800007b6 <i0000000063>:
    800007b6:	02afcebb          	divw	t4,t6,a0

00000000800007ba <i0000000064>:
    800007ba:	1141                	add	sp,sp,-16
    800007bc:	e42e                	sd	a1,8(sp)
    800007be:	e816                	sd	t0,16(sp)
    800007c0:	00000597          	auipc	a1,0x0
    800007c4:	00a58593          	add	a1,a1,10 # 800007ca <i0000000064+0x10>
    800007c8:	4281                	li	t0,0
    800007ca:	8282                	jr	t0
    800007cc:	65a2                	ld	a1,8(sp)
    800007ce:	62c2                	ld	t0,16(sp)
    800007d0:	0141                	add	sp,sp,16

00000000800007d2 <i0000000065>:
    800007d2:	019d84b3          	add	s1,s11,s9
    800007d6:	4931                	li	s2,12
    800007d8:	0c05                	add	s8,s8,1
    800007da:	d033fcd3          	fcvt.s.lu	fs9,t2
    800007de:	610d                	add	sp,sp,160
    800007e0:	54b2                	lw	s1,44(sp)
    800007e2:	5742                	lw	a4,48(sp)
    800007e4:	d0298dd3          	fcvt.s.l	fs11,s3,rne
    800007e8:	a15134af          	amomax.d	s1,s5,(sp)
    800007ec:	ac26                	fsd	fs1,24(sp)

00000000800007ee <b0000000066>:
    800007ee:	012c0863          	beq	s8,s2,800007fe <b0000000066+0x10>
    800007f2:	00000917          	auipc	s2,0x0
    800007f6:	fbc90913          	add	s2,s2,-68 # 800007ae <i0000000061>
    800007fa:	00090067          	jr	s2
    800007fe:	4c29                	li	s8,10
    80000800:	0231dcbb          	divuw	s9,gp,gp
    80000804:	01979f93          	sll	t6,a5,0x19
    80000808:	4f411823          	sh	s4,1264(sp)
    8000080c:	e0040fd3          	fmv.x.w	t6,fs0
    80000810:	03b078b3          	remu	a7,zero,s11
    80000814:	5762                	lw	a4,56(sp)
    80000816:	c9b4044f          	fnmadd.s	fs0,fs0,fs11,fs9,rne

000000008000081a <i0000000066>:
    8000081a:	7746                	ld	a4,112(sp)

000000008000081c <i0000000067>:
    8000081c:	0bb8                	add	a4,sp,472

000000008000081e <i0000000068>:
    8000081e:	04016f83          	lwu	t6,64(sp)

0000000080000822 <i0000000069>:
    80000822:	c00121af          	amominu.w	gp,zero,(sp)

0000000080000826 <i000000006a>:
    80000826:	a0f1342f          	amomax.d	s0,a5,(sp)

000000008000082a <i000000006b>:
    8000082a:	36013c83          	ld	s9,864(sp)

000000008000082e <i000000006c>:
    8000082e:	2442                	fld	fs0,16(sp)

0000000080000830 <i000000006d>:
    80000830:	8c45                	or	s0,s0,s1

0000000080000832 <i000000006e>:
    80000832:	e20704d3          	fmv.x.d	s1,fa4

0000000080000836 <i000000006f>:
    80000836:	108cfdd3          	fmul.s	fs11,fs9,fs0
    8000083a:	4a31                	li	s4,12
    8000083c:	0c05                	add	s8,s8,1
    8000083e:	000df117          	auipc	sp,0xdf
    80000842:	7c210113          	add	sp,sp,1986 # 800e0000 <begin_signature>
    80000846:	6305                	lui	t1,0x1
    80000848:	af83031b          	addw	t1,t1,-1288 # af8 <_tbss_end+0xaf8>
    8000084c:	911a                	add	sp,sp,t1
    8000084e:	aca2                	fsd	fs0,88(sp)
    80000850:	02e4423b          	divw	tp,s0,a4
    80000854:	ce3e                	sw	a5,28(sp)
    80000856:	c83e                	sw	a5,16(sp)
    80000858:	58049cd3          	fsqrt.s	fs9,fs1,rtz
    8000085c:	03c3debb          	divuw	t4,t2,t3
    80000860:	bce6                	fsd	fs9,120(sp)

0000000080000862 <b0000000070>:
    80000862:	00000033          	add	zero,zero,zero
    80000866:	fd8a52e3          	bge	s4,s8,8000082a <i000000006b>
    8000086a:	00000033          	add	zero,zero,zero
    8000086e:	0000100f          	fence.i
    80000872:	20e124af          	amoxor.w	s1,a4,(sp)
    80000876:	41598e3b          	subw	t3,s3,s5
    8000087a:	c23cf4d3          	fcvt.lu.d	s1,fs9
    8000087e:	3dca                	fld	fs11,176(sp)
    80000880:	03f42933          	mulhsu	s2,s0,t6
    80000884:	02970233          	mul	tp,a4,s1
    80000888:	4c29                	li	s8,10

000000008000088a <i0000000070>:
    8000088a:	62416f83          	lwu	t6,1572(sp)

000000008000088e <i0000000071>:
    8000088e:	12d0                	add	a2,sp,356

0000000080000890 <i0000000072>:
    80000890:	009fd83b          	srlw	a6,t6,s1

0000000080000894 <i0000000073>:
    80000894:	02eee4b3          	rem	s1,t4,a4

0000000080000898 <i0000000074>:
    80000898:	4706                	lw	a4,64(sp)

000000008000089a <i0000000075>:
    8000089a:	03f50cbb          	mulw	s9,a0,t6

000000008000089e <i0000000076>:
    8000089e:	22a7a9d3          	fsgnjx.d	fs3,fa5,fa0

00000000800008a2 <i0000000077>:
    800008a2:	8d29                	xor	a0,a0,a0
    800008a4:	000df117          	auipc	sp,0xdf
    800008a8:	75c10113          	add	sp,sp,1884 # 800e0000 <begin_signature>
    800008ac:	6329                	lui	t1,0xa
    800008ae:	1d83031b          	addw	t1,t1,472 # a1d8 <_tbss_end+0xa1d8>
    800008b2:	911a                	add	sp,sp,t1

00000000800008b4 <i0000000078>:
    800008b4:	4fa2                	lw	t6,8(sp)

00000000800008b6 <i0000000079>:
    800008b6:	dc2a                	sw	a0,56(sp)
    800008b8:	4ca9                	li	s9,10
    800008ba:	4c29                	li	s8,10
    800008bc:	000df117          	auipc	sp,0xdf
    800008c0:	74410113          	add	sp,sp,1860 # 800e0000 <begin_signature>
    800008c4:	6331                	lui	t1,0xc
    800008c6:	ab83031b          	addw	t1,t1,-1352 # bab8 <_tbss_end+0xbab8>
    800008ca:	911a                	add	sp,sp,t1
    800008cc:	b4016e83          	lwu	t4,-1216(sp)
    800008d0:	d03a                	sw	a4,32(sp)
    800008d2:	7166fdcb          	fnmsub.s	fs11,fa3,fs6,fa4
    800008d6:	0881202f          	amoswap.w	zero,s0,(sp)
    800008da:	02f3dfbb          	divuw	t6,t2,a5
    800008de:	40e133af          	amoor.d	t2,a4,(sp)
    800008e2:	e20c8dd3          	fmv.x.d	s11,fs9

00000000800008e6 <b000000007a>:
    800008e6:	00000033          	add	zero,zero,zero
    800008ea:	039c1963          	bne	s8,s9,8000091c <i000000007f>
    800008ee:	00000033          	add	zero,zero,zero
    800008f2:	ac412023          	sw	tp,-1344(sp)
    800008f6:	20912b2f          	amoxor.w	s6,s1,(sp)
    800008fa:	031e7fb3          	remu	t6,t3,a7
    800008fe:	c03423d3          	fcvt.lu.s	t2,fs0,rdn
    80000902:	b432                	fsd	fa2,40(sp)
    80000904:	7a013483          	ld	s1,1952(sp)
    80000908:	0ff0000f          	fence
    8000090c:	4c29                	li	s8,10

000000008000090e <i000000007a>:
    8000090e:	1224                	add	s1,sp,296

0000000080000910 <i000000007b>:
    80000910:	25ce                	fld	fa1,208(sp)

0000000080000912 <i000000007c>:
    80000912:	0000100f          	fence.i

0000000080000916 <i000000007d>:
    80000916:	7115                	add	sp,sp,-224

0000000080000918 <i000000007e>:
    80000918:	02a4b233          	mulhu	tp,s1,a0

000000008000091c <i000000007f>:
    8000091c:	d02540d3          	fcvt.s.l	ft1,a0,rmm

0000000080000920 <i0000000080>:
    80000920:	00225073          	fsrmi	zero,4

0000000080000924 <i0000000081>:
    80000924:	c2337553          	fcvt.lu.d	a0,ft6

0000000080000928 <i0000000082>:
    80000928:	01785493          	srl	s1,a6,0x17

000000008000092c <i0000000083>:
    8000092c:	0ff0000f          	fence

0000000080000930 <i0000000084>:
    80000930:	54412c87          	flw	fs9,1348(sp)
    80000934:	4eb1                	li	t4,12
    80000936:	0c05                	add	s8,s8,1
    80000938:	012e1cb3          	sll	s9,t3,s2
    8000093c:	109c                	add	a5,sp,96
    8000093e:	21139453          	fsgnjn.s	fs0,ft7,fa7
    80000942:	dc813203          	ld	tp,-568(sp)
    80000946:	21b13c23          	sd	s11,536(sp)
    8000094a:	e1f1202f          	amomaxu.w	zero,t6,(sp)
    8000094e:	7179                	add	sp,sp,-48

0000000080000950 <b0000000085>:
    80000950:	00000033          	add	zero,zero,zero
    80000954:	fddc46e3          	blt	s8,t4,80000920 <i0000000080>
    80000958:	00000033          	add	zero,zero,zero
    8000095c:	346a                	fld	fs0,184(sp)
    8000095e:	e85e                	sd	s7,16(sp)
    80000960:	d018b853          	fcvt.s.wu	fa6,a7,rup
    80000964:	01f3db13          	srl	s6,t2,0x1f
    80000968:	89016f83          	lwu	t6,-1904(sp)
    8000096c:	00f1222f          	amoadd.w	tp,a5,(sp)
    80000970:	c01404d3          	fcvt.wu.s	s1,fs0,rne
    80000974:	4c29                	li	s8,10

0000000080000976 <i0000000085>:
    80000976:	9f09                	subw	a4,a4,a0

0000000080000978 <i0000000086>:
    80000978:	04ca                	sll	s1,s1,0x12

000000008000097a <i0000000087>:
    8000097a:	01ca123b          	sllw	tp,s4,t3

000000008000097e <i0000000088>:
    8000097e:	20713faf          	amoxor.d	t6,t2,(sp)

0000000080000982 <i0000000089>:
    80000982:	0ff0000f          	fence

0000000080000986 <i000000008a>:
    80000986:	60a1252f          	amoand.w	a0,a0,(sp)

000000008000098a <i000000008b>:
    8000098a:	20c697d3          	fsgnjn.s	fa5,fa3,fa2

000000008000098e <i000000008c>:
    8000098e:	004adfb3          	srl	t6,s5,tp
    80000992:	000df117          	auipc	sp,0xdf
    80000996:	66e10113          	add	sp,sp,1646 # 800e0000 <begin_signature>
    8000099a:	631d                	lui	t1,0x7
    8000099c:	1a83031b          	addw	t1,t1,424 # 71a8 <_tbss_end+0x71a8>
    800009a0:	911a                	add	sp,sp,t1

00000000800009a2 <i000000008d>:
    800009a2:	f3a6                	sd	s1,480(sp)

00000000800009a4 <i000000008e>:
    800009a4:	802d                	srl	s0,s0,0xb
    800009a6:	4831                	li	a6,12
    800009a8:	4c29                	li	s8,10
    800009aa:	cbbdff4b          	fnmsub.d	ft10,fs11,fs11,fs9
    800009ae:	168d4a13          	xor	s4,s10,360
    800009b2:	9c99                	subw	s1,s1,a4
    800009b4:	8c99                	sub	s1,s1,a4
    800009b6:	df312a23          	sw	s3,-524(sp)
    800009ba:	f8ee                	sd	s11,112(sp)
    800009bc:	20913baf          	amoxor.d	s7,s1,(sp)

00000000800009c0 <b000000008f>:
    800009c0:	00000033          	add	zero,zero,zero
    800009c4:	050c4263          	blt	s8,a6,80000a08 <i0000000094>
    800009c8:	00000033          	add	zero,zero,zero
    800009cc:	adabaf93          	slti	t6,s7,-1318
    800009d0:	0ff0000f          	fence
    800009d4:	02e754bb          	divuw	s1,a4,a4
    800009d8:	02e76db3          	rem	s11,a4,a4
    800009dc:	041e                	sll	s0,s0,0x7
    800009de:	1924                	add	s1,sp,184
    800009e0:	1324fdc7          	fmsub.d	fs11,fs1,fs2,ft2
    800009e4:	4c29                	li	s8,10

00000000800009e6 <i000000008f>:
    800009e6:	c23cf553          	fcvt.lu.d	a0,fs9
    800009ea:	000df117          	auipc	sp,0xdf
    800009ee:	61610113          	add	sp,sp,1558 # 800e0000 <begin_signature>
    800009f2:	6331                	lui	t1,0xc
    800009f4:	0583031b          	addw	t1,t1,88 # c058 <_tbss_end+0xc058>
    800009f8:	911a                	add	sp,sp,t1

00000000800009fa <i0000000090>:
    800009fa:	37e6                	fld	fa5,120(sp)

00000000800009fc <i0000000091>:
    800009fc:	02a4dfbb          	divuw	t6,s1,a0

0000000080000a00 <i0000000092>:
    80000a00:	02afb233          	mulhu	tp,t6,a0

0000000080000a04 <i0000000093>:
    80000a04:	c1d129af          	amominu.w	s3,t4,(sp)

0000000080000a08 <i0000000094>:
    80000a08:	75f10503          	lb	a0,1887(sp)

0000000080000a0c <i0000000095>:
    80000a0c:	02a544b3          	div	s1,a0,a0

0000000080000a10 <i0000000096>:
    80000a10:	a09134af          	amomax.d	s1,s1,(sp)

0000000080000a14 <i0000000097>:
    80000a14:	c07e                	sw	t6,0(sp)

0000000080000a16 <i0000000098>:
    80000a16:	50613c23          	sd	t1,1304(sp)
    80000a1a:	4ea9                	li	t4,10
    80000a1c:	000df117          	auipc	sp,0xdf
    80000a20:	5e410113          	add	sp,sp,1508 # 800e0000 <begin_signature>
    80000a24:	6339                	lui	t1,0xe
    80000a26:	2361                	addw	t1,t1,24 # e018 <_tbss_end+0xe018>
    80000a28:	911a                	add	sp,sp,t1
    80000a2a:	000df117          	auipc	sp,0xdf
    80000a2e:	5d610113          	add	sp,sp,1494 # 800e0000 <begin_signature>
    80000a32:	6331                	lui	t1,0xc
    80000a34:	6683031b          	addw	t1,t1,1640 # c668 <_tbss_end+0xc668>
    80000a38:	911a                	add	sp,sp,t1
    80000a3a:	eec16483          	lwu	s1,-276(sp)
    80000a3e:	3dee                	fld	fs11,248(sp)
    80000a40:	10c2ad53          	fmul.s	fs10,ft5,fa2,rdn
    80000a44:	d23777d3          	fcvt.d.lu	fa5,a4
    80000a48:	04f2                	sll	s1,s1,0x1c
    80000a4a:	4031392f          	amoor.d	s2,gp,(sp)
    80000a4e:	c0812faf          	amominu.w	t6,s0,(sp)

0000000080000a52 <b0000000099>:
    80000a52:	00000033          	add	zero,zero,zero
    80000a56:	fbdc19e3          	bne	s8,t4,80000a08 <i0000000094>
    80000a5a:	00000033          	add	zero,zero,zero
    80000a5e:	9cb9                	addw	s1,s1,a4
    80000a60:	03a044bb          	divw	s1,zero,s10
    80000a64:	e2078ad3          	fmv.x.d	s5,fa5
    80000a68:	02eff23b          	remuw	tp,t6,a4
    80000a6c:	2cc2                	fld	fs9,16(sp)
    80000a6e:	b50a                	fsd	ft2,168(sp)
    80000a70:	c02824d3          	fcvt.l.s	s1,fa6,rdn
    80000a74:	4c29                	li	s8,10

0000000080000a76 <i0000000099>:
    80000a76:	0294cbbb          	divw	s7,s1,s1
    80000a7a:	000df117          	auipc	sp,0xdf
    80000a7e:	58610113          	add	sp,sp,1414 # 800e0000 <begin_signature>
    80000a82:	6305                	lui	t1,0x1
    80000a84:	9203031b          	addw	t1,t1,-1760 # 920 <_tbss_end+0x920>
    80000a88:	911a                	add	sp,sp,t1

0000000080000a8a <i000000009a>:
    80000a8a:	52a2                	lw	t0,40(sp)

0000000080000a8c <i000000009b>:
    80000a8c:	00235073          	fsrmi	zero,6

0000000080000a90 <i000000009c>:
    80000a90:	a155a4d3          	feq.s	s1,fa1,fs5

0000000080000a94 <i000000009d>:
    80000a94:	34f1                	addw	s1,s1,-4

0000000080000a96 <i000000009e>:
    80000a96:	a516                	fsd	ft5,136(sp)

0000000080000a98 <i000000009f>:
    80000a98:	0ff0000f          	fence

0000000080000a9c <i00000000a0>:
    80000a9c:	9ca5                	addw	s1,s1,s1

0000000080000a9e <i00000000a1>:
    80000a9e:	0ff0000f          	fence

0000000080000aa2 <i00000000a2>:
    80000aa2:	34b73537          	lui	a0,0x34b73

0000000080000aa6 <i00000000a3>:
    80000aa6:	4287fcc7          	fmsub.d	fs9,fa5,fs0,fs0
    80000aaa:	4dad                	li	s11,11
    80000aac:	4c29                	li	s8,10
    80000aae:	000df117          	auipc	sp,0xdf
    80000ab2:	55210113          	add	sp,sp,1362 # 800e0000 <begin_signature>
    80000ab6:	630d                	lui	t1,0x3
    80000ab8:	8403031b          	addw	t1,t1,-1984 # 2840 <_tbss_end+0x2840>
    80000abc:	911a                	add	sp,sp,t1
    80000abe:	000df117          	auipc	sp,0xdf
    80000ac2:	54210113          	add	sp,sp,1346 # 800e0000 <begin_signature>
    80000ac6:	630d                	lui	t1,0x3
    80000ac8:	c103031b          	addw	t1,t1,-1008 # 2c10 <_tbss_end+0x2c10>
    80000acc:	911a                	add	sp,sp,t1
    80000ace:	e0051253          	fclass.s	tp,fa0
    80000ad2:	2afc9fd3          	fmax.d	ft11,fs9,fa5
    80000ad6:	18815483          	lhu	s1,392(sp)
    80000ada:	a83a                	fsd	fa4,16(sp)
    80000adc:	035e503b          	divuw	zero,t3,s5
    80000ae0:	81112faf          	amomin.w	t6,a7,(sp)
    80000ae4:	e2041fd3          	fclass.d	t6,fs0

0000000080000ae8 <b00000000a4>:
    80000ae8:	00000033          	add	zero,zero,zero
    80000aec:	038ddb63          	bge	s11,s8,80000b22 <i00000000a9>
    80000af0:	00000033          	add	zero,zero,zero
    80000af4:	03c8a233          	mulhsu	tp,a7,t3
    80000af8:	41da883b          	subw	a6,s5,t4
    80000afc:	6109                	add	sp,sp,128
    80000afe:	51e11203          	lh	tp,1310(sp)
    80000b02:	2c0fb193          	sltiu	gp,t6,704
    80000b06:	0bbdf153          	fsub.d	ft2,fs11,fs11
    80000b0a:	42078dd3          	fcvt.d.s	fs11,fa5
    80000b0e:	4c29                	li	s8,10

0000000080000b10 <i00000000a4>:
    80000b10:	ab013283          	ld	t0,-1360(sp)

0000000080000b14 <i00000000a5>:
    80000b14:	c0243cd3          	fcvt.l.s	s9,fs0,rup

0000000080000b18 <i00000000a6>:
    80000b18:	40197cd3          	fcvt.s.d	fs9,fs2

0000000080000b1c <i00000000a7>:
    80000b1c:	27bd                	addw	a5,a5,15

0000000080000b1e <i00000000a8>:
    80000b1e:	3c416a03          	lwu	s4,964(sp)

0000000080000b22 <i00000000a9>:
    80000b22:	296e0253          	fmin.s	ft4,ft8,fs6

0000000080000b26 <i00000000aa>:
    80000b26:	3442                	fld	fs0,48(sp)

0000000080000b28 <i00000000ab>:
    80000b28:	23b79cd3          	fsgnjn.d	fs9,fa5,fs11

0000000080000b2c <i00000000ac>:
    80000b2c:	a132                	fsd	fa2,128(sp)

0000000080000b2e <i00000000ad>:
    80000b2e:	8a7fb513          	sltiu	a0,t6,-1881
    80000b32:	4ba9                	li	s7,10
    80000b34:	000df117          	auipc	sp,0xdf
    80000b38:	4cc10113          	add	sp,sp,1228 # 800e0000 <begin_signature>
    80000b3c:	6309                	lui	t1,0x2
    80000b3e:	5283031b          	addw	t1,t1,1320 # 2528 <_tbss_end+0x2528>
    80000b42:	911a                	add	sp,sp,t1
    80000b44:	6796                	ld	a5,320(sp)
    80000b46:	40efd4b3          	sra	s1,t6,a4
    80000b4a:	c2247b53          	fcvt.l.d	s6,fs0
    80000b4e:	6439                	lui	s0,0xe
    80000b50:	91f11c23          	sh	t6,-1768(sp)
    80000b54:	c0133cd3          	fcvt.wu.s	s9,ft6,rup
    80000b58:	03f48fbb          	mulw	t6,s1,t6

0000000080000b5c <b00000000ae>:
    80000b5c:	017c0463          	beq	s8,s7,80000b64 <b00000000ae+0x8>
    80000b60:	fc3ff06f          	j	80000b22 <i00000000a9>
    80000b64:	4c29                	li	s8,10
    80000b66:	4482                	lw	s1,0(sp)
    80000b68:	d2070153          	fcvt.d.w	ft2,a4
    80000b6c:	c22df253          	fcvt.l.d	tp,fs11
    80000b70:	0bbc                	add	a5,sp,472
    80000b72:	8c814203          	lbu	tp,-1848(sp)
    80000b76:	c22dfcd3          	fcvt.l.d	s9,fs11
    80000b7a:	da3e                	sw	a5,52(sp)

0000000080000b7c <i00000000ae>:
    80000b7c:	0ff0000f          	fence

0000000080000b80 <i00000000af>:
    80000b80:	4094df3b          	sraw	t5,s1,s1

0000000080000b84 <i00000000b0>:
    80000b84:	5ce2cd37          	lui	s10,0x5ce2c

0000000080000b88 <i00000000b1>:
    80000b88:	06a6                	sll	a3,a3,0x9

0000000080000b8a <i00000000b2>:
    80000b8a:	81013faf          	amomin.d	t6,a6,(sp)

0000000080000b8e <i00000000b3>:
    80000b8e:	0165501b          	srlw	zero,a0,0x16

0000000080000b92 <i00000000b4>:
    80000b92:	c220f9d3          	fcvt.l.d	s3,ft1

0000000080000b96 <i00000000b5>:
    80000b96:	7fe6                	ld	t6,120(sp)

0000000080000b98 <i00000000b6>:
    80000b98:	e8aa                	sd	a0,80(sp)

0000000080000b9a <i00000000b7>:
    80000b9a:	54d2                	lw	s1,52(sp)
    80000b9c:	48ad                	li	a7,11
    80000b9e:	0c05                	add	s8,s8,1
    80000ba0:	8c47801b          	addw	zero,a5,-1852
    80000ba4:	0000100f          	fence.i
    80000ba8:	c101372f          	amominu.d	a4,a6,(sp)
    80000bac:	e0f1222f          	amomaxu.w	tp,a5,(sp)
    80000bb0:	009a981b          	sllw	a6,s5,0x9
    80000bb4:	328e                	fld	ft5,224(sp)
    80000bb6:	614d                	add	sp,sp,176

0000000080000bb8 <b00000000b8>:
    80000bb8:	00000033          	add	zero,zero,zero
    80000bbc:	fd1c09e3          	beq	s8,a7,80000b8e <i00000000b3>
    80000bc0:	00000033          	add	zero,zero,zero
    80000bc4:	0000100f          	fence.i
    80000bc8:	7c514e03          	lbu	t3,1989(sp)
    80000bcc:	d03fff53          	fcvt.s.lu	ft10,t6
    80000bd0:	4ce12223          	sw	a4,1220(sp)
    80000bd4:	715d                	add	sp,sp,-80
    80000bd6:	4171382f          	amoor.d	a6,s7,(sp)
    80000bda:	01225213          	srl	tp,tp,0x12
    80000bde:	4c29                	li	s8,10

0000000080000be0 <i00000000b8>:
    80000be0:	6111                	add	sp,sp,256

0000000080000be2 <i00000000b9>:
    80000be2:	02ee68bb          	remw	a7,t3,a4

0000000080000be6 <i00000000ba>:
    80000be6:	4dc12787          	flw	fa5,1244(sp)

0000000080000bea <i00000000bb>:
    80000bea:	03f4e03b          	remw	zero,s1,t6

0000000080000bee <i00000000bc>:
    80000bee:	03f4f53b          	remuw	a0,s1,t6

0000000080000bf2 <i00000000bd>:
    80000bf2:	e20d14d3          	fclass.d	s1,fs10

0000000080000bf6 <i00000000be>:
    80000bf6:	02a534b3          	mulhu	s1,a0,a0

0000000080000bfa <i00000000bf>:
    80000bfa:	c237fbd3          	fcvt.lu.d	s7,fa5

0000000080000bfe <i00000000c0>:
    80000bfe:	049e                	sll	s1,s1,0x7

0000000080000c00 <i00000000c1>:
    80000c00:	02dd3f33          	mulhu	t5,s10,a3
    80000c04:	dc3e                	sw	a5,56(sp)
    80000c06:	e0312a23          	sw	gp,-492(sp)
    80000c0a:	df2fc993          	xor	s3,t6,-526
    80000c0e:	770a                	ld	a4,160(sp)
    80000c10:	0297403b          	divw	zero,a4,s1
    80000c14:	c037ffd3          	fcvt.lu.s	t6,fa5
    80000c18:	80412faf          	amomin.w	t6,tp,(sp)

0000000080000c1c <b00000000c2>:
    80000c1c:	0440056f          	jal	a0,80000c60 <i00000000c7>
    80000c20:	419cb147          	fmsub.s	ft2,fs9,fs9,fs0,rup
    80000c24:	a3019fd3          	flt.d	t6,ft3,fa6
    80000c28:	12fcf7d3          	fmul.d	fa5,fs9,fa5
    80000c2c:	41f13baf          	amoor.d	s7,t6,(sp)
    80000c30:	d034bcd3          	fcvt.s.lu	fs9,s1,rup
    80000c34:	0ff0000f          	fence
    80000c38:	20912b2f          	amoxor.w	s6,s1,(sp)

0000000080000c3c <i00000000c2>:
    80000c3c:	44c16483          	lwu	s1,1100(sp)

0000000080000c40 <i00000000c3>:
    80000c40:	c02fb4d3          	fcvt.l.s	s1,ft11,rup

0000000080000c44 <i00000000c4>:
    80000c44:	00225073          	fsrmi	zero,4

0000000080000c48 <i00000000c5>:
    80000c48:	c0204fd3          	fcvt.l.s	t6,ft0,rmm
    80000c4c:	000df117          	auipc	sp,0xdf
    80000c50:	3b410113          	add	sp,sp,948 # 800e0000 <begin_signature>
    80000c54:	6335                	lui	t1,0xd
    80000c56:	fa03031b          	addw	t1,t1,-96 # cfa0 <_tbss_end+0xcfa0>
    80000c5a:	911a                	add	sp,sp,t1

0000000080000c5c <i00000000c6>:
    80000c5c:	24012483          	lw	s1,576(sp)

0000000080000c60 <i00000000c7>:
    80000c60:	6a756f97          	auipc	t6,0x6a756
    80000c64:	000df117          	auipc	sp,0xdf
    80000c68:	39c10113          	add	sp,sp,924 # 800e0000 <begin_signature>
    80000c6c:	6309                	lui	t1,0x2
    80000c6e:	2503031b          	addw	t1,t1,592 # 2250 <_tbss_end+0x2250>
    80000c72:	911a                	add	sp,sp,t1

0000000080000c74 <i00000000c8>:
    80000c74:	54c2                	lw	s1,48(sp)

0000000080000c76 <i00000000c9>:
    80000c76:	0000100f          	fence.i

0000000080000c7a <i00000000ca>:
    80000c7a:	03e58d3b          	mulw	s10,a1,t5

0000000080000c7e <i00000000cb>:
    80000c7e:	0038                	add	a4,sp,8

0000000080000c80 <i00000000cc>:
    80000c80:	406fd513          	sra	a0,t6,0x6
    80000c84:	4ca9                	li	s9,10
    80000c86:	4c29                	li	s8,10
    80000c88:	cc3e                	sw	a5,24(sp)
    80000c8a:	a0be                	fsd	fa5,64(sp)
    80000c8c:	0419                	add	s0,s0,6 # e006 <_tbss_end+0xe006>
    80000c8e:	aca6                	fsd	fs1,88(sp)
    80000c90:	6841                	lui	a6,0x10
    80000c92:	6ed5                	lui	t4,0x15
    80000c94:	40d45a93          	sra	s5,s0,0xd

0000000080000c98 <b00000000cd>:
    80000c98:	00000033          	add	zero,zero,zero
    80000c9c:	039c1c63          	bne	s8,s9,80000cd4 <i00000000d2>
    80000ca0:	00000033          	add	zero,zero,zero
    80000ca4:	c02797d3          	fcvt.l.s	a5,fa5,rtz
    80000ca8:	35a14203          	lbu	tp,858(sp)
    80000cac:	40885f9b          	sraw	t6,a6,0x8
    80000cb0:	02e754bb          	divuw	s1,a4,a4
    80000cb4:	00e128af          	amoadd.w	a7,a4,(sp)
    80000cb8:	0087fcd3          	fadd.s	fs9,fa5,fs0
    80000cbc:	8c81                	sub	s1,s1,s0
    80000cbe:	4c29                	li	s8,10

0000000080000cc0 <i00000000cd>:
    80000cc0:	01149a1b          	sllw	s4,s1,0x11

0000000080000cc4 <i00000000ce>:
    80000cc4:	d237fcd3          	fcvt.d.lu	fs9,a5

0000000080000cc8 <i00000000cf>:
    80000cc8:	41a984bb          	subw	s1,s3,s10

0000000080000ccc <i00000000d0>:
    80000ccc:	a26c24d3          	feq.d	s1,fs8,ft6

0000000080000cd0 <i00000000d1>:
    80000cd0:	d03fa3d3          	fcvt.s.lu	ft7,t6,rdn

0000000080000cd4 <i00000000d2>:
    80000cd4:	4712                	lw	a4,4(sp)

0000000080000cd6 <i00000000d3>:
    80000cd6:	77c2                	ld	a5,48(sp)

0000000080000cd8 <i00000000d4>:
    80000cd8:	6502                	ld	a0,0(sp)

0000000080000cda <i00000000d5>:
    80000cda:	27a2                	fld	fa5,8(sp)

0000000080000cdc <i00000000d6>:
    80000cdc:	39f11c23          	sh	t6,920(sp)
    80000ce0:	4b01                	li	s6,0
    80000ce2:	000df117          	auipc	sp,0xdf
    80000ce6:	31e10113          	add	sp,sp,798 # 800e0000 <begin_signature>
    80000cea:	6331                	lui	t1,0xc
    80000cec:	fc83031b          	addw	t1,t1,-56 # bfc8 <_tbss_end+0xbfc8>
    80000cf0:	911a                	add	sp,sp,t1
    80000cf2:	000df117          	auipc	sp,0xdf
    80000cf6:	30e10113          	add	sp,sp,782 # 800e0000 <begin_signature>
    80000cfa:	633d                	lui	t1,0xf
    80000cfc:	3283031b          	addw	t1,t1,808 # f328 <_tbss_end+0xf328>
    80000d00:	911a                	add	sp,sp,t1
    80000d02:	d21b87d3          	fcvt.d.wu	fa5,s7
    80000d06:	03c9afb3          	mulhsu	t6,s3,t3
    80000d0a:	a1a1222f          	amomax.w	tp,s10,(sp)
    80000d0e:	8419                	sra	s0,s0,0x6
    80000d10:	74c6                	ld	s1,112(sp)
    80000d12:	d2148fd3          	fcvt.d.wu	ft11,s1
    80000d16:	2bfa1b53          	fmax.d	fs6,fs4,ft11

0000000080000d1a <b00000000d7>:
    80000d1a:	00000033          	add	zero,zero,zero
    80000d1e:	fb6c0be3          	beq	s8,s6,80000cd4 <i00000000d2>
    80000d22:	00000033          	add	zero,zero,zero
    80000d26:	7161                	add	sp,sp,-432
    80000d28:	f50e                	sd	gp,168(sp)
    80000d2a:	d4c6                	sw	a7,104(sp)
    80000d2c:	64f9                	lui	s1,0x1e
    80000d2e:	129b8a93          	add	s5,s7,297
    80000d32:	0000100f          	fence.i
    80000d36:	9c99                	subw	s1,s1,a4
    80000d38:	4c29                	li	s8,10

0000000080000d3a <i00000000d7>:
    80000d3a:	84fd                	sra	s1,s1,0x1f

0000000080000d3c <i00000000d8>:
    80000d3c:	35213423          	sd	s2,840(sp)

0000000080000d40 <i00000000d9>:
    80000d40:	f97e                	sd	t6,176(sp)

0000000080000d42 <i00000000da>:
    80000d42:	6145                	add	sp,sp,48

0000000080000d44 <i00000000db>:
    80000d44:	f2090753          	fmv.d.x	fa4,s2

0000000080000d48 <i00000000dc>:
    80000d48:	40313a2f          	amoor.d	s4,gp,(sp)

0000000080000d4c <i00000000dd>:
    80000d4c:	9c91                	subw	s1,s1,a2

0000000080000d4e <i00000000de>:
    80000d4e:	c22cf4d3          	fcvt.l.d	s1,fs9

0000000080000d52 <i00000000df>:
    80000d52:	60912baf          	amoand.w	s7,s1,(sp)

0000000080000d56 <i00000000e0>:
    80000d56:	e422                	sd	s0,8(sp)
    80000d58:	d02d3cd3          	fcvt.s.l	fs9,s10,rup
    80000d5c:	01f77233          	and	tp,a4,t6
    80000d60:	01f12faf          	amoadd.w	t6,t6,(sp)
    80000d64:	0357c23b          	divw	tp,a5,s5
    80000d68:	7afcfb4b          	fnmsub.d	fs6,fs9,fa5,fa5
    80000d6c:	5ba14f83          	lbu	t6,1466(sp)
    80000d70:	e1f12faf          	amomaxu.w	t6,t6,(sp)

0000000080000d74 <b00000000e1>:
    80000d74:	00000997          	auipc	s3,0x0
    80000d78:	04898993          	add	s3,s3,72 # 80000dbc <i00000000e6>
    80000d7c:	000980e7          	jalr	s3
    80000d80:	d003f9d3          	fcvt.s.w	fs3,t2
    80000d84:	40e137af          	amoor.d	a5,a4,(sp)
    80000d88:	0000100f          	fence.i
    80000d8c:	81f1242f          	amomin.w	s0,t6,(sp)
    80000d90:	a8ae                	fsd	fa1,80(sp)
    80000d92:	20a6a7d3          	fsgnjx.s	fa5,fa3,fa0
    80000d96:	0000100f          	fence.i

0000000080000d9a <i00000000e1>:
    80000d9a:	00721f33          	sll	t5,tp,t2

0000000080000d9e <i00000000e2>:
    80000d9e:	ca847d43          	fmadd.d	fs10,fs0,fs0,fs9

0000000080000da2 <i00000000e3>:
    80000da2:	e2040fd3          	fmv.x.d	t6,fs0

0000000080000da6 <i00000000e4>:
    80000da6:	54513023          	sd	t0,1344(sp)

0000000080000daa <i00000000e5>:
    80000daa:	350e                	fld	fa0,224(sp)
    80000dac:	000df117          	auipc	sp,0xdf
    80000db0:	25410113          	add	sp,sp,596 # 800e0000 <begin_signature>
    80000db4:	6305                	lui	t1,0x1
    80000db6:	3d03031b          	addw	t1,t1,976 # 13d0 <_tbss_end+0x13d0>
    80000dba:	911a                	add	sp,sp,t1

0000000080000dbc <i00000000e6>:
    80000dbc:	c43e                	sw	a5,8(sp)

0000000080000dbe <i00000000e7>:
    80000dbe:	61613823          	sd	s6,1552(sp)

0000000080000dc2 <i00000000e8>:
    80000dc2:	9002                	ebreak

0000000080000dc4 <i00000000e9>:
    80000dc4:	a2a91553          	flt.d	a0,fs2,fa0

0000000080000dc8 <i00000000ea>:
    80000dc8:	9e29                	addw	a2,a2,a0

0000000080000dca <i00000000eb>:
    80000dca:	9701                	sra	a4,a4,0x20
    80000dcc:	4d31                	li	s10,12
    80000dce:	0c05                	add	s8,s8,1
    80000dd0:	26812f83          	lw	t6,616(sp)
    80000dd4:	9cb9                	addw	s1,s1,a4
    80000dd6:	a3978e53          	fle.d	t3,fa5,fs9
    80000dda:	0164                	add	s1,sp,140
    80000ddc:	d826                	sw	s1,48(sp)
    80000dde:	c22fffd3          	fcvt.l.d	t6,ft11
    80000de2:	0e411903          	lh	s2,228(sp)

0000000080000de6 <b00000000ec>:
    80000de6:	01ac0463          	beq	s8,s10,80000dee <b00000000ec+0x8>
    80000dea:	fd5ff56f          	jal	a0,80000dbe <i00000000e7>
    80000dee:	4c29                	li	s8,10
    80000df0:	01944fb3          	xor	t6,s0,s9
    80000df4:	9f85                	subw	a5,a5,s1
    80000df6:	1280                	add	s0,sp,352
    80000df8:	aa19fd4f          	fnmadd.d	fs10,fs3,ft1,fs5
    80000dfc:	0000100f          	fence.i
    80000e00:	30416483          	lwu	s1,772(sp)
    80000e04:	e2382f93          	slti	t6,a6,-477

0000000080000e08 <i00000000ec>:
    80000e08:	0000100f          	fence.i

0000000080000e0c <i00000000ed>:
    80000e0c:	00003023          	sd	zero,0(zero) # 0 <_tbss_end>

0000000080000e10 <i00000000ee>:
    80000e10:	1b9473d3          	fdiv.d	ft7,fs0,fs9

0000000080000e14 <i00000000ef>:
    80000e14:	0ff0000f          	fence

0000000080000e18 <i00000000f0>:
    80000e18:	c02a1fd3          	fcvt.l.s	t6,fs4,rtz

0000000080000e1c <i00000000f1>:
    80000e1c:	02954bbb          	divw	s7,a0,s1

0000000080000e20 <i00000000f2>:
    80000e20:	037256b3          	divu	a3,tp,s7

0000000080000e24 <i00000000f3>:
    80000e24:	40cf5a93          	sra	s5,t5,0xc

0000000080000e28 <i00000000f4>:
    80000e28:	c03ccd53          	fcvt.lu.s	s10,fs9,rmm

0000000080000e2c <i00000000f5>:
    80000e2c:	6b813503          	ld	a0,1720(sp)

0000000080000e30 <i00000000f6>:
    80000e30:	8511                	sra	a0,a0,0x4
    80000e32:	49b1                	li	s3,12
    80000e34:	0c05                	add	s8,s8,1
    80000e36:	000df117          	auipc	sp,0xdf
    80000e3a:	1ca10113          	add	sp,sp,458 # 800e0000 <begin_signature>
    80000e3e:	632d                	lui	t1,0xb
    80000e40:	1483031b          	addw	t1,t1,328 # b148 <_tbss_end+0xb148>
    80000e44:	911a                	add	sp,sp,t1
    80000e46:	02974fb3          	div	t6,a4,s1
    80000e4a:	8ffe                	mv	t6,t6
    80000e4c:	0ff0000f          	fence
    80000e50:	6442                	ld	s0,16(sp)
    80000e52:	a287a1d3          	feq.d	gp,fa5,fs0
    80000e56:	00e70233          	add	tp,a4,a4
    80000e5a:	344e                	fld	fs0,240(sp)

0000000080000e5c <b00000000f7>:
    80000e5c:	013c0463          	beq	s8,s3,80000e64 <b00000000f7+0x8>
    80000e60:	fc1ff06f          	j	80000e20 <i00000000f2>
    80000e64:	4c29                	li	s8,10
    80000e66:	02ef98b3          	mulh	a7,t6,a4
    80000e6a:	3402                	fld	fs0,32(sp)
    80000e6c:	0ff0000f          	fence
    80000e70:	0ff0000f          	fence
    80000e74:	e502                	sd	zero,136(sp)
    80000e76:	2ca2                	fld	fs9,8(sp)
    80000e78:	c20b7753          	fcvt.w.d	a4,fs6

0000000080000e7c <i00000000f7>:
    80000e7c:	d0307553          	fcvt.s.lu	fa0,zero

0000000080000e80 <i00000000f8>:
    80000e80:	40a55493          	sra	s1,a0,0xa
    80000e84:	000df117          	auipc	sp,0xdf
    80000e88:	17c10113          	add	sp,sp,380 # 800e0000 <begin_signature>
    80000e8c:	6319                	lui	t1,0x6
    80000e8e:	1d03031b          	addw	t1,t1,464 # 61d0 <_tbss_end+0x61d0>
    80000e92:	911a                	add	sp,sp,t1

0000000080000e94 <i00000000f9>:
    80000e94:	64912023          	sw	s1,1600(sp)

0000000080000e98 <i00000000fa>:
    80000e98:	20a1252f          	amoxor.w	a0,a0,(sp)

0000000080000e9c <i00000000fb>:
    80000e9c:	0ff0000f          	fence

0000000080000ea0 <i00000000fc>:
    80000ea0:	1b97f8d3          	fdiv.d	fa7,fa5,fs9

0000000080000ea4 <i00000000fd>:
    80000ea4:	3762                	fld	fa4,56(sp)

0000000080000ea6 <i00000000fe>:
    80000ea6:	d02db453          	fcvt.s.l	fs0,s11,rup

0000000080000eaa <i00000000ff>:
    80000eaa:	0000100f          	fence.i

0000000080000eae <i0000000100>:
    80000eae:	83b1                	srl	a5,a5,0xc
    80000eb0:	000df117          	auipc	sp,0xdf
    80000eb4:	15010113          	add	sp,sp,336 # 800e0000 <begin_signature>
    80000eb8:	6321                	lui	t1,0x8
    80000eba:	7f83031b          	addw	t1,t1,2040 # 87f8 <_tbss_end+0x87f8>
    80000ebe:	911a                	add	sp,sp,t1
    80000ec0:	409134af          	amoor.d	s1,s1,(sp)
    80000ec4:	0000100f          	fence.i
    80000ec8:	c0321d53          	fcvt.lu.s	s10,ft4,rtz
    80000ecc:	9c1d                	subw	s0,s0,a5
    80000ece:	0ff0000f          	fence
    80000ed2:	d02b02d3          	fcvt.s.l	ft5,s6,rne
    80000ed6:	e4910323          	sb	s1,-442(sp)

0000000080000eda <b0000000101>:
    80000eda:	00000817          	auipc	a6,0x0
    80000ede:	03280813          	add	a6,a6,50 # 80000f0c <i0000000106>
    80000ee2:	000800e7          	jalr	a6
    80000ee6:	755fcf93          	xor	t6,t6,1877
    80000eea:	7159                	add	sp,sp,-112
    80000eec:	b0a2                	fsd	fs0,96(sp)
    80000eee:	d039f7d3          	fcvt.s.lu	fa5,s3
    80000ef2:	5c415a83          	lhu	s5,1476(sp)
    80000ef6:	c23df9d3          	fcvt.lu.d	s3,fs11
    80000efa:	c4f6                	sw	t4,72(sp)

0000000080000efc <i0000000101>:
    80000efc:	2642                	fld	fa2,16(sp)

0000000080000efe <i0000000102>:
    80000efe:	4fd6                	lw	t6,84(sp)

0000000080000f00 <i0000000103>:
    80000f00:	02a544b3          	div	s1,a0,a0

0000000080000f04 <i0000000104>:
    80000f04:	03b46bbb          	remw	s7,s0,s11

0000000080000f08 <i0000000105>:
    80000f08:	42675493          	sra	s1,a4,0x26

0000000080000f0c <i0000000106>:
    80000f0c:	812127af          	amomin.w	a5,s2,(sp)

0000000080000f10 <i0000000107>:
    80000f10:	d02503d3          	fcvt.s.l	ft7,a0,rne

0000000080000f14 <i0000000108>:
    80000f14:	0416                	sll	s0,s0,0x5

0000000080000f16 <i0000000109>:
    80000f16:	03014f03          	lbu	t5,48(sp)

0000000080000f1a <i000000010a>:
    80000f1a:	0756                	sll	a4,a4,0x15
    80000f1c:	48a5                	li	a7,9
    80000f1e:	4c29                	li	s8,10
    80000f20:	000df117          	auipc	sp,0xdf
    80000f24:	0e010113          	add	sp,sp,224 # 800e0000 <begin_signature>
    80000f28:	6339                	lui	t1,0xe
    80000f2a:	4a83031b          	addw	t1,t1,1192 # e4a8 <_tbss_end+0xe4a8>
    80000f2e:	911a                	add	sp,sp,t1
    80000f30:	00e1282f          	amoadd.w	a6,a4,(sp)
    80000f34:	02807fb3          	remu	t6,zero,s0
    80000f38:	ceba                	sw	a4,92(sp)
    80000f3a:	d2227753          	fcvt.d.l	fa4,tp
    80000f3e:	e20c8753          	fmv.x.d	a4,fs9
    80000f42:	d22ffcd3          	fcvt.d.l	fs9,t6
    80000f46:	00f13b2f          	amoadd.d	s6,a5,(sp)

0000000080000f4a <b000000010b>:
    80000f4a:	00000033          	add	zero,zero,zero
    80000f4e:	031c4863          	blt	s8,a7,80000f7e <i0000000110>
    80000f52:	00000033          	add	zero,zero,zero
    80000f56:	83b1                	srl	a5,a5,0xc
    80000f58:	4786                	lw	a5,64(sp)
    80000f5a:	c03e39d3          	fcvt.lu.s	s3,ft8,rup
    80000f5e:	6442                	ld	s0,16(sp)
    80000f60:	c22d7fd3          	fcvt.l.d	t6,fs10
    80000f64:	5422                	lw	s0,40(sp)
    80000f66:	417134af          	amoor.d	s1,s7,(sp)
    80000f6a:	4c29                	li	s8,10

0000000080000f6c <i000000010b>:
    80000f6c:	03261493          	sll	s1,a2,0x32

0000000080000f70 <i000000010c>:
    80000f70:	d026                	sw	s1,32(sp)

0000000080000f72 <i000000010d>:
    80000f72:	e19133af          	amomaxu.d	t2,s9,(sp)

0000000080000f76 <i000000010e>:
    80000f76:	00289f1b          	sllw	t5,a7,0x2

0000000080000f7a <i000000010f>:
    80000f7a:	9b5a7cc3          	fmadd.d	fs9,fs4,fs5,fs3

0000000080000f7e <i0000000110>:
    80000f7e:	c1512baf          	amominu.w	s7,s5,(sp)

0000000080000f82 <i0000000111>:
    80000f82:	034aefb3          	rem	t6,s5,s4

0000000080000f86 <i0000000112>:
    80000f86:	4091372f          	amoor.d	a4,s1,(sp)

0000000080000f8a <i0000000113>:
    80000f8a:	98215483          	lhu	s1,-1662(sp)

0000000080000f8e <i0000000114>:
    80000f8e:	08913faf          	amoswap.d	t6,s1,(sp)
    80000f92:	4fb1                	li	t6,12
    80000f94:	0c05                	add	s8,s8,1
    80000f96:	288c87d3          	fmin.s	fa5,fs9,fs0
    80000f9a:	c227fd53          	fcvt.l.d	s10,fa5
    80000f9e:	e0913e2f          	amomaxu.d	t3,s1,(sp)
    80000fa2:	5782                	lw	a5,32(sp)
    80000fa4:	8c41                	or	s0,s0,s0
    80000fa6:	715d                	add	sp,sp,-80
    80000fa8:	e00d17d3          	fclass.s	a5,fs10

0000000080000fac <b0000000115>:
    80000fac:	01fc0863          	beq	s8,t6,80000fbc <b0000000115+0x10>
    80000fb0:	00000f97          	auipc	t6,0x0
    80000fb4:	fcef8f93          	add	t6,t6,-50 # 80000f7e <i0000000110>
    80000fb8:	000f8567          	jalr	a0,t6
    80000fbc:	4c29                	li	s8,10
    80000fbe:	54a2                	lw	s1,40(sp)
    80000fc0:	8fc5                	or	a5,a5,s1
    80000fc2:	439cfccb          	fnmsub.d	fs9,fs9,fs9,fs0
    80000fc6:	41d1322f          	amoor.d	tp,t4,(sp)
    80000fca:	0ff0000f          	fence
    80000fce:	c091342f          	amominu.d	s0,s1,(sp)
    80000fd2:	003d1433          	sll	s0,s10,gp
    80000fd6:	000df117          	auipc	sp,0xdf
    80000fda:	02a10113          	add	sp,sp,42 # 800e0000 <begin_signature>
    80000fde:	6311                	lui	t1,0x4
    80000fe0:	b803031b          	addw	t1,t1,-1152 # 3b80 <_tbss_end+0x3b80>
    80000fe4:	911a                	add	sp,sp,t1

0000000080000fe6 <i0000000115>:
    80000fe6:	5b96                	lw	s7,100(sp)

0000000080000fe8 <i0000000116>:
    80000fe8:	2cf14903          	lbu	s2,719(sp)

0000000080000fec <i0000000117>:
    80000fec:	c2227553          	fcvt.l.d	a0,ft4

0000000080000ff0 <i0000000118>:
    80000ff0:	f2020e53          	fmv.d.x	ft8,tp
    80000ff4:	000df117          	auipc	sp,0xdf
    80000ff8:	00c10113          	add	sp,sp,12 # 800e0000 <begin_signature>
    80000ffc:	632d                	lui	t1,0xb
    80000ffe:	5683031b          	addw	t1,t1,1384 # b568 <_tbss_end+0xb568>
    80001002:	911a                	add	sp,sp,t1

0000000080001004 <i0000000119>:
    80001004:	c87e                	sw	t6,16(sp)

0000000080001006 <i000000011a>:
    80001006:	0ff0000f          	fence

000000008000100a <i000000011b>:
    8000100a:	e20f0fd3          	fmv.x.d	t6,ft10

000000008000100e <i000000011c>:
    8000100e:	41e4d513          	sra	a0,s1,0x1e

0000000080001012 <i000000011d>:
    80001012:	02fd68b3          	rem	a7,s10,a5

0000000080001016 <i000000011e>:
    80001016:	c8aa                	sw	a0,80(sp)
    80001018:	0000100f          	fence.i
    8000101c:	d03e87d3          	fcvt.s.lu	fa5,t4,rne
    80001020:	02e7023b          	mulw	tp,a4,a4
    80001024:	4af14b83          	lbu	s7,1199(sp)
    80001028:	c0e13caf          	amominu.d	s9,a4,(sp)
    8000102c:	d22ffc53          	fcvt.d.l	fs8,t6
    80001030:	a3f3a8d3          	feq.d	a7,ft7,ft11

0000000080001034 <b000000011f>:
    80001034:	02a0006f          	j	8000105e <i0000000124>
    80001038:	9f3d                	addw	a4,a4,a5
    8000103a:	cb97f847          	fmsub.d	fa6,fa5,fs9,fs9
    8000103e:	03ffcfbb          	divw	t6,t6,t6
    80001042:	63816703          	lwu	a4,1592(sp)
    80001046:	2b9407d3          	fmin.d	fa5,fs0,fs9
    8000104a:	b180a643          	fmadd.s	fa2,ft1,fs8,fs6,rdn
    8000104e:	2f4f8b93          	add	s7,t6,756

0000000080001052 <i000000011f>:
    80001052:	4a15                	li	s4,5

0000000080001054 <i0000000120>:
    80001054:	deda                	sw	s6,124(sp)

0000000080001056 <i0000000121>:
    80001056:	d22a                	sw	a0,36(sp)

0000000080001058 <i0000000122>:
    80001058:	854e                	mv	a0,s3

000000008000105a <i0000000123>:
    8000105a:	f2048453          	fmv.d.x	fs0,s1

000000008000105e <i0000000124>:
    8000105e:	0321e733          	rem	a4,gp,s2

0000000080001062 <i0000000125>:
    80001062:	014e5533          	srl	a0,t3,s4

0000000080001066 <i0000000126>:
    80001066:	d2257cd3          	fcvt.d.l	fs9,a0

000000008000106a <i0000000127>:
    8000106a:	02957fbb          	remuw	t6,a0,s1

000000008000106e <i0000000128>:
    8000106e:	1228                	add	a0,sp,296
    80001070:	4fa9                	li	t6,10
    80001072:	000df117          	auipc	sp,0xdf
    80001076:	f8e10113          	add	sp,sp,-114 # 800e0000 <begin_signature>
    8000107a:	6329                	lui	t1,0xa
    8000107c:	7703031b          	addw	t1,t1,1904 # a770 <_tbss_end+0xa770>
    80001080:	911a                	add	sp,sp,t1
    80001082:	000df117          	auipc	sp,0xdf
    80001086:	f7e10113          	add	sp,sp,-130 # 800e0000 <begin_signature>
    8000108a:	6311                	lui	t1,0x4
    8000108c:	e303031b          	addw	t1,t1,-464 # 3e30 <_tbss_end+0x3e30>
    80001090:	911a                	add	sp,sp,t1
    80001092:	000df117          	auipc	sp,0xdf
    80001096:	f6e10113          	add	sp,sp,-146 # 800e0000 <begin_signature>
    8000109a:	6335                	lui	t1,0xd
    8000109c:	b183031b          	addw	t1,t1,-1256 # cb18 <_tbss_end+0xcb18>
    800010a0:	911a                	add	sp,sp,t1
    800010a2:	dd312023          	sw	s3,-576(sp)
    800010a6:	e0f12827          	fsw	fa5,-496(sp)
    800010aa:	1220                	add	s0,sp,296
    800010ac:	e0e124af          	amomaxu.w	s1,a4,(sp)
    800010b0:	fae12023          	sw	a4,-96(sp)
    800010b4:	84de                	mv	s1,s7
    800010b6:	7131                	add	sp,sp,-192

00000000800010b8 <b0000000129>:
    800010b8:	01fc0463          	beq	s8,t6,800010c0 <b0000000129+0x8>
    800010bc:	fa3ff06f          	j	8000105e <i0000000124>
    800010c0:	4c29                	li	s8,10
    800010c2:	3ca6                	fld	fs9,104(sp)
    800010c4:	208c87d3          	fsgnj.s	fa5,fs9,fs0
    800010c8:	d22cf7d3          	fcvt.d.l	fa5,s9
    800010cc:	d222                	sw	s0,36(sp)
    800010ce:	c0e13daf          	amominu.d	s11,a4,(sp)
    800010d2:	6706                	ld	a4,64(sp)
    800010d4:	036a1e93          	sll	t4,s4,0x36

00000000800010d8 <i0000000129>:
    800010d8:	60912faf          	amoand.w	t6,s1,(sp)

00000000800010dc <i000000012a>:
    800010dc:	03f55d3b          	divuw	s10,a0,t6

00000000800010e0 <i000000012b>:
    800010e0:	9d19                	subw	a0,a0,a4

00000000800010e2 <i000000012c>:
    800010e2:	4146d53b          	sraw	a0,a3,s4

00000000800010e6 <i000000012d>:
    800010e6:	e2078fd3          	fmv.x.d	t6,fa5

00000000800010ea <i000000012e>:
    800010ea:	c2047fd3          	fcvt.w.d	t6,fs0

00000000800010ee <i000000012f>:
    800010ee:	dc2a                	sw	a0,56(sp)

00000000800010f0 <i0000000130>:
    800010f0:	3426                	fld	fs0,104(sp)

00000000800010f2 <i0000000131>:
    800010f2:	fc3e                	sd	a5,56(sp)

00000000800010f4 <i0000000132>:
    800010f4:	f09eac93          	slti	s9,t4,-247
    800010f8:	4e31                	li	t3,12
    800010fa:	0c05                	add	s8,s8,1
    800010fc:	000df117          	auipc	sp,0xdf
    80001100:	f0410113          	add	sp,sp,-252 # 800e0000 <begin_signature>
    80001104:	6309                	lui	t1,0x2
    80001106:	c683031b          	addw	t1,t1,-920 # 1c68 <_tbss_end+0x1c68>
    8000110a:	911a                	add	sp,sp,t1
    8000110c:	54a6                	lw	s1,104(sp)
    8000110e:	7135                	add	sp,sp,-160
    80001110:	8d4a                	mv	s10,s2
    80001112:	039bfebb          	remuw	t4,s7,s9
    80001116:	416a5f9b          	sraw	t6,s4,0x16
    8000111a:	3a913023          	sd	s1,928(sp)
    8000111e:	c01cb953          	fcvt.wu.s	s2,fs9,rup

0000000080001122 <b0000000133>:
    80001122:	01cc0863          	beq	s8,t3,80001132 <b0000000133+0x10>
    80001126:	00000e17          	auipc	t3,0x0
    8000112a:	fc4e0e13          	add	t3,t3,-60 # 800010ea <i000000012e>
    8000112e:	000e00e7          	jalr	t3
    80001132:	4c29                	li	s8,10
    80001134:	d6fe                	sw	t6,108(sp)
    80001136:	0038d23b          	srlw	tp,a7,gp
    8000113a:	d224ff53          	fcvt.d.l	ft10,s1
    8000113e:	d414879b          	addw	a5,s1,-703 # 1dd41 <_tbss_end+0x1dd41>
    80001142:	3d02                	fld	fs10,32(sp)
    80001144:	cd513c23          	sd	s5,-808(sp)
    80001148:	42fcf3c7          	fmsub.d	ft7,fs9,fa5,fs0

000000008000114c <i0000000133>:
    8000114c:	043d                	add	s0,s0,15

000000008000114e <i0000000134>:
    8000114e:	037374b3          	remu	s1,t1,s7

0000000080001152 <i0000000135>:
    80001152:	03f48f33          	mul	t5,s1,t6

0000000080001156 <i0000000136>:
    80001156:	a03e                	fsd	fa5,0(sp)

0000000080001158 <i0000000137>:
    80001158:	a3e89fd3          	flt.d	t6,fa7,ft10

000000008000115c <i0000000138>:
    8000115c:	9c89                	subw	s1,s1,a0

000000008000115e <i0000000139>:
    8000115e:	bd813c87          	fld	fs9,-1064(sp)

0000000080001162 <i000000013a>:
    80001162:	01b4                	add	a3,sp,200

0000000080001164 <i000000013b>:
    80001164:	4489                	li	s1,2
    80001166:	000df117          	auipc	sp,0xdf
    8000116a:	e9a10113          	add	sp,sp,-358 # 800e0000 <begin_signature>
    8000116e:	6305                	lui	t1,0x1
    80001170:	a803031b          	addw	t1,t1,-1408 # a80 <_tbss_end+0xa80>
    80001174:	911a                	add	sp,sp,t1

0000000080001176 <i000000013c>:
    80001176:	3562                	fld	fa0,56(sp)
    80001178:	4d81                	li	s11,0
    8000117a:	7af477c7          	fmsub.d	fa5,fs0,fa5,fa5
    8000117e:	01dbd913          	srl	s2,s7,0x1d
    80001182:	8f61                	and	a4,a4,s0
    80001184:	0000100f          	fence.i
    80001188:	9401                	sra	s0,s0,0x20
    8000118a:	8c7d                	and	s0,s0,a5
    8000118c:	21a12d2f          	amoxor.w	s10,s10,(sp)

0000000080001190 <b000000013d>:
    80001190:	00000033          	add	zero,zero,zero
    80001194:	05bc0163          	beq	s8,s11,800011d6 <i0000000142>
    80001198:	00000033          	add	zero,zero,zero
    8000119c:	028c88b3          	mul	a7,s9,s0
    800011a0:	a1d124af          	amomax.w	s1,t4,(sp)
    800011a4:	e1f1322f          	amomaxu.d	tp,t6,(sp)
    800011a8:	b8be                	fsd	fa5,112(sp)
    800011aa:	f20f8553          	fmv.d.x	fa0,t6
    800011ae:	00742fb3          	slt	t6,s0,t2
    800011b2:	c23cf8d3          	fcvt.lu.d	a7,fs9
    800011b6:	4c29                	li	s8,10

00000000800011b8 <i000000013d>:
    800011b8:	6109                	add	sp,sp,128

00000000800011ba <i000000013e>:
    800011ba:	c2257dd3          	fcvt.l.d	s11,fa0
    800011be:	000df117          	auipc	sp,0xdf
    800011c2:	e4210113          	add	sp,sp,-446 # 800e0000 <begin_signature>
    800011c6:	6339                	lui	t1,0xe
    800011c8:	3683031b          	addw	t1,t1,872 # e368 <_tbss_end+0xe368>
    800011cc:	911a                	add	sp,sp,t1

00000000800011ce <i000000013f>:
    800011ce:	c0fe                	sw	t6,64(sp)

00000000800011d0 <i0000000140>:
    800011d0:	023b7fbb          	remuw	t6,s6,gp

00000000800011d4 <i0000000141>:
    800011d4:	3621                	addw	a2,a2,-24

00000000800011d6 <i0000000142>:
    800011d6:	01f124af          	amoadd.w	s1,t6,(sp)

00000000800011da <i0000000143>:
    800011da:	9d05                	subw	a0,a0,s1

00000000800011dc <i0000000144>:
    800011dc:	a1f136af          	amomax.d	a3,t6,(sp)

00000000800011e0 <i0000000145>:
    800011e0:	029484b3          	mul	s1,s1,s1

00000000800011e4 <i0000000146>:
    800011e4:	3406                	fld	fs0,96(sp)
    800011e6:	49a9                	li	s3,10
    800011e8:	000df117          	auipc	sp,0xdf
    800011ec:	e1810113          	add	sp,sp,-488 # 800e0000 <begin_signature>
    800011f0:	632d                	lui	t1,0xb
    800011f2:	4d83031b          	addw	t1,t1,1240 # b4d8 <_tbss_end+0xb4d8>
    800011f6:	911a                	add	sp,sp,t1
    800011f8:	000df117          	auipc	sp,0xdf
    800011fc:	e0810113          	add	sp,sp,-504 # 800e0000 <begin_signature>
    80001200:	633d                	lui	t1,0xf
    80001202:	4f83031b          	addw	t1,t1,1272 # f4f8 <_tbss_end+0xf4f8>
    80001206:	911a                	add	sp,sp,t1
    80001208:	e1f121af          	amomaxu.w	gp,t6,(sp)
    8000120c:	c0343fd3          	fcvt.lu.s	t6,fs0,rup
    80001210:	f8f13c23          	sd	a5,-104(sp)
    80001214:	02977733          	remu	a4,a4,s1
    80001218:	58082353          	fsqrt.s	ft6,fa6,rdn
    8000121c:	68fd                	lui	a7,0x1f
    8000121e:	02e498b3          	mulh	a7,s1,a4

0000000080001222 <b0000000147>:
    80001222:	013c0463          	beq	s8,s3,8000122a <b0000000147+0x8>
    80001226:	fb1ff06f          	j	800011d6 <i0000000142>
    8000122a:	4c29                	li	s8,10
    8000122c:	6486                	ld	s1,64(sp)
    8000122e:	d02d3053          	fcvt.s.l	ft0,s10,rup
    80001232:	8321                	srl	a4,a4,0x8
    80001234:	2b869cd3          	fmax.d	fs9,fa3,fs8
    80001238:	8f59                	or	a4,a4,a4
    8000123a:	0000100f          	fence.i
    8000123e:	03ffd8b3          	divu	a7,t6,t6

0000000080001242 <i0000000147>:
    80001242:	9cb1                	addw	s1,s1,a2

0000000080001244 <i0000000148>:
    80001244:	9526                	add	a0,a0,s1

0000000080001246 <i0000000149>:
    80001246:	0592                	sll	a1,a1,0x4

0000000080001248 <i000000014a>:
    80001248:	3cce                	fld	fs9,240(sp)

000000008000124a <i000000014b>:
    8000124a:	00a49233          	sll	tp,s1,a0

000000008000124e <i000000014c>:
    8000124e:	2b9c9c53          	fmax.d	fs8,fs9,fs9

0000000080001252 <i000000014d>:
    80001252:	1121                	add	sp,sp,-24
    80001254:	e42e                	sd	a1,8(sp)
    80001256:	e832                	sd	a2,16(sp)
    80001258:	ec1a                	sd	t1,24(sp)
    8000125a:	00000617          	auipc	a2,0x0
    8000125e:	01460613          	add	a2,a2,20 # 8000126e <i000000014d+0x1c>
    80001262:	00000597          	auipc	a1,0x0
    80001266:	00858593          	add	a1,a1,8 # 8000126a <i000000014d+0x18>
    8000126a:	00260367          	jalr	t1,2(a2)
    8000126e:	0001                	nop
    80001270:	0001                	nop
    80001272:	65a2                	ld	a1,8(sp)
    80001274:	6642                	ld	a2,16(sp)
    80001276:	6362                	ld	t1,24(sp)
    80001278:	0161                	add	sp,sp,24

000000008000127a <i000000014e>:
    8000127a:	d0294453          	fcvt.s.l	fs0,s2,rmm

000000008000127e <i000000014f>:
    8000127e:	c3810503          	lb	a0,-968(sp)

0000000080001282 <i0000000150>:
    80001282:	0066d493          	srl	s1,a3,0x6

0000000080001286 <i0000000151>:
    80001286:	c622                	sw	s0,12(sp)
    80001288:	49b1                	li	s3,12
    8000128a:	4c29                	li	s8,10
    8000128c:	23572753          	fsgnjx.d	fa4,fa4,fs5
    80001290:	a1f1322f          	amomax.d	tp,t6,(sp)
    80001294:	c0344253          	fcvt.lu.s	tp,fs0,rmm
    80001298:	5d910ba3          	sb	s9,1495(sp)
    8000129c:	e20b0953          	fmv.x.d	s2,fs6
    800012a0:	60e124af          	amoand.w	s1,a4,(sp)
    800012a4:	0398c83b          	divw	a6,a7,s9

00000000800012a8 <b0000000152>:
    800012a8:	00000033          	add	zero,zero,zero
    800012ac:	033c4a63          	blt	s8,s3,800012e0 <i0000000157>
    800012b0:	00000033          	add	zero,zero,zero
    800012b4:	a041372f          	amomax.d	a4,tp,(sp)
    800012b8:	44013707          	fld	fa4,1088(sp)
    800012bc:	035b0a3b          	mulw	s4,s6,s5
    800012c0:	0091949b          	sllw	s1,gp,0x9
    800012c4:	9f39                	addw	a4,a4,a4
    800012c6:	c22474d3          	fcvt.l.d	s1,fs0
    800012ca:	03b2573b          	divuw	a4,tp,s11
    800012ce:	4c29                	li	s8,10

00000000800012d0 <i0000000152>:
    800012d0:	c237ffd3          	fcvt.lu.d	t6,fa5

00000000800012d4 <i0000000153>:
    800012d4:	cc36                	sw	a3,24(sp)

00000000800012d6 <i0000000154>:
    800012d6:	8ce1                	and	s1,s1,s0

00000000800012d8 <i0000000155>:
    800012d8:	c03c84d3          	fcvt.lu.s	s1,fs9,rne

00000000800012dc <i0000000156>:
    800012dc:	40fb0433          	sub	s0,s6,a5

00000000800012e0 <i0000000157>:
    800012e0:	1101                	add	sp,sp,-32

00000000800012e2 <i0000000158>:
    800012e2:	03a646b3          	div	a3,a2,s10

00000000800012e6 <i0000000159>:
    800012e6:	8e1d                	sub	a2,a2,a5

00000000800012e8 <i000000015a>:
    800012e8:	7135                	add	sp,sp,-160

00000000800012ea <i000000015b>:
    800012ea:	8545                	sra	a0,a0,0x11
    800012ec:	4dad                	li	s11,11
    800012ee:	4c29                	li	s8,10
    800012f0:	000df117          	auipc	sp,0xdf
    800012f4:	d1010113          	add	sp,sp,-752 # 800e0000 <begin_signature>
    800012f8:	6335                	lui	t1,0xd
    800012fa:	d903031b          	addw	t1,t1,-624 # cd90 <_tbss_end+0xcd90>
    800012fe:	911a                	add	sp,sp,t1
    80001300:	0ff0000f          	fence
    80001304:	0ff0000f          	fence
    80001308:	22878ed3          	fsgnj.d	ft9,fa5,fs0
    8000130c:	41c4d793          	sra	a5,s1,0x1c
    80001310:	c227fad3          	fcvt.l.d	s5,fa5
    80001314:	03745fb3          	divu	t6,s0,s7
    80001318:	a8913823          	sd	s1,-1392(sp)

000000008000131c <b000000015c>:
    8000131c:	00000033          	add	zero,zero,zero
    80001320:	038dd963          	bge	s11,s8,80001352 <i0000000161>
    80001324:	00000033          	add	zero,zero,zero
    80001328:	08812d2f          	amoswap.w	s10,s0,(sp)
    8000132c:	fa26                	sd	s1,304(sp)
    8000132e:	2442                	fld	fs0,16(sp)
    80001330:	a4be                	fsd	fa5,72(sp)
    80001332:	027e77b3          	remu	a5,t3,t2
    80001336:	03140fbb          	mulw	t6,s0,a7
    8000133a:	d4012883          	lw	a7,-704(sp)
    8000133e:	4c29                	li	s8,10

0000000080001340 <i000000015c>:
    80001340:	ca87fd4b          	fnmsub.d	fs10,fa5,fs0,fs9

0000000080001344 <i000000015d>:
    80001344:	01a67b33          	and	s6,a2,s10

0000000080001348 <i000000015e>:
    80001348:	22fc8e53          	fsgnj.d	ft8,fs9,fa5

000000008000134c <i000000015f>:
    8000134c:	4071252f          	amoor.w	a0,t2,(sp)

0000000080001350 <i0000000160>:
    80001350:	08ac                	add	a1,sp,88

0000000080001352 <i0000000161>:
    80001352:	9f09                	subw	a4,a4,a0
    80001354:	000df117          	auipc	sp,0xdf
    80001358:	cac10113          	add	sp,sp,-852 # 800e0000 <begin_signature>
    8000135c:	6335                	lui	t1,0xd
    8000135e:	6d03031b          	addw	t1,t1,1744 # d6d0 <_tbss_end+0xd6d0>
    80001362:	911a                	add	sp,sp,t1

0000000080001364 <i0000000162>:
    80001364:	e82a                	sd	a0,16(sp)

0000000080001366 <i0000000163>:
    80001366:	0000100f          	fence.i

000000008000136a <i0000000164>:
    8000136a:	e4a6                	sd	s1,72(sp)

000000008000136c <i0000000165>:
    8000136c:	3b06                	fld	fs6,96(sp)
    8000136e:	4eb1                	li	t4,12
    80001370:	0c05                	add	s8,s8,1
    80001372:	000df117          	auipc	sp,0xdf
    80001376:	c8e10113          	add	sp,sp,-882 # 800e0000 <begin_signature>
    8000137a:	6311                	lui	t1,0x4
    8000137c:	3b03031b          	addw	t1,t1,944 # 43b0 <_tbss_end+0x43b0>
    80001380:	911a                	add	sp,sp,t1
    80001382:	000df117          	auipc	sp,0xdf
    80001386:	c7e10113          	add	sp,sp,-898 # 800e0000 <begin_signature>
    8000138a:	6309                	lui	t1,0x2
    8000138c:	1283031b          	addw	t1,t1,296 # 2128 <_tbss_end+0x2128>
    80001390:	911a                	add	sp,sp,t1
    80001392:	03a84433          	div	s0,a6,s10
    80001396:	bf110983          	lb	s3,-1039(sp)
    8000139a:	615134af          	amoand.d	s1,s5,(sp)
    8000139e:	403bddbb          	sraw	s11,s7,gp
    800013a2:	a132                	fsd	fa2,128(sp)
    800013a4:	08e121af          	amoswap.w	gp,a4,(sp)
    800013a8:	87ba                	mv	a5,a4

00000000800013aa <b0000000166>:
    800013aa:	01dc0463          	beq	s8,t4,800013b2 <b0000000166+0x8>
    800013ae:	fa5ff06f          	j	80001352 <i0000000161>
    800013b2:	4c29                	li	s8,10
    800013b4:	d234f7d3          	fcvt.d.lu	fa5,s1
    800013b8:	a0312faf          	amomax.w	t6,gp,(sp)
    800013bc:	028be7bb          	remw	a5,s7,s0
    800013c0:	35ee                	fld	fa1,248(sp)
    800013c2:	0000100f          	fence.i
    800013c6:	409124af          	amoor.w	s1,s1,(sp)
    800013ca:	020984b3          	mul	s1,s3,zero

00000000800013ce <i0000000166>:
    800013ce:	f2030cd3          	fmv.d.x	fs9,t1

00000000800013d2 <i0000000167>:
    800013d2:	e20c8253          	fmv.x.d	tp,fs9

00000000800013d6 <i0000000168>:
    800013d6:	013121af          	amoadd.w	gp,s3,(sp)

00000000800013da <i0000000169>:
    800013da:	d2247cd3          	fcvt.d.l	fs9,s0

00000000800013de <i000000016a>:
    800013de:	8081252f          	amomin.w	a0,s0,(sp)

00000000800013e2 <i000000016b>:
    800013e2:	e20c8953          	fmv.x.d	s2,fs9

00000000800013e6 <i000000016c>:
    800013e6:	8d5ba013          	slti	zero,s7,-1835

00000000800013ea <i000000016d>:
    800013ea:	7506                	ld	a0,96(sp)

00000000800013ec <i000000016e>:
    800013ec:	8cf1                	and	s1,s1,a2

00000000800013ee <i000000016f>:
    800013ee:	40668033          	sub	zero,a3,t1
    800013f2:	4d25                	li	s10,9
    800013f4:	4c29                	li	s8,10
    800013f6:	000df117          	auipc	sp,0xdf
    800013fa:	c0a10113          	add	sp,sp,-1014 # 800e0000 <begin_signature>
    800013fe:	6329                	lui	t1,0xa
    80001400:	0483031b          	addw	t1,t1,72 # a048 <_tbss_end+0xa048>
    80001404:	911a                	add	sp,sp,t1
    80001406:	0343eab3          	rem	s5,t2,s4
    8000140a:	c0379cd3          	fcvt.lu.s	s9,fa5,rtz
    8000140e:	00efbcb3          	sltu	s9,t6,a4
    80001412:	3a816803          	lwu	a6,936(sp)
    80001416:	0000100f          	fence.i
    8000141a:	a0841453          	flt.s	s0,fs0,fs0
    8000141e:	e8a2                	sd	s0,80(sp)

0000000080001420 <b0000000170>:
    80001420:	00000033          	add	zero,zero,zero
    80001424:	058d5263          	bge	s10,s8,80001468 <i0000000175>
    80001428:	00000033          	add	zero,zero,zero
    8000142c:	0000100f          	fence.i
    80001430:	9bfe                	add	s7,s7,t6
    80001432:	e091392f          	amomaxu.d	s2,s1,(sp)
    80001436:	7fe2                	ld	t6,56(sp)
    80001438:	0ae57cd3          	fsub.d	fs9,fa0,fa4
    8000143c:	9ae13823          	sd	a4,-1616(sp)
    80001440:	54d1                	li	s1,-12
    80001442:	4c29                	li	s8,10

0000000080001444 <i0000000170>:
    80001444:	d22576d3          	fcvt.d.l	fa3,a0

0000000080001448 <i0000000171>:
    80001448:	82b10323          	sb	a1,-2010(sp)

000000008000144c <i0000000172>:
    8000144c:	00a54933          	xor	s2,a0,a0

0000000080001450 <i0000000173>:
    80001450:	401c7e53          	fcvt.s.d	ft8,fs8

0000000080001454 <i0000000174>:
    80001454:	d0910023          	sb	s1,-768(sp)
    80001458:	000df117          	auipc	sp,0xdf
    8000145c:	ba810113          	add	sp,sp,-1112 # 800e0000 <begin_signature>
    80001460:	6319                	lui	t1,0x6
    80001462:	f303031b          	addw	t1,t1,-208 # 5f30 <_tbss_end+0x5f30>
    80001466:	911a                	add	sp,sp,t1

0000000080001468 <i0000000175>:
    80001468:	c47a                	sw	t5,8(sp)

000000008000146a <i0000000176>:
    8000146a:	a161252f          	amomax.w	a0,s6,(sp)

000000008000146e <i0000000177>:
    8000146e:	6442                	ld	s0,16(sp)

0000000080001470 <i0000000178>:
    80001470:	c2377d53          	fcvt.lu.d	s10,fa4

0000000080001474 <i0000000179>:
    80001474:	4d411203          	lh	tp,1236(sp)
    80001478:	4bad                	li	s7,11
    8000147a:	4c29                	li	s8,10
    8000147c:	000df117          	auipc	sp,0xdf
    80001480:	b8410113          	add	sp,sp,-1148 # 800e0000 <begin_signature>
    80001484:	6319                	lui	t1,0x6
    80001486:	5f83031b          	addw	t1,t1,1528 # 65f8 <_tbss_end+0x65f8>
    8000148a:	911a                	add	sp,sp,t1
    8000148c:	28cf0853          	fmin.s	fa6,ft10,fa2
    80001490:	61f1342f          	amoand.d	s0,t6,(sp)
    80001494:	a1416f83          	lwu	t6,-1516(sp)
    80001498:	02eff83b          	remuw	a6,t6,a4
    8000149c:	02f8e4bb          	remw	s1,a7,a5
    800014a0:	3499                	addw	s1,s1,-26
    800014a2:	d2377c53          	fcvt.d.lu	fs8,a4

00000000800014a6 <b000000017a>:
    800014a6:	00000033          	add	zero,zero,zero
    800014aa:	037c1a63          	bne	s8,s7,800014de <i000000017f>
    800014ae:	00000033          	add	zero,zero,zero
    800014b2:	035da9b3          	mulhsu	s3,s11,s5
    800014b6:	2af79153          	fmax.d	ft2,fa5,fa5
    800014ba:	003c9993          	sll	s3,s9,0x3
    800014be:	716d                	add	sp,sp,-272
    800014c0:	87f109a3          	sb	t6,-1933(sp)
    800014c4:	d0127c53          	fcvt.s.wu	fs8,tp
    800014c8:	a7013307          	fld	ft6,-1424(sp)
    800014cc:	4c29                	li	s8,10

00000000800014ce <i000000017a>:
    800014ce:	25bd                	addw	a1,a1,15

00000000800014d0 <i000000017b>:
    800014d0:	c23cf7d3          	fcvt.lu.d	a5,fs9

00000000800014d4 <i000000017c>:
    800014d4:	57c2                	lw	a5,48(sp)

00000000800014d6 <i000000017d>:
    800014d6:	84013487          	fld	fs1,-1984(sp)

00000000800014da <i000000017e>:
    800014da:	a5f4ea93          	or	s5,s1,-1441

00000000800014de <i000000017f>:
    800014de:	f20203d3          	fmv.d.x	ft7,tp

00000000800014e2 <i0000000180>:
    800014e2:	9d0d                	subw	a0,a0,a1

00000000800014e4 <i0000000181>:
    800014e4:	6125                	add	sp,sp,96

00000000800014e6 <i0000000182>:
    800014e6:	8d0d                	sub	a0,a0,a1

00000000800014e8 <i0000000183>:
    800014e8:	0884                	add	s1,sp,80
    800014ea:	6766                	ld	a4,88(sp)
    800014ec:	409fd93b          	sraw	s2,t6,s1
    800014f0:	409124af          	amoor.w	s1,s1,(sp)
    800014f4:	02888eb3          	mul	t4,a7,s0
    800014f8:	4121873b          	subw	a4,gp,s2
    800014fc:	9ca1                	addw	s1,s1,s0
    800014fe:	c0f139af          	amominu.d	s3,a5,(sp)

0000000080001502 <b0000000184>:
    80001502:	00000b97          	auipc	s7,0x0
    80001506:	030b8b93          	add	s7,s7,48 # 80001532 <i0000000189>
    8000150a:	000b8067          	jr	s7
    8000150e:	b832                	fsd	fa2,48(sp)
    80001510:	6fd9                	lui	t6,0x16
    80001512:	0294ba33          	mulhu	s4,s1,s1
    80001516:	d03797d3          	fcvt.s.lu	fa5,a5,rtz
    8000151a:	98a9                	and	s1,s1,-22
    8000151c:	03f4ffbb          	remuw	t6,s1,t6
    80001520:	c02837d3          	fcvt.l.s	a5,fa6,rup

0000000080001524 <i0000000184>:
    80001524:	5542                	lw	a0,48(sp)

0000000080001526 <i0000000185>:
    80001526:	36815503          	lhu	a0,872(sp)

000000008000152a <i0000000186>:
    8000152a:	8200f7cf          	fnmadd.d	fa5,ft1,ft0,fa6

000000008000152e <i0000000187>:
    8000152e:	ce26                	sw	s1,28(sp)

0000000080001530 <i0000000188>:
    80001530:	8d25                	xor	a0,a0,s1

0000000080001532 <i0000000189>:
    80001532:	401cfcd3          	fcvt.s.d	fs9,fs9
    80001536:	000df117          	auipc	sp,0xdf
    8000153a:	aca10113          	add	sp,sp,-1334 # 800e0000 <begin_signature>
    8000153e:	6315                	lui	t1,0x5
    80001540:	3c03031b          	addw	t1,t1,960 # 53c0 <_tbss_end+0x53c0>
    80001544:	911a                	add	sp,sp,t1

0000000080001546 <i000000018a>:
    80001546:	2722                	fld	fa4,8(sp)

0000000080001548 <i000000018b>:
    80001548:	997d                	and	a0,a0,-1

000000008000154a <i000000018c>:
    8000154a:	c21c7ed3          	fcvt.wu.d	t4,fs8

000000008000154e <i000000018d>:
    8000154e:	64ee                	ld	s1,216(sp)
    80001550:	4a29                	li	s4,10
    80001552:	000df117          	auipc	sp,0xdf
    80001556:	aae10113          	add	sp,sp,-1362 # 800e0000 <begin_signature>
    8000155a:	6319                	lui	t1,0x6
    8000155c:	dc83031b          	addw	t1,t1,-568 # 5dc8 <_tbss_end+0x5dc8>
    80001560:	911a                	add	sp,sp,t1
    80001562:	4492                	lw	s1,4(sp)
    80001564:	40912e2f          	amoor.w	t3,s1,(sp)
    80001568:	e235fa4f          	fnmadd.d	fs4,fa1,ft3,ft8
    8000156c:	01f483bb          	addw	t2,s1,t6
    80001570:	712d                	add	sp,sp,-288
    80001572:	0ff0000f          	fence
    80001576:	6486                	ld	s1,64(sp)

0000000080001578 <b000000018e>:
    80001578:	014c0863          	beq	s8,s4,80001588 <b000000018e+0x10>
    8000157c:	00000a17          	auipc	s4,0x0
    80001580:	fb6a0a13          	add	s4,s4,-74 # 80001532 <i0000000189>
    80001584:	000a00e7          	jalr	s4
    80001588:	4c29                	li	s8,10
    8000158a:	e2913823          	sd	s1,-464(sp)
    8000158e:	0ff0000f          	fence
    80001592:	c02b9fd3          	fcvt.l.s	t6,fs7,rtz
    80001596:	d02483d3          	fcvt.s.l	ft7,s1,rne
    8000159a:	d2070a53          	fcvt.d.w	fs4,a4
    8000159e:	97c2                	add	a5,a5,a6
    800015a0:	0ff0000f          	fence

00000000800015a4 <i000000018e>:
    800015a4:	9d05                	subw	a0,a0,s1
    800015a6:	000df117          	auipc	sp,0xdf
    800015aa:	a5a10113          	add	sp,sp,-1446 # 800e0000 <begin_signature>
    800015ae:	6311                	lui	t1,0x4
    800015b0:	1b03031b          	addw	t1,t1,432 # 41b0 <_tbss_end+0x41b0>
    800015b4:	911a                	add	sp,sp,t1

00000000800015b6 <i000000018f>:
    800015b6:	6fee                	ld	t6,216(sp)

00000000800015b8 <i0000000190>:
    800015b8:	00a49fb3          	sll	t6,s1,a0

00000000800015bc <i0000000191>:
    800015bc:	c2aa                	sw	a0,68(sp)

00000000800015be <i0000000192>:
    800015be:	1a00                	add	s0,sp,304

00000000800015c0 <i0000000193>:
    800015c0:	da36                	sw	a3,52(sp)

00000000800015c2 <i0000000194>:
    800015c2:	714d                	add	sp,sp,-336

00000000800015c4 <i0000000195>:
    800015c4:	a0b2                	fsd	fa2,64(sp)

00000000800015c6 <i0000000196>:
    800015c6:	42a1                	li	t0,8

00000000800015c8 <i0000000197>:
    800015c8:	a13e                	fsd	fa5,128(sp)
    800015ca:	49a5                	li	s3,9
    800015cc:	9f05                	subw	a4,a4,s1
    800015ce:	e2ffe413          	or	s0,t6,-465
    800015d2:	2141342f          	amoxor.d	s0,s4,(sp)
    800015d6:	7726                	ld	a4,104(sp)
    800015d8:	e20c8fd3          	fmv.x.d	t6,fs9
    800015dc:	3622                	fld	fa2,40(sp)
    800015de:	d234f453          	fcvt.d.lu	fs0,s1

00000000800015e2 <b0000000198>:
    800015e2:	00000033          	add	zero,zero,zero
    800015e6:	fd3c4de3          	blt	s8,s3,800015c0 <i0000000193>
    800015ea:	00000033          	add	zero,zero,zero
    800015ee:	b93e049b          	addw	s1,t3,-1133
    800015f2:	00ef9913          	sll	s2,t6,0xe
    800015f6:	e3016803          	lwu	a6,-464(sp)
    800015fa:	d034fa53          	fcvt.s.lu	fs4,s1
    800015fe:	6071342f          	amoand.d	s0,t2,(sp)
    80001602:	289f0dd3          	fmin.s	fs11,ft10,fs1
    80001606:	009701b3          	add	gp,a4,s1
    8000160a:	4c29                	li	s8,10

000000008000160c <i0000000198>:
    8000160c:	d62a                	sw	a0,44(sp)

000000008000160e <i0000000199>:
    8000160e:	9f29                	addw	a4,a4,a0

0000000080001610 <i000000019a>:
    80001610:	1be8                	add	a0,sp,508

0000000080001612 <i000000019b>:
    80001612:	00205073          	fsrmi	zero,0

0000000080001616 <i000000019c>:
    80001616:	c227f4d3          	fcvt.l.d	s1,fa5

000000008000161a <i000000019d>:
    8000161a:	049a                	sll	s1,s1,0x6

000000008000161c <i000000019e>:
    8000161c:	06e2                	sll	a3,a3,0x18

000000008000161e <i000000019f>:
    8000161e:	8d45                	or	a0,a0,s1

0000000080001620 <i00000001a0>:
    80001620:	6111                	add	sp,sp,256

0000000080001622 <i00000001a1>:
    80001622:	3406                	fld	fs0,96(sp)

0000000080001624 <i00000001a2>:
    80001624:	c0b2                	sw	a2,64(sp)
    80001626:	49ad                	li	s3,11
    80001628:	0c05                	add	s8,s8,1
    8000162a:	035267bb          	remw	a5,tp,s5
    8000162e:	690d                	lui	s2,0x3
    80001630:	f43e                	sd	a5,40(sp)
    80001632:	9cbd                	addw	s1,s1,a5
    80001634:	d2e14d03          	lbu	s10,-722(sp)
    80001638:	01b3d49b          	srlw	s1,t2,0x1b
    8000163c:	02948fb3          	mul	t6,s1,s1

0000000080001640 <b00000001a3>:
    80001640:	00000033          	add	zero,zero,zero
    80001644:	fd3c0ce3          	beq	s8,s3,8000161c <i000000019e>
    80001648:	00000033          	add	zero,zero,zero
    8000164c:	8451                	sra	s0,s0,0x14
    8000164e:	c01107d3          	fcvt.wu.s	a5,ft2,rne
    80001652:	8779                	sra	a4,a4,0x1e
    80001654:	fca6                	sd	s1,120(sp)
    80001656:	02efcabb          	divw	s5,t6,a4
    8000165a:	e2050253          	fmv.x.d	tp,fa0
    8000165e:	03ffeb3b          	remw	s6,t6,t6
    80001662:	4c29                	li	s8,10

0000000080001664 <i00000001a3>:
    80001664:	892d                	and	a0,a0,11

0000000080001666 <i00000001a4>:
    80001666:	b4b2                	fsd	fa2,104(sp)

0000000080001668 <i00000001a5>:
    80001668:	3422                	fld	fs0,40(sp)

000000008000166a <i00000001a6>:
    8000166a:	f20501d3          	fmv.d.x	ft3,a0

000000008000166e <i00000001a7>:
    8000166e:	09c4                	add	s1,sp,212

0000000080001670 <i00000001a8>:
    80001670:	009fc4b3          	xor	s1,t6,s1

0000000080001674 <i00000001a9>:
    80001674:	4562                	lw	a0,24(sp)

0000000080001676 <i00000001aa>:
    80001676:	4916                	lw	s2,68(sp)

0000000080001678 <i00000001ab>:
    80001678:	1711                	add	a4,a4,-28 # 8823b5e8 <_end+0x8148ce7>

000000008000167a <i00000001ac>:
    8000167a:	7165                	add	sp,sp,-400
    8000167c:	4c81                	li	s9,0
    8000167e:	000df117          	auipc	sp,0xdf
    80001682:	98210113          	add	sp,sp,-1662 # 800e0000 <begin_signature>
    80001686:	6309                	lui	t1,0x2
    80001688:	a183031b          	addw	t1,t1,-1512 # 1a18 <_tbss_end+0x1a18>
    8000168c:	911a                	add	sp,sp,t1
    8000168e:	02045db3          	divu	s11,s0,zero
    80001692:	ba913023          	sd	s1,-1120(sp)
    80001696:	41f13eaf          	amoor.d	t4,t6,(sp)
    8000169a:	0000100f          	fence.i
    8000169e:	0ff0000f          	fence
    800016a2:	7a8473cf          	fnmadd.d	ft7,fs0,fs0,fa5
    800016a6:	d02b0453          	fcvt.s.l	fs0,s6,rne

00000000800016aa <b00000001ad>:
    800016aa:	00000033          	add	zero,zero,zero
    800016ae:	059c0863          	beq	s8,s9,800016fe <i00000001b2>
    800016b2:	00000033          	add	zero,zero,zero
    800016b6:	a822                	fsd	fs0,16(sp)
    800016b8:	9c01                	subw	s0,s0,s0
    800016ba:	80e22ec7          	fmsub.s	ft9,ft4,fa4,fa6,rdn
    800016be:	fcba                	sd	a4,120(sp)
    800016c0:	e20784d3          	fmv.x.d	s1,fa5
    800016c4:	80c16803          	lwu	a6,-2036(sp)
    800016c8:	03f7443b          	divw	s0,a4,t6
    800016cc:	4c29                	li	s8,10
    800016ce:	000df117          	auipc	sp,0xdf
    800016d2:	93210113          	add	sp,sp,-1742 # 800e0000 <begin_signature>
    800016d6:	6311                	lui	t1,0x4
    800016d8:	bd83031b          	addw	t1,t1,-1064 # 3bd8 <_tbss_end+0x3bd8>
    800016dc:	911a                	add	sp,sp,t1

00000000800016de <i00000001ad>:
    800016de:	d82a                	sw	a0,48(sp)

00000000800016e0 <i00000001ae>:
    800016e0:	d2150453          	fcvt.d.wu	fs0,a0

00000000800016e4 <i00000001af>:
    800016e4:	005bc3b3          	xor	t2,s7,t0

00000000800016e8 <i00000001b0>:
    800016e8:	1141                	add	sp,sp,-16
    800016ea:	e416                	sd	t0,8(sp)
    800016ec:	e832                	sd	a2,16(sp)
    800016ee:	828a                	mv	t0,sp
    800016f0:	00c2b1a3          	sd	a2,3(t0)
    800016f4:	62a2                	ld	t0,8(sp)
    800016f6:	6642                	ld	a2,16(sp)
    800016f8:	0141                	add	sp,sp,16

00000000800016fa <i00000001b1>:
    800016fa:	009fee33          	or	t3,t6,s1

00000000800016fe <i00000001b2>:
    800016fe:	cebfcf93          	xor	t6,t6,-789

0000000080001702 <i00000001b3>:
    80001702:	f2050953          	fmv.d.x	fs2,a0

0000000080001706 <i00000001b4>:
    80001706:	09f4                	add	a3,sp,220

0000000080001708 <i00000001b5>:
    80001708:	02fc                	add	a5,sp,332

000000008000170a <i00000001b6>:
    8000170a:	7119                	add	sp,sp,-128

000000008000170c <i00000001b7>:
    8000170c:	055e                	sll	a0,a0,0x17
    8000170e:	4e31                	li	t3,12
    80001710:	4c29                	li	s8,10
    80001712:	000df117          	auipc	sp,0xdf
    80001716:	8ee10113          	add	sp,sp,-1810 # 800e0000 <begin_signature>
    8000171a:	6325                	lui	t1,0x9
    8000171c:	e283031b          	addw	t1,t1,-472 # 8e28 <_tbss_end+0x8e28>
    80001720:	911a                	add	sp,sp,t1
    80001722:	1af474d3          	fdiv.d	fs1,fs0,fa5
    80001726:	603138af          	amoand.d	a7,gp,(sp)
    8000172a:	1020                	add	s0,sp,40
    8000172c:	0ff0000f          	fence
    80001730:	22f787d3          	fmv.d	fa5,fa5
    80001734:	83b5                	srl	a5,a5,0xd
    80001736:	60912faf          	amoand.w	t6,s1,(sp)

000000008000173a <b00000001b8>:
    8000173a:	00000033          	add	zero,zero,zero
    8000173e:	05cc4763          	blt	s8,t3,8000178c <i00000001bd>
    80001742:	00000033          	add	zero,zero,zero
    80001746:	2a840453          	fmin.d	fs0,fs0,fs0
    8000174a:	9c25                	addw	s0,s0,s1
    8000174c:	02e4ea3b          	remw	s4,s1,a4
    80001750:	64a2                	ld	s1,8(sp)
    80001752:	0044                	add	s1,sp,4
    80001754:	9cbd                	addw	s1,s1,a5
    80001756:	d2277453          	fcvt.d.l	fs0,a4
    8000175a:	4c29                	li	s8,10

000000008000175c <i00000001b8>:
    8000175c:	00788533          	add	a0,a7,t2

0000000080001760 <i00000001b9>:
    80001760:	e20986d3          	fmv.x.d	a3,fs3

0000000080001764 <i00000001ba>:
    80001764:	4397f0cb          	fnmsub.d	ft1,fa5,fs9,fs0

0000000080001768 <i00000001bb>:
    80001768:	f026                	sd	s1,32(sp)
    8000176a:	000df117          	auipc	sp,0xdf
    8000176e:	89610113          	add	sp,sp,-1898 # 800e0000 <begin_signature>
    80001772:	6339                	lui	t1,0xe
    80001774:	a903031b          	addw	t1,t1,-1392 # da90 <_tbss_end+0xda90>
    80001778:	911a                	add	sp,sp,t1

000000008000177a <i00000001bc>:
    8000177a:	da7e                	sw	t6,52(sp)
    8000177c:	000df117          	auipc	sp,0xdf
    80001780:	88410113          	add	sp,sp,-1916 # 800e0000 <begin_signature>
    80001784:	6321                	lui	t1,0x8
    80001786:	0c83031b          	addw	t1,t1,200 # 80c8 <_tbss_end+0x80c8>
    8000178a:	911a                	add	sp,sp,t1

000000008000178c <i00000001bd>:
    8000178c:	a8e6                	fsd	fs9,80(sp)

000000008000178e <i00000001be>:
    8000178e:	05de                	sll	a1,a1,0x17

0000000080001790 <i00000001bf>:
    80001790:	36a6                	fld	fa3,104(sp)

0000000080001792 <i00000001c0>:
    80001792:	9cbd                	addw	s1,s1,a5

0000000080001794 <i00000001c1>:
    80001794:	00235073          	fsrmi	zero,6
    80001798:	000df117          	auipc	sp,0xdf
    8000179c:	86810113          	add	sp,sp,-1944 # 800e0000 <begin_signature>
    800017a0:	6305                	lui	t1,0x1
    800017a2:	6003031b          	addw	t1,t1,1536 # 1600 <_tbss_end+0x1600>
    800017a6:	911a                	add	sp,sp,t1

00000000800017a8 <i00000001c2>:
    800017a8:	6626                	ld	a2,72(sp)
    800017aa:	4d31                	li	s10,12
    800017ac:	0c05                	add	s8,s8,1
    800017ae:	219137af          	amoxor.d	a5,s9,(sp)
    800017b2:	070e                	sll	a4,a4,0x3
    800017b4:	f4013783          	ld	a5,-192(sp)
    800017b8:	4432                	lw	s0,12(sp)
    800017ba:	51013b83          	ld	s7,1296(sp)
    800017be:	5448a793          	slti	a5,a7,1348
    800017c2:	7d013423          	sd	a6,1992(sp)

00000000800017c6 <b00000001c3>:
    800017c6:	00000033          	add	zero,zero,zero
    800017ca:	fd8d52e3          	bge	s10,s8,8000178e <i00000001be>
    800017ce:	00000033          	add	zero,zero,zero
    800017d2:	80e12faf          	amomin.w	t6,a4,(sp)
    800017d6:	01bc                	add	a5,sp,200
    800017d8:	64e6                	ld	s1,88(sp)
    800017da:	e2048bd3          	fmv.x.d	s7,fs1
    800017de:	81f1372f          	amomin.d	a4,t6,(sp)
    800017e2:	d00f9cd3          	fcvt.s.w	fs9,t6,rtz
    800017e6:	c43e                	sw	a5,8(sp)
    800017e8:	4c29                	li	s8,10

00000000800017ea <i00000001c3>:
    800017ea:	f2048cd3          	fmv.d.x	fs9,s1
    800017ee:	000df117          	auipc	sp,0xdf
    800017f2:	81210113          	add	sp,sp,-2030 # 800e0000 <begin_signature>
    800017f6:	6325                	lui	t1,0x9
    800017f8:	3f83031b          	addw	t1,t1,1016 # 93f8 <_tbss_end+0x93f8>
    800017fc:	911a                	add	sp,sp,t1

00000000800017fe <i00000001c4>:
    800017fe:	54c2                	lw	s1,48(sp)

0000000080001800 <i00000001c5>:
    80001800:	2ec3e513          	or	a0,t2,748

0000000080001804 <i00000001c6>:
    80001804:	7fa2                	ld	t6,40(sp)

0000000080001806 <i00000001c7>:
    80001806:	1141                	add	sp,sp,-16
    80001808:	e42a                	sd	a0,8(sp)
    8000180a:	e802                	sd	zero,16(sp)
    8000180c:	850a                	mv	a0,sp
    8000180e:	00353003          	ld	zero,3(a0) # 34b73003 <_tbss_end+0x34b73003>
    80001812:	6522                	ld	a0,8(sp)
    80001814:	01013003          	ld	zero,16(sp)
    80001818:	0141                	add	sp,sp,16

000000008000181a <i00000001c8>:
    8000181a:	7502                	ld	a0,32(sp)

000000008000181c <i00000001c9>:
    8000181c:	048a                	sll	s1,s1,0x2

000000008000181e <i00000001ca>:
    8000181e:	80d1                	srl	s1,s1,0x14

0000000080001820 <i00000001cb>:
    80001820:	f20f06d3          	fmv.d.x	fa3,t5

0000000080001824 <i00000001cc>:
    80001824:	04c6                	sll	s1,s1,0x11

0000000080001826 <i00000001cd>:
    80001826:	c23df553          	fcvt.lu.d	a0,fs11
    8000182a:	0ec14783          	lbu	a5,236(sp)
    8000182e:	017a5a9b          	srlw	s5,s4,0x17
    80001832:	f20f8553          	fmv.d.x	fa0,t6
    80001836:	0ff0000f          	fence
    8000183a:	80e129af          	amomin.w	s3,a4,(sp)
    8000183e:	f4314483          	lbu	s1,-189(sp)
    80001842:	03144bb3          	div	s7,s0,a7

0000000080001846 <b00000001ce>:
    80001846:	02a0056f          	jal	a0,80001870 <i00000001d3>
    8000184a:	40b7541b          	sraw	s0,a4,0xb
    8000184e:	c039cfd3          	fcvt.lu.s	t6,fs3,rmm
    80001852:	e20f0053          	fmv.x.d	zero,ft10
    80001856:	416fd713          	sra	a4,t6,0x16
    8000185a:	c23bf753          	fcvt.lu.d	a4,fs7
    8000185e:	e101372f          	amomaxu.d	a4,a6,(sp)
    80001862:	827e                	mv	tp,t6

0000000080001864 <i00000001ce>:
    80001864:	8d45                	or	a0,a0,s1

0000000080001866 <i00000001cf>:
    80001866:	8ffe                	mv	t6,t6

0000000080001868 <i00000001d0>:
    80001868:	34e6                	fld	fs1,120(sp)

000000008000186a <i00000001d1>:
    8000186a:	aca2                	fsd	fs0,88(sp)

000000008000186c <i00000001d2>:
    8000186c:	c233ff53          	fcvt.lu.d	t5,ft7

0000000080001870 <i00000001d3>:
    80001870:	24b1                	addw	s1,s1,12

0000000080001872 <i00000001d4>:
    80001872:	c217ffd3          	fcvt.wu.d	t6,fa5

0000000080001876 <i00000001d5>:
    80001876:	8505                	sra	a0,a0,0x1

0000000080001878 <i00000001d6>:
    80001878:	8489                	sra	s1,s1,0x2

000000008000187a <i00000001d7>:
    8000187a:	070e                	sll	a4,a4,0x3
    8000187c:	000de117          	auipc	sp,0xde
    80001880:	78410113          	add	sp,sp,1924 # 800e0000 <begin_signature>
    80001884:	6315                	lui	t1,0x5
    80001886:	6303031b          	addw	t1,t1,1584 # 5630 <_tbss_end+0x5630>
    8000188a:	911a                	add	sp,sp,t1
    8000188c:	0000100f          	fence.i
    80001890:	0ff0000f          	fence
    80001894:	0294dfb3          	divu	t6,s1,s1
    80001898:	e1f12faf          	amomaxu.w	t6,t6,(sp)
    8000189c:	80e134af          	amomin.d	s1,a4,(sp)
    800018a0:	44b6                	lw	s1,76(sp)
    800018a2:	a02e                	fsd	fa1,0(sp)

00000000800018a4 <b00000001d8>:
    800018a4:	00000c97          	auipc	s9,0x0
    800018a8:	02cc8c93          	add	s9,s9,44 # 800018d0 <i00000001dd>
    800018ac:	000c8567          	jalr	a0,s9
    800018b0:	02e73733          	mulhu	a4,a4,a4
    800018b4:	83ed                	srl	a5,a5,0x1b
    800018b6:	ca4a                	sw	s2,20(sp)
    800018b8:	d83a                	sw	a4,48(sp)
    800018ba:	9fc2                	add	t6,t6,a6
    800018bc:	0891292f          	amoswap.w	s2,s1,(sp)
    800018c0:	a422                	fsd	fs0,8(sp)

00000000800018c2 <i00000001d8>:
    800018c2:	00235073          	fsrmi	zero,6

00000000800018c6 <i00000001d9>:
    800018c6:	c2207fd3          	fcvt.l.d	t6,ft0

00000000800018ca <i00000001da>:
    800018ca:	2402                	fld	fs0,0(sp)

00000000800018cc <i00000001db>:
    800018cc:	9d09                	subw	a0,a0,a0

00000000800018ce <i00000001dc>:
    800018ce:	74a6                	ld	s1,104(sp)

00000000800018d0 <i00000001dd>:
    800018d0:	37f5                	addw	a5,a5,-3
    800018d2:	000de117          	auipc	sp,0xde
    800018d6:	72e10113          	add	sp,sp,1838 # 800e0000 <begin_signature>
    800018da:	633d                	lui	t1,0xf
    800018dc:	cc03031b          	addw	t1,t1,-832 # ecc0 <_tbss_end+0xecc0>
    800018e0:	911a                	add	sp,sp,t1

00000000800018e2 <i00000001de>:
    800018e2:	4566                	lw	a0,88(sp)

00000000800018e4 <i00000001df>:
    800018e4:	1beef453          	fdiv.d	fs0,ft9,ft10

00000000800018e8 <i00000001e0>:
    800018e8:	6111                	add	sp,sp,256

00000000800018ea <i00000001e1>:
    800018ea:	00215073          	fsrmi	zero,2
    800018ee:	000de117          	auipc	sp,0xde
    800018f2:	71210113          	add	sp,sp,1810 # 800e0000 <begin_signature>
    800018f6:	6329                	lui	t1,0xa
    800018f8:	9983031b          	addw	t1,t1,-1640 # 9998 <_tbss_end+0x9998>
    800018fc:	911a                	add	sp,sp,t1

00000000800018fe <i00000001e2>:
    800018fe:	31013207          	fld	ft4,784(sp)

0000000080001902 <i00000001e3>:
    80001902:	84fe                	mv	s1,t6
    80001904:	4da5                	li	s11,9
    80001906:	4c29                	li	s8,10
    80001908:	000de117          	auipc	sp,0xde
    8000190c:	6f810113          	add	sp,sp,1784 # 800e0000 <begin_signature>
    80001910:	630d                	lui	t1,0x3
    80001912:	a083031b          	addw	t1,t1,-1528 # 2a08 <_tbss_end+0x2a08>
    80001916:	911a                	add	sp,sp,t1
    80001918:	61aa                	ld	gp,136(sp)
    8000191a:	016f9813          	sll	a6,t6,0x16
    8000191e:	21f134af          	amoxor.d	s1,t6,(sp)
    80001922:	d2207553          	fcvt.d.l	fa0,zero
    80001926:	01371793          	sll	a5,a4,0x13
    8000192a:	0000100f          	fence.i
    8000192e:	c1f13e2f          	amominu.d	t3,t6,(sp)

0000000080001932 <b00000001e4>:
    80001932:	00000033          	add	zero,zero,zero
    80001936:	038dd663          	bge	s11,s8,80001962 <i00000001e9>
    8000193a:	00000033          	add	zero,zero,zero
    8000193e:	873a                	mv	a4,a4
    80001940:	5aa2                	lw	s5,40(sp)
    80001942:	03744033          	div	zero,s0,s7
    80001946:	a2fca4d3          	feq.d	s1,fs9,fa5
    8000194a:	8c59                	or	s0,s0,a4
    8000194c:	8f7d                	and	a4,a4,a5
    8000194e:	a2e69fd3          	flt.d	t6,fa3,fa4
    80001952:	4c29                	li	s8,10

0000000080001954 <i00000001e4>:
    80001954:	aac90f93          	add	t6,s2,-1364 # 2aac <_tbss_end+0x2aac>

0000000080001958 <i00000001e5>:
    80001958:	08e4                	add	s1,sp,92

000000008000195a <i00000001e6>:
    8000195a:	0850                	add	a2,sp,20

000000008000195c <i00000001e7>:
    8000195c:	00c73533          	sltu	a0,a4,a2

0000000080001960 <i00000001e8>:
    80001960:	c83a                	sw	a4,16(sp)

0000000080001962 <i00000001e9>:
    80001962:	8cc5                	or	s1,s1,s1

0000000080001964 <i00000001ea>:
    80001964:	35f1                	addw	a1,a1,-4

0000000080001966 <i00000001eb>:
    80001966:	99ae                	add	s3,s3,a1

0000000080001968 <i00000001ec>:
    80001968:	4782                	lw	a5,0(sp)

000000008000196a <i00000001ed>:
    8000196a:	e2078453          	fmv.x.d	s0,fa5
    8000196e:	4ba9                	li	s7,10
    80001970:	0831202f          	amoswap.w	zero,gp,(sp)
    80001974:	20412caf          	amoxor.w	s9,tp,(sp)
    80001978:	027243bb          	divw	t2,tp,t2
    8000197c:	e126                	sd	s1,128(sp)
    8000197e:	aa912823          	sw	s1,-1360(sp)
    80001982:	21cb1453          	fsgnjn.s	fs0,fs6,ft8
    80001986:	67513023          	sd	s5,1632(sp)

000000008000198a <b00000001ee>:
    8000198a:	00000033          	add	zero,zero,zero
    8000198e:	037c0f63          	beq	s8,s7,800019cc <i00000001f3>
    80001992:	00000033          	add	zero,zero,zero
    80001996:	009f893b          	addw	s2,t6,s1
    8000199a:	82813c27          	fsd	fs0,-1992(sp)
    8000199e:	f6011023          	sh	zero,-160(sp)
    800019a2:	c1112faf          	amominu.w	t6,a7,(sp)
    800019a6:	00970cbb          	addw	s9,a4,s1
    800019aa:	7179                	add	sp,sp,-48
    800019ac:	8c45                	or	s0,s0,s1
    800019ae:	4c29                	li	s8,10

00000000800019b0 <i00000001ee>:
    800019b0:	7121                	add	sp,sp,-448

00000000800019b2 <i00000001ef>:
    800019b2:	9868                	.insn	2, 0x9868

00000000800019b4 <i00000001f0>:
    800019b4:	00c4                	add	s1,sp,68

00000000800019b6 <i00000001f1>:
    800019b6:	40a55b33          	sra	s6,a0,a0

00000000800019ba <i00000001f2>:
    800019ba:	7562                	ld	a0,56(sp)
    800019bc:	000de117          	auipc	sp,0xde
    800019c0:	64410113          	add	sp,sp,1604 # 800e0000 <begin_signature>
    800019c4:	6311                	lui	t1,0x4
    800019c6:	b503031b          	addw	t1,t1,-1200 # 3b50 <_tbss_end+0x3b50>
    800019ca:	911a                	add	sp,sp,t1

00000000800019cc <i00000001f3>:
    800019cc:	dc813c27          	fsd	fs0,-552(sp)

00000000800019d0 <i00000001f4>:
    800019d0:	00cb3533          	sltu	a0,s6,a2

00000000800019d4 <i00000001f5>:
    800019d4:	8ca5                	xor	s1,s1,s1

00000000800019d6 <i00000001f6>:
    800019d6:	a78fff93          	and	t6,t6,-1416

00000000800019da <i00000001f7>:
    800019da:	37c2                	fld	fa5,48(sp)
    800019dc:	000de117          	auipc	sp,0xde
    800019e0:	62410113          	add	sp,sp,1572 # 800e0000 <begin_signature>
    800019e4:	6305                	lui	t1,0x1
    800019e6:	5883031b          	addw	t1,t1,1416 # 1588 <_tbss_end+0x1588>
    800019ea:	911a                	add	sp,sp,t1

00000000800019ec <i00000001f8>:
    800019ec:	c626                	sw	s1,12(sp)
    800019ee:	4e31                	li	t3,12
    800019f0:	0c05                	add	s8,s8,1
    800019f2:	0294db33          	divu	s6,s1,s1
    800019f6:	c037ccd3          	fcvt.lu.s	s9,fa5,rmm
    800019fa:	5f85                	li	t6,-31
    800019fc:	1bdc                	add	a5,sp,500
    800019fe:	02975fbb          	divuw	t6,a4,s1
    80001a02:	e0011f83          	lh	t6,-512(sp)
    80001a06:	c227fdd3          	fcvt.l.d	s11,fa5

0000000080001a0a <b00000001f9>:
    80001a0a:	00000033          	add	zero,zero,zero
    80001a0e:	fdcc11e3          	bne	s8,t3,800019d0 <i00000001f4>
    80001a12:	00000033          	add	zero,zero,zero
    80001a16:	039974bb          	remuw	s1,s2,s9
    80001a1a:	f0813183          	ld	gp,-248(sp)
    80001a1e:	03f74233          	div	tp,a4,t6
    80001a22:	439476c3          	fmadd.d	fa3,fs0,fs9,fs0
    80001a26:	029f9233          	mulh	tp,t6,s1
    80001a2a:	0452                	sll	s0,s0,0x14
    80001a2c:	5ca6                	lw	s9,104(sp)
    80001a2e:	4c29                	li	s8,10

0000000080001a30 <i00000001f9>:
    80001a30:	0021d073          	fsrmi	zero,3

0000000080001a34 <i00000001fa>:
    80001a34:	7f86                	ld	t6,96(sp)

0000000080001a36 <i00000001fb>:
    80001a36:	01ab3833          	sltu	a6,s6,s10

0000000080001a3a <i00000001fc>:
    80001a3a:	c23d74d3          	fcvt.lu.d	s1,fs10
    80001a3e:	000de117          	auipc	sp,0xde
    80001a42:	5c210113          	add	sp,sp,1474 # 800e0000 <begin_signature>
    80001a46:	6311                	lui	t1,0x4
    80001a48:	c883031b          	addw	t1,t1,-888 # 3c88 <_tbss_end+0x3c88>
    80001a4c:	911a                	add	sp,sp,t1

0000000080001a4e <i00000001fd>:
    80001a4e:	a9fa                	fsd	ft10,208(sp)

0000000080001a50 <i00000001fe>:
    80001a50:	d2158d53          	fcvt.d.wu	fs10,a1

0000000080001a54 <i00000001ff>:
    80001a54:	807d                	srl	s0,s0,0x1f

0000000080001a56 <i0000000200>:
    80001a56:	3686                	fld	fa3,96(sp)

0000000080001a58 <i0000000201>:
    80001a58:	8f9fe0ef          	jal	80000350 <func1>

0000000080001a5c <i0000000202>:
    80001a5c:	3626                	fld	fa2,104(sp)

0000000080001a5e <i0000000203>:
    80001a5e:	87a1                	sra	a5,a5,0x8

0000000080001a60 <i0000000204>:
    80001a60:	6606                	ld	a2,64(sp)
    80001a62:	4d29                	li	s10,10
    80001a64:	6746                	ld	a4,80(sp)
    80001a66:	e09127af          	amomaxu.w	a5,s1,(sp)
    80001a6a:	401b7753          	fcvt.s.d	fa4,fs6
    80001a6e:	409fd9bb          	sraw	s3,t6,s1
    80001a72:	a0fca753          	feq.s	a4,fs9,fa5
    80001a76:	ca812483          	lw	s1,-856(sp)
    80001a7a:	2766                	fld	fa4,88(sp)

0000000080001a7c <b0000000205>:
    80001a7c:	01ac0863          	beq	s8,s10,80001a8c <b0000000205+0x10>
    80001a80:	00000d17          	auipc	s10,0x0
    80001a84:	fd6d0d13          	add	s10,s10,-42 # 80001a56 <i0000000200>
    80001a88:	000d0067          	jr	s10
    80001a8c:	4c29                	li	s8,10
    80001a8e:	01f707b3          	add	a5,a4,t6
    80001a92:	f8ba                	sd	a4,112(sp)
    80001a94:	03187733          	remu	a4,a6,a7
    80001a98:	710d                	add	sp,sp,-352
    80001a9a:	0283e7b3          	rem	a5,t2,s0
    80001a9e:	02fe0db3          	mul	s11,t3,a5
    80001aa2:	03f72a33          	mulhsu	s4,a4,t6

0000000080001aa6 <i0000000205>:
    80001aa6:	d23df7d3          	fcvt.d.lu	fa5,s11

0000000080001aaa <i0000000206>:
    80001aaa:	1260                	add	s0,sp,300

0000000080001aac <i0000000207>:
    80001aac:	1110                	add	a2,sp,160

0000000080001aae <i0000000208>:
    80001aae:	6121                	add	sp,sp,64

0000000080001ab0 <i0000000209>:
    80001ab0:	7129                	add	sp,sp,-320

0000000080001ab2 <i000000020a>:
    80001ab2:	a9ba                	fsd	fa4,208(sp)

0000000080001ab4 <i000000020b>:
    80001ab4:	f02a                	sd	a0,32(sp)

0000000080001ab6 <i000000020c>:
    80001ab6:	1a8cfcd3          	fdiv.d	fs9,fs9,fs0

0000000080001aba <i000000020d>:
    80001aba:	e1432493          	slti	s1,t1,-492

0000000080001abe <i000000020e>:
    80001abe:	8e5d                	or	a2,a2,a5
    80001ac0:	4881                	li	a7,0
    80001ac2:	000de117          	auipc	sp,0xde
    80001ac6:	53e10113          	add	sp,sp,1342 # 800e0000 <begin_signature>
    80001aca:	6325                	lui	t1,0x9
    80001acc:	2283031b          	addw	t1,t1,552 # 9228 <_tbss_end+0x9228>
    80001ad0:	911a                	add	sp,sp,t1
    80001ad2:	b1610903          	lb	s2,-1258(sp)
    80001ad6:	e5e15c83          	lhu	s9,-418(sp)
    80001ada:	78013c23          	sd	zero,1944(sp)
    80001ade:	11ff97cb          	fnmsub.s	fa5,ft11,ft11,ft2,rtz
    80001ae2:	18d8                	add	a4,sp,116
    80001ae4:	d02d47d3          	fcvt.s.l	fa5,s10,rmm
    80001ae8:	a14124af          	amomax.w	s1,s4,(sp)

0000000080001aec <b000000020f>:
    80001aec:	00000033          	add	zero,zero,zero
    80001af0:	031c0963          	beq	s8,a7,80001b22 <i0000000214>
    80001af4:	00000033          	add	zero,zero,zero
    80001af8:	809124af          	amomin.w	s1,s1,(sp)
    80001afc:	d01b90d3          	fcvt.s.wu	ft1,s7,rtz
    80001b00:	c2247e53          	fcvt.l.d	t3,fs0
    80001b04:	d5f13823          	sd	t6,-688(sp)
    80001b08:	413b5f9b          	sraw	t6,s6,0x13
    80001b0c:	03ffe4b3          	rem	s1,t6,t6
    80001b10:	02e48e3b          	mulw	t3,s1,a4
    80001b14:	4c29                	li	s8,10

0000000080001b16 <i000000020f>:
    80001b16:	7131                	add	sp,sp,-192

0000000080001b18 <i0000000210>:
    80001b18:	228c87d3          	fsgnj.d	fa5,fs9,fs0

0000000080001b1c <i0000000211>:
    80001b1c:	4742                	lw	a4,16(sp)

0000000080001b1e <i0000000212>:
    80001b1e:	612d                	add	sp,sp,224

0000000080001b20 <i0000000213>:
    80001b20:	832d                	srl	a4,a4,0xb

0000000080001b22 <i0000000214>:
    80001b22:	c23474d3          	fcvt.lu.d	s1,fs0

0000000080001b26 <i0000000215>:
    80001b26:	d23a7cd3          	fcvt.d.lu	fs9,s4

0000000080001b2a <i0000000216>:
    80001b2a:	c436                	sw	a3,8(sp)

0000000080001b2c <i0000000217>:
    80001b2c:	409fdab3          	sra	s5,t6,s1

0000000080001b30 <i0000000218>:
    80001b30:	821fe0ef          	jal	80000350 <func1>

0000000080001b34 <i0000000219>:
    80001b34:	6121                	add	sp,sp,64
    80001b36:	089124af          	amoswap.w	s1,s1,(sp)
    80001b3a:	c03c74d3          	fcvt.lu.s	s1,fs8
    80001b3e:	8cdd                	or	s1,s1,a5
    80001b40:	1a24                	add	s1,sp,312
    80001b42:	27948f9b          	addw	t6,s1,633
    80001b46:	412e04b3          	sub	s1,t3,s2
    80001b4a:	60013daf          	amoand.d	s11,zero,(sp)

0000000080001b4e <b000000021a>:
    80001b4e:	03e0006f          	j	80001b8c <i000000021f>
    80001b52:	41de54bb          	sraw	s1,t3,t4
    80001b56:	03a007b3          	mul	a5,zero,s10
    80001b5a:	09a128af          	amoswap.w	a7,s10,(sp)
    80001b5e:	02e7443b          	divw	s0,a4,a4
    80001b62:	f6013d03          	ld	s10,-160(sp)
    80001b66:	e0040ad3          	fmv.x.w	s5,fs0
    80001b6a:	00e12d2f          	amoadd.w	s10,a4,(sp)

0000000080001b6e <i000000021a>:
    80001b6e:	a39c82d3          	fle.d	t0,fs9,fs9

0000000080001b72 <i000000021b>:
    80001b72:	548d                	li	s1,-29

0000000080001b74 <i000000021c>:
    80001b74:	d2387cd3          	fcvt.d.lu	fs9,a6
    80001b78:	000de117          	auipc	sp,0xde
    80001b7c:	48810113          	add	sp,sp,1160 # 800e0000 <begin_signature>
    80001b80:	6329                	lui	t1,0xa
    80001b82:	1d03031b          	addw	t1,t1,464 # a1d0 <_tbss_end+0xa1d0>
    80001b86:	911a                	add	sp,sp,t1

0000000080001b88 <i000000021d>:
    80001b88:	4402                	lw	s0,0(sp)

0000000080001b8a <i000000021e>:
    80001b8a:	7109                	add	sp,sp,-384

0000000080001b8c <i000000021f>:
    80001b8c:	56c2                	lw	a3,48(sp)

0000000080001b8e <i0000000220>:
    80001b8e:	0546                	sll	a0,a0,0x11
    80001b90:	000de117          	auipc	sp,0xde
    80001b94:	47010113          	add	sp,sp,1136 # 800e0000 <begin_signature>
    80001b98:	6325                	lui	t1,0x9
    80001b9a:	2783031b          	addw	t1,t1,632 # 9278 <_tbss_end+0x9278>
    80001b9e:	911a                	add	sp,sp,t1

0000000080001ba0 <i0000000221>:
    80001ba0:	a4aa                	fsd	fa0,72(sp)

0000000080001ba2 <i0000000222>:
    80001ba2:	00b51793          	sll	a5,a0,0xb

0000000080001ba6 <i0000000223>:
    80001ba6:	9f11                	subw	a4,a4,a2
    80001ba8:	41c1272f          	amoor.w	a4,t3,(sp)
    80001bac:	03ffd7bb          	divuw	a5,t6,t6
    80001bb0:	843103a3          	sb	gp,-1977(sp)
    80001bb4:	e00411d3          	fclass.s	gp,fs0
    80001bb8:	1a847153          	fdiv.d	ft2,fs0,fs0
    80001bbc:	640a                	ld	s0,128(sp)
    80001bbe:	029fdbb3          	divu	s7,t6,s1

0000000080001bc2 <b0000000224>:
    80001bc2:	00000817          	auipc	a6,0x0
    80001bc6:	04480813          	add	a6,a6,68 # 80001c06 <i0000000229>
    80001bca:	000800e7          	jalr	a6
    80001bce:	13817453          	fmul.d	fs0,ft2,fs8
    80001bd2:	092134af          	amoswap.d	s1,s2,(sp)
    80001bd6:	29db02d3          	fmin.s	ft5,fs6,ft9
    80001bda:	83de                	mv	t2,s7
    80001bdc:	a1f12d2f          	amomax.w	s10,t6,(sp)
    80001be0:	ca3e                	sw	a5,20(sp)
    80001be2:	d5012403          	lw	s0,-688(sp)

0000000080001be6 <i0000000224>:
    80001be6:	12f477d3          	fmul.d	fa5,fs0,fa5
    80001bea:	000de117          	auipc	sp,0xde
    80001bee:	41610113          	add	sp,sp,1046 # 800e0000 <begin_signature>
    80001bf2:	6339                	lui	t1,0xe
    80001bf4:	7303031b          	addw	t1,t1,1840 # e730 <_tbss_end+0xe730>
    80001bf8:	911a                	add	sp,sp,t1

0000000080001bfa <i0000000225>:
    80001bfa:	5592                	lw	a1,36(sp)

0000000080001bfc <i0000000226>:
    80001bfc:	d2287cd3          	fcvt.d.l	fs9,a6

0000000080001c00 <i0000000227>:
    80001c00:	c2347353          	fcvt.lu.d	t1,fs0

0000000080001c04 <i0000000228>:
    80001c04:	716d                	add	sp,sp,-272

0000000080001c06 <i0000000229>:
    80001c06:	c026                	sw	s1,0(sp)

0000000080001c08 <i000000022a>:
    80001c08:	9f8e                	add	t6,t6,gp

0000000080001c0a <i000000022b>:
    80001c0a:	002e9a93          	sll	s5,t4,0x2

0000000080001c0e <i000000022c>:
    80001c0e:	0023d073          	fsrmi	zero,7

0000000080001c12 <i000000022d>:
    80001c12:	c22cf4d3          	fcvt.l.d	s1,fs9

0000000080001c16 <i000000022e>:
    80001c16:	a28414d3          	flt.d	s1,fs0,fs0
    80001c1a:	4ea9                	li	t4,10
    80001c1c:	000de117          	auipc	sp,0xde
    80001c20:	3e410113          	add	sp,sp,996 # 800e0000 <begin_signature>
    80001c24:	633d                	lui	t1,0xf
    80001c26:	7003031b          	addw	t1,t1,1792 # f700 <_tbss_end+0xf700>
    80001c2a:	911a                	add	sp,sp,t1
    80001c2c:	6fe2                	ld	t6,24(sp)
    80001c2e:	0000100f          	fence.i
    80001c32:	010b903b          	sllw	zero,s7,a6
    80001c36:	3fc16703          	lwu	a4,1020(sp)
    80001c3a:	f4be                	sd	a5,104(sp)
    80001c3c:	9fa1                	addw	a5,a5,s0
    80001c3e:	41c9503b          	sraw	zero,s2,t3

0000000080001c42 <b000000022f>:
    80001c42:	01dc0863          	beq	s8,t4,80001c52 <b000000022f+0x10>
    80001c46:	00000e97          	auipc	t4,0x0
    80001c4a:	fc2e8e93          	add	t4,t4,-62 # 80001c08 <i000000022a>
    80001c4e:	000e8067          	jr	t4
    80001c52:	4c29                	li	s8,10
    80001c54:	80412baf          	amomin.w	s7,tp,(sp)
    80001c58:	d03e2ed3          	fcvt.s.lu	ft9,t3,rdn
    80001c5c:	0ff0000f          	fence
    80001c60:	d5812c87          	flw	fs9,-680(sp)
    80001c64:	0000100f          	fence.i
    80001c68:	e1a137af          	amomaxu.d	a5,s10,(sp)
    80001c6c:	f5816783          	lwu	a5,-168(sp)

0000000080001c70 <i000000022f>:
    80001c70:	d22ff7d3          	fcvt.d.l	fa5,t6

0000000080001c74 <i0000000230>:
    80001c74:	55d2                	lw	a1,52(sp)

0000000080001c76 <i0000000231>:
    80001c76:	7145                	add	sp,sp,-464

0000000080001c78 <i0000000232>:
    80001c78:	0094efb3          	or	t6,s1,s1

0000000080001c7c <i0000000233>:
    80001c7c:	6165                	add	sp,sp,112

0000000080001c7e <i0000000234>:
    80001c7e:	a9aa                	fsd	fa0,208(sp)

0000000080001c80 <i0000000235>:
    80001c80:	c225f653          	fcvt.l.d	a2,fa1

0000000080001c84 <i0000000236>:
    80001c84:	0088                	add	a0,sp,64

0000000080001c86 <i0000000237>:
    80001c86:	02fcf453          	fadd.d	fs0,fs9,fa5

0000000080001c8a <i0000000238>:
    80001c8a:	7151                	add	sp,sp,-240
    80001c8c:	2411                	addw	s0,s0,4
    80001c8e:	02970933          	mul	s2,a4,s1
    80001c92:	408124af          	amoor.w	s1,s0,(sp)
    80001c96:	9c1d                	subw	s0,s0,a5
    80001c98:	873a                	mv	a4,a4
    80001c9a:	60913d2f          	amoand.d	s10,s1,(sp)
    80001c9e:	e5fe                	sd	t6,200(sp)

0000000080001ca0 <b0000000239>:
    80001ca0:	00000e17          	auipc	t3,0x0
    80001ca4:	02ee0e13          	add	t3,t3,46 # 80001cce <i000000023e>
    80001ca8:	000e00e7          	jalr	t3
    80001cac:	d0378453          	fcvt.s.lu	fs0,a5,rne
    80001cb0:	a8a2                	fsd	fs0,80(sp)
    80001cb2:	407fdf9b          	sraw	t6,t6,0x7
    80001cb6:	029fb7b3          	mulhu	a5,t6,s1
    80001cba:	03241fb3          	mulh	t6,s0,s2
    80001cbe:	772e                	ld	a4,232(sp)
    80001cc0:	7111                	add	sp,sp,-256

0000000080001cc2 <i0000000239>:
    80001cc2:	8155                	srl	a0,a0,0x15

0000000080001cc4 <i000000023a>:
    80001cc4:	edd2                	sd	s4,216(sp)

0000000080001cc6 <i000000023b>:
    80001cc6:	03257cd3          	fadd.d	fs9,fa0,fs2

0000000080001cca <i000000023c>:
    80001cca:	0bfc                	add	a5,sp,476

0000000080001ccc <i000000023d>:
    80001ccc:	ed02                	sd	zero,152(sp)

0000000080001cce <i000000023e>:
    80001cce:	96a6                	add	a3,a3,s1

0000000080001cd0 <i000000023f>:
    80001cd0:	6f8a                	ld	t6,128(sp)

0000000080001cd2 <i0000000240>:
    80001cd2:	d2277cd3          	fcvt.d.l	fs9,a4

0000000080001cd6 <i0000000241>:
    80001cd6:	2e0a                	fld	ft8,128(sp)

0000000080001cd8 <i0000000242>:
    80001cd8:	110c                	add	a1,sp,160
    80001cda:	4a2d                	li	s4,11
    80001cdc:	4c29                	li	s8,10
    80001cde:	c111382f          	amominu.d	a6,a7,(sp)
    80001ce2:	51c6                	lw	gp,112(sp)
    80001ce4:	c23cffd3          	fcvt.lu.d	t6,fs9
    80001ce8:	b522                	fsd	fs0,168(sp)
    80001cea:	4752                	lw	a4,20(sp)
    80001cec:	e2098fd3          	fmv.x.d	t6,fs3
    80001cf0:	3451                	addw	s0,s0,-12

0000000080001cf2 <b0000000243>:
    80001cf2:	00000033          	add	zero,zero,zero
    80001cf6:	038a5863          	bge	s4,s8,80001d26 <i0000000248>
    80001cfa:	00000033          	add	zero,zero,zero
    80001cfe:	57c2                	lw	a5,48(sp)
    80001d00:	0bdc                	add	a5,sp,468
    80001d02:	87f9                	sra	a5,a5,0x1e
    80001d04:	0399603b          	remw	zero,s2,s9
    80001d08:	01141fbb          	sllw	t6,s0,a7
    80001d0c:	c0377fd3          	fcvt.lu.s	t6,fa4
    80001d10:	a2f78b53          	fle.d	s6,fa5,fa5
    80001d14:	4c29                	li	s8,10

0000000080001d16 <i0000000243>:
    80001d16:	b022                	fsd	fs0,32(sp)

0000000080001d18 <i0000000244>:
    80001d18:	0023d073          	fsrmi	zero,7

0000000080001d1c <i0000000245>:
    80001d1c:	7482                	ld	s1,32(sp)

0000000080001d1e <i0000000246>:
    80001d1e:	e2049fd3          	fclass.d	t6,fs1

0000000080001d22 <i0000000247>:
    80001d22:	e2efe0ef          	jal	80000350 <func1>

0000000080001d26 <i0000000248>:
    80001d26:	c237f4d3          	fcvt.lu.d	s1,fa5

0000000080001d2a <i0000000249>:
    80001d2a:	04f6                	sll	s1,s1,0x1d

0000000080001d2c <i000000024a>:
    80001d2c:	222a                	fld	ft4,136(sp)
    80001d2e:	000de117          	auipc	sp,0xde
    80001d32:	2d210113          	add	sp,sp,722 # 800e0000 <begin_signature>
    80001d36:	6329                	lui	t1,0xa
    80001d38:	2403031b          	addw	t1,t1,576 # a240 <_tbss_end+0xa240>
    80001d3c:	911a                	add	sp,sp,t1

0000000080001d3e <i000000024b>:
    80001d3e:	54a2                	lw	s1,40(sp)

0000000080001d40 <i000000024c>:
    80001d40:	4f8d                	li	t6,3

0000000080001d42 <i000000024d>:
    80001d42:	c0a6                	sw	s1,64(sp)

0000000080001d44 <i000000024e>:
    80001d44:	e2078553          	fmv.x.d	a0,fa5
    80001d48:	4d29                	li	s10,10
    80001d4a:	d8efccc3          	fmadd.s	fs9,ft11,fa4,fs11,rmm
    80001d4e:	3451                	addw	s0,s0,-12
    80001d50:	6165                	add	sp,sp,112
    80001d52:	fe016c83          	lwu	s9,-32(sp)
    80001d56:	0a415e03          	lhu	t3,164(sp)
    80001d5a:	027929b3          	mulhsu	s3,s2,t2
    80001d5e:	35ce                	fld	fa1,240(sp)

0000000080001d60 <b000000024f>:
    80001d60:	00000033          	add	zero,zero,zero
    80001d64:	03ac0d63          	beq	s8,s10,80001d9e <i0000000254>
    80001d68:	00000033          	add	zero,zero,zero
    80001d6c:	bca2                	fsd	fs0,120(sp)
    80001d6e:	640a                	ld	s0,128(sp)
    80001d70:	cc26                	sw	s1,24(sp)
    80001d72:	a0912aaf          	amomax.w	s5,s1,(sp)
    80001d76:	8f5d                	or	a4,a4,a5
    80001d78:	ec8e                	sd	gp,88(sp)
    80001d7a:	c2347fd3          	fcvt.lu.d	t6,fs0
    80001d7e:	4c29                	li	s8,10

0000000080001d80 <i000000024f>:
    80001d80:	08c4                	add	s1,sp,84

0000000080001d82 <i0000000250>:
    80001d82:	857e                	mv	a0,t6

0000000080001d84 <i0000000251>:
    80001d84:	133377d3          	fmul.d	fa5,ft6,fs3

0000000080001d88 <i0000000252>:
    80001d88:	a37ba453          	feq.d	s0,fs7,fs7

0000000080001d8c <i0000000253>:
    80001d8c:	34e9                	addw	s1,s1,-6
    80001d8e:	000de117          	auipc	sp,0xde
    80001d92:	27210113          	add	sp,sp,626 # 800e0000 <begin_signature>
    80001d96:	6315                	lui	t1,0x5
    80001d98:	6483031b          	addw	t1,t1,1608 # 5648 <_tbss_end+0x5648>
    80001d9c:	911a                	add	sp,sp,t1

0000000080001d9e <i0000000254>:
    80001d9e:	46c2                	lw	a3,16(sp)

0000000080001da0 <i0000000255>:
    80001da0:	d02a                	sw	a0,32(sp)

0000000080001da2 <i0000000256>:
    80001da2:	3502                	fld	fa0,32(sp)

0000000080001da4 <i0000000257>:
    80001da4:	41f4d4b3          	sra	s1,s1,t6

0000000080001da8 <i0000000258>:
    80001da8:	a4e6                	fsd	fs9,72(sp)
    80001daa:	4901                	li	s2,0
    80001dac:	96e15f83          	lhu	t6,-1682(sp)
    80001db0:	7a313823          	sd	gp,1968(sp)
    80001db4:	0338dcbb          	divuw	s9,a7,s3
    80001db8:	03f70cbb          	mulw	s9,a4,t6
    80001dbc:	031db4b3          	mulhu	s1,s11,a7
    80001dc0:	7462                	ld	s0,56(sp)
    80001dc2:	5432                	lw	s0,44(sp)

0000000080001dc4 <b0000000259>:
    80001dc4:	00000033          	add	zero,zero,zero
    80001dc8:	fd2c0be3          	beq	s8,s2,80001d9e <i0000000254>
    80001dcc:	00000033          	add	zero,zero,zero
    80001dd0:	4212                	lw	tp,4(sp)
    80001dd2:	4321d993          	sra	s3,gp,0x32
    80001dd6:	48914c83          	lbu	s9,1161(sp)
    80001dda:	189c0453          	fdiv.s	fs0,fs8,fs1,rne
    80001dde:	40127f53          	fcvt.s.d	ft10,ft4
    80001de2:	0233d4bb          	divuw	s1,t2,gp
    80001de6:	c0913faf          	amominu.d	t6,s1,(sp)
    80001dea:	4c29                	li	s8,10

0000000080001dec <i0000000259>:
    80001dec:	d228f2d3          	fcvt.d.l	ft5,a7

0000000080001df0 <i000000025a>:
    80001df0:	6109                	add	sp,sp,128

0000000080001df2 <i000000025b>:
    80001df2:	4542                	lw	a0,16(sp)
    80001df4:	000de117          	auipc	sp,0xde
    80001df8:	20c10113          	add	sp,sp,524 # 800e0000 <begin_signature>
    80001dfc:	6329                	lui	t1,0xa
    80001dfe:	ac03031b          	addw	t1,t1,-1344 # 9ac0 <_tbss_end+0x9ac0>
    80001e02:	911a                	add	sp,sp,t1

0000000080001e04 <i000000025c>:
    80001e04:	c226                	sw	s1,4(sp)

0000000080001e06 <i000000025d>:
    80001e06:	1161                	add	sp,sp,-8
    80001e08:	e42a                	sd	a0,8(sp)
    80001e0a:	4501                	li	a0,0
    80001e0c:	00056503          	lwu	a0,0(a0)
    80001e10:	6522                	ld	a0,8(sp)
    80001e12:	0121                	add	sp,sp,8

0000000080001e14 <i000000025e>:
    80001e14:	11e8                	add	a0,sp,236

0000000080001e16 <i000000025f>:
    80001e16:	caf7f1c3          	fmadd.d	ft3,fa5,fa5,fs9

0000000080001e1a <i0000000260>:
    80001e1a:	a39797d3          	flt.d	a5,fa5,fs9

0000000080001e1e <i0000000261>:
    80001e1e:	d20f8953          	fcvt.d.w	fs2,t6
    80001e22:	000de117          	auipc	sp,0xde
    80001e26:	1de10113          	add	sp,sp,478 # 800e0000 <begin_signature>
    80001e2a:	6315                	lui	t1,0x5
    80001e2c:	c303031b          	addw	t1,t1,-976 # 4c30 <_tbss_end+0x4c30>
    80001e30:	911a                	add	sp,sp,t1

0000000080001e32 <i0000000262>:
    80001e32:	f026                	sd	s1,32(sp)
    80001e34:	000de117          	auipc	sp,0xde
    80001e38:	1cc10113          	add	sp,sp,460 # 800e0000 <begin_signature>
    80001e3c:	6325                	lui	t1,0x9
    80001e3e:	6283031b          	addw	t1,t1,1576 # 9628 <_tbss_end+0x9628>
    80001e42:	911a                	add	sp,sp,t1

0000000080001e44 <i0000000263>:
    80001e44:	7646                	ld	a2,112(sp)
    80001e46:	4a31                	li	s4,12
    80001e48:	0c05                	add	s8,s8,1
    80001e4a:	c23af1d3          	fcvt.lu.d	gp,fs5
    80001e4e:	5d015b03          	lhu	s6,1488(sp)
    80001e52:	09a128af          	amoswap.w	a7,s10,(sp)
    80001e56:	02f26933          	rem	s2,tp,a5
    80001e5a:	e20c87d3          	fmv.x.d	a5,fs9
    80001e5e:	410ad733          	sra	a4,s5,a6
    80001e62:	02eff73b          	remuw	a4,t6,a4

0000000080001e66 <b0000000264>:
    80001e66:	014c0863          	beq	s8,s4,80001e76 <b0000000264+0x10>
    80001e6a:	00000a17          	auipc	s4,0x0
    80001e6e:	faca0a13          	add	s4,s4,-84 # 80001e16 <i000000025f>
    80001e72:	000a0067          	jr	s4
    80001e76:	4c29                	li	s8,10
    80001e78:	288407d3          	fmin.s	fa5,fs0,fs0
    80001e7c:	f20f85d3          	fmv.d.x	fa1,t6
    80001e80:	01199f93          	sll	t6,s3,0x11
    80001e84:	03f494b3          	mulh	s1,s1,t6
    80001e88:	029fc73b          	divw	a4,t6,s1
    80001e8c:	000ef4b3          	and	s1,t4,zero
    80001e90:	1a8cf3d3          	fdiv.d	ft7,fs9,fs0

0000000080001e94 <i0000000264>:
    80001e94:	11d0                	add	a2,sp,228

0000000080001e96 <i0000000265>:
    80001e96:	716d                	add	sp,sp,-272

0000000080001e98 <i0000000266>:
    80001e98:	4d45ae13          	slti	t3,a1,1236

0000000080001e9c <i0000000267>:
    80001e9c:	d2377453          	fcvt.d.lu	fs0,a4

0000000080001ea0 <i0000000268>:
    80001ea0:	8e5d                	or	a2,a2,a5

0000000080001ea2 <i0000000269>:
    80001ea2:	857e                	mv	a0,t6

0000000080001ea4 <i000000026a>:
    80001ea4:	e276                	sd	t4,256(sp)

0000000080001ea6 <i000000026b>:
    80001ea6:	c237f4d3          	fcvt.lu.d	s1,fa5

0000000080001eaa <i000000026c>:
    80001eaa:	ca6fe0ef          	jal	80000350 <func1>

0000000080001eae <i000000026d>:
    80001eae:	40a505b3          	sub	a1,a0,a0

0000000080001eb2 <i000000026e>:
    80001eb2:	d23d7453          	fcvt.d.lu	fs0,s10
    80001eb6:	4e31                	li	t3,12
    80001eb8:	0c05                	add	s8,s8,1
    80001eba:	8c59                	or	s0,s0,a4
    80001ebc:	40bfd713          	sra	a4,t6,0xb
    80001ec0:	0399acb3          	mulhsu	s9,s3,s9
    80001ec4:	f1d2                	sd	s4,224(sp)
    80001ec6:	d034f453          	fcvt.s.lu	fs0,s1
    80001eca:	d23a7e53          	fcvt.d.lu	ft8,s4
    80001ece:	2031392f          	amoxor.d	s2,gp,(sp)

0000000080001ed2 <b000000026f>:
    80001ed2:	00000033          	add	zero,zero,zero
    80001ed6:	fdcc47e3          	blt	s8,t3,80001ea4 <i000000026a>
    80001eda:	00000033          	add	zero,zero,zero
    80001ede:	42013703          	ld	a4,1056(sp)
    80001ee2:	21512faf          	amoxor.w	t6,s5,(sp)
    80001ee6:	007123af          	amoadd.w	t2,t2,(sp)
    80001eea:	0297003b          	mulw	zero,a4,s1
    80001eee:	e2030fd3          	fmv.x.d	t6,ft6
    80001ef2:	e1f1292f          	amomaxu.w	s2,t6,(sp)
    80001ef6:	0000100f          	fence.i
    80001efa:	4c29                	li	s8,10

0000000080001efc <i000000026f>:
    80001efc:	c43e                	sw	a5,8(sp)

0000000080001efe <i0000000270>:
    80001efe:	86b9                	sra	a3,a3,0xe

0000000080001f00 <i0000000271>:
    80001f00:	8111                	srl	a0,a0,0x4

0000000080001f02 <i0000000272>:
    80001f02:	27a9                	addw	a5,a5,10
    80001f04:	000de117          	auipc	sp,0xde
    80001f08:	0fc10113          	add	sp,sp,252 # 800e0000 <begin_signature>
    80001f0c:	633d                	lui	t1,0xf
    80001f0e:	6503031b          	addw	t1,t1,1616 # f650 <_tbss_end+0xf650>
    80001f12:	911a                	add	sp,sp,t1

0000000080001f14 <i0000000273>:
    80001f14:	44b2                	lw	s1,12(sp)

0000000080001f16 <i0000000274>:
    80001f16:	e20c8553          	fmv.x.d	a0,fs9

0000000080001f1a <i0000000275>:
    80001f1a:	8cbd                	xor	s1,s1,a5

0000000080001f1c <i0000000276>:
    80001f1c:	b34af443          	fmadd.d	fs0,fs5,fs4,fs6

0000000080001f20 <i0000000277>:
    80001f20:	e5aa                	sd	a0,200(sp)

0000000080001f22 <i0000000278>:
    80001f22:	762fef93          	or	t6,t6,1890
    80001f26:	000de117          	auipc	sp,0xde
    80001f2a:	0da10113          	add	sp,sp,218 # 800e0000 <begin_signature>
    80001f2e:	6335                	lui	t1,0xd
    80001f30:	b503031b          	addw	t1,t1,-1200 # cb50 <_tbss_end+0xcb50>
    80001f34:	911a                	add	sp,sp,t1
    80001f36:	000de117          	auipc	sp,0xde
    80001f3a:	0ca10113          	add	sp,sp,202 # 800e0000 <begin_signature>
    80001f3e:	6325                	lui	t1,0x9
    80001f40:	3583031b          	addw	t1,t1,856 # 9358 <_tbss_end+0x9358>
    80001f44:	911a                	add	sp,sp,t1
    80001f46:	e2038ad3          	fmv.x.d	s5,ft7
    80001f4a:	0297743b          	remuw	s0,a4,s1
    80001f4e:	41938fbb          	subw	t6,t2,s9
    80001f52:	39813a83          	ld	s5,920(sp)
    80001f56:	fc3e                	sd	a5,56(sp)
    80001f58:	4ff2                	lw	t6,28(sp)
    80001f5a:	77e6                	ld	a5,120(sp)

0000000080001f5c <b0000000279>:
    80001f5c:	02a0006f          	j	80001f86 <i000000027e>
    80001f60:	0327d73b          	divuw	a4,a5,s2
    80001f64:	c026                	sw	s1,0(sp)
    80001f66:	9f19                	subw	a4,a4,a4
    80001f68:	2c913423          	sd	s1,712(sp)
    80001f6c:	096133af          	amoswap.d	t2,s6,(sp)
    80001f70:	03f4fd3b          	remuw	s10,s1,t6
    80001f74:	37a6                	fld	fa5,104(sp)

0000000080001f76 <i0000000279>:
    80001f76:	42040353          	fcvt.d.s	ft6,fs0

0000000080001f7a <i000000027a>:
    80001f7a:	07a2                	sll	a5,a5,0x8

0000000080001f7c <i000000027b>:
    80001f7c:	64e5                	lui	s1,0x19

0000000080001f7e <i000000027c>:
    80001f7e:	f2050453          	fmv.d.x	fs0,a0

0000000080001f82 <i000000027d>:
    80001f82:	0020d073          	fsrmi	zero,1

0000000080001f86 <i000000027e>:
    80001f86:	c206ffd3          	fcvt.w.d	t6,fa3

0000000080001f8a <i000000027f>:
    80001f8a:	5956                	lw	s2,116(sp)

0000000080001f8c <i0000000280>:
    80001f8c:	7fca                	ld	t6,176(sp)

0000000080001f8e <i0000000281>:
    80001f8e:	00a53533          	sltu	a0,a0,a0
    80001f92:	000de117          	auipc	sp,0xde
    80001f96:	06e10113          	add	sp,sp,110 # 800e0000 <begin_signature>
    80001f9a:	6309                	lui	t1,0x2
    80001f9c:	8b03031b          	addw	t1,t1,-1872 # 18b0 <_tbss_end+0x18b0>
    80001fa0:	911a                	add	sp,sp,t1

0000000080001fa2 <i0000000282>:
    80001fa2:	78813787          	fld	fa5,1928(sp)

0000000080001fa6 <i0000000283>:
    80001fa6:	e20304d3          	fmv.x.d	s1,ft6
    80001faa:	4801                	li	a6,0
    80001fac:	000de117          	auipc	sp,0xde
    80001fb0:	05410113          	add	sp,sp,84 # 800e0000 <begin_signature>
    80001fb4:	633d                	lui	t1,0xf
    80001fb6:	2383031b          	addw	t1,t1,568 # f238 <_tbss_end+0xf238>
    80001fba:	911a                	add	sp,sp,t1
    80001fbc:	0000100f          	fence.i
    80001fc0:	00e4dcb3          	srl	s9,s1,a4
    80001fc4:	4fb100a3          	sb	s11,1249(sp)
    80001fc8:	1485                	add	s1,s1,-31 # 18fe1 <_tbss_end+0x18fe1>
    80001fca:	d02dbcd3          	fcvt.s.l	fs9,s11,rup
    80001fce:	95f11623          	sh	t6,-1716(sp)
    80001fd2:	8cba                	mv	s9,a4

0000000080001fd4 <b0000000284>:
    80001fd4:	00000033          	add	zero,zero,zero
    80001fd8:	fb0c09e3          	beq	s8,a6,80001f8a <i000000027f>
    80001fdc:	00000033          	add	zero,zero,zero
    80001fe0:	c43e                	sw	a5,8(sp)
    80001fe2:	03524fbb          	divw	t6,tp,s5
    80001fe6:	b43e                	fsd	fa5,40(sp)
    80001fe8:	20e137af          	amoxor.d	a5,a4,(sp)
    80001fec:	0719                	add	a4,a4,6
    80001fee:	0ff0000f          	fence
    80001ff2:	c6a2                	sw	s0,76(sp)
    80001ff4:	4c29                	li	s8,10

0000000080001ff6 <i0000000284>:
    80001ff6:	83f54f93          	xor	t6,a0,-1985

0000000080001ffa <i0000000285>:
    80001ffa:	27ea                	fld	fa5,152(sp)

0000000080001ffc <i0000000286>:
    80001ffc:	99e5                	and	a1,a1,-7

0000000080001ffe <i0000000287>:
    80001ffe:	8cb9                	xor	s1,s1,a4

0000000080002000 <i0000000288>:
    80002000:	c217f553          	fcvt.wu.d	a0,fa5

0000000080002004 <i0000000289>:
    80002004:	1854                	add	a3,sp,52

0000000080002006 <i000000028a>:
    80002006:	9c91                	subw	s1,s1,a2

0000000080002008 <i000000028b>:
    80002008:	00a50ab3          	add	s5,a0,a0

000000008000200c <i000000028c>:
    8000200c:	c4353193          	sltiu	gp,a0,-957

0000000080002010 <i000000028d>:
    80002010:	40c7d533          	sra	a0,a5,a2
    80002014:	4eb1                	li	t4,12
    80002016:	0c05                	add	s8,s8,1
    80002018:	000de117          	auipc	sp,0xde
    8000201c:	fe810113          	add	sp,sp,-24 # 800e0000 <begin_signature>
    80002020:	6311                	lui	t1,0x4
    80002022:	2d03031b          	addw	t1,t1,720 # 42d0 <_tbss_end+0x42d0>
    80002026:	911a                	add	sp,sp,t1
    80002028:	02ef893b          	mulw	s2,t6,a4
    8000202c:	c69104a3          	sb	s1,-919(sp)
    80002030:	a8ae                	fsd	fa1,80(sp)
    80002032:	60e12d2f          	amoand.w	s10,a4,(sp)
    80002036:	c23e                	sw	a5,4(sp)
    80002038:	01e737d3          	fadd.s	fa5,fa4,ft10,rup
    8000203c:	edba                	sd	a4,216(sp)

000000008000203e <b000000028e>:
    8000203e:	00000033          	add	zero,zero,zero
    80002042:	fd8ed1e3          	bge	t4,s8,80002004 <i0000000289>
    80002046:	00000033          	add	zero,zero,zero
    8000204a:	9f21                	addw	a4,a4,s0
    8000204c:	a13a                	fsd	fa4,128(sp)
    8000204e:	f4ba                	sd	a4,104(sp)
    80002050:	e20c89d3          	fmv.x.d	s3,fs9
    80002054:	a2bc0753          	fle.d	a4,fs8,fa1
    80002058:	0208efbb          	remw	t6,a7,zero
    8000205c:	f00e0cd3          	fmv.w.x	fs9,t3
    80002060:	4c29                	li	s8,10

0000000080002062 <i000000028e>:
    80002062:	71efb497          	auipc	s1,0x71efb

0000000080002066 <i000000028f>:
    80002066:	d23577d3          	fcvt.d.lu	fa5,a0

000000008000206a <i0000000290>:
    8000206a:	41e78533          	sub	a0,a5,t5

000000008000206e <i0000000291>:
    8000206e:	014388b3          	add	a7,t2,s4

0000000080002072 <i0000000292>:
    80002072:	bd22                	fsd	fs0,184(sp)

0000000080002074 <i0000000293>:
    80002074:	99c9                	and	a1,a1,-14

0000000080002076 <i0000000294>:
    80002076:	8e4d                	or	a2,a2,a1

0000000080002078 <i0000000295>:
    80002078:	7169                	add	sp,sp,-304

000000008000207a <i0000000296>:
    8000207a:	d23877d3          	fcvt.d.lu	fa5,a6

000000008000207e <i0000000297>:
    8000207e:	05b6                	sll	a1,a1,0xd
    80002080:	4829                	li	a6,10
    80002082:	03f757bb          	divuw	a5,a4,t6
    80002086:	80913e2f          	amomin.d	t3,s1,(sp)
    8000208a:	a1f12caf          	amomax.w	s9,t6,(sp)
    8000208e:	87a6                	mv	a5,s1
    80002090:	0ff0000f          	fence
    80002094:	d21a8453          	fcvt.d.wu	fs0,s5
    80002098:	f8be                	sd	a5,112(sp)

000000008000209a <b0000000298>:
    8000209a:	00000033          	add	zero,zero,zero
    8000209e:	030c0a63          	beq	s8,a6,800020d2 <i000000029d>
    800020a2:	00000033          	add	zero,zero,zero
    800020a6:	00e3c4b3          	xor	s1,t2,a4
    800020aa:	c02bc7d3          	fcvt.l.s	a5,fs7,rmm
    800020ae:	c0240753          	fcvt.l.s	a4,fs0,rne
    800020b2:	1ccef793          	and	a5,t4,460
    800020b6:	c0913faf          	amominu.d	t6,s1,(sp)
    800020ba:	d028a053          	fcvt.s.l	ft0,a7,rdn
    800020be:	00312faf          	amoadd.w	t6,gp,(sp)
    800020c2:	4c29                	li	s8,10

00000000800020c4 <i0000000298>:
    800020c4:	04b5                	add	s1,s1,13 # f1efd06f <_end+0x71e0a76e>

00000000800020c6 <i0000000299>:
    800020c6:	c23df4d3          	fcvt.lu.d	s1,fs11

00000000800020ca <i000000029a>:
    800020ca:	e20c8cd3          	fmv.x.d	s9,fs9

00000000800020ce <i000000029b>:
    800020ce:	3906                	fld	fs2,96(sp)

00000000800020d0 <i000000029c>:
    800020d0:	de3e                	sw	a5,60(sp)

00000000800020d2 <i000000029d>:
    800020d2:	1a64                	add	s1,sp,316
    800020d4:	000de117          	auipc	sp,0xde
    800020d8:	f2c10113          	add	sp,sp,-212 # 800e0000 <begin_signature>
    800020dc:	631d                	lui	t1,0x7
    800020de:	7103031b          	addw	t1,t1,1808 # 7710 <_tbss_end+0x7710>
    800020e2:	911a                	add	sp,sp,t1

00000000800020e4 <i000000029e>:
    800020e4:	79e2                	ld	s3,56(sp)

00000000800020e6 <i000000029f>:
    800020e6:	7b22                	ld	s6,40(sp)

00000000800020e8 <i00000002a0>:
    800020e8:	8545                	sra	a0,a0,0x11

00000000800020ea <i00000002a1>:
    800020ea:	00155313          	srl	t1,a0,0x1
    800020ee:	4d01                	li	s10,0
    800020f0:	6431                	lui	s0,0xc
    800020f2:	e6e10e23          	sb	a4,-388(sp)
    800020f6:	00e754bb          	srlw	s1,a4,a4
    800020fa:	f2048ed3          	fmv.d.x	ft9,s1
    800020fe:	c03127af          	amominu.w	a5,gp,(sp)
    80002102:	c02948d3          	fcvt.l.s	a7,fs2,rmm
    80002106:	3ca6                	fld	fs9,104(sp)

0000000080002108 <b00000002a2>:
    80002108:	00000033          	add	zero,zero,zero
    8000210c:	03ac0a63          	beq	s8,s10,80002140 <i00000002a7>
    80002110:	00000033          	add	zero,zero,zero
    80002114:	020207bb          	mulw	a5,tp,zero
    80002118:	fac16483          	lwu	s1,-84(sp)
    8000211c:	54d2                	lw	s1,52(sp)
    8000211e:	60012faf          	amoand.w	t6,zero,(sp)
    80002122:	c88447c7          	fmsub.s	fa5,fs0,fs0,fs9,rmm
    80002126:	c2347453          	fcvt.lu.d	s0,fs0
    8000212a:	083134af          	amoswap.d	s1,gp,(sp)
    8000212e:	4c29                	li	s8,10

0000000080002130 <i00000002a2>:
    80002130:	40dd0d33          	sub	s10,s10,a3

0000000080002134 <i00000002a3>:
    80002134:	1bd2f7d3          	fdiv.d	fa5,ft5,ft9

0000000080002138 <i00000002a4>:
    80002138:	6311                	lui	t1,0x4

000000008000213a <i00000002a5>:
    8000213a:	d63a                	sw	a4,44(sp)

000000008000213c <i00000002a6>:
    8000213c:	c231ffd3          	fcvt.lu.d	t6,ft3

0000000080002140 <i00000002a7>:
    80002140:	64dd                	lui	s1,0x17

0000000080002142 <i00000002a8>:
    80002142:	0094b3b3          	sltu	t2,s1,s1
    80002146:	000de117          	auipc	sp,0xde
    8000214a:	eba10113          	add	sp,sp,-326 # 800e0000 <begin_signature>
    8000214e:	632d                	lui	t1,0xb
    80002150:	4283031b          	addw	t1,t1,1064 # b428 <_tbss_end+0xb428>
    80002154:	911a                	add	sp,sp,t1

0000000080002156 <i00000002a9>:
    80002156:	7702                	ld	a4,32(sp)

0000000080002158 <i00000002aa>:
    80002158:	9c85                	subw	s1,s1,s1

000000008000215a <i00000002ab>:
    8000215a:	660a                	ld	a2,128(sp)
    8000215c:	4ea9                	li	t4,10
    8000215e:	80013faf          	amomin.d	t6,zero,(sp)
    80002162:	d0387cd3          	fcvt.s.lu	fs9,a6
    80002166:	c2247fd3          	fcvt.l.d	t6,fs0
    8000216a:	e00784d3          	fmv.x.w	s1,fa5
    8000216e:	0284                	add	s1,sp,320
    80002170:	03b98fbb          	mulw	t6,s3,s11
    80002174:	042d                	add	s0,s0,11 # c00b <_tbss_end+0xc00b>

0000000080002176 <b00000002ac>:
    80002176:	00000033          	add	zero,zero,zero
    8000217a:	03dc0963          	beq	s8,t4,800021ac <i00000002b1>
    8000217e:	00000033          	add	zero,zero,zero
    80002182:	0be4e213          	or	tp,s1,190
    80002186:	2b816a03          	lwu	s4,696(sp)
    8000218a:	8cbd                	xor	s1,s1,a5
    8000218c:	d02d33d3          	fcvt.s.l	ft7,s10,rup
    80002190:	0941222f          	amoswap.w	tp,s4,(sp)
    80002194:	c03781d3          	fcvt.lu.s	gp,fa5,rne
    80002198:	e2040bd3          	fmv.x.d	s7,fs0
    8000219c:	4c29                	li	s8,10

000000008000219e <i00000002ac>:
    8000219e:	04d2                	sll	s1,s1,0x14

00000000800021a0 <i00000002ad>:
    800021a0:	8cc5                	or	s1,s1,s1

00000000800021a2 <i00000002ae>:
    800021a2:	7fae                	ld	t6,232(sp)

00000000800021a4 <i00000002af>:
    800021a4:	d232f7d3          	fcvt.d.lu	fa5,t0

00000000800021a8 <i00000002b0>:
    800021a8:	00a53433          	sltu	s0,a0,a0

00000000800021ac <i00000002b1>:
    800021ac:	07a2                	sll	a5,a5,0x8

00000000800021ae <i00000002b2>:
    800021ae:	9a2fe0ef          	jal	80000350 <func1>

00000000800021b2 <i00000002b3>:
    800021b2:	01ffb8b3          	sltu	a7,t6,t6

00000000800021b6 <i00000002b4>:
    800021b6:	a826                	fsd	fs1,16(sp)

00000000800021b8 <i00000002b5>:
    800021b8:	d22a7453          	fcvt.d.l	fs0,s4

00000000800021bc <i00000002b6>:
    800021bc:	7169                	add	sp,sp,-304
    800021be:	03f4c7bb          	divw	a5,s1,t6
    800021c2:	70816483          	lwu	s1,1800(sp)
    800021c6:	d03bb7d3          	fcvt.s.lu	fa5,s7,rup
    800021ca:	a7e12627          	fsw	ft10,-1428(sp)
    800021ce:	0000100f          	fence.i
    800021d2:	6171222f          	amoand.w	tp,s7,(sp)
    800021d6:	4492                	lw	s1,4(sp)

00000000800021d8 <b00000002b7>:
    800021d8:	00000c97          	auipc	s9,0x0
    800021dc:	034c8c93          	add	s9,s9,52 # 8000220c <i00000002bc>
    800021e0:	000c80e7          	jalr	s9
    800021e4:	20712faf          	amoxor.w	t6,t2,(sp)
    800021e8:	66813e03          	ld	t3,1640(sp)
    800021ec:	03f4d23b          	divuw	tp,s1,t6
    800021f0:	7c812f83          	lw	t6,1992(sp)
    800021f4:	41d4d213          	sra	tp,s1,0x1d
    800021f8:	d45e                	sw	s7,40(sp)
    800021fa:	11838253          	fmul.s	ft4,ft7,fs8,rne

00000000800021fe <i00000002b7>:
    800021fe:	7119                	add	sp,sp,-128

0000000080002200 <i00000002b8>:
    80002200:	c6ba                	sw	a4,76(sp)

0000000080002202 <i00000002b9>:
    80002202:	11e4                	add	s1,sp,236

0000000080002204 <i00000002ba>:
    80002204:	2ab697d3          	fmax.d	fa5,fa3,fa1

0000000080002208 <i00000002bb>:
    80002208:	01f4eeb3          	or	t4,s1,t6

000000008000220c <i00000002bc>:
    8000220c:	41f1dd13          	sra	s10,gp,0x1f

0000000080002210 <i00000002bd>:
    80002210:	64c6                	ld	s1,80(sp)
    80002212:	000de117          	auipc	sp,0xde
    80002216:	dee10113          	add	sp,sp,-530 # 800e0000 <begin_signature>
    8000221a:	6319                	lui	t1,0x6
    8000221c:	8a03031b          	addw	t1,t1,-1888 # 58a0 <_tbss_end+0x58a0>
    80002220:	911a                	add	sp,sp,t1

0000000080002222 <i00000002be>:
    80002222:	b03e                	fsd	fa5,32(sp)

0000000080002224 <i00000002bf>:
    80002224:	5549                	li	a0,-14

0000000080002226 <i00000002c0>:
    80002226:	d20484d3          	fcvt.d.w	fs1,s1
    8000222a:	48a9                	li	a7,10
    8000222c:	000de117          	auipc	sp,0xde
    80002230:	dd410113          	add	sp,sp,-556 # 800e0000 <begin_signature>
    80002234:	6331                	lui	t1,0xc
    80002236:	f383031b          	addw	t1,t1,-200 # bf38 <_tbss_end+0xbf38>
    8000223a:	911a                	add	sp,sp,t1
    8000223c:	d23ff7d3          	fcvt.d.lu	fa5,t6
    80002240:	a036                	fsd	fa3,0(sp)
    80002242:	0000100f          	fence.i
    80002246:	e1c1302f          	amomaxu.d	zero,t3,(sp)
    8000224a:	e1b1282f          	amomaxu.w	a6,s11,(sp)
    8000224e:	9f85                	subw	a5,a5,s1
    80002250:	21c1302f          	amoxor.d	zero,t3,(sp)

0000000080002254 <b00000002c1>:
    80002254:	00000033          	add	zero,zero,zero
    80002258:	031c0863          	beq	s8,a7,80002288 <i00000002c6>
    8000225c:	00000033          	add	zero,zero,zero
    80002260:	a08c8053          	fle.s	zero,fs9,fs0
    80002264:	ecbe                	sd	a5,88(sp)
    80002266:	a1430e53          	fle.s	t3,ft6,fs4
    8000226a:	b4411a83          	lh	s5,-1212(sp)
    8000226e:	0000100f          	fence.i
    80002272:	d4013f83          	ld	t6,-704(sp)
    80002276:	7466                	ld	s0,120(sp)
    80002278:	4c29                	li	s8,10

000000008000227a <i00000002c1>:
    8000227a:	01957493          	and	s1,a0,25

000000008000227e <i00000002c2>:
    8000227e:	5c975fb7          	lui	t6,0x5c975

0000000080002282 <i00000002c3>:
    80002282:	52cd                	li	t0,-13

0000000080002284 <i00000002c4>:
    80002284:	ecaa                	sd	a0,88(sp)

0000000080002286 <i00000002c5>:
    80002286:	7105                	add	sp,sp,-480

0000000080002288 <i00000002c6>:
    80002288:	3b22                	fld	fs6,40(sp)

000000008000228a <i00000002c7>:
    8000228a:	54f2                	lw	s1,60(sp)

000000008000228c <i00000002c8>:
    8000228c:	3422                	fld	fs0,40(sp)

000000008000228e <i00000002c9>:
    8000228e:	f8da                	sd	s6,112(sp)

0000000080002290 <i00000002ca>:
    80002290:	d234fcd3          	fcvt.d.lu	fs9,s1
    80002294:	4db1                	li	s11,12
    80002296:	0c05                	add	s8,s8,1
    80002298:	000de117          	auipc	sp,0xde
    8000229c:	d6810113          	add	sp,sp,-664 # 800e0000 <begin_signature>
    800022a0:	6329                	lui	t1,0xa
    800022a2:	c703031b          	addw	t1,t1,-912 # 9c70 <_tbss_end+0x9c70>
    800022a6:	911a                	add	sp,sp,t1
    800022a8:	0000100f          	fence.i
    800022ac:	00f194b3          	sll	s1,gp,a5
    800022b0:	0ff0000f          	fence
    800022b4:	2b230ad3          	fmin.d	fs5,ft6,fs2
    800022b8:	7149                	add	sp,sp,-368
    800022ba:	91813783          	ld	a5,-1768(sp)
    800022be:	c03cb4d3          	fcvt.lu.s	s1,fs9,rup

00000000800022c2 <b00000002cb>:
    800022c2:	01bc0863          	beq	s8,s11,800022d2 <b00000002cb+0x10>
    800022c6:	00000d97          	auipc	s11,0x0
    800022ca:	fc2d8d93          	add	s11,s11,-62 # 80002288 <i00000002c6>
    800022ce:	000d80e7          	jalr	s11
    800022d2:	4c29                	li	s8,10
    800022d4:	fdbe                	sd	a5,248(sp)
    800022d6:	c1c134af          	amominu.d	s1,t3,(sp)
    800022da:	40f13caf          	amoor.d	s9,a5,(sp)
    800022de:	f20f8453          	fmv.d.x	fs0,t6
    800022e2:	f0048453          	fmv.w.x	fs0,s1
    800022e6:	c22cf3d3          	fcvt.l.d	t2,fs9
    800022ea:	10e4                	add	s1,sp,108

00000000800022ec <i00000002cb>:
    800022ec:	0625                	add	a2,a2,9

00000000800022ee <i00000002cc>:
    800022ee:	9ca5                	addw	s1,s1,s1

00000000800022f0 <i00000002cd>:
    800022f0:	0208                	add	a0,sp,256

00000000800022f2 <i00000002ce>:
    800022f2:	8d65                	and	a0,a0,s1

00000000800022f4 <i00000002cf>:
    800022f4:	5ae6                	lw	s5,120(sp)

00000000800022f6 <i00000002d0>:
    800022f6:	27a2                	fld	fa5,8(sp)

00000000800022f8 <i00000002d1>:
    800022f8:	239c8453          	fmv.d	fs0,fs9

00000000800022fc <i00000002d2>:
    800022fc:	25a2                	fld	fa1,8(sp)

00000000800022fe <i00000002d3>:
    800022fe:	122072d3          	fmul.d	ft5,ft0,ft2

0000000080002302 <i00000002d4>:
    80002302:	2cc2                	fld	fs9,16(sp)
    80002304:	4a81                	li	s5,0
    80002306:	000de117          	auipc	sp,0xde
    8000230a:	cfa10113          	add	sp,sp,-774 # 800e0000 <begin_signature>
    8000230e:	6325                	lui	t1,0x9
    80002310:	8c03031b          	addw	t1,t1,-1856 # 88c0 <_tbss_end+0x88c0>
    80002314:	911a                	add	sp,sp,t1
    80002316:	6f911b23          	sh	s9,1782(sp)
    8000231a:	84a6                	mv	s1,s1
    8000231c:	ad013403          	ld	s0,-1328(sp)
    80002320:	d039b353          	fcvt.s.lu	ft6,s3,rup
    80002324:	d229f453          	fcvt.d.l	fs0,s3
    80002328:	00efe4b3          	or	s1,t6,a4
    8000232c:	67e6                	ld	a5,88(sp)

000000008000232e <b00000002d5>:
    8000232e:	00000033          	add	zero,zero,zero
    80002332:	fd5c02e3          	beq	s8,s5,800022f6 <i00000002d0>
    80002336:	00000033          	add	zero,zero,zero
    8000233a:	0397fd53          	fadd.d	fs10,fa5,fs9
    8000233e:	039eed33          	rem	s10,t4,s9
    80002342:	2462                	fld	fs0,24(sp)
    80002344:	4992                	lw	s3,4(sp)
    80002346:	00e139af          	amoadd.d	s3,a4,(sp)
    8000234a:	d037f453          	fcvt.s.lu	fs0,a5
    8000234e:	d2277853          	fcvt.d.l	fa6,a4
    80002352:	4c29                	li	s8,10

0000000080002354 <i00000002d5>:
    80002354:	ce26                	sw	s1,28(sp)

0000000080002356 <i00000002d6>:
    80002356:	20c2                	fld	ft1,16(sp)

0000000080002358 <i00000002d7>:
    80002358:	010b4f33          	xor	t5,s6,a6

000000008000235c <i00000002d8>:
    8000235c:	5689                	li	a3,-30

000000008000235e <i00000002d9>:
    8000235e:	9db1                	addw	a1,a1,a2

0000000080002360 <i00000002da>:
    80002360:	cc26                	sw	s1,24(sp)

0000000080002362 <i00000002db>:
    80002362:	c0ae                	sw	a1,64(sp)

0000000080002364 <i00000002dc>:
    80002364:	4526                	lw	a0,72(sp)

0000000080002366 <i00000002dd>:
    80002366:	4562                	lw	a0,24(sp)

0000000080002368 <i00000002de>:
    80002368:	fe9fd0ef          	jal	80000350 <func1>

000000008000236c <i00000002df>:
    8000236c:	47d2                	lw	a5,20(sp)
    8000236e:	482d                	li	a6,11
    80002370:	4c29                	li	s8,10
    80002372:	a3313423          	sd	s3,-1496(sp)
    80002376:	8cc5                	or	s1,s1,s1
    80002378:	21213aaf          	amoxor.d	s5,s2,(sp)
    8000237c:	853a6f93          	or	t6,s4,-1965
    80002380:	fc910f23          	sb	s1,-34(sp)
    80002384:	e1a124af          	amomaxu.w	s1,s10,(sp)
    80002388:	e4a2                	sd	s0,72(sp)

000000008000238a <b00000002e0>:
    8000238a:	00000033          	add	zero,zero,zero
    8000238e:	03885c63          	bge	a6,s8,800023c6 <i00000002e5>
    80002392:	00000033          	add	zero,zero,zero
    80002396:	6fe6                	ld	t6,88(sp)
    80002398:	60f129af          	amoand.w	s3,a5,(sp)
    8000239c:	2d46                	fld	fs10,80(sp)
    8000239e:	8fba                	mv	t6,a4
    800023a0:	c2197b53          	fcvt.wu.d	s6,fs2
    800023a4:	acba                	fsd	fa4,88(sp)
    800023a6:	711d                	add	sp,sp,-96
    800023a8:	4c29                	li	s8,10

00000000800023aa <i00000002e0>:
    800023aa:	8cd5                	or	s1,s1,a3

00000000800023ac <i00000002e1>:
    800023ac:	6482                	ld	s1,0(sp)

00000000800023ae <i00000002e2>:
    800023ae:	6161                	add	sp,sp,80

00000000800023b0 <i00000002e3>:
    800023b0:	e2078fd3          	fmv.x.d	t6,fa5
    800023b4:	000de117          	auipc	sp,0xde
    800023b8:	c4c10113          	add	sp,sp,-948 # 800e0000 <begin_signature>
    800023bc:	6321                	lui	t1,0x8
    800023be:	1303031b          	addw	t1,t1,304 # 8130 <_tbss_end+0x8130>
    800023c2:	911a                	add	sp,sp,t1

00000000800023c4 <i00000002e4>:
    800023c4:	3766                	fld	fa4,120(sp)

00000000800023c6 <i00000002e5>:
    800023c6:	a28404d3          	fle.d	s1,fs0,fs0

00000000800023ca <i00000002e6>:
    800023ca:	ecea                	sd	s10,88(sp)

00000000800023cc <i00000002e7>:
    800023cc:	b436                	fsd	fa3,40(sp)

00000000800023ce <i00000002e8>:
    800023ce:	74e6                	ld	s1,120(sp)

00000000800023d0 <i00000002e9>:
    800023d0:	3666                	fld	fa2,120(sp)
    800023d2:	4ea9                	li	t4,10
    800023d4:	000de117          	auipc	sp,0xde
    800023d8:	c2c10113          	add	sp,sp,-980 # 800e0000 <begin_signature>
    800023dc:	6331                	lui	t1,0xc
    800023de:	f303031b          	addw	t1,t1,-208 # bf30 <_tbss_end+0xbf30>
    800023e2:	911a                	add	sp,sp,t1
    800023e4:	000de117          	auipc	sp,0xde
    800023e8:	c1c10113          	add	sp,sp,-996 # 800e0000 <begin_signature>
    800023ec:	633d                	lui	t1,0xf
    800023ee:	1783031b          	addw	t1,t1,376 # f178 <_tbss_end+0xf178>
    800023f2:	911a                	add	sp,sp,t1
    800023f4:	02f7a4b3          	mulhsu	s1,a5,a5
    800023f8:	d221fbd3          	fcvt.d.l	fs7,gp
    800023fc:	03b8b7b3          	mulhu	a5,a7,s11
    80002400:	b066                	fsd	fs9,32(sp)
    80002402:	5432                	lw	s0,44(sp)
    80002404:	d00a9cd3          	fcvt.s.w	fs9,s5,rtz
    80002408:	039dba33          	mulhu	s4,s11,s9

000000008000240c <b00000002ea>:
    8000240c:	00000033          	add	zero,zero,zero
    80002410:	03dc0863          	beq	s8,t4,80002440 <i00000002ef>
    80002414:	00000033          	add	zero,zero,zero
    80002418:	d4812383          	lw	t2,-696(sp)
    8000241c:	0ff0000f          	fence
    80002420:	d224fcd3          	fcvt.d.l	fs9,s1
    80002424:	9c9d                	subw	s1,s1,a5
    80002426:	a1212faf          	amomax.w	t6,s2,(sp)
    8000242a:	e0ba                	sd	a4,64(sp)
    8000242c:	a0be                	fsd	fa5,64(sp)
    8000242e:	4c29                	li	s8,10

0000000080002430 <i00000002ea>:
    80002430:	f21fd0ef          	jal	80000350 <func1>

0000000080002434 <i00000002eb>:
    80002434:	3402                	fld	fs0,32(sp)

0000000080002436 <i00000002ec>:
    80002436:	f1bfd0ef          	jal	80000350 <func1>

000000008000243a <i00000002ed>:
    8000243a:	cb113c27          	fsd	fa7,-840(sp)

000000008000243e <i00000002ee>:
    8000243e:	8545                	sra	a0,a0,0x11

0000000080002440 <i00000002ef>:
    80002440:	10c8                	add	a0,sp,100
    80002442:	000de117          	auipc	sp,0xde
    80002446:	bbe10113          	add	sp,sp,-1090 # 800e0000 <begin_signature>
    8000244a:	6321                	lui	t1,0x8
    8000244c:	f183031b          	addw	t1,t1,-232 # 7f18 <_tbss_end+0x7f18>
    80002450:	911a                	add	sp,sp,t1

0000000080002452 <i00000002f0>:
    80002452:	ec22                	sd	s0,24(sp)
    80002454:	000de117          	auipc	sp,0xde
    80002458:	bac10113          	add	sp,sp,-1108 # 800e0000 <begin_signature>
    8000245c:	6319                	lui	t1,0x6
    8000245e:	4383031b          	addw	t1,t1,1080 # 6438 <_tbss_end+0x6438>
    80002462:	911a                	add	sp,sp,t1

0000000080002464 <i00000002f1>:
    80002464:	44c2                	lw	s1,16(sp)

0000000080002466 <i00000002f2>:
    80002466:	9b45                	and	a4,a4,-15

0000000080002468 <i00000002f3>:
    80002468:	e20884d3          	fmv.x.d	s1,fa7

000000008000246c <i00000002f4>:
    8000246c:	0b08                	add	a0,sp,400

000000008000246e <i00000002f5>:
    8000246e:	9a0d                	and	a2,a2,-29
    80002470:	000de117          	auipc	sp,0xde
    80002474:	b9010113          	add	sp,sp,-1136 # 800e0000 <begin_signature>
    80002478:	6319                	lui	t1,0x6
    8000247a:	e503031b          	addw	t1,t1,-432 # 5e50 <_tbss_end+0x5e50>
    8000247e:	911a                	add	sp,sp,t1
    80002480:	e2040fd3          	fmv.x.d	t6,fs0
    80002484:	072d                	add	a4,a4,11
    80002486:	803121af          	amomin.w	gp,gp,(sp)
    8000248a:	03f701bb          	mulw	gp,a4,t6
    8000248e:	e10127af          	amomaxu.w	a5,a6,(sp)
    80002492:	bb457447          	fmsub.d	fs0,fa0,fs4,fs7
    80002496:	0000100f          	fence.i

000000008000249a <b00000002f6>:
    8000249a:	0300056f          	jal	a0,800024ca <i00000002fb>
    8000249e:	030887bb          	mulw	a5,a7,a6
    800024a2:	74f96213          	or	tp,s2,1871
    800024a6:	220ace13          	xor	t3,s5,544
    800024aa:	40e7d73b          	sraw	a4,a5,a4
    800024ae:	3f813f83          	ld	t6,1016(sp)
    800024b2:	c028fd53          	fcvt.l.s	s10,fa7
    800024b6:	221e1453          	fsgnjn.d	fs0,ft8,ft1

00000000800024ba <i00000002f6>:
    800024ba:	41265a93          	sra	s5,a2,0x12

00000000800024be <i00000002f7>:
    800024be:	010604b3          	add	s1,a2,a6

00000000800024c2 <i00000002f8>:
    800024c2:	420e01d3          	fcvt.d.s	ft3,ft8

00000000800024c6 <i00000002f9>:
    800024c6:	668a                	ld	a3,128(sp)

00000000800024c8 <i00000002fa>:
    800024c8:	d23e                	sw	a5,36(sp)

00000000800024ca <i00000002fb>:
    800024ca:	7f8a                	ld	t6,160(sp)

00000000800024cc <i00000002fc>:
    800024cc:	939e                	add	t2,t2,t2

00000000800024ce <i00000002fd>:
    800024ce:	41b254b3          	sra	s1,tp,s11

00000000800024d2 <i00000002fe>:
    800024d2:	88af6f93          	or	t6,t5,-1910

00000000800024d6 <i00000002ff>:
    800024d6:	11a8                	add	a0,sp,232
    800024d8:	4da9                	li	s11,10
    800024da:	d03894d3          	fcvt.s.lu	fs1,a7,rtz
    800024de:	d234f253          	fcvt.d.lu	ft4,s1
    800024e2:	c0278e53          	fcvt.l.s	t3,fa5,rne
    800024e6:	1020                	add	s0,sp,40
    800024e8:	24a6                	fld	fs1,72(sp)
    800024ea:	4f012f87          	flw	ft11,1264(sp)
    800024ee:	8c1d                	sub	s0,s0,a5

00000000800024f0 <b0000000300>:
    800024f0:	01bc0863          	beq	s8,s11,80002500 <b0000000300+0x10>
    800024f4:	00000d97          	auipc	s11,0x0
    800024f8:	fd6d8d93          	add	s11,s11,-42 # 800024ca <i00000002fb>
    800024fc:	000d80e7          	jalr	s11
    80002500:	4c29                	li	s8,10
    80002502:	2726                	fld	fa4,72(sp)
    80002504:	036474bb          	remuw	s1,s0,s6
    80002508:	42db5493          	sra	s1,s6,0x2d
    8000250c:	57d12a23          	sw	t4,1396(sp)
    80002510:	01d131af          	amoadd.d	gp,t4,(sp)
    80002514:	93f10623          	sb	t6,-1748(sp)
    80002518:	67ce                	ld	a5,208(sp)
    8000251a:	000de117          	auipc	sp,0xde
    8000251e:	ae610113          	add	sp,sp,-1306 # 800e0000 <begin_signature>
    80002522:	6321                	lui	t1,0x8
    80002524:	fd03031b          	addw	t1,t1,-48 # 7fd0 <_tbss_end+0x7fd0>
    80002528:	911a                	add	sp,sp,t1

000000008000252a <i0000000300>:
    8000252a:	c656                	sw	s5,12(sp)

000000008000252c <i0000000301>:
    8000252c:	375d                	addw	a4,a4,-9

000000008000252e <i0000000302>:
    8000252e:	298e                	fld	fs3,192(sp)

0000000080002530 <i0000000303>:
    80002530:	716d                	add	sp,sp,-272

0000000080002532 <i0000000304>:
    80002532:	010a34b3          	sltu	s1,s4,a6

0000000080002536 <i0000000305>:
    80002536:	a836                	fsd	fa3,16(sp)

0000000080002538 <i0000000306>:
    80002538:	01ffb4b3          	sltu	s1,t6,t6

000000008000253c <i0000000307>:
    8000253c:	c2247553          	fcvt.l.d	a0,fs0

0000000080002540 <i0000000308>:
    80002540:	94a6                	add	s1,s1,s1
    80002542:	000de117          	auipc	sp,0xde
    80002546:	abe10113          	add	sp,sp,-1346 # 800e0000 <begin_signature>
    8000254a:	6339                	lui	t1,0xe
    8000254c:	8c83031b          	addw	t1,t1,-1848 # d8c8 <_tbss_end+0xd8c8>
    80002550:	911a                	add	sp,sp,t1

0000000080002552 <i0000000309>:
    80002552:	2302                	fld	ft6,0(sp)
    80002554:	4f81                	li	t6,0
    80002556:	0725                	add	a4,a4,9
    80002558:	5412                	lw	s0,36(sp)
    8000255a:	58816903          	lwu	s2,1416(sp)
    8000255e:	0000100f          	fence.i
    80002562:	6495                	lui	s1,0x5
    80002564:	0000100f          	fence.i
    80002568:	a091382f          	amomax.d	a6,s1,(sp)

000000008000256c <b000000030a>:
    8000256c:	00000033          	add	zero,zero,zero
    80002570:	fdfc03e3          	beq	s8,t6,80002536 <i0000000305>
    80002574:	00000033          	add	zero,zero,zero
    80002578:	02a95493          	srl	s1,s2,0x2a
    8000257c:	4876                	lw	a6,92(sp)
    8000257e:	08e90cd3          	fsub.s	fs9,fs2,fa4,rne
    80002582:	7159                	add	sp,sp,-112
    80002584:	032bdd33          	divu	s10,s7,s2
    80002588:	0ff0000f          	fence
    8000258c:	c1113aaf          	amominu.d	s5,a7,(sp)
    80002590:	4c29                	li	s8,10

0000000080002592 <i000000030a>:
    80002592:	8149                	srl	a0,a0,0x12

0000000080002594 <i000000030b>:
    80002594:	d22ffcd3          	fcvt.d.l	fs9,t6

0000000080002598 <i000000030c>:
    80002598:	1682                	sll	a3,a3,0x20

000000008000259a <i000000030d>:
    8000259a:	1b947dd3          	fdiv.d	fs11,fs0,fs9

000000008000259e <i000000030e>:
    8000259e:	f8aa                	sd	a0,112(sp)

00000000800025a0 <i000000030f>:
    800025a0:	f083e513          	or	a0,t2,-248

00000000800025a4 <i0000000310>:
    800025a4:	756e                	ld	a0,248(sp)

00000000800025a6 <i0000000311>:
    800025a6:	da2a                	sw	a0,52(sp)

00000000800025a8 <i0000000312>:
    800025a8:	965a                	add	a2,a2,s6
    800025aa:	000de117          	auipc	sp,0xde
    800025ae:	a5610113          	add	sp,sp,-1450 # 800e0000 <begin_signature>
    800025b2:	633d                	lui	t1,0xf
    800025b4:	8e03031b          	addw	t1,t1,-1824 # e8e0 <_tbss_end+0xe8e0>
    800025b8:	911a                	add	sp,sp,t1

00000000800025ba <i0000000313>:
    800025ba:	a0ae                	fsd	fa1,64(sp)
    800025bc:	4ea9                	li	t4,10
    800025be:	7155                	add	sp,sp,-208
    800025c0:	580747d3          	fsqrt.s	fa5,fa4,rmm
    800025c4:	005f9e1b          	sllw	t3,t6,0x5
    800025c8:	09c127af          	amoswap.w	a5,t3,(sp)
    800025cc:	44b1                	li	s1,12
    800025ce:	8f9d                	sub	a5,a5,a5
    800025d0:	c02f24d3          	fcvt.l.s	s1,ft10,rdn

00000000800025d4 <b0000000314>:
    800025d4:	01dc0863          	beq	s8,t4,800025e4 <b0000000314+0x10>
    800025d8:	00000e97          	auipc	t4,0x0
    800025dc:	fc8e8e93          	add	t4,t4,-56 # 800025a0 <i000000030f>
    800025e0:	000e8067          	jr	t4
    800025e4:	4c29                	li	s8,10
    800025e6:	90f13027          	fsd	fa5,-1792(sp)
    800025ea:	77d0b037          	lui	zero,0x77d0b
    800025ee:	02efe933          	rem	s2,t6,a4
    800025f2:	e1013faf          	amomaxu.d	t6,a6,(sp)
    800025f6:	01f7d23b          	srlw	tp,a5,t6
    800025fa:	01ff9433          	sll	s0,t6,t6
    800025fe:	2406                	fld	fs0,64(sp)
    80002600:	000de117          	auipc	sp,0xde
    80002604:	a0010113          	add	sp,sp,-1536 # 800e0000 <begin_signature>
    80002608:	6309                	lui	t1,0x2
    8000260a:	8103031b          	addw	t1,t1,-2032 # 1810 <_tbss_end+0x1810>
    8000260e:	911a                	add	sp,sp,t1

0000000080002610 <i0000000314>:
    80002610:	7fce                	ld	t6,240(sp)

0000000080002612 <i0000000315>:
    80002612:	e2018dd3          	fmv.x.d	s11,ft3
    80002616:	000de117          	auipc	sp,0xde
    8000261a:	9ea10113          	add	sp,sp,-1558 # 800e0000 <begin_signature>
    8000261e:	6329                	lui	t1,0xa
    80002620:	3683031b          	addw	t1,t1,872 # a368 <_tbss_end+0xa368>
    80002624:	911a                	add	sp,sp,t1

0000000080002626 <i0000000316>:
    80002626:	7562                	ld	a0,56(sp)

0000000080002628 <i0000000317>:
    80002628:	1287f7d3          	fmul.d	fa5,fa5,fs0

000000008000262c <i0000000318>:
    8000262c:	c227f4d3          	fcvt.l.d	s1,fa5

0000000080002630 <i0000000319>:
    80002630:	4556                	lw	a0,84(sp)

0000000080002632 <i000000031a>:
    80002632:	a822                	fsd	fs0,16(sp)

0000000080002634 <i000000031b>:
    80002634:	6ea6                	ld	t4,72(sp)

0000000080002636 <i000000031c>:
    80002636:	004ce533          	or	a0,s9,tp

000000008000263a <i000000031d>:
    8000263a:	9ca9                	addw	s1,s1,a0
    8000263c:	4d29                	li	s10,10
    8000263e:	03f4eab3          	rem	s5,s1,t6
    80002642:	00948fb3          	add	t6,s1,s1
    80002646:	84ba                	mv	s1,a4
    80002648:	03f4803b          	mulw	zero,s1,t6
    8000264c:	d03abc53          	fcvt.s.lu	fs8,s5,rup
    80002650:	02eff4bb          	remuw	s1,t6,a4
    80002654:	c081372f          	amominu.d	a4,s0,(sp)

0000000080002658 <b000000031e>:
    80002658:	00000033          	add	zero,zero,zero
    8000265c:	03ac0a63          	beq	s8,s10,80002690 <i0000000323>
    80002660:	00000033          	add	zero,zero,zero
    80002664:	d22ff453          	fcvt.d.l	fs0,t6
    80002668:	c218f4d3          	fcvt.wu.d	s1,fa7
    8000266c:	033bcdbb          	divw	s11,s7,s3
    80002670:	9b4277c3          	fmadd.d	fa5,ft4,fs4,fs3
    80002674:	f526                	sd	s1,168(sp)
    80002676:	c025f753          	fcvt.l.s	a4,fa1
    8000267a:	a191372f          	amomax.d	a4,s9,(sp)
    8000267e:	4c29                	li	s8,10

0000000080002680 <i000000031e>:
    80002680:	1b08                	add	a0,sp,432

0000000080002682 <i000000031f>:
    80002682:	2a840c53          	fmin.d	fs8,fs0,fs0

0000000080002686 <i0000000320>:
    80002686:	41540533          	sub	a0,s0,s5

000000008000268a <i0000000321>:
    8000268a:	e20c8553          	fmv.x.d	a0,fs9

000000008000268e <i0000000322>:
    8000268e:	fc26                	sd	s1,56(sp)

0000000080002690 <i0000000323>:
    80002690:	8105                	srl	a0,a0,0x1

0000000080002692 <i0000000324>:
    80002692:	715d                	add	sp,sp,-80

0000000080002694 <i0000000325>:
    80002694:	e2079fd3          	fclass.d	t6,fa5

0000000080002698 <i0000000326>:
    80002698:	715d                	add	sp,sp,-80

000000008000269a <i0000000327>:
    8000269a:	c2397953          	fcvt.lu.d	s2,fs2
    8000269e:	7161                	add	sp,sp,-432
    800026a0:	0231da3b          	divuw	s4,gp,gp
    800026a4:	310b8347          	fmsub.s	ft6,fs7,fa6,ft6,rne
    800026a8:	0ff0000f          	fence
    800026ac:	97ea                	add	a5,a5,s10
    800026ae:	01985493          	srl	s1,a6,0x19
    800026b2:	e17139af          	amomaxu.d	s3,s7,(sp)

00000000800026b6 <b0000000328>:
    800026b6:	00000d97          	auipc	s11,0x0
    800026ba:	042d8d93          	add	s11,s11,66 # 800026f8 <i000000032d>
    800026be:	000d8067          	jr	s11
    800026c2:	8cdd                	or	s1,s1,a5
    800026c4:	c0279e53          	fcvt.l.s	t3,fa5,rtz
    800026c8:	417b04b3          	sub	s1,s6,s7
    800026cc:	ce3a                	sw	a4,28(sp)
    800026ce:	c00efb53          	fcvt.w.s	s6,ft9
    800026d2:	d02cf7d3          	fcvt.s.l	fa5,s9
    800026d6:	030a0fb3          	mul	t6,s4,a6

00000000800026da <i0000000328>:
    800026da:	420c8cd3          	fcvt.d.s	fs9,fs9
    800026de:	000de117          	auipc	sp,0xde
    800026e2:	92210113          	add	sp,sp,-1758 # 800e0000 <begin_signature>
    800026e6:	6331                	lui	t1,0xc
    800026e8:	3e03031b          	addw	t1,t1,992 # c3e0 <_tbss_end+0xc3e0>
    800026ec:	911a                	add	sp,sp,t1

00000000800026ee <i0000000329>:
    800026ee:	66e2                	ld	a3,24(sp)

00000000800026f0 <i000000032a>:
    800026f0:	d20d8cd3          	fcvt.d.w	fs9,s11

00000000800026f4 <i000000032b>:
    800026f4:	715d                	add	sp,sp,-80

00000000800026f6 <i000000032c>:
    800026f6:	8c85                	sub	s1,s1,s1

00000000800026f8 <i000000032d>:
    800026f8:	e0a6                	sd	s1,64(sp)

00000000800026fa <i000000032e>:
    800026fa:	a5ef6013          	or	zero,t5,-1442

00000000800026fe <i000000032f>:
    800026fe:	00a50233          	add	tp,a0,a0

0000000080002702 <i0000000330>:
    80002702:	8d95                	sub	a1,a1,a3

0000000080002704 <i0000000331>:
    80002704:	b0be                	fsd	fa5,96(sp)
    80002706:	000de117          	auipc	sp,0xde
    8000270a:	8fa10113          	add	sp,sp,-1798 # 800e0000 <begin_signature>
    8000270e:	6315                	lui	t1,0x5
    80002710:	c483031b          	addw	t1,t1,-952 # 4c48 <_tbss_end+0x4c48>
    80002714:	911a                	add	sp,sp,t1
    80002716:	08a11403          	lh	s0,138(sp)
    8000271a:	c03879d3          	fcvt.lu.s	s3,fa6
    8000271e:	8349                	srl	a4,a4,0x12
    80002720:	08313faf          	amoswap.d	t6,gp,(sp)
    80002724:	03f75abb          	divuw	s5,a4,t6
    80002728:	9fa1                	addw	a5,a5,s0
    8000272a:	0000100f          	fence.i

000000008000272e <b0000000332>:
    8000272e:	0380006f          	j	80002766 <i0000000337>
    80002732:	a1413aaf          	amomax.d	s5,s4,(sp)
    80002736:	fce12823          	sw	a4,-48(sp)
    8000273a:	12a0                	add	s0,sp,360
    8000273c:	02970b33          	mul	s6,a4,s1
    80002740:	3422                	fld	fs0,40(sp)
    80002742:	c03234d3          	fcvt.lu.s	s1,ft4,rup
    80002746:	2ac18cd3          	fmin.d	fs9,ft3,fa2

000000008000274a <i0000000332>:
    8000274a:	6165                	add	sp,sp,112

000000008000274c <i0000000333>:
    8000274c:	42fcfccf          	fnmadd.d	fs9,fs9,fa5,fs0

0000000080002750 <i0000000334>:
    80002750:	710d                	add	sp,sp,-352

0000000080002752 <i0000000335>:
    80002752:	8a95                	and	a3,a3,5

0000000080002754 <i0000000336>:
    80002754:	5572                	lw	a0,60(sp)
    80002756:	000de117          	auipc	sp,0xde
    8000275a:	8aa10113          	add	sp,sp,-1878 # 800e0000 <begin_signature>
    8000275e:	6319                	lui	t1,0x6
    80002760:	b103031b          	addw	t1,t1,-1264 # 5b10 <_tbss_end+0x5b10>
    80002764:	911a                	add	sp,sp,t1

0000000080002766 <i0000000337>:
    80002766:	5512                	lw	a0,36(sp)

0000000080002768 <i0000000338>:
    80002768:	c23cf553          	fcvt.lu.d	a0,fs9

000000008000276c <i0000000339>:
    8000276c:	9f19                	subw	a4,a4,a4
    8000276e:	000de117          	auipc	sp,0xde
    80002772:	89210113          	add	sp,sp,-1902 # 800e0000 <begin_signature>
    80002776:	6309                	lui	t1,0x2
    80002778:	7103031b          	addw	t1,t1,1808 # 2710 <_tbss_end+0x2710>
    8000277c:	911a                	add	sp,sp,t1

000000008000277e <i000000033a>:
    8000277e:	7866                	ld	a6,120(sp)

0000000080002780 <i000000033b>:
    80002780:	02c0                	add	s0,sp,324
    80002782:	4e01                	li	t3,0
    80002784:	000de117          	auipc	sp,0xde
    80002788:	87c10113          	add	sp,sp,-1924 # 800e0000 <begin_signature>
    8000278c:	6331                	lui	t1,0xc
    8000278e:	cf83031b          	addw	t1,t1,-776 # bcf8 <_tbss_end+0xbcf8>
    80002792:	911a                	add	sp,sp,t1
    80002794:	000de117          	auipc	sp,0xde
    80002798:	86c10113          	add	sp,sp,-1940 # 800e0000 <begin_signature>
    8000279c:	6305                	lui	t1,0x1
    8000279e:	0c83031b          	addw	t1,t1,200 # 10c8 <_tbss_end+0x10c8>
    800027a2:	911a                	add	sp,sp,t1
    800027a4:	d034cad3          	fcvt.s.lu	fs5,s1,rmm
    800027a8:	99016483          	lwu	s1,-1648(sp)
    800027ac:	d234f653          	fcvt.d.lu	fa2,s1
    800027b0:	0307fdb3          	remu	s11,a5,a6
    800027b4:	aa812903          	lw	s2,-1368(sp)
    800027b8:	75f13c23          	sd	t6,1880(sp)
    800027bc:	9f05                	subw	a4,a4,s1

00000000800027be <b000000033c>:
    800027be:	00000033          	add	zero,zero,zero
    800027c2:	05cc0963          	beq	s8,t3,80002814 <i0000000341>
    800027c6:	00000033          	add	zero,zero,zero
    800027ca:	03ffecb3          	rem	s9,t6,t6
    800027ce:	d224f153          	fcvt.d.l	ft2,s1
    800027d2:	2ff13823          	sd	t6,752(sp)
    800027d6:	d028bfd3          	fcvt.s.l	ft11,a7,rup
    800027da:	daa11783          	lh	a5,-598(sp)
    800027de:	0ff0000f          	fence
    800027e2:	02e4843b          	mulw	s0,s1,a4
    800027e6:	4c29                	li	s8,10
    800027e8:	000de117          	auipc	sp,0xde
    800027ec:	81810113          	add	sp,sp,-2024 # 800e0000 <begin_signature>
    800027f0:	6329                	lui	t1,0xa
    800027f2:	8303031b          	addw	t1,t1,-2000 # 9830 <_tbss_end+0x9830>
    800027f6:	911a                	add	sp,sp,t1

00000000800027f8 <i000000033c>:
    800027f8:	5276                	lw	tp,124(sp)

00000000800027fa <i000000033d>:
    800027fa:	868d                	sra	a3,a3,0x3

00000000800027fc <i000000033e>:
    800027fc:	8d39                	xor	a0,a0,a4

00000000800027fe <i000000033f>:
    800027fe:	015673b3          	and	t2,a2,s5
    80002802:	000dd117          	auipc	sp,0xdd
    80002806:	7fe10113          	add	sp,sp,2046 # 800e0000 <begin_signature>
    8000280a:	6309                	lui	t1,0x2
    8000280c:	2083031b          	addw	t1,t1,520 # 2208 <_tbss_end+0x2208>
    80002810:	911a                	add	sp,sp,t1

0000000080002812 <i0000000340>:
    80002812:	3446                	fld	fs0,112(sp)

0000000080002814 <i0000000341>:
    80002814:	b3dfd0ef          	jal	80000350 <func1>

0000000080002818 <i0000000342>:
    80002818:	e43a                	sd	a4,8(sp)

000000008000281a <i0000000343>:
    8000281a:	01059993          	sll	s3,a1,0x10

000000008000281e <i0000000344>:
    8000281e:	d22a7453          	fcvt.d.l	fs0,s4

0000000080002822 <i0000000345>:
    80002822:	8ca5                	xor	s1,s1,s1

0000000080002824 <i0000000346>:
    80002824:	8ef5                	and	a3,a3,a3
    80002826:	4ca9                	li	s9,10
    80002828:	000dd117          	auipc	sp,0xdd
    8000282c:	7d810113          	add	sp,sp,2008 # 800e0000 <begin_signature>
    80002830:	6331                	lui	t1,0xc
    80002832:	e183031b          	addw	t1,t1,-488 # be18 <_tbss_end+0xbe18>
    80002836:	911a                	add	sp,sp,t1
    80002838:	d0221553          	fcvt.s.l	fa0,tp,rtz
    8000283c:	00371193          	sll	gp,a4,0x3
    80002840:	02efc4b3          	div	s1,t6,a4
    80002844:	9c05                	subw	s0,s0,s1
    80002846:	e6ba                	sd	a4,328(sp)
    80002848:	02e4873b          	mulw	a4,s1,a4
    8000284c:	6165                	add	sp,sp,112

000000008000284e <b0000000347>:
    8000284e:	00000033          	add	zero,zero,zero
    80002852:	039c0663          	beq	s8,s9,8000287e <i000000034c>
    80002856:	00000033          	add	zero,zero,zero
    8000285a:	eca6                	sd	s1,88(sp)
    8000285c:	01f754bb          	srlw	s1,a4,t6
    80002860:	90910023          	sb	s1,-1792(sp)
    80002864:	e070c7cb          	fnmsub.s	fa5,ft1,ft7,ft8,rmm
    80002868:	8cc5                	or	s1,s1,s1
    8000286a:	6145                	add	sp,sp,48
    8000286c:	91c16d83          	lwu	s11,-1764(sp)
    80002870:	4c29                	li	s8,10

0000000080002872 <i0000000347>:
    80002872:	c23474d3          	fcvt.lu.d	s1,fs0

0000000080002876 <i0000000348>:
    80002876:	5512                	lw	a0,36(sp)

0000000080002878 <i0000000349>:
    80002878:	5742                	lw	a4,48(sp)

000000008000287a <i000000034a>:
    8000287a:	8099                	srl	s1,s1,0x6

000000008000287c <i000000034b>:
    8000287c:	52f2                	lw	t0,60(sp)

000000008000287e <i000000034c>:
    8000287e:	7151                	add	sp,sp,-240

0000000080002880 <i000000034d>:
    80002880:	01f4a4b3          	slt	s1,s1,t6

0000000080002884 <i000000034e>:
    80002884:	01f51333          	sll	t1,a0,t6

0000000080002888 <i000000034f>:
    80002888:	6105                	add	sp,sp,32

000000008000288a <i0000000350>:
    8000288a:	24b9                	addw	s1,s1,14 # 500e <_tbss_end+0x500e>
    8000288c:	4d81                	li	s11,0
    8000288e:	0000100f          	fence.i
    80002892:	029484bb          	mulw	s1,s1,s1
    80002896:	80813faf          	amomin.d	t6,s0,(sp)
    8000289a:	28c11353          	fmax.s	ft6,ft2,fa2
    8000289e:	40e13b2f          	amoor.d	s6,a4,(sp)
    800028a2:	02e4d3b3          	divu	t2,s1,a4
    800028a6:	61f13eaf          	amoand.d	t4,t6,(sp)

00000000800028aa <b0000000351>:
    800028aa:	00000033          	add	zero,zero,zero
    800028ae:	fdbc08e3          	beq	s8,s11,8000287e <i000000034c>
    800028b2:	00000033          	add	zero,zero,zero
    800028b6:	3acec4b7          	lui	s1,0x3acec
    800028ba:	1b4ffcd3          	fdiv.d	fs9,ft11,fs4
    800028be:	6165                	add	sp,sp,112
    800028c0:	31cd41cb          	fnmsub.s	ft3,fs10,ft8,ft6,rmm
    800028c4:	26e6                	fld	fa3,88(sp)
    800028c6:	e20404d3          	fmv.x.d	s1,fs0
    800028ca:	74a6                	ld	s1,104(sp)
    800028cc:	4c29                	li	s8,10

00000000800028ce <i0000000351>:
    800028ce:	e0ba                	sd	a4,64(sp)

00000000800028d0 <i0000000352>:
    800028d0:	42020f53          	fcvt.d.s	ft10,ft4

00000000800028d4 <i0000000353>:
    800028d4:	e956                	sd	s5,144(sp)

00000000800028d6 <i0000000354>:
    800028d6:	0292fcd3          	fadd.d	fs9,ft5,fs1

00000000800028da <i0000000355>:
    800028da:	d2050e53          	fcvt.d.w	ft8,a0

00000000800028de <i0000000356>:
    800028de:	26c6                	fld	fa3,80(sp)

00000000800028e0 <i0000000357>:
    800028e0:	8ce1                	and	s1,s1,s0

00000000800028e2 <i0000000358>:
    800028e2:	07d6                	sll	a5,a5,0x15

00000000800028e4 <i0000000359>:
    800028e4:	8e7a                	mv	t3,t5

00000000800028e6 <i000000035a>:
    800028e6:	c237f553          	fcvt.lu.d	a0,fa5
    800028ea:	6149                	add	sp,sp,144
    800028ec:	e1f12faf          	amomaxu.w	t6,t6,(sp)
    800028f0:	e8c16183          	lwu	gp,-372(sp)
    800028f4:	029ffdbb          	remuw	s11,t6,s1
    800028f8:	d2118453          	fcvt.d.wu	fs0,gp
    800028fc:	792e                	ld	s2,232(sp)
    800028fe:	a4c2                	fsd	fa6,72(sp)

0000000080002900 <b000000035b>:
    80002900:	00000b17          	auipc	s6,0x0
    80002904:	034b0b13          	add	s6,s6,52 # 80002934 <i0000000360>
    80002908:	000b0067          	jr	s6
    8000290c:	61b1272f          	amoand.w	a4,s11,(sp)
    80002910:	c23974d3          	fcvt.lu.d	s1,fs2
    80002914:	0ff0000f          	fence
    80002918:	0000100f          	fence.i
    8000291c:	00105e13          	srl	t3,zero,0x1
    80002920:	0101272f          	amoadd.w	a4,a6,(sp)
    80002924:	0b24                	add	s1,sp,408

0000000080002926 <i000000035b>:
    80002926:	ac3e                	fsd	fa5,24(sp)

0000000080002928 <i000000035c>:
    80002928:	83ed                	srl	a5,a5,0x1b

000000008000292a <i000000035d>:
    8000292a:	00d1e533          	or	a0,gp,a3

000000008000292e <i000000035e>:
    8000292e:	660a                	ld	a2,128(sp)

0000000080002930 <i000000035f>:
    80002930:	2a5dc993          	xor	s3,s11,677

0000000080002934 <i0000000360>:
    80002934:	c227f753          	fcvt.l.d	a4,fa5

0000000080002938 <i0000000361>:
    80002938:	7121                	add	sp,sp,-448

000000008000293a <i0000000362>:
    8000293a:	74c2                	ld	s1,48(sp)
    8000293c:	000dd117          	auipc	sp,0xdd
    80002940:	6c410113          	add	sp,sp,1732 # 800e0000 <begin_signature>
    80002944:	631d                	lui	t1,0x7
    80002946:	2e83031b          	addw	t1,t1,744 # 72e8 <_tbss_end+0x72e8>
    8000294a:	911a                	add	sp,sp,t1

000000008000294c <i0000000363>:
    8000294c:	bc66                	fsd	fs9,56(sp)

000000008000294e <i0000000364>:
    8000294e:	6f19                	lui	t5,0x6
    80002950:	870e                	mv	a4,gp
    80002952:	015a571b          	srlw	a4,s4,0x15
    80002956:	744a                	ld	s0,176(sp)
    80002958:	0000100f          	fence.i
    8000295c:	0141                	add	sp,sp,16
    8000295e:	6129                	add	sp,sp,192
    80002960:	5452                	lw	s0,52(sp)

0000000080002962 <b0000000365>:
    80002962:	00000817          	auipc	a6,0x0
    80002966:	02e80813          	add	a6,a6,46 # 80002990 <i000000036a>
    8000296a:	00080067          	jr	a6
    8000296e:	03f73e33          	mulhu	t3,a4,t6
    80002972:	08713a2f          	amoswap.d	s4,t2,(sp)
    80002976:	0bc0                	add	s0,sp,468
    80002978:	0bf8                	add	a4,sp,476
    8000297a:	27e6                	fld	fa5,88(sp)
    8000297c:	fa416883          	lwu	a7,-92(sp)
    80002980:	d02ead53          	fcvt.s.l	fs10,t4,rdn

0000000080002984 <i0000000365>:
    80002984:	ac2a                	fsd	fa0,24(sp)

0000000080002986 <i0000000366>:
    80002986:	1178                	add	a4,sp,172

0000000080002988 <i0000000367>:
    80002988:	955e                	add	a0,a0,s7

000000008000298a <i0000000368>:
    8000298a:	14b1                	add	s1,s1,-20 # 3acebfec <_tbss_end+0x3acebfec>

000000008000298c <i0000000369>:
    8000298c:	c2e54f93          	xor	t6,a0,-978

0000000080002990 <i000000036a>:
    80002990:	1004                	add	s1,sp,32

0000000080002992 <i000000036b>:
    80002992:	7f2a                	ld	t5,168(sp)
    80002994:	000dd117          	auipc	sp,0xdd
    80002998:	66c10113          	add	sp,sp,1644 # 800e0000 <begin_signature>
    8000299c:	632d                	lui	t1,0xb
    8000299e:	a103031b          	addw	t1,t1,-1520 # aa10 <_tbss_end+0xaa10>
    800029a2:	911a                	add	sp,sp,t1

00000000800029a4 <i000000036c>:
    800029a4:	a0a6                	fsd	fs1,64(sp)

00000000800029a6 <i000000036d>:
    800029a6:	8c89                	sub	s1,s1,a0

00000000800029a8 <i000000036e>:
    800029a8:	b0a2                	fsd	fs0,96(sp)
    800029aa:	4b25                	li	s6,9
    800029ac:	4c29                	li	s8,10
    800029ae:	a13e                	fsd	fa5,128(sp)
    800029b0:	c23cf753          	fcvt.lu.d	a4,fs9
    800029b4:	1887b3d3          	fdiv.s	ft7,fa5,fs0,rup
    800029b8:	8f19                	sub	a4,a4,a4
    800029ba:	413123af          	amoor.w	t2,s3,(sp)
    800029be:	c003f8d3          	fcvt.w.s	a7,ft7
    800029c2:	a0b2                	fsd	fa2,64(sp)

00000000800029c4 <b000000036f>:
    800029c4:	00000033          	add	zero,zero,zero
    800029c8:	036c4f63          	blt	s8,s6,80002a06 <i0000000374>
    800029cc:	00000033          	add	zero,zero,zero
    800029d0:	4111d833          	sra	a6,gp,a7
    800029d4:	a1979753          	flt.s	a4,fa5,fs9
    800029d8:	9c05                	subw	s0,s0,s1
    800029da:	31411f83          	lh	t6,788(sp)
    800029de:	03cdfdbb          	remuw	s11,s11,t3
    800029e2:	0ff0000f          	fence
    800029e6:	80913faf          	amomin.d	t6,s1,(sp)
    800029ea:	4c29                	li	s8,10

00000000800029ec <i000000036f>:
    800029ec:	a4be                	fsd	fa5,72(sp)

00000000800029ee <i0000000370>:
    800029ee:	8d45                	or	a0,a0,s1

00000000800029f0 <i0000000371>:
    800029f0:	240e                	fld	fs0,192(sp)

00000000800029f2 <i0000000372>:
    800029f2:	64a2                	ld	s1,8(sp)
    800029f4:	000dd117          	auipc	sp,0xdd
    800029f8:	60c10113          	add	sp,sp,1548 # 800e0000 <begin_signature>
    800029fc:	6331                	lui	t1,0xc
    800029fe:	9e03031b          	addw	t1,t1,-1568 # b9e0 <_tbss_end+0xb9e0>
    80002a02:	911a                	add	sp,sp,t1

0000000080002a04 <i0000000373>:
    80002a04:	27e6                	fld	fa5,88(sp)

0000000080002a06 <i0000000374>:
    80002a06:	a0ae                	fsd	fa1,64(sp)

0000000080002a08 <i0000000375>:
    80002a08:	4d8d                	li	s11,3

0000000080002a0a <i0000000376>:
    80002a0a:	0be17753          	fsub.d	fa4,ft2,ft10

0000000080002a0e <i0000000377>:
    80002a0e:	00edf4b3          	and	s1,s11,a4

0000000080002a12 <i0000000378>:
    80002a12:	01f52033          	slt	zero,a0,t6
    80002a16:	4b01                	li	s6,0
    80002a18:	000dd117          	auipc	sp,0xdd
    80002a1c:	5e810113          	add	sp,sp,1512 # 800e0000 <begin_signature>
    80002a20:	6311                	lui	t1,0x4
    80002a22:	1703031b          	addw	t1,t1,368 # 4170 <_tbss_end+0x4170>
    80002a26:	911a                	add	sp,sp,t1
    80002a28:	1459                	add	s0,s0,-10
    80002a2a:	c03c9dd3          	fcvt.lu.s	s11,fs9,rtz
    80002a2e:	01f124af          	amoadd.w	s1,t6,(sp)
    80002a32:	04a6                	sll	s1,s1,0x9
    80002a34:	a0413423          	sd	tp,-1528(sp)
    80002a38:	0083abb3          	slt	s7,t2,s0
    80002a3c:	10411923          	sh	tp,274(sp)

0000000080002a40 <b0000000379>:
    80002a40:	00000033          	add	zero,zero,zero
    80002a44:	fd6c01e3          	beq	s8,s6,80002a06 <i0000000374>
    80002a48:	00000033          	add	zero,zero,zero
    80002a4c:	d0270c53          	fcvt.s.l	fs8,a4,rne
    80002a50:	81013883          	ld	a7,-2032(sp)
    80002a54:	b43a                	fsd	fa4,40(sp)
    80002a56:	c0be                	sw	a5,64(sp)
    80002a58:	d5b4a713          	slti	a4,s1,-677
    80002a5c:	8fc5                	or	a5,a5,s1
    80002a5e:	0ff0000f          	fence
    80002a62:	4c29                	li	s8,10

0000000080002a64 <i0000000379>:
    80002a64:	01e00033          	add	zero,zero,t5

0000000080002a68 <i000000037a>:
    80002a68:	9a35                	and	a2,a2,-19

0000000080002a6a <i000000037b>:
    80002a6a:	a33e7c43          	fmadd.d	fs8,ft8,fs3,fs4

0000000080002a6e <i000000037c>:
    80002a6e:	7af7f7c7          	fmsub.d	fa5,fa5,fa5,fa5

0000000080002a72 <i000000037d>:
    80002a72:	06a9                	add	a3,a3,10

0000000080002a74 <i000000037e>:
    80002a74:	fd82                	sd	zero,248(sp)
    80002a76:	000dd117          	auipc	sp,0xdd
    80002a7a:	58a10113          	add	sp,sp,1418 # 800e0000 <begin_signature>
    80002a7e:	632d                	lui	t1,0xb
    80002a80:	1583031b          	addw	t1,t1,344 # b158 <_tbss_end+0xb158>
    80002a84:	911a                	add	sp,sp,t1

0000000080002a86 <i000000037f>:
    80002a86:	3442                	fld	fs0,48(sp)

0000000080002a88 <i0000000380>:
    80002a88:	0b61fcd3          	fsub.d	fs9,ft3,fs6

0000000080002a8c <i0000000381>:
    80002a8c:	2446                	fld	fs0,80(sp)

0000000080002a8e <i0000000382>:
    80002a8e:	5a207947          	fmsub.d	fs2,ft0,ft2,fa1
    80002a92:	4a31                	li	s4,12
    80002a94:	0c05                	add	s8,s8,1
    80002a96:	4b211223          	sh	s2,1188(sp)
    80002a9a:	9b89                	and	a5,a5,-30
    80002a9c:	108c9453          	fmul.s	fs0,fs9,fs0,rtz
    80002aa0:	0008123b          	sllw	tp,a6,zero
    80002aa4:	9f39                	addw	a4,a4,a4
    80002aa6:	08e13caf          	amoswap.d	s9,a4,(sp)
    80002aaa:	03ffc733          	div	a4,t6,t6

0000000080002aae <b0000000383>:
    80002aae:	00000033          	add	zero,zero,zero
    80002ab2:	fd8a51e3          	bge	s4,s8,80002a74 <i000000037e>
    80002ab6:	00000033          	add	zero,zero,zero
    80002aba:	03a1f933          	remu	s2,gp,s10
    80002abe:	5f92                	lw	t6,36(sp)
    80002ac0:	03ffa4b3          	mulhsu	s1,t6,t6
    80002ac4:	417404bb          	subw	s1,s0,s7
    80002ac8:	cc22                	sw	s0,24(sp)
    80002aca:	013cf1b3          	and	gp,s9,s3
    80002ace:	0198b733          	sltu	a4,a7,s9
    80002ad2:	4c29                	li	s8,10

0000000080002ad4 <i0000000383>:
    80002ad4:	3cc2                	fld	fs9,48(sp)

0000000080002ad6 <i0000000384>:
    80002ad6:	750e                	ld	a0,224(sp)

0000000080002ad8 <i0000000385>:
    80002ad8:	13aaf9d3          	fmul.d	fs3,fs5,fs10

0000000080002adc <i0000000386>:
    80002adc:	f0a6                	sd	s1,96(sp)

0000000080002ade <i0000000387>:
    80002ade:	ac26                	fsd	fs1,24(sp)

0000000080002ae0 <i0000000388>:
    80002ae0:	b8ba                	fsd	fa4,112(sp)
    80002ae2:	000dd117          	auipc	sp,0xdd
    80002ae6:	51e10113          	add	sp,sp,1310 # 800e0000 <begin_signature>
    80002aea:	630d                	lui	t1,0x3
    80002aec:	7c83031b          	addw	t1,t1,1992 # 37c8 <_tbss_end+0x37c8>
    80002af0:	911a                	add	sp,sp,t1

0000000080002af2 <i0000000389>:
    80002af2:	f8a6                	sd	s1,112(sp)

0000000080002af4 <i000000038a>:
    80002af4:	3682                	fld	fa3,32(sp)

0000000080002af6 <i000000038b>:
    80002af6:	8ec9                	or	a3,a3,a0

0000000080002af8 <i000000038c>:
    80002af8:	13b7b193          	sltiu	gp,a5,315
    80002afc:	4d25                	li	s10,9
    80002afe:	4c29                	li	s8,10
    80002b00:	7e412c27          	fsw	ft4,2040(sp)
    80002b04:	8c01                	sub	s0,s0,s0
    80002b06:	fc26                	sd	s1,56(sp)
    80002b08:	0ff0000f          	fence
    80002b0c:	1f96                	sll	t6,t6,0x25
    80002b0e:	5782                	lw	a5,32(sp)
    80002b10:	d01717d3          	fcvt.s.wu	fa5,a4,rtz

0000000080002b14 <b000000038d>:
    80002b14:	00000033          	add	zero,zero,zero
    80002b18:	038d5763          	bge	s10,s8,80002b46 <i0000000392>
    80002b1c:	00000033          	add	zero,zero,zero
    80002b20:	e5016e83          	lwu	t4,-432(sp)
    80002b24:	5709                	li	a4,-30
    80002b26:	017d9813          	sll	a6,s11,0x17
    80002b2a:	6a34b713          	sltiu	a4,s1,1699
    80002b2e:	878a                	mv	a5,sp
    80002b30:	099cb7d3          	fsub.s	fa5,fs9,fs9,rup
    80002b34:	c0387fd3          	fcvt.lu.s	t6,fa6
    80002b38:	4c29                	li	s8,10

0000000080002b3a <i000000038d>:
    80002b3a:	6502                	ld	a0,0(sp)

0000000080002b3c <i000000038e>:
    80002b3c:	9925                	and	a0,a0,-23

0000000080002b3e <i000000038f>:
    80002b3e:	8d65                	and	a0,a0,s1

0000000080002b40 <i0000000390>:
    80002b40:	01ffd4b3          	srl	s1,t6,t6

0000000080002b44 <i0000000391>:
    80002b44:	8d09                	sub	a0,a0,a0

0000000080002b46 <i0000000392>:
    80002b46:	394b9f97          	auipc	t6,0x394b9

0000000080002b4a <i0000000393>:
    80002b4a:	1585                	add	a1,a1,-31
    80002b4c:	000dd117          	auipc	sp,0xdd
    80002b50:	4b410113          	add	sp,sp,1204 # 800e0000 <begin_signature>
    80002b54:	6329                	lui	t1,0xa
    80002b56:	ee03031b          	addw	t1,t1,-288 # 9ee0 <_tbss_end+0x9ee0>
    80002b5a:	911a                	add	sp,sp,t1

0000000080002b5c <i0000000394>:
    80002b5c:	e0a6                	sd	s1,64(sp)

0000000080002b5e <i0000000395>:
    80002b5e:	0491                	add	s1,s1,4

0000000080002b60 <i0000000396>:
    80002b60:	ff0fd0ef          	jal	80000350 <func1>

0000000080002b64 <i0000000397>:
    80002b64:	6602                	ld	a2,0(sp)
    80002b66:	4ca9                	li	s9,10
    80002b68:	000dd117          	auipc	sp,0xdd
    80002b6c:	49810113          	add	sp,sp,1176 # 800e0000 <begin_signature>
    80002b70:	6331                	lui	t1,0xc
    80002b72:	9183031b          	addw	t1,t1,-1768 # b918 <_tbss_end+0xb918>
    80002b76:	911a                	add	sp,sp,t1
    80002b78:	4197549b          	sraw	s1,a4,0x19
    80002b7c:	0118b033          	sltu	zero,a7,a7
    80002b80:	2426                	fld	fs0,72(sp)
    80002b82:	033ad4bb          	divuw	s1,s5,s3
    80002b86:	ded2                	sw	s4,124(sp)
    80002b88:	a13a                	fsd	fa4,128(sp)
    80002b8a:	0a4d7e53          	fsub.d	ft8,fs10,ft4

0000000080002b8e <b0000000398>:
    80002b8e:	00000033          	add	zero,zero,zero
    80002b92:	fb9c1ce3          	bne	s8,s9,80002b4a <i0000000393>
    80002b96:	00000033          	add	zero,zero,zero
    80002b9a:	029fc733          	div	a4,t6,s1
    80002b9e:	7cc12d87          	flw	fs11,1996(sp)
    80002ba2:	87a5                	sra	a5,a5,0x9
    80002ba4:	de26                	sw	s1,60(sp)
    80002ba6:	ef313423          	sd	s3,-280(sp)
    80002baa:	d03bb453          	fcvt.s.lu	fs0,s7,rup
    80002bae:	1451                	add	s0,s0,-12
    80002bb0:	4c29                	li	s8,10

0000000080002bb2 <i0000000398>:
    80002bb2:	8c7d                	and	s0,s0,a5

0000000080002bb4 <i0000000399>:
    80002bb4:	4612                	lw	a2,4(sp)

0000000080002bb6 <i000000039a>:
    80002bb6:	20f124af          	amoxor.w	s1,a5,(sp)

0000000080002bba <i000000039b>:
    80002bba:	5bf5                	li	s7,-3
    80002bbc:	000dd117          	auipc	sp,0xdd
    80002bc0:	44410113          	add	sp,sp,1092 # 800e0000 <begin_signature>
    80002bc4:	6335                	lui	t1,0xd
    80002bc6:	bf03031b          	addw	t1,t1,-1040 # cbf0 <_tbss_end+0xcbf0>
    80002bca:	911a                	add	sp,sp,t1

0000000080002bcc <i000000039c>:
    80002bcc:	ca36                	sw	a3,20(sp)

0000000080002bce <i000000039d>:
    80002bce:	03f524b3          	mulhsu	s1,a0,t6

0000000080002bd2 <i000000039e>:
    80002bd2:	c02d8dd3          	fcvt.l.s	s11,fs11,rne

0000000080002bd6 <i000000039f>:
    80002bd6:	04ca                	sll	s1,s1,0x12
    80002bd8:	4185                	li	gp,1
    80002bda:	000eff17          	auipc	t5,0xef
    80002bde:	423f2323          	sw	gp,1062(t5) # 800f2000 <tohost>
    80002be2:	0000100f          	fence.i
    80002be6:	00020fb7          	lui	t6,0x20
    80002bea:	000ddf17          	auipc	t5,0xdd
    80002bee:	416f0f13          	add	t5,t5,1046 # 800e0000 <begin_signature>
    80002bf2:	01efa023          	sw	t5,0(t6) # 20000 <_tbss_end+0x20000>
    80002bf6:	000edf17          	auipc	t5,0xed
    80002bfa:	40af0f13          	add	t5,t5,1034 # 800f0000 <end_signature>
    80002bfe:	01efa423          	sw	t5,8(t6)
    80002c02:	01efa623          	sw	t5,12(t6)
	...

Disassembly of section .tohost:

00000000800f2000 <tohost>:
	...

00000000800f2040 <fromhost>:
	...

00000000800f2050 <ecause_num>:
	...
