
work/bin/out_pg_excep8_00000.riscv:     file format elf64-littleriscv


Disassembly of section .text.init:

0000000080000000 <_start>:
    80000000:	000e0117          	auipc	sp,0xe0
    80000004:	00010113          	mv	sp,sp
    80000008:	6082                	ld	ra,0(sp)
    8000000a:	61a2                	ld	gp,8(sp)
    8000000c:	6242                	ld	tp,16(sp)
    8000000e:	62e2                	ld	t0,24(sp)
    80000010:	7302                	ld	t1,32(sp)
    80000012:	73a2                	ld	t2,40(sp)
    80000014:	7442                	ld	s0,48(sp)
    80000016:	74e2                	ld	s1,56(sp)
    80000018:	6506                	ld	a0,64(sp)
    8000001a:	65a6                	ld	a1,72(sp)
    8000001c:	6646                	ld	a2,80(sp)
    8000001e:	66e6                	ld	a3,88(sp)
    80000020:	7706                	ld	a4,96(sp)
    80000022:	77a6                	ld	a5,104(sp)
    80000024:	7846                	ld	a6,112(sp)
    80000026:	78e6                	ld	a7,120(sp)
    80000028:	690a                	ld	s2,128(sp)
    8000002a:	69aa                	ld	s3,136(sp)
    8000002c:	6a4a                	ld	s4,144(sp)
    8000002e:	6aea                	ld	s5,152(sp)
    80000030:	7b0a                	ld	s6,160(sp)
    80000032:	7baa                	ld	s7,168(sp)
    80000034:	7c4a                	ld	s8,176(sp)
    80000036:	7cea                	ld	s9,184(sp)
    80000038:	6d0e                	ld	s10,192(sp)
    8000003a:	6dae                	ld	s11,200(sp)
    8000003c:	6e4e                	ld	t3,208(sp)
    8000003e:	6eee                	ld	t4,216(sp)
    80000040:	7f0e                	ld	t5,224(sp)
    80000042:	7fae                	ld	t6,232(sp)
    80000044:	62f9                	lui	t0,0x1e
    80000046:	3002a073          	csrs	mstatus,t0
    8000004a:	4285                	li	t0,1
    8000004c:	02fe                	sll	t0,t0,0x1f
    8000004e:	0002d863          	bgez	t0,8000005e <_start+0x5e>
    80000052:	4505                	li	a0,1
    80000054:	000f2297          	auipc	t0,0xf2
    80000058:	faa2a623          	sw	a0,-84(t0) # 800f2000 <tohost>
    8000005c:	bfdd                	j	80000052 <_start+0x52>
    8000005e:	00000297          	auipc	t0,0x0
    80000062:	09228293          	add	t0,t0,146 # 800000f0 <_start+0xf0>
    80000066:	30529073          	csrw	mtvec,t0
    8000006a:	00301073          	fscsr	zero
    8000006e:	f2008053          	fmv.d.x	ft0,ra
    80000072:	f20080d3          	fmv.d.x	ft1,ra
    80000076:	f2010153          	fmv.d.x	ft2,sp
    8000007a:	f20181d3          	fmv.d.x	ft3,gp
    8000007e:	f2020253          	fmv.d.x	ft4,tp
    80000082:	f20282d3          	fmv.d.x	ft5,t0
    80000086:	f2030353          	fmv.d.x	ft6,t1
    8000008a:	f20383d3          	fmv.d.x	ft7,t2
    8000008e:	f2040453          	fmv.d.x	fs0,s0
    80000092:	f20484d3          	fmv.d.x	fs1,s1
    80000096:	f2050553          	fmv.d.x	fa0,a0
    8000009a:	f20585d3          	fmv.d.x	fa1,a1
    8000009e:	f2060653          	fmv.d.x	fa2,a2
    800000a2:	f20686d3          	fmv.d.x	fa3,a3
    800000a6:	f2070753          	fmv.d.x	fa4,a4
    800000aa:	f20787d3          	fmv.d.x	fa5,a5
    800000ae:	f2080853          	fmv.d.x	fa6,a6
    800000b2:	f20888d3          	fmv.d.x	fa7,a7
    800000b6:	f2090953          	fmv.d.x	fs2,s2
    800000ba:	f20989d3          	fmv.d.x	fs3,s3
    800000be:	f20a0a53          	fmv.d.x	fs4,s4
    800000c2:	f20a8ad3          	fmv.d.x	fs5,s5
    800000c6:	f20b0b53          	fmv.d.x	fs6,s6
    800000ca:	f20b8bd3          	fmv.d.x	fs7,s7
    800000ce:	f20c0c53          	fmv.d.x	fs8,s8
    800000d2:	f20c8cd3          	fmv.d.x	fs9,s9
    800000d6:	f20d0d53          	fmv.d.x	fs10,s10
    800000da:	f20d8dd3          	fmv.d.x	fs11,s11
    800000de:	f20e0e53          	fmv.d.x	ft8,t3
    800000e2:	f20e8ed3          	fmv.d.x	ft9,t4
    800000e6:	f20f0f53          	fmv.d.x	ft10,t5
    800000ea:	f20f8fd3          	fmv.d.x	ft11,t6
    800000ee:	0001                	nop
    800000f0:	00000297          	auipc	t0,0x0
    800000f4:	03428293          	add	t0,t0,52 # 80000124 <trap_entry>
    800000f8:	30529073          	csrw	mtvec,t0
    800000fc:	000f3217          	auipc	tp,0xf3
    80000100:	84420213          	add	tp,tp,-1980 # 800f2940 <_end+0x3f>
    80000104:	fc027213          	and	tp,tp,-64
    80000108:	f1402573          	csrr	a0,mhartid
    8000010c:	4585                	li	a1,1
    8000010e:	00b57063          	bgeu	a0,a1,8000010e <_start+0x10e>
    80000112:	01151613          	sll	a2,a0,0x11
    80000116:	9232                	add	tp,tp,a2
    80000118:	00150113          	add	sp,a0,1
    8000011c:	0146                	sll	sp,sp,0x11
    8000011e:	9112                	add	sp,sp,tp
    80000120:	2400006f          	j	80000360 <main>

0000000080000124 <trap_entry>:
    80000124:	716d                	add	sp,sp,-272
    80000126:	e406                	sd	ra,8(sp)
    80000128:	e80a                	sd	sp,16(sp)
    8000012a:	ec0e                	sd	gp,24(sp)
    8000012c:	f012                	sd	tp,32(sp)
    8000012e:	f416                	sd	t0,40(sp)
    80000130:	f81a                	sd	t1,48(sp)
    80000132:	fc1e                	sd	t2,56(sp)
    80000134:	e0a2                	sd	s0,64(sp)
    80000136:	e4a6                	sd	s1,72(sp)
    80000138:	e8aa                	sd	a0,80(sp)
    8000013a:	ecae                	sd	a1,88(sp)
    8000013c:	f0b2                	sd	a2,96(sp)
    8000013e:	f4b6                	sd	a3,104(sp)
    80000140:	f8ba                	sd	a4,112(sp)
    80000142:	fcbe                	sd	a5,120(sp)
    80000144:	e142                	sd	a6,128(sp)
    80000146:	e546                	sd	a7,136(sp)
    80000148:	e94a                	sd	s2,144(sp)
    8000014a:	ed4e                	sd	s3,152(sp)
    8000014c:	f152                	sd	s4,160(sp)
    8000014e:	f556                	sd	s5,168(sp)
    80000150:	f95a                	sd	s6,176(sp)
    80000152:	fd5e                	sd	s7,184(sp)
    80000154:	e1e2                	sd	s8,192(sp)
    80000156:	e5e6                	sd	s9,200(sp)
    80000158:	e9ea                	sd	s10,208(sp)
    8000015a:	edee                	sd	s11,216(sp)
    8000015c:	f1f2                	sd	t3,224(sp)
    8000015e:	f5f6                	sd	t4,232(sp)
    80000160:	f9fa                	sd	t5,240(sp)
    80000162:	fdfe                	sd	t6,248(sp)
    80000164:	34202573          	csrr	a0,mcause
    80000168:	341025f3          	csrr	a1,mepc
    8000016c:	0005d603          	lhu	a2,0(a1)
    80000170:	8a0d                	and	a2,a2,3
    80000172:	428d                	li	t0,3
    80000174:	00561563          	bne	a2,t0,8000017e <inst16>

0000000080000178 <inst32>:
    80000178:	0591                	add	a1,a1,4
    8000017a:	00000363          	beqz	zero,80000180 <inst16+0x2>

000000008000017e <inst16>:
    8000017e:	0589                	add	a1,a1,2
    80000180:	34159073          	csrw	mepc,a1
    80000184:	6289                	lui	t0,0x2
    80000186:	8002829b          	addw	t0,t0,-2048 # 1800 <_tbss_end+0x1800>
    8000018a:	3002a073          	csrs	mstatus,t0
    8000018e:	60a2                	ld	ra,8(sp)
    80000190:	6142                	ld	sp,16(sp)
    80000192:	61e2                	ld	gp,24(sp)
    80000194:	7202                	ld	tp,32(sp)
    80000196:	72a2                	ld	t0,40(sp)
    80000198:	7342                	ld	t1,48(sp)
    8000019a:	73e2                	ld	t2,56(sp)
    8000019c:	6406                	ld	s0,64(sp)
    8000019e:	64a6                	ld	s1,72(sp)
    800001a0:	6546                	ld	a0,80(sp)
    800001a2:	65e6                	ld	a1,88(sp)
    800001a4:	7606                	ld	a2,96(sp)
    800001a6:	76a6                	ld	a3,104(sp)
    800001a8:	7746                	ld	a4,112(sp)
    800001aa:	77e6                	ld	a5,120(sp)
    800001ac:	680a                	ld	a6,128(sp)
    800001ae:	68aa                	ld	a7,136(sp)
    800001b0:	694a                	ld	s2,144(sp)
    800001b2:	69ea                	ld	s3,152(sp)
    800001b4:	7a0a                	ld	s4,160(sp)
    800001b6:	7aaa                	ld	s5,168(sp)
    800001b8:	7b4a                	ld	s6,176(sp)
    800001ba:	7bea                	ld	s7,184(sp)
    800001bc:	6c0e                	ld	s8,192(sp)
    800001be:	6cae                	ld	s9,200(sp)
    800001c0:	6d4e                	ld	s10,208(sp)
    800001c2:	6dee                	ld	s11,216(sp)
    800001c4:	7e0e                	ld	t3,224(sp)
    800001c6:	7eae                	ld	t4,232(sp)
    800001c8:	7f4e                	ld	t5,240(sp)
    800001ca:	7fee                	ld	t6,248(sp)
    800001cc:	6151                	add	sp,sp,272
    800001ce:	30200073          	mret

Disassembly of section .text:

00000000800001e0 <custom_trap_handler_s>:
    800001e0:	7129                	add	sp,sp,-320
    800001e2:	e406                	sd	ra,8(sp)
    800001e4:	ec0e                	sd	gp,24(sp)
    800001e6:	f012                	sd	tp,32(sp)
    800001e8:	f416                	sd	t0,40(sp)
    800001ea:	f81a                	sd	t1,48(sp)
    800001ec:	fc1e                	sd	t2,56(sp)
    800001ee:	e0a2                	sd	s0,64(sp)
    800001f0:	e4a6                	sd	s1,72(sp)
    800001f2:	e8aa                	sd	a0,80(sp)
    800001f4:	ecae                	sd	a1,88(sp)
    800001f6:	f0b2                	sd	a2,96(sp)
    800001f8:	f4b6                	sd	a3,104(sp)
    800001fa:	f8ba                	sd	a4,112(sp)
    800001fc:	fcbe                	sd	a5,120(sp)
    800001fe:	e142                	sd	a6,128(sp)
    80000200:	e546                	sd	a7,136(sp)
    80000202:	e94a                	sd	s2,144(sp)
    80000204:	ed4e                	sd	s3,152(sp)
    80000206:	f152                	sd	s4,160(sp)
    80000208:	f556                	sd	s5,168(sp)
    8000020a:	f95a                	sd	s6,176(sp)
    8000020c:	fd5e                	sd	s7,184(sp)
    8000020e:	e1e2                	sd	s8,192(sp)
    80000210:	e5e6                	sd	s9,200(sp)
    80000212:	e9ea                	sd	s10,208(sp)
    80000214:	edee                	sd	s11,216(sp)
    80000216:	f1f2                	sd	t3,224(sp)
    80000218:	f5f6                	sd	t4,232(sp)
    8000021a:	f9fa                	sd	t5,240(sp)
    8000021c:	fdfe                	sd	t6,248(sp)
    8000021e:	10002573          	csrr	a0,sstatus
    80000222:	14102573          	csrr	a0,sepc
    80000226:	10502573          	csrr	a0,stvec
    8000022a:	14202573          	csrr	a0,scause
    8000022e:	4601                	li	a2,0
    80000230:	00c50763          	beq	a0,a2,8000023e <custom_trap_handler_s+0x5e>
    80000234:	4605                	li	a2,1
    80000236:	00c50463          	beq	a0,a2,8000023e <custom_trap_handler_s+0x5e>
    8000023a:	141025f3          	csrr	a1,sepc
    8000023e:	00059603          	lh	a2,0(a1)
    80000242:	8a0d                	and	a2,a2,3
    80000244:	428d                	li	t0,3
    80000246:	00561563          	bne	a2,t0,80000250 <inst16_s>

000000008000024a <inst32_s>:
    8000024a:	0591                	add	a1,a1,4
    8000024c:	00000363          	beqz	zero,80000252 <inst16_s+0x2>

0000000080000250 <inst16_s>:
    80000250:	0589                	add	a1,a1,2
    80000252:	14159073          	csrw	sepc,a1
    80000256:	60a2                	ld	ra,8(sp)
    80000258:	61e2                	ld	gp,24(sp)
    8000025a:	7202                	ld	tp,32(sp)
    8000025c:	72a2                	ld	t0,40(sp)
    8000025e:	7342                	ld	t1,48(sp)
    80000260:	73e2                	ld	t2,56(sp)
    80000262:	6406                	ld	s0,64(sp)
    80000264:	64a6                	ld	s1,72(sp)
    80000266:	6546                	ld	a0,80(sp)
    80000268:	65e6                	ld	a1,88(sp)
    8000026a:	7606                	ld	a2,96(sp)
    8000026c:	76a6                	ld	a3,104(sp)
    8000026e:	7746                	ld	a4,112(sp)
    80000270:	77e6                	ld	a5,120(sp)
    80000272:	680a                	ld	a6,128(sp)
    80000274:	68aa                	ld	a7,136(sp)
    80000276:	694a                	ld	s2,144(sp)
    80000278:	69ea                	ld	s3,152(sp)
    8000027a:	7a0a                	ld	s4,160(sp)
    8000027c:	7aaa                	ld	s5,168(sp)
    8000027e:	7b4a                	ld	s6,176(sp)
    80000280:	7bea                	ld	s7,184(sp)
    80000282:	6c0e                	ld	s8,192(sp)
    80000284:	6cae                	ld	s9,200(sp)
    80000286:	6d4e                	ld	s10,208(sp)
    80000288:	6dee                	ld	s11,216(sp)
    8000028a:	7e0e                	ld	t3,224(sp)
    8000028c:	7eae                	ld	t4,232(sp)
    8000028e:	7f4e                	ld	t5,240(sp)
    80000290:	7fee                	ld	t6,248(sp)
    80000292:	6131                	add	sp,sp,320
    80000294:	10200073          	sret

0000000080000298 <custom_trap_handler>:
    80000298:	7129                	add	sp,sp,-320
    8000029a:	e406                	sd	ra,8(sp)
    8000029c:	ec0e                	sd	gp,24(sp)
    8000029e:	f012                	sd	tp,32(sp)
    800002a0:	f416                	sd	t0,40(sp)
    800002a2:	f81a                	sd	t1,48(sp)
    800002a4:	fc1e                	sd	t2,56(sp)
    800002a6:	e0a2                	sd	s0,64(sp)
    800002a8:	e4a6                	sd	s1,72(sp)
    800002aa:	e8aa                	sd	a0,80(sp)
    800002ac:	ecae                	sd	a1,88(sp)
    800002ae:	f0b2                	sd	a2,96(sp)
    800002b0:	f4b6                	sd	a3,104(sp)
    800002b2:	f8ba                	sd	a4,112(sp)
    800002b4:	fcbe                	sd	a5,120(sp)
    800002b6:	e142                	sd	a6,128(sp)
    800002b8:	e546                	sd	a7,136(sp)
    800002ba:	e94a                	sd	s2,144(sp)
    800002bc:	ed4e                	sd	s3,152(sp)
    800002be:	f152                	sd	s4,160(sp)
    800002c0:	f556                	sd	s5,168(sp)
    800002c2:	f95a                	sd	s6,176(sp)
    800002c4:	fd5e                	sd	s7,184(sp)
    800002c6:	e1e2                	sd	s8,192(sp)
    800002c8:	e5e6                	sd	s9,200(sp)
    800002ca:	e9ea                	sd	s10,208(sp)
    800002cc:	edee                	sd	s11,216(sp)
    800002ce:	f1f2                	sd	t3,224(sp)
    800002d0:	f5f6                	sd	t4,232(sp)
    800002d2:	f9fa                	sd	t5,240(sp)
    800002d4:	fdfe                	sd	t6,248(sp)
    800002d6:	30002573          	csrr	a0,mstatus
    800002da:	34102573          	csrr	a0,mepc
    800002de:	30502573          	csrr	a0,mtvec
    800002e2:	34202573          	csrr	a0,mcause
    800002e6:	4601                	li	a2,0
    800002e8:	00c50763          	beq	a0,a2,800002f6 <custom_trap_handler+0x5e>
    800002ec:	4605                	li	a2,1
    800002ee:	00c50463          	beq	a0,a2,800002f6 <custom_trap_handler+0x5e>
    800002f2:	341025f3          	csrr	a1,mepc
    800002f6:	00059603          	lh	a2,0(a1)
    800002fa:	8a0d                	and	a2,a2,3
    800002fc:	428d                	li	t0,3
    800002fe:	00561563          	bne	a2,t0,80000308 <inst16>

0000000080000302 <inst32>:
    80000302:	0591                	add	a1,a1,4
    80000304:	00000363          	beqz	zero,8000030a <inst16+0x2>

0000000080000308 <inst16>:
    80000308:	0589                	add	a1,a1,2
    8000030a:	34159073          	csrw	mepc,a1
    8000030e:	60a2                	ld	ra,8(sp)
    80000310:	61e2                	ld	gp,24(sp)
    80000312:	7202                	ld	tp,32(sp)
    80000314:	72a2                	ld	t0,40(sp)
    80000316:	7342                	ld	t1,48(sp)
    80000318:	73e2                	ld	t2,56(sp)
    8000031a:	6406                	ld	s0,64(sp)
    8000031c:	64a6                	ld	s1,72(sp)
    8000031e:	6546                	ld	a0,80(sp)
    80000320:	65e6                	ld	a1,88(sp)
    80000322:	7606                	ld	a2,96(sp)
    80000324:	76a6                	ld	a3,104(sp)
    80000326:	7746                	ld	a4,112(sp)
    80000328:	77e6                	ld	a5,120(sp)
    8000032a:	680a                	ld	a6,128(sp)
    8000032c:	68aa                	ld	a7,136(sp)
    8000032e:	694a                	ld	s2,144(sp)
    80000330:	69ea                	ld	s3,152(sp)
    80000332:	7a0a                	ld	s4,160(sp)
    80000334:	7aaa                	ld	s5,168(sp)
    80000336:	7b4a                	ld	s6,176(sp)
    80000338:	7bea                	ld	s7,184(sp)
    8000033a:	6c0e                	ld	s8,192(sp)
    8000033c:	6cae                	ld	s9,200(sp)
    8000033e:	6d4e                	ld	s10,208(sp)
    80000340:	6dee                	ld	s11,216(sp)
    80000342:	7e0e                	ld	t3,224(sp)
    80000344:	7eae                	ld	t4,232(sp)
    80000346:	7f4e                	ld	t5,240(sp)
    80000348:	7fee                	ld	t6,248(sp)
    8000034a:	6131                	add	sp,sp,320
    8000034c:	30200073          	mret

0000000080000350 <func1>:
    80000350:	00000033          	add	zero,zero,zero
    80000354:	8082                	ret
    80000356:	00000013          	nop
    8000035a:	00000013          	nop
    8000035e:	0001                	nop

0000000080000360 <main>:
    80000360:	00000033          	add	zero,zero,zero
    80000364:	00000297          	auipc	t0,0x0
    80000368:	f3428293          	add	t0,t0,-204 # 80000298 <custom_trap_handler>
    8000036c:	30529073          	csrw	mtvec,t0
    80000370:	000e0117          	auipc	sp,0xe0
    80000374:	c9010113          	add	sp,sp,-880 # 800e0000 <begin_signature>
    80000378:	632d                	lui	t1,0xb
    8000037a:	d903031b          	addw	t1,t1,-624 # ad90 <_tbss_end+0xad90>
    8000037e:	911a                	add	sp,sp,t1

0000000080000380 <i0000000000>:
    80000380:	4aa9                	li	s5,10

0000000080000382 <i0000000001>:
    80000382:	c23b7753          	fcvt.lu.d	a4,fs6

0000000080000386 <i0000000002>:
    80000386:	6e99                	lui	t4,0x6

0000000080000388 <i0000000003>:
    80000388:	09fc                	add	a5,sp,220

000000008000038a <i0000000004>:
    8000038a:	d2aa                	sw	a0,100(sp)

000000008000038c <i0000000005>:
    8000038c:	7cc15603          	lhu	a2,1996(sp)

0000000080000390 <i0000000006>:
    80000390:	02f7eeb3          	rem	t4,a5,a5

0000000080000394 <i0000000007>:
    80000394:	2ac580d3          	fmin.d	ft1,fa1,fa2

0000000080000398 <i0000000008>:
    80000398:	031c7b3b          	remuw	s6,s8,a7

000000008000039c <i0000000009>:
    8000039c:	c4b2                	sw	a2,72(sp)

000000008000039e <i000000000a>:
    8000039e:	e596                	sd	t0,200(sp)
    800003a0:	4e29                	li	t3,10
    800003a2:	a131222f          	amomax.w	tp,s3,(sp)
    800003a6:	719922c7          	fmsub.s	ft5,fs2,fs9,fa4,rdn
    800003aa:	e0412b2f          	amomaxu.w	s6,tp,(sp)
    800003ae:	0ff0000f          	fence
    800003b2:	8f61                	and	a4,a4,s0
    800003b4:	41d8d19b          	sraw	gp,a7,0x1d
    800003b8:	e20e89d3          	fmv.x.d	s3,ft9

00000000800003bc <b000000000b>:
    800003bc:	00000033          	add	zero,zero,zero
    800003c0:	05ca8163          	beq	s5,t3,80000402 <i0000000010>
    800003c4:	00000033          	add	zero,zero,zero
    800003c8:	00e75eb3          	srl	t4,a4,a4
    800003cc:	a131372f          	amomax.d	a4,s3,(sp)
    800003d0:	eee13823          	sd	a4,-272(sp)
    800003d4:	c215fcd3          	fcvt.wu.d	s9,fa1
    800003d8:	9f01                	subw	a4,a4,s0
    800003da:	3499                	addw	s1,s1,-26
    800003dc:	4cf10e83          	lb	t4,1231(sp)
    800003e0:	4aa9                	li	s5,10

00000000800003e2 <i000000000b>:
    800003e2:	b40a                	fsd	ft2,40(sp)

00000000800003e4 <i000000000c>:
    800003e4:	c0370653          	fcvt.lu.s	a2,fa4,rne

00000000800003e8 <i000000000d>:
    800003e8:	405d863b          	subw	a2,s11,t0
    800003ec:	000e0117          	auipc	sp,0xe0
    800003f0:	c1410113          	add	sp,sp,-1004 # 800e0000 <begin_signature>
    800003f4:	6325                	lui	t1,0x9
    800003f6:	6303031b          	addw	t1,t1,1584 # 9630 <_tbss_end+0x9630>
    800003fa:	911a                	add	sp,sp,t1

00000000800003fc <i000000000e>:
    800003fc:	75c6                	ld	a1,112(sp)

00000000800003fe <i000000000f>:
    800003fe:	40d557bb          	sraw	a5,a0,a3

0000000080000402 <i0000000010>:
    80000402:	a1813faf          	amomax.d	t6,s8,(sp)

0000000080000406 <i0000000011>:
    80000406:	9d1d                	subw	a0,a0,a5

0000000080000408 <i0000000012>:
    80000408:	5602                	lw	a2,32(sp)

000000008000040a <i0000000013>:
    8000040a:	0ff0000f          	fence

000000008000040e <i0000000014>:
    8000040e:	030262b3          	rem	t0,tp,a6
    80000412:	4db1                	li	s11,12
    80000414:	0a85                	add	s5,s5,1
    80000416:	000e0117          	auipc	sp,0xe0
    8000041a:	bea10113          	add	sp,sp,-1046 # 800e0000 <begin_signature>
    8000041e:	6321                	lui	t1,0x8
    80000420:	4a83031b          	addw	t1,t1,1192 # 84a8 <_tbss_end+0x84a8>
    80000424:	911a                	add	sp,sp,t1
    80000426:	000e0117          	auipc	sp,0xe0
    8000042a:	bda10113          	add	sp,sp,-1062 # 800e0000 <begin_signature>
    8000042e:	6335                	lui	t1,0xd
    80000430:	cc03031b          	addw	t1,t1,-832 # ccc0 <_tbss_end+0xccc0>
    80000434:	911a                	add	sp,sp,t1
    80000436:	a0e088d3          	fle.s	a7,ft1,fa4
    8000043a:	57c2                	lw	a5,48(sp)
    8000043c:	b0667ccf          	fnmadd.s	fs9,fa2,ft6,fs6
    80000440:	c026ab53          	fcvt.l.s	s6,fa3,rdn
    80000444:	6b65                	lui	s6,0x19
    80000446:	b6813803          	ld	a6,-1176(sp)
    8000044a:	7b016b03          	lwu	s6,1968(sp)

000000008000044e <b0000000015>:
    8000044e:	01ba8863          	beq	s5,s11,8000045e <b0000000015+0x10>
    80000452:	00000d97          	auipc	s11,0x0
    80000456:	fb0d8d93          	add	s11,s11,-80 # 80000402 <i0000000010>
    8000045a:	000d8067          	jr	s11
    8000045e:	4aa9                	li	s5,10
    80000460:	d0da                	sw	s6,96(sp)
    80000462:	b9816883          	lwu	a7,-1128(sp)
    80000466:	8321                	srl	a4,a4,0x8
    80000468:	0ff0000f          	fence
    8000046c:	6706                	ld	a4,64(sp)
    8000046e:	e1613e2f          	amomaxu.d	t3,s6,(sp)
    80000472:	83dd                	srl	a5,a5,0x17

0000000080000474 <i0000000015>:
    80000474:	0000100f          	fence.i

0000000080000478 <i0000000016>:
    80000478:	c021c9d3          	fcvt.l.s	s3,ft3,rmm

000000008000047c <i0000000017>:
    8000047c:	d037a053          	fcvt.s.lu	ft0,a5,rdn

0000000080000480 <i0000000018>:
    80000480:	606129af          	amoand.w	s3,t1,(sp)

0000000080000484 <i0000000019>:
    80000484:	02b9673b          	remw	a4,s2,a1

0000000080000488 <i000000001a>:
    80000488:	62867b47          	fmsub.d	fs6,fa2,fs0,fa2

000000008000048c <i000000001b>:
    8000048c:	5a0c7bd3          	fsqrt.d	fs7,fs8

0000000080000490 <i000000001c>:
    80000490:	7292                	ld	t0,288(sp)

0000000080000492 <i000000001d>:
    80000492:	0364c73b          	divw	a4,s1,s6

0000000080000496 <i000000001e>:
    80000496:	90614983          	lbu	s3,-1786(sp)
    8000049a:	4b25                	li	s6,9
    8000049c:	4aa9                	li	s5,10
    8000049e:	000e0117          	auipc	sp,0xe0
    800004a2:	b6210113          	add	sp,sp,-1182 # 800e0000 <begin_signature>
    800004a6:	632d                	lui	t1,0xb
    800004a8:	0503031b          	addw	t1,t1,80 # b050 <_tbss_end+0xb050>
    800004ac:	911a                	add	sp,sp,t1
    800004ae:	00f1222f          	amoadd.w	tp,a5,(sp)
    800004b2:	15416003          	lwu	zero,340(sp)
    800004b6:	61313baf          	amoand.d	s7,s3,(sp)
    800004ba:	029e5dbb          	divuw	s11,t3,s1
    800004be:	03d9cc33          	div	s8,s3,t4
    800004c2:	0ff0000f          	fence
    800004c6:	69cd                	lui	s3,0x13

00000000800004c8 <b000000001f>:
    800004c8:	00000033          	add	zero,zero,zero
    800004cc:	035b5d63          	bge	s6,s5,80000506 <i0000000024>
    800004d0:	00000033          	add	zero,zero,zero
    800004d4:	76013883          	ld	a7,1888(sp)
    800004d8:	02eee4bb          	remw	s1,t4,a4
    800004dc:	30befc13          	and	s8,t4,779
    800004e0:	0284c43b          	divw	s0,s1,s0
    800004e4:	1e411623          	sh	tp,492(sp)
    800004e8:	5d812e83          	lw	t4,1496(sp)
    800004ec:	0339febb          	remuw	t4,s3,s3
    800004f0:	4aa9                	li	s5,10

00000000800004f2 <i000000001f>:
    800004f2:	004c0cb3          	add	s9,s8,tp

00000000800004f6 <i0000000020>:
    800004f6:	21c12caf          	amoxor.w	s9,t3,(sp)

00000000800004fa <i0000000021>:
    800004fa:	91416003          	lwu	zero,-1772(sp)

00000000800004fe <i0000000022>:
    800004fe:	01913c2f          	amoadd.d	s8,s9,(sp)

0000000080000502 <i0000000023>:
    80000502:	217136af          	amoxor.d	a3,s7,(sp)

0000000080000506 <i0000000024>:
    80000506:	02c67533          	remu	a0,a2,a2

000000008000050a <i0000000025>:
    8000050a:	0000100f          	fence.i

000000008000050e <i0000000026>:
    8000050e:	7e712223          	sw	t2,2020(sp)

0000000080000512 <i0000000027>:
    80000512:	002bd29b          	srlw	t0,s7,0x2
    80000516:	000e0117          	auipc	sp,0xe0
    8000051a:	aea10113          	add	sp,sp,-1302 # 800e0000 <begin_signature>
    8000051e:	631d                	lui	t1,0x7
    80000520:	5303031b          	addw	t1,t1,1328 # 7530 <_tbss_end+0x7530>
    80000524:	911a                	add	sp,sp,t1

0000000080000526 <i0000000028>:
    80000526:	c4816683          	lwu	a3,-952(sp)
    8000052a:	4dad                	li	s11,11
    8000052c:	0a85                	add	s5,s5,1
    8000052e:	000e0117          	auipc	sp,0xe0
    80000532:	ad210113          	add	sp,sp,-1326 # 800e0000 <begin_signature>
    80000536:	6331                	lui	t1,0xc
    80000538:	b403031b          	addw	t1,t1,-1216 # bb40 <_tbss_end+0xbb40>
    8000053c:	911a                	add	sp,sp,t1
    8000053e:	000e0117          	auipc	sp,0xe0
    80000542:	ac210113          	add	sp,sp,-1342 # 800e0000 <begin_signature>
    80000546:	6329                	lui	t1,0xa
    80000548:	e283031b          	addw	t1,t1,-472 # 9e28 <_tbss_end+0x9e28>
    8000054c:	911a                	add	sp,sp,t1
    8000054e:	02984c33          	div	s8,a6,s1
    80000552:	d0320e53          	fcvt.s.lu	ft8,tp,rne
    80000556:	57b2                	lw	a5,44(sp)
    80000558:	3795                	addw	a5,a5,-27
    8000055a:	57b2                	lw	a5,44(sp)
    8000055c:	8fe5                	and	a5,a5,s1
    8000055e:	02e74b3b          	divw	s6,a4,a4

0000000080000562 <b0000000029>:
    80000562:	00000033          	add	zero,zero,zero
    80000566:	fbba80e3          	beq	s5,s11,80000506 <i0000000024>
    8000056a:	00000033          	add	zero,zero,zero
    8000056e:	49110f23          	sb	a7,1182(sp)
    80000572:	580ac753          	fsqrt.s	fa4,fs5,rmm
    80000576:	c022                	sw	s0,0(sp)
    80000578:	03248bb3          	mul	s7,s1,s2
    8000057c:	20e1372f          	amoxor.d	a4,a4,(sp)
    80000580:	276e                	fld	fa4,216(sp)
    80000582:	a5ae                	fsd	fa1,200(sp)
    80000584:	4aa9                	li	s5,10

0000000080000586 <i0000000029>:
    80000586:	40455293          	sra	t0,a0,0x4

000000008000058a <i000000002a>:
    8000058a:	d21f8dd3          	fcvt.d.wu	fs11,t6

000000008000058e <i000000002b>:
    8000058e:	4601                	li	a2,0

0000000080000590 <i000000002c>:
    80000590:	13e0                	add	s0,sp,492

0000000080000592 <i000000002d>:
    80000592:	c131372f          	amominu.d	a4,s3,(sp)

0000000080000596 <i000000002e>:
    80000596:	9f85                	subw	a5,a5,s1

0000000080000598 <i000000002f>:
    80000598:	c02034d3          	fcvt.l.s	s1,ft0,rup

000000008000059c <i0000000030>:
    8000059c:	53012703          	lw	a4,1328(sp)

00000000800005a0 <i0000000031>:
    800005a0:	a0962ed3          	feq.s	t4,fa2,fs1

00000000800005a4 <i0000000032>:
    800005a4:	02c722b3          	mulhsu	t0,a4,a2
    800005a8:	4fb1                	li	t6,12
    800005aa:	0a85                	add	s5,s5,1
    800005ac:	000e0117          	auipc	sp,0xe0
    800005b0:	a5410113          	add	sp,sp,-1452 # 800e0000 <begin_signature>
    800005b4:	6339                	lui	t1,0xe
    800005b6:	4383031b          	addw	t1,t1,1080 # e438 <_tbss_end+0xe438>
    800005ba:	911a                	add	sp,sp,t1
    800005bc:	edc12c03          	lw	s8,-292(sp)
    800005c0:	683e84b7          	lui	s1,0x683e8
    800005c4:	f422                	sd	s0,40(sp)
    800005c6:	60e12c2f          	amoand.w	s8,a4,(sp)
    800005ca:	2401                	sext.w	s0,s0
    800005cc:	0000100f          	fence.i
    800005d0:	26a2                	fld	fa3,8(sp)

00000000800005d2 <b0000000033>:
    800005d2:	01fa8863          	beq	s5,t6,800005e2 <b0000000033+0x10>
    800005d6:	00000f97          	auipc	t6,0x0
    800005da:	fc0f8f93          	add	t6,t6,-64 # 80000596 <i000000002e>
    800005de:	000f8067          	jr	t6
    800005e2:	4aa9                	li	s5,10
    800005e4:	137c                	add	a5,sp,428
    800005e6:	7101                	add	sp,sp,-512
    800005e8:	9c25                	addw	s0,s0,s1
    800005ea:	5772                	lw	a4,60(sp)
    800005ec:	c43e                	sw	a5,8(sp)
    800005ee:	e0f11223          	sh	a5,-508(sp)
    800005f2:	01a87cb3          	and	s9,a6,s10

00000000800005f6 <i0000000033>:
    800005f6:	9622                	add	a2,a2,s0

00000000800005f8 <i0000000034>:
    800005f8:	1141                	add	sp,sp,-16

00000000800005fa <i0000000035>:
    800005fa:	0081252f          	amoadd.w	a0,s0,(sp)

00000000800005fe <i0000000036>:
    800005fe:	d036b853          	fcvt.s.lu	fa6,a3,rup

0000000080000602 <i0000000037>:
    80000602:	00529433          	sll	s0,t0,t0

0000000080000606 <i0000000038>:
    80000606:	c0238553          	fcvt.l.s	a0,ft7,rne

000000008000060a <i0000000039>:
    8000060a:	02c6553b          	divuw	a0,a2,a2

000000008000060e <i000000003a>:
    8000060e:	8ee9                	and	a3,a3,a0

0000000080000610 <i000000003b>:
    80000610:	d0273353          	fcvt.s.l	ft6,a4,rup

0000000080000614 <i000000003c>:
    80000614:	c229f7d3          	fcvt.l.d	a5,fs3
    80000618:	49a5                	li	s3,9
    8000061a:	43c11e83          	lh	t4,1084(sp)
    8000061e:	02f747bb          	divw	a5,a4,a5
    80000622:	5e614403          	lbu	s0,1510(sp)
    80000626:	8c59                	or	s0,s0,a4
    80000628:	8c21                	xor	s0,s0,s0
    8000062a:	61f1342f          	amoand.d	s0,t6,(sp)
    8000062e:	8cc5                	or	s1,s1,s1

0000000080000630 <b000000003d>:
    80000630:	00000033          	add	zero,zero,zero
    80000634:	fd59d9e3          	bge	s3,s5,80000606 <i0000000038>
    80000638:	00000033          	add	zero,zero,zero
    8000063c:	0496                	sll	s1,s1,0x5
    8000063e:	c0a6                	sw	s1,64(sp)
    80000640:	02405433          	divu	s0,zero,tp
    80000644:	40812caf          	amoor.w	s9,s0,(sp)
    80000648:	8f25                	xor	a4,a4,s1
    8000064a:	80813023          	sd	s0,-2048(sp)
    8000064e:	32f10923          	sb	a5,818(sp)
    80000652:	4aa9                	li	s5,10

0000000080000654 <i000000003d>:
    80000654:	19463513          	sltiu	a0,a2,404

0000000080000658 <i000000003e>:
    80000658:	18a8                	add	a0,sp,120

000000008000065a <i000000003f>:
    8000065a:	6071362f          	amoand.d	a2,t2,(sp)

000000008000065e <i0000000040>:
    8000065e:	a026                	fsd	fs1,0(sp)

0000000080000660 <i0000000041>:
    80000660:	e0e1352f          	amomaxu.d	a0,a4,(sp)

0000000080000664 <i0000000042>:
    80000664:	e3db8293          	add	t0,s7,-451

0000000080000668 <i0000000043>:
    80000668:	01555893          	srl	a7,a0,0x15

000000008000066c <i0000000044>:
    8000066c:	23a92dd3          	fsgnjx.d	fs11,fs2,fs10

0000000080000670 <i0000000045>:
    80000670:	c1e1252f          	amominu.w	a0,t5,(sp)
    80000674:	000e0117          	auipc	sp,0xe0
    80000678:	98c10113          	add	sp,sp,-1652 # 800e0000 <begin_signature>
    8000067c:	632d                	lui	t1,0xb
    8000067e:	5b03031b          	addw	t1,t1,1456 # b5b0 <_tbss_end+0xb5b0>
    80000682:	911a                	add	sp,sp,t1

0000000080000684 <i0000000046>:
    80000684:	7726                	ld	a4,104(sp)
    80000686:	4c01                	li	s8,0
    80000688:	039d2bb3          	mulhsu	s7,s10,s9
    8000068c:	9fbd                	addw	a5,a5,a5
    8000068e:	02f7f7b3          	remu	a5,a5,a5
    80000692:	20e131af          	amoxor.d	gp,a4,(sp)
    80000696:	c0307753          	fcvt.lu.s	a4,ft0
    8000069a:	cd4c801b          	addw	zero,s9,-812
    8000069e:	d027bfd3          	fcvt.s.l	ft11,a5,rup

00000000800006a2 <b0000000047>:
    800006a2:	00000033          	add	zero,zero,zero
    800006a6:	fb8a8fe3          	beq	s5,s8,80000664 <i0000000042>
    800006aa:	00000033          	add	zero,zero,zero
    800006ae:	f0048ad3          	fmv.w.x	fs5,s1
    800006b2:	e1c134af          	amomaxu.d	s1,t3,(sp)
    800006b6:	02f9ebbb          	remw	s7,s3,a5
    800006ba:	0be0                	add	s0,sp,476
    800006bc:	c03bf7d3          	fcvt.lu.s	a5,fs7
    800006c0:	03c17653          	fadd.d	fa2,ft2,ft8
    800006c4:	d01404d3          	fcvt.s.wu	fs1,s0,rne
    800006c8:	4aa9                	li	s5,10

00000000800006ca <i0000000047>:
    800006ca:	1161                	add	sp,sp,-8
    800006cc:	e42a                	sd	a0,8(sp)
    800006ce:	00a120a3          	sw	a0,1(sp)
    800006d2:	6522                	ld	a0,8(sp)
    800006d4:	0121                	add	sp,sp,8

00000000800006d6 <i0000000048>:
    800006d6:	9df2                	add	s11,s11,t3

00000000800006d8 <i0000000049>:
    800006d8:	d02a45d3          	fcvt.s.l	fa1,s4,rmm

00000000800006dc <i000000004a>:
    800006dc:	a0d13a2f          	amomax.d	s4,a3,(sp)

00000000800006e0 <i000000004b>:
    800006e0:	5562                	lw	a0,56(sp)

00000000800006e2 <i000000004c>:
    800006e2:	05810783          	lb	a5,88(sp)

00000000800006e6 <i000000004d>:
    800006e6:	d0228653          	fcvt.s.l	fa2,t0,rne

00000000800006ea <i000000004e>:
    800006ea:	be5a                	fsd	fs6,312(sp)

00000000800006ec <i000000004f>:
    800006ec:	a0e122af          	amomax.w	t0,a4,(sp)

00000000800006f0 <i0000000050>:
    800006f0:	00b6a7b3          	slt	a5,a3,a1

00000000800006f4 <i0000000051>:
    800006f4:	878a                	mv	a5,sp
    800006f6:	4bb1                	li	s7,12
    800006f8:	0a85                	add	s5,s5,1
    800006fa:	000e0117          	auipc	sp,0xe0
    800006fe:	90610113          	add	sp,sp,-1786 # 800e0000 <begin_signature>
    80000702:	6305                	lui	t1,0x1
    80000704:	3903031b          	addw	t1,t1,912 # 1390 <_tbss_end+0x1390>
    80000708:	911a                	add	sp,sp,t1
    8000070a:	000e0117          	auipc	sp,0xe0
    8000070e:	8f610113          	add	sp,sp,-1802 # 800e0000 <begin_signature>
    80000712:	6329                	lui	t1,0xa
    80000714:	2383031b          	addw	t1,t1,568 # a238 <_tbss_end+0xa238>
    80000718:	911a                	add	sp,sp,t1
    8000071a:	d4016c03          	lwu	s8,-704(sp)
    8000071e:	28e69b53          	fmax.s	fs6,fa3,fa4
    80000722:	e20707d3          	fmv.x.d	a5,fa4
    80000726:	80f137af          	amomin.d	a5,a5,(sp)
    8000072a:	42060b53          	fcvt.d.s	fs6,fa2
    8000072e:	c7016e03          	lwu	t3,-912(sp)
    80000732:	01de8b3b          	addw	s6,t4,t4

0000000080000736 <b0000000052>:
    80000736:	017a8863          	beq	s5,s7,80000746 <b0000000052+0x10>
    8000073a:	00000b97          	auipc	s7,0x0
    8000073e:	facb8b93          	add	s7,s7,-84 # 800006e6 <i000000004d>
    80000742:	000b80e7          	jalr	s7
    80000746:	4aa9                	li	s5,10
    80000748:	4a813907          	fld	fs2,1192(sp)
    8000074c:	21d1382f          	amoxor.d	a6,t4,(sp)
    80000750:	d2277ad3          	fcvt.d.l	fs5,a4
    80000754:	f4be                	sd	a5,104(sp)
    80000756:	148d                	add	s1,s1,-29 # 683e7fe3 <_tbss_end+0x683e7fe3>
    80000758:	b06e                	fsd	fs11,32(sp)
    8000075a:	47d2                	lw	a5,20(sp)

000000008000075c <i0000000052>:
    8000075c:	028d82bb          	mulw	t0,s11,s0

0000000080000760 <i0000000053>:
    80000760:	c0082b53          	fcvt.w.s	s6,fa6,rdn

0000000080000764 <i0000000054>:
    80000764:	9f9d                	subw	a5,a5,a5

0000000080000766 <i0000000055>:
    80000766:	e161362f          	amomaxu.d	a2,s6,(sp)

000000008000076a <i0000000056>:
    8000076a:	e00c9bd3          	fclass.s	s7,fs9

000000008000076e <i0000000057>:
    8000076e:	0000100f          	fence.i

0000000080000772 <i0000000058>:
    80000772:	7d86                	ld	s11,96(sp)

0000000080000774 <i0000000059>:
    80000774:	87d1                	sra	a5,a5,0x14

0000000080000776 <i000000005a>:
    80000776:	4142d513          	sra	a0,t0,0x14

000000008000077a <i000000005b>:
    8000077a:	a3ae04d3          	fle.d	s1,ft8,fs10
    8000077e:	000e0117          	auipc	sp,0xe0
    80000782:	88210113          	add	sp,sp,-1918 # 800e0000 <begin_signature>
    80000786:	6319                	lui	t1,0x6
    80000788:	4203031b          	addw	t1,t1,1056 # 6420 <_tbss_end+0x6420>
    8000078c:	911a                	add	sp,sp,t1
    8000078e:	7139                	add	sp,sp,-64
    80000790:	d22efe53          	fcvt.d.l	ft8,t4
    80000794:	59013307          	fld	ft6,1424(sp)
    80000798:	c024ab53          	fcvt.l.s	s6,fs1,rdn
    8000079c:	64e2                	ld	s1,24(sp)
    8000079e:	02975b3b          	divuw	s6,a4,s1
    800007a2:	ec22                	sd	s0,24(sp)

00000000800007a4 <b000000005c>:
    800007a4:	02c0006f          	j	800007d0 <i0000000061>
    800007a8:	a14aa453          	feq.s	s0,fs5,fs4
    800007ac:	02f7003b          	mulw	zero,a4,a5
    800007b0:	003c993b          	sllw	s2,s9,gp
    800007b4:	34c1                	addw	s1,s1,-16
    800007b6:	a06611d3          	flt.s	gp,fa2,ft6
    800007ba:	01e0                	add	s0,sp,204
    800007bc:	24c2                	fld	fs1,16(sp)

00000000800007be <i000000005c>:
    800007be:	d0364d53          	fcvt.s.lu	fs10,a2,rmm

00000000800007c2 <i000000005d>:
    800007c2:	8ddd                	or	a1,a1,a5

00000000800007c4 <i000000005e>:
    800007c4:	d237f4d3          	fcvt.d.lu	fs1,a5

00000000800007c8 <i000000005f>:
    800007c8:	3bb7fd13          	and	s10,a5,955

00000000800007cc <i0000000060>:
    800007cc:	00251e1b          	sllw	t3,a0,0x2

00000000800007d0 <i0000000061>:
    800007d0:	04b1                	add	s1,s1,12

00000000800007d2 <i0000000062>:
    800007d2:	4016ffd3          	fcvt.s.d	ft11,fa3

00000000800007d6 <i0000000063>:
    800007d6:	25e6                	fld	fa1,88(sp)

00000000800007d8 <i0000000064>:
    800007d8:	c02879d3          	fcvt.l.s	s3,fa6

00000000800007dc <i0000000065>:
    800007dc:	1141                	add	sp,sp,-16
    800007de:	e42e                	sd	a1,8(sp)
    800007e0:	e836                	sd	a3,16(sp)
    800007e2:	00000597          	auipc	a1,0x0
    800007e6:	00858593          	add	a1,a1,8 # 800007ea <i0000000065+0xe>
    800007ea:	000006e7          	jalr	a3,zero # 0 <_tbss_end>
    800007ee:	65a2                	ld	a1,8(sp)
    800007f0:	66c2                	ld	a3,16(sp)
    800007f2:	0141                	add	sp,sp,16

00000000800007f4 <i0000000066>:
    800007f4:	c04122af          	amominu.w	t0,tp,(sp)
    800007f8:	4eb1                	li	t4,12
    800007fa:	0a85                	add	s5,s5,1
    800007fc:	c0270253          	fcvt.l.s	tp,fa4,rne
    80000800:	75c16203          	lwu	tp,1884(sp)
    80000804:	1998                	add	a4,sp,240
    80000806:	0000100f          	fence.i
    8000080a:	e93e                	sd	a5,144(sp)
    8000080c:	0b18                	add	a4,sp,400
    8000080e:	a398881b          	addw	a6,a7,-1479

0000000080000812 <b0000000067>:
    80000812:	01da8463          	beq	s5,t4,8000081a <b0000000067+0x8>
    80000816:	fbdff06f          	j	800007d2 <i0000000062>
    8000081a:	4aa9                	li	s5,10
    8000081c:	8485                	sra	s1,s1,0x1
    8000081e:	40e9d033          	sra	zero,s3,a4
    80000822:	d22dfcd3          	fcvt.d.l	fs9,s11
    80000826:	5472                	lw	s0,60(sp)
    80000828:	02e77d3b          	remuw	s10,a4,a4
    8000082c:	c3c2fb4f          	fnmadd.d	fs6,ft5,ft8,fs8
    80000830:	02e487b3          	mul	a5,s1,a4

0000000080000834 <i0000000067>:
    80000834:	0319063b          	mulw	a2,s2,a7

0000000080000838 <i0000000068>:
    80000838:	45e10803          	lb	a6,1118(sp)

000000008000083c <i0000000069>:
    8000083c:	8fbd                	xor	a5,a5,a5

000000008000083e <i000000006a>:
    8000083e:	92be                	add	t0,t0,a5

0000000080000840 <i000000006b>:
    80000840:	096343d3          	fsub.s	ft7,ft6,fs6,rmm

0000000080000844 <i000000006c>:
    80000844:	36411503          	lh	a0,868(sp)
    80000848:	000df117          	auipc	sp,0xdf
    8000084c:	7b810113          	add	sp,sp,1976 # 800e0000 <begin_signature>
    80000850:	6321                	lui	t1,0x8
    80000852:	b003031b          	addw	t1,t1,-1280 # 7b00 <_tbss_end+0x7b00>
    80000856:	911a                	add	sp,sp,t1

0000000080000858 <i000000006d>:
    80000858:	62ca                	ld	t0,144(sp)

000000008000085a <i000000006e>:
    8000085a:	33b78e13          	add	t3,a5,827

000000008000085e <i000000006f>:
    8000085e:	027a7433          	remu	s0,s4,t2

0000000080000862 <i0000000070>:
    80000862:	a3dca653          	feq.d	a2,fs9,ft9
    80000866:	4cad                	li	s9,11
    80000868:	4aa9                	li	s5,10
    8000086a:	000df117          	auipc	sp,0xdf
    8000086e:	79610113          	add	sp,sp,1942 # 800e0000 <begin_signature>
    80000872:	6309                	lui	t1,0x2
    80000874:	e703031b          	addw	t1,t1,-400 # 1e70 <_tbss_end+0x1e70>
    80000878:	911a                	add	sp,sp,t1
    8000087a:	97f2                	add	a5,a5,t3
    8000087c:	81f13faf          	amomin.d	t6,t6,(sp)
    80000880:	84ad                	sra	s1,s1,0xb
    80000882:	01374a33          	xor	s4,a4,s3
    80000886:	02e9cd33          	div	s10,s3,a4
    8000088a:	8fc1                	or	a5,a5,s0
    8000088c:	21bda053          	fabs.s	ft0,fs11

0000000080000890 <b0000000071>:
    80000890:	00000033          	add	zero,zero,zero
    80000894:	035cda63          	bge	s9,s5,800008c8 <i0000000076>
    80000898:	00000033          	add	zero,zero,zero
    8000089c:	0bc57fd3          	fsub.d	ft11,fa0,ft8
    800008a0:	2d9d58b7          	lui	a7,0x2d9d5
    800008a4:	93de                	add	t2,t2,s7
    800008a6:	0337f1b3          	remu	gp,a5,s3
    800008aa:	20f13baf          	amoxor.d	s7,a5,(sp)
    800008ae:	c03dc853          	fcvt.lu.s	a6,fs11,rmm
    800008b2:	aef11f23          	sh	a5,-1282(sp)
    800008b6:	4aa9                	li	s5,10

00000000800008b8 <i0000000071>:
    800008b8:	3a2e                	fld	fs4,232(sp)

00000000800008ba <i0000000072>:
    800008ba:	b072                	fsd	ft8,32(sp)

00000000800008bc <i0000000073>:
    800008bc:	02c646bb          	divw	a3,a2,a2

00000000800008c0 <i0000000074>:
    800008c0:	4d416803          	lwu	a6,1236(sp)

00000000800008c4 <i0000000075>:
    800008c4:	037e5993          	srl	s3,t3,0x37

00000000800008c8 <i0000000076>:
    800008c8:	ca32                	sw	a2,20(sp)

00000000800008ca <i0000000077>:
    800008ca:	3595                	addw	a1,a1,-27

00000000800008cc <i0000000078>:
    800008cc:	1161                	add	sp,sp,-8
    800008ce:	e42a                	sd	a0,8(sp)
    800008d0:	4501                	li	a0,0
    800008d2:	c108                	sw	a0,0(a0)
    800008d4:	6522                	ld	a0,8(sp)
    800008d6:	0121                	add	sp,sp,8

00000000800008d8 <i0000000079>:
    800008d8:	0ff0000f          	fence

00000000800008dc <i000000007a>:
    800008dc:	9fad                	addw	a5,a5,a1

00000000800008de <i000000007b>:
    800008de:	8c2d                	xor	s0,s0,a1
    800008e0:	4fb1                	li	t6,12
    800008e2:	0a85                	add	s5,s5,1
    800008e4:	000df117          	auipc	sp,0xdf
    800008e8:	71c10113          	add	sp,sp,1820 # 800e0000 <begin_signature>
    800008ec:	632d                	lui	t1,0xb
    800008ee:	c383031b          	addw	t1,t1,-968 # ac38 <_tbss_end+0xac38>
    800008f2:	911a                	add	sp,sp,t1
    800008f4:	034959b3          	divu	s3,s2,s4
    800008f8:	5472                	lw	s0,60(sp)
    800008fa:	036c03bb          	mulw	t2,s8,s6
    800008fe:	01378ebb          	addw	t4,a5,s3
    80000902:	04ae                	sll	s1,s1,0xb
    80000904:	7caa                	ld	s9,168(sp)
    80000906:	c03b4853          	fcvt.lu.s	a6,fs6,rmm

000000008000090a <b000000007c>:
    8000090a:	00000033          	add	zero,zero,zero
    8000090e:	fbfacee3          	blt	s5,t6,800008ca <i0000000077>
    80000912:	00000033          	add	zero,zero,zero
    80000916:	7b614903          	lbu	s2,1974(sp)
    8000091a:	c03e                	sw	a5,0(sp)
    8000091c:	0ff0000f          	fence
    80000920:	f4a2                	sd	s0,104(sp)
    80000922:	028c7b3b          	remuw	s6,s8,s0
    80000926:	0000100f          	fence.i
    8000092a:	00313c2f          	amoadd.d	s8,gp,(sp)
    8000092e:	4aa9                	li	s5,10
    80000930:	000df117          	auipc	sp,0xdf
    80000934:	6d010113          	add	sp,sp,1744 # 800e0000 <begin_signature>
    80000938:	631d                	lui	t1,0x7
    8000093a:	0203031b          	addw	t1,t1,32 # 7020 <_tbss_end+0x7020>
    8000093e:	911a                	add	sp,sp,t1

0000000080000940 <i000000007c>:
    80000940:	05013003          	ld	zero,80(sp)

0000000080000944 <i000000007d>:
    80000944:	9b81                	and	a5,a5,-32

0000000080000946 <i000000007e>:
    80000946:	2131252f          	amoxor.w	a0,s3,(sp)

000000008000094a <i000000007f>:
    8000094a:	c031282f          	amominu.w	a6,gp,(sp)

000000008000094e <i0000000080>:
    8000094e:	025508b3          	mul	a7,a0,t0
    80000952:	000df117          	auipc	sp,0xdf
    80000956:	6ae10113          	add	sp,sp,1710 # 800e0000 <begin_signature>
    8000095a:	633d                	lui	t1,0xf
    8000095c:	b183031b          	addw	t1,t1,-1256 # eb18 <_tbss_end+0xeb18>
    80000960:	911a                	add	sp,sp,t1

0000000080000962 <i0000000081>:
    80000962:	86012503          	lw	a0,-1952(sp)

0000000080000966 <i0000000082>:
    80000966:	038b0633          	mul	a2,s6,s8

000000008000096a <i0000000083>:
    8000096a:	0038                	add	a4,sp,8

000000008000096c <i0000000084>:
    8000096c:	00f66b33          	or	s6,a2,a5

0000000080000970 <i0000000085>:
    80000970:	548d                	li	s1,-29
    80000972:	4a2d                	li	s4,11
    80000974:	4aa9                	li	s5,10
    80000976:	cc26                	sw	s1,24(sp)
    80000978:	b862                	fsd	fs8,48(sp)
    8000097a:	c2317e53          	fcvt.lu.d	t3,ft2
    8000097e:	0339e43b          	remw	s0,s3,s3
    80000982:	0960                	add	s0,sp,156
    80000984:	c028f4d3          	fcvt.l.s	s1,fa7
    80000988:	d83e                	sw	a5,48(sp)

000000008000098a <b0000000086>:
    8000098a:	00000033          	add	zero,zero,zero
    8000098e:	054a9263          	bne	s5,s4,800009d2 <i000000008b>
    80000992:	00000033          	add	zero,zero,zero
    80000996:	0419                	add	s0,s0,6
    80000998:	40095d9b          	sraw	s11,s2,0x0
    8000099c:	00f71f9b          	sllw	t6,a4,0xf
    800009a0:	d0293653          	fcvt.s.l	fa2,s2,rup
    800009a4:	00875d13          	srl	s10,a4,0x8
    800009a8:	c225f7d3          	fcvt.l.d	a5,fa1
    800009ac:	0087e733          	or	a4,a5,s0
    800009b0:	4aa9                	li	s5,10

00000000800009b2 <i0000000086>:
    800009b2:	a2e98653          	fle.d	a2,fs3,fa4

00000000800009b6 <i0000000087>:
    800009b6:	20c1362f          	amoxor.d	a2,a2,(sp)
    800009ba:	000df117          	auipc	sp,0xdf
    800009be:	64610113          	add	sp,sp,1606 # 800e0000 <begin_signature>
    800009c2:	6319                	lui	t1,0x6
    800009c4:	e583031b          	addw	t1,t1,-424 # 5e58 <_tbss_end+0x5e58>
    800009c8:	911a                	add	sp,sp,t1

00000000800009ca <i0000000088>:
    800009ca:	4722                	lw	a4,8(sp)

00000000800009cc <i0000000089>:
    800009cc:	407ed2bb          	sraw	t0,t4,t2

00000000800009d0 <i000000008a>:
    800009d0:	5522                	lw	a0,40(sp)

00000000800009d2 <i000000008b>:
    800009d2:	a882                	fsd	ft0,80(sp)

00000000800009d4 <i000000008c>:
    800009d4:	050a                	sll	a0,a0,0x2

00000000800009d6 <i000000008d>:
    800009d6:	7179                	add	sp,sp,-48

00000000800009d8 <i000000008e>:
    800009d8:	bc36                	fsd	fa3,56(sp)

00000000800009da <i000000008f>:
    800009da:	4d853613          	sltiu	a2,a0,1240
    800009de:	4d31                	li	s10,12
    800009e0:	0a85                	add	s5,s5,1
    800009e2:	872d                	sra	a4,a4,0xb
    800009e4:	41d12027          	fsw	ft9,1024(sp)
    800009e8:	02e98433          	mul	s0,s3,a4
    800009ec:	c83e                	sw	a5,16(sp)
    800009ee:	d2fe                	sw	t6,100(sp)
    800009f0:	f9d14f83          	lbu	t6,-99(sp)
    800009f4:	093121af          	amoswap.w	gp,s3,(sp)

00000000800009f8 <b0000000090>:
    800009f8:	00000033          	add	zero,zero,zero
    800009fc:	fdaacbe3          	blt	s5,s10,800009d2 <i000000008b>
    80000a00:	00000033          	add	zero,zero,zero
    80000a04:	04a9                	add	s1,s1,10
    80000a06:	e3d70493          	add	s1,a4,-451
    80000a0a:	a09121af          	amomax.w	gp,s1,(sp)
    80000a0e:	0415                	add	s0,s0,5
    80000a10:	0049d3b3          	srl	t2,s3,tp
    80000a14:	c0393853          	fcvt.lu.s	a6,fs2,rup
    80000a18:	024c54bb          	divuw	s1,s8,tp
    80000a1c:	4aa9                	li	s5,10

0000000080000a1e <i0000000090>:
    80000a1e:	02f55c3b          	divuw	s8,a0,a5

0000000080000a22 <i0000000091>:
    80000a22:	74f13423          	sd	a5,1864(sp)
    80000a26:	000df117          	auipc	sp,0xdf
    80000a2a:	5da10113          	add	sp,sp,1498 # 800e0000 <begin_signature>
    80000a2e:	633d                	lui	t1,0xf
    80000a30:	2183031b          	addw	t1,t1,536 # f218 <_tbss_end+0xf218>
    80000a34:	911a                	add	sp,sp,t1

0000000080000a36 <i0000000092>:
    80000a36:	e032                	sd	a2,0(sp)

0000000080000a38 <i0000000093>:
    80000a38:	75c2                	ld	a1,48(sp)

0000000080000a3a <i0000000094>:
    80000a3a:	fcb2                	sd	a2,120(sp)

0000000080000a3c <i0000000095>:
    80000a3c:	0ff0000f          	fence

0000000080000a40 <i0000000096>:
    80000a40:	5a72                	lw	s4,60(sp)

0000000080000a42 <i0000000097>:
    80000a42:	d0262bd3          	fcvt.s.l	fs7,a2,rdn

0000000080000a46 <i0000000098>:
    80000a46:	c65e                	sw	s7,12(sp)

0000000080000a48 <i0000000099>:
    80000a48:	5bbbf9c3          	fmadd.d	fs3,fs7,fs11,fa1
    80000a4c:	4a31                	li	s4,12
    80000a4e:	0a85                	add	s5,s5,1
    80000a50:	000df117          	auipc	sp,0xdf
    80000a54:	5b010113          	add	sp,sp,1456 # 800e0000 <begin_signature>
    80000a58:	6305                	lui	t1,0x1
    80000a5a:	e603031b          	addw	t1,t1,-416 # e60 <_tbss_end+0xe60>
    80000a5e:	911a                	add	sp,sp,t1
    80000a60:	000df117          	auipc	sp,0xdf
    80000a64:	5a010113          	add	sp,sp,1440 # 800e0000 <begin_signature>
    80000a68:	6319                	lui	t1,0x6
    80000a6a:	4083031b          	addw	t1,t1,1032 # 6408 <_tbss_end+0x6408>
    80000a6e:	911a                	add	sp,sp,t1
    80000a70:	00f77bb3          	and	s7,a4,a5
    80000a74:	87be                	mv	a5,a5
    80000a76:	e20e97d3          	fclass.d	a5,ft9
    80000a7a:	d037a853          	fcvt.s.lu	fa6,a5,rdn
    80000a7e:	c230f8d3          	fcvt.lu.d	a7,ft1
    80000a82:	0000100f          	fence.i
    80000a86:	26e2                	fld	fa3,24(sp)

0000000080000a88 <b000000009a>:
    80000a88:	014a8463          	beq	s5,s4,80000a90 <b000000009a+0x8>
    80000a8c:	fb1ff06f          	j	80000a3c <i0000000095>
    80000a90:	4aa9                	li	s5,10
    80000a92:	e9e2                	sd	s8,208(sp)
    80000a94:	25c2                	fld	fa1,16(sp)
    80000a96:	bc06                	fsd	ft1,56(sp)
    80000a98:	6169                	add	sp,sp,208
    80000a9a:	44e2                	lw	s1,24(sp)
    80000a9c:	4a013c03          	ld	s8,1184(sp)
    80000aa0:	b9776793          	or	a5,a4,-1129

0000000080000aa4 <i000000009a>:
    80000aa4:	e7311d23          	sh	s3,-390(sp)

0000000080000aa8 <i000000009b>:
    80000aa8:	00205073          	fsrmi	zero,0

0000000080000aac <i000000009c>:
    80000aac:	a1618353          	fle.s	t1,ft3,fs6

0000000080000ab0 <i000000009d>:
    80000ab0:	24c6                	fld	fs1,80(sp)

0000000080000ab2 <i000000009e>:
    80000ab2:	0020d073          	fsrmi	zero,1

0000000080000ab6 <i000000009f>:
    80000ab6:	d02a1953          	fcvt.s.l	fs2,s4,rtz

0000000080000aba <i00000000a0>:
    80000aba:	050d                	add	a0,a0,3

0000000080000abc <i00000000a1>:
    80000abc:	02d3a533          	mulhsu	a0,t2,a3

0000000080000ac0 <i00000000a2>:
    80000ac0:	0274                	add	a3,sp,268

0000000080000ac2 <i00000000a3>:
    80000ac2:	c022f1d3          	fcvt.l.s	gp,ft5

0000000080000ac6 <i00000000a4>:
    80000ac6:	c215fcd3          	fcvt.wu.d	s9,fa1

0000000080000aca <i00000000a5>:
    80000aca:	e20d8753          	fmv.x.d	a4,fs11
    80000ace:	4e29                	li	t3,10
    80000ad0:	000df117          	auipc	sp,0xdf
    80000ad4:	53010113          	add	sp,sp,1328 # 800e0000 <begin_signature>
    80000ad8:	6321                	lui	t1,0x8
    80000ada:	a883031b          	addw	t1,t1,-1400 # 7a88 <_tbss_end+0x7a88>
    80000ade:	911a                	add	sp,sp,t1
    80000ae0:	e9be                	sd	a5,208(sp)
    80000ae2:	65ab64b7          	lui	s1,0x65ab6
    80000ae6:	92415383          	lhu	t2,-1756(sp)
    80000aea:	40975c3b          	sraw	s8,a4,s1
    80000aee:	c822                	sw	s0,16(sp)
    80000af0:	0000100f          	fence.i
    80000af4:	40e9d713          	sra	a4,s3,0xe

0000000080000af8 <b00000000a6>:
    80000af8:	01ca8463          	beq	s5,t3,80000b00 <b00000000a6+0x8>
    80000afc:	fc1ff56f          	jal	a0,80000abc <i00000000a1>
    80000b00:	4aa9                	li	s5,10
    80000b02:	0299f733          	remu	a4,s3,s1
    80000b06:	c0234a53          	fcvt.l.s	s4,ft6,rmm
    80000b0a:	69416983          	lwu	s3,1684(sp)
    80000b0e:	98713c27          	fsd	ft7,-1640(sp)
    80000b12:	b8fa                	fsd	ft10,112(sp)
    80000b14:	dabe                	sw	a5,116(sp)
    80000b16:	fa3f75c7          	fmsub.d	fa1,ft10,ft3,ft11

0000000080000b1a <i00000000a6>:
    80000b1a:	c2307553          	fcvt.lu.d	a0,ft0

0000000080000b1e <i00000000a7>:
    80000b1e:	b0a6                	fsd	fs1,96(sp)

0000000080000b20 <i00000000a8>:
    80000b20:	2791                	addw	a5,a5,4

0000000080000b22 <i00000000a9>:
    80000b22:	c5f10503          	lb	a0,-929(sp)

0000000080000b26 <i00000000aa>:
    80000b26:	0871252f          	amoswap.w	a0,t2,(sp)

0000000080000b2a <i00000000ab>:
    80000b2a:	60f13baf          	amoand.d	s7,a5,(sp)

0000000080000b2e <i00000000ac>:
    80000b2e:	262d                	addw	a2,a2,11

0000000080000b30 <i00000000ad>:
    80000b30:	962a                	add	a2,a2,a0

0000000080000b32 <i00000000ae>:
    80000b32:	f0050cd3          	fmv.w.x	fs9,a0
    80000b36:	000df117          	auipc	sp,0xdf
    80000b3a:	4ca10113          	add	sp,sp,1226 # 800e0000 <begin_signature>
    80000b3e:	6309                	lui	t1,0x2
    80000b40:	f103031b          	addw	t1,t1,-240 # 1f10 <_tbss_end+0x1f10>
    80000b44:	911a                	add	sp,sp,t1

0000000080000b46 <i00000000af>:
    80000b46:	10a12c23          	sw	a0,280(sp)
    80000b4a:	4cad                	li	s9,11
    80000b4c:	0a85                	add	s5,s5,1
    80000b4e:	0416                	sll	s0,s0,0x5
    80000b50:	02f7b3b3          	mulhu	t2,a5,a5
    80000b54:	01cfd3bb          	srlw	t2,t6,t3
    80000b58:	dc76                	sw	t4,56(sp)
    80000b5a:	24c2                	fld	fs1,16(sp)
    80000b5c:	03795e33          	divu	t3,s2,s7
    80000b60:	7426                	ld	s0,104(sp)

0000000080000b62 <b00000000b0>:
    80000b62:	00000033          	add	zero,zero,zero
    80000b66:	fd9a82e3          	beq	s5,s9,80000b2a <i00000000ab>
    80000b6a:	00000033          	add	zero,zero,zero
    80000b6e:	4037541b          	sraw	s0,a4,0x3
    80000b72:	81a123af          	amomin.w	t2,s10,(sp)
    80000b76:	fc813403          	ld	s0,-56(sp)
    80000b7a:	6c913427          	fsd	fs1,1736(sp)
    80000b7e:	f0a2                	sd	s0,96(sp)
    80000b80:	83e1                	srl	a5,a5,0x18
    80000b82:	8c65                	and	s0,s0,s1
    80000b84:	4aa9                	li	s5,10

0000000080000b86 <i00000000b0>:
    80000b86:	2a3909d3          	fmin.d	fs3,fs2,ft3
    80000b8a:	000df117          	auipc	sp,0xdf
    80000b8e:	47610113          	add	sp,sp,1142 # 800e0000 <begin_signature>
    80000b92:	6309                	lui	t1,0x2
    80000b94:	df03031b          	addw	t1,t1,-528 # 1df0 <_tbss_end+0x1df0>
    80000b98:	911a                	add	sp,sp,t1

0000000080000b9a <i00000000b1>:
    80000b9a:	55a2                	lw	a1,40(sp)

0000000080000b9c <i00000000b2>:
    80000b9c:	208127af          	amoxor.w	a5,s0,(sp)

0000000080000ba0 <i00000000b3>:
    80000ba0:	660e                	ld	a2,192(sp)

0000000080000ba2 <i00000000b4>:
    80000ba2:	9d95                	subw	a1,a1,a3

0000000080000ba4 <i00000000b5>:
    80000ba4:	fdb50e93          	add	t4,a0,-37

0000000080000ba8 <i00000000b6>:
    80000ba8:	0020d073          	fsrmi	zero,1

0000000080000bac <i00000000b7>:
    80000bac:	c214fb53          	fcvt.wu.d	s6,fs1
    80000bb0:	000df117          	auipc	sp,0xdf
    80000bb4:	45010113          	add	sp,sp,1104 # 800e0000 <begin_signature>
    80000bb8:	633d                	lui	t1,0xf
    80000bba:	1603031b          	addw	t1,t1,352 # f160 <_tbss_end+0xf160>
    80000bbe:	911a                	add	sp,sp,t1

0000000080000bc0 <i00000000b8>:
    80000bc0:	92813d83          	ld	s11,-1752(sp)

0000000080000bc4 <i00000000b9>:
    80000bc4:	37910ca3          	sb	s9,889(sp)

0000000080000bc8 <i00000000ba>:
    80000bc8:	e0068cd3          	fmv.x.w	s9,fa3
    80000bcc:	4ea9                	li	t4,10
    80000bce:	a24e9453          	flt.d	s0,ft9,ft4
    80000bd2:	a20c87d3          	fle.d	a5,fs9,ft0
    80000bd6:	02877d33          	remu	s10,a4,s0
    80000bda:	a1312b2f          	amomax.w	s6,s3,(sp)
    80000bde:	f5311023          	sh	s3,-192(sp)
    80000be2:	e1813b2f          	amomaxu.d	s6,s8,(sp)
    80000be6:	08e127af          	amoswap.w	a5,a4,(sp)

0000000080000bea <b00000000bb>:
    80000bea:	01da8863          	beq	s5,t4,80000bfa <b00000000bb+0x10>
    80000bee:	00000e97          	auipc	t4,0x0
    80000bf2:	fbae8e93          	add	t4,t4,-70 # 80000ba8 <i00000000b6>
    80000bf6:	000e8067          	jr	t4
    80000bfa:	4aa9                	li	s5,10
    80000bfc:	77ea                	ld	a5,184(sp)
    80000bfe:	1b7df4d3          	fdiv.d	fs1,fs11,fs7
    80000c02:	0ff0000f          	fence
    80000c06:	0ff0000f          	fence
    80000c0a:	7482                	ld	s1,32(sp)
    80000c0c:	e20c03d3          	fmv.x.d	t2,fs8
    80000c10:	2fbce793          	or	a5,s9,763

0000000080000c14 <i00000000bb>:
    80000c14:	d42a                	sw	a0,40(sp)

0000000080000c16 <i00000000bc>:
    80000c16:	23bd9ed3          	fneg.d	ft9,fs11

0000000080000c1a <i00000000bd>:
    80000c1a:	02c7a533          	mulhsu	a0,a5,a2

0000000080000c1e <i00000000be>:
    80000c1e:	08c1252f          	amoswap.w	a0,a2,(sp)

0000000080000c22 <i00000000bf>:
    80000c22:	02f56c3b          	remw	s8,a0,a5

0000000080000c26 <i00000000c0>:
    80000c26:	03920633          	mul	a2,tp,s9

0000000080000c2a <i00000000c1>:
    80000c2a:	d23c7b53          	fcvt.d.lu	fs6,s8

0000000080000c2e <i00000000c2>:
    80000c2e:	00f51f3b          	sllw	t5,a0,a5

0000000080000c32 <i00000000c3>:
    80000c32:	0187d693          	srl	a3,a5,0x18

0000000080000c36 <i00000000c4>:
    80000c36:	9d89                	subw	a1,a1,a0
    80000c38:	4fad                	li	t6,11
    80000c3a:	4aa9                	li	s5,10
    80000c3c:	c01ba7d3          	fcvt.wu.s	a5,fs7,rdn
    80000c40:	0000100f          	fence.i
    80000c44:	35112c23          	sw	a7,856(sp)
    80000c48:	02f757b3          	divu	a5,a4,a5
    80000c4c:	c0393753          	fcvt.lu.s	a4,fs2,rup
    80000c50:	d03e42d3          	fcvt.s.lu	ft5,t3,rmm
    80000c54:	e20701d3          	fmv.x.d	gp,fa4

0000000080000c58 <b00000000c5>:
    80000c58:	00000033          	add	zero,zero,zero
    80000c5c:	05fa9163          	bne	s5,t6,80000c9e <i00000000ca>
    80000c60:	00000033          	add	zero,zero,zero
    80000c64:	01a1d793          	srl	a5,gp,0x1a
    80000c68:	98d5                	and	s1,s1,-11
    80000c6a:	00e7e4b3          	or	s1,a5,a4
    80000c6e:	871e                	mv	a4,t2
    80000c70:	c14133af          	amominu.d	t2,s4,(sp)
    80000c74:	032d0733          	mul	a4,s10,s2
    80000c78:	02e4c3b3          	div	t2,s1,a4
    80000c7c:	4aa9                	li	s5,10

0000000080000c7e <i00000000c5>:
    80000c7e:	67ad                	lui	a5,0xb
    80000c80:	000df117          	auipc	sp,0xdf
    80000c84:	38010113          	add	sp,sp,896 # 800e0000 <begin_signature>
    80000c88:	6335                	lui	t1,0xd
    80000c8a:	1a83031b          	addw	t1,t1,424 # d1a8 <_tbss_end+0xd1a8>
    80000c8e:	911a                	add	sp,sp,t1

0000000080000c90 <i00000000c6>:
    80000c90:	7566                	ld	a0,120(sp)

0000000080000c92 <i00000000c7>:
    80000c92:	607124af          	amoand.w	s1,t2,(sp)

0000000080000c96 <i00000000c8>:
    80000c96:	029977bb          	remuw	a5,s2,s1

0000000080000c9a <i00000000c9>:
    80000c9a:	a13138af          	amomax.d	a7,s3,(sp)

0000000080000c9e <i00000000ca>:
    80000c9e:	c0c1262f          	amominu.w	a2,a2,(sp)

0000000080000ca2 <i00000000cb>:
    80000ca2:	e20d8953          	fmv.x.d	s2,fs11

0000000080000ca6 <i00000000cc>:
    80000ca6:	c22d7553          	fcvt.l.d	a0,fs10

0000000080000caa <i00000000cd>:
    80000caa:	1b612823          	sw	s6,432(sp)

0000000080000cae <i00000000ce>:
    80000cae:	28cfcb43          	fmadd.s	fs6,ft11,fa2,ft5,rmm
    80000cb2:	4ea5                	li	t4,9
    80000cb4:	000df117          	auipc	sp,0xdf
    80000cb8:	34c10113          	add	sp,sp,844 # 800e0000 <begin_signature>
    80000cbc:	6319                	lui	t1,0x6
    80000cbe:	1c83031b          	addw	t1,t1,456 # 61c8 <_tbss_end+0x61c8>
    80000cc2:	911a                	add	sp,sp,t1
    80000cc4:	0000100f          	fence.i
    80000cc8:	9f25                	addw	a4,a4,s1
    80000cca:	0024539b          	srlw	t2,s0,0x2
    80000cce:	8dba                	mv	s11,a4
    80000cd0:	240d                	addw	s0,s0,3
    80000cd2:	d03b9cd3          	fcvt.s.lu	fs9,s7,rtz
    80000cd6:	039c57bb          	divuw	a5,s8,s9

0000000080000cda <b00000000cf>:
    80000cda:	00000033          	add	zero,zero,zero
    80000cde:	fd5ed0e3          	bge	t4,s5,80000c9e <i00000000ca>
    80000ce2:	00000033          	add	zero,zero,zero
    80000ce6:	b5a6                	fsd	fs1,232(sp)
    80000ce8:	030873bb          	remuw	t2,a6,a6
    80000cec:	c07e                	sw	t6,0(sp)
    80000cee:	644e                	ld	s0,208(sp)
    80000cf0:	4015f653          	fcvt.s.d	fa2,fa1
    80000cf4:	a37c8b53          	fle.d	s6,fs9,fs7
    80000cf8:	02a15783          	lhu	a5,42(sp)
    80000cfc:	4aa9                	li	s5,10

0000000080000cfe <i00000000cf>:
    80000cfe:	6b26                	ld	s6,72(sp)

0000000080000d00 <i00000000d0>:
    80000d00:	03395613          	srl	a2,s2,0x33

0000000080000d04 <i00000000d1>:
    80000d04:	9b34f8c3          	fmadd.d	fa7,fs1,fs3,fs3

0000000080000d08 <i00000000d2>:
    80000d08:	0047961b          	sllw	a2,a5,0x4

0000000080000d0c <i00000000d3>:
    80000d0c:	24c6                	fld	fs1,80(sp)

0000000080000d0e <i00000000d4>:
    80000d0e:	d0274353          	fcvt.s.l	ft6,a4,rmm

0000000080000d12 <i00000000d5>:
    80000d12:	99ad                	and	a1,a1,-21

0000000080000d14 <i00000000d6>:
    80000d14:	c4b6                	sw	a3,72(sp)

0000000080000d16 <i00000000d7>:
    80000d16:	f4aa                	sd	a0,104(sp)

0000000080000d18 <i00000000d8>:
    80000d18:	01612f2f          	amoadd.w	t5,s6,(sp)
    80000d1c:	000df117          	auipc	sp,0xdf
    80000d20:	2e410113          	add	sp,sp,740 # 800e0000 <begin_signature>
    80000d24:	631d                	lui	t1,0x7
    80000d26:	f183031b          	addw	t1,t1,-232 # 6f18 <_tbss_end+0x6f18>
    80000d2a:	911a                	add	sp,sp,t1
    80000d2c:	2622                	fld	fa2,8(sp)
    80000d2e:	a031242f          	amomax.w	s0,gp,(sp)
    80000d32:	da26                	sw	s1,52(sp)
    80000d34:	028981b3          	mul	gp,s3,s0
    80000d38:	0100043b          	addw	s0,zero,a6
    80000d3c:	6466                	ld	s0,88(sp)
    80000d3e:	33a6                	fld	ft7,104(sp)

0000000080000d40 <b00000000d9>:
    80000d40:	00000e17          	auipc	t3,0x0
    80000d44:	034e0e13          	add	t3,t3,52 # 80000d74 <i00000000de>
    80000d48:	000e0067          	jr	t3
    80000d4c:	5412                	lw	s0,36(sp)
    80000d4e:	e0812baf          	amomaxu.w	s7,s0,(sp)
    80000d52:	640a                	ld	s0,128(sp)
    80000d54:	02e7e3bb          	remw	t2,a5,a4
    80000d58:	0000100f          	fence.i
    80000d5c:	02f7d433          	divu	s0,a5,a5
    80000d60:	c03297d3          	fcvt.lu.s	a5,ft5,rtz

0000000080000d64 <i00000000d9>:
    80000d64:	9e25                	addw	a2,a2,s1

0000000080000d66 <i00000000da>:
    80000d66:	c05137af          	amominu.d	a5,t0,(sp)

0000000080000d6a <i00000000db>:
    80000d6a:	c0be                	sw	a5,64(sp)

0000000080000d6c <i00000000dc>:
    80000d6c:	00f53f33          	sltu	t5,a0,a5

0000000080000d70 <i00000000dd>:
    80000d70:	0a9b7353          	fsub.d	ft6,fs6,fs1

0000000080000d74 <i00000000de>:
    80000d74:	0005131b          	sllw	t1,a0,0x0

0000000080000d78 <i00000000df>:
    80000d78:	92e6                	add	t0,t0,s9

0000000080000d7a <i00000000e0>:
    80000d7a:	d0351b53          	fcvt.s.lu	fs6,a0,rtz

0000000080000d7e <i00000000e1>:
    80000d7e:	02c55c33          	divu	s8,a0,a2

0000000080000d82 <i00000000e2>:
    80000d82:	02a5593b          	divuw	s2,a0,a0
    80000d86:	4d29                	li	s10,10
    80000d88:	4aa9                	li	s5,10
    80000d8a:	b29b734b          	fnmsub.d	ft6,fs6,fs1,fs6
    80000d8e:	c022                	sw	s0,0(sp)
    80000d90:	033763b3          	rem	t2,a4,s3
    80000d94:	0ff0000f          	fence
    80000d98:	039ec3bb          	divw	t2,t4,s9
    80000d9c:	a4814403          	lbu	s0,-1464(sp)
    80000da0:	89114e03          	lbu	t3,-1903(sp)

0000000080000da4 <b00000000e3>:
    80000da4:	00000033          	add	zero,zero,zero
    80000da8:	03aa9763          	bne	s5,s10,80000dd6 <i00000000e8>
    80000dac:	00000033          	add	zero,zero,zero
    80000db0:	d237f753          	fcvt.d.lu	fa4,a5
    80000db4:	58048cd3          	fsqrt.s	fs9,fs1,rne
    80000db8:	613133af          	amoand.d	t2,s3,(sp)
    80000dbc:	9c19                	subw	s0,s0,a4
    80000dbe:	c22ffc53          	fcvt.l.d	s8,ft11
    80000dc2:	c03f2853          	fcvt.lu.s	a6,ft10,rdn
    80000dc6:	9ca5                	addw	s1,s1,s1
    80000dc8:	4aa9                	li	s5,10

0000000080000dca <i00000000e3>:
    80000dca:	e832                	sd	a2,16(sp)

0000000080000dcc <i00000000e4>:
    80000dcc:	f42a                	sd	a0,40(sp)

0000000080000dce <i00000000e5>:
    80000dce:	4531                	li	a0,12

0000000080000dd0 <i00000000e6>:
    80000dd0:	e83e                	sd	a5,16(sp)

0000000080000dd2 <i00000000e7>:
    80000dd2:	03891e33          	mulh	t3,s2,s8

0000000080000dd6 <i00000000e8>:
    80000dd6:	2294a653          	fabs.d	fa2,fs1

0000000080000dda <i00000000e9>:
    80000dda:	02521fb3          	mulh	t6,tp,t0

0000000080000dde <i00000000ea>:
    80000dde:	40a553bb          	sraw	t2,a0,a0

0000000080000de2 <i00000000eb>:
    80000de2:	1121                	add	sp,sp,-24
    80000de4:	e42e                	sd	a1,8(sp)
    80000de6:	e826                	sd	s1,16(sp)
    80000de8:	ec32                	sd	a2,24(sp)
    80000dea:	00000497          	auipc	s1,0x0
    80000dee:	01448493          	add	s1,s1,20 # 80000dfe <i00000000eb+0x1c>
    80000df2:	00000597          	auipc	a1,0x0
    80000df6:	00858593          	add	a1,a1,8 # 80000dfa <i00000000eb+0x18>
    80000dfa:	00248667          	jalr	a2,2(s1)
    80000dfe:	0001                	nop
    80000e00:	0001                	nop
    80000e02:	65a2                	ld	a1,8(sp)
    80000e04:	64c2                	ld	s1,16(sp)
    80000e06:	6662                	ld	a2,24(sp)
    80000e08:	0161                	add	sp,sp,24

0000000080000e0a <i00000000ec>:
    80000e0a:	43113023          	sd	a7,1056(sp)

0000000080000e0e <i00000000ed>:
    80000e0e:	c0290553          	fcvt.l.s	a0,fs2,rne
    80000e12:	4b31                	li	s6,12
    80000e14:	0a85                	add	s5,s5,1
    80000e16:	000df117          	auipc	sp,0xdf
    80000e1a:	1ea10113          	add	sp,sp,490 # 800e0000 <begin_signature>
    80000e1e:	6319                	lui	t1,0x6
    80000e20:	3403031b          	addw	t1,t1,832 # 6340 <_tbss_end+0x6340>
    80000e24:	911a                	add	sp,sp,t1
    80000e26:	000df117          	auipc	sp,0xdf
    80000e2a:	1da10113          	add	sp,sp,474 # 800e0000 <begin_signature>
    80000e2e:	6309                	lui	t1,0x2
    80000e30:	1103031b          	addw	t1,t1,272 # 2110 <_tbss_end+0x2110>
    80000e34:	911a                	add	sp,sp,t1
    80000e36:	2646                	fld	fa2,80(sp)
    80000e38:	0137eeb3          	or	t4,a5,s3
    80000e3c:	412127af          	amoor.w	a5,s2,(sp)
    80000e40:	f20d8953          	fmv.d.x	fs2,s11
    80000e44:	4187df9b          	sraw	t6,a5,0x18
    80000e48:	00e9e8b3          	or	a7,s3,a4
    80000e4c:	72711323          	sh	t2,1830(sp)

0000000080000e50 <b00000000ee>:
    80000e50:	00000033          	add	zero,zero,zero
    80000e54:	f96ac3e3          	blt	s5,s6,80000dda <i00000000e9>
    80000e58:	00000033          	add	zero,zero,zero
    80000e5c:	a0a6                	fsd	fs1,64(sp)
    80000e5e:	4d416b83          	lwu	s7,1236(sp)
    80000e62:	0000100f          	fence.i
    80000e66:	d23cf853          	fcvt.d.lu	fa6,s9
    80000e6a:	9c01                	subw	s0,s0,s0
    80000e6c:	5a08f653          	fsqrt.d	fa2,fa7
    80000e70:	613129af          	amoand.w	s3,s3,(sp)
    80000e74:	4aa9                	li	s5,10

0000000080000e76 <i00000000ee>:
    80000e76:	42030853          	fcvt.d.s	fa6,ft6
    80000e7a:	000df117          	auipc	sp,0xdf
    80000e7e:	18610113          	add	sp,sp,390 # 800e0000 <begin_signature>
    80000e82:	6315                	lui	t1,0x5
    80000e84:	9203031b          	addw	t1,t1,-1760 # 4920 <_tbss_end+0x4920>
    80000e88:	911a                	add	sp,sp,t1

0000000080000e8a <i00000000ef>:
    80000e8a:	56e2                	lw	a3,56(sp)

0000000080000e8c <i00000000f0>:
    80000e8c:	e0a1352f          	amomaxu.d	a0,a0,(sp)

0000000080000e90 <i00000000f1>:
    80000e90:	c16e                	sw	s11,128(sp)

0000000080000e92 <i00000000f2>:
    80000e92:	0746                	sll	a4,a4,0x11

0000000080000e94 <i00000000f3>:
    80000e94:	66c12a03          	lw	s4,1644(sp)

0000000080000e98 <i00000000f4>:
    80000e98:	8c99                	sub	s1,s1,a4

0000000080000e9a <i00000000f5>:
    80000e9a:	a1013d03          	ld	s10,-1520(sp)

0000000080000e9e <i00000000f6>:
    80000e9e:	9e89                	subw	a3,a3,a0

0000000080000ea0 <i00000000f7>:
    80000ea0:	d00634d3          	fcvt.s.w	fs1,a2,rup
    80000ea4:	4cb1                	li	s9,12
    80000ea6:	0a85                	add	s5,s5,1
    80000ea8:	d027c4d3          	fcvt.s.l	fs1,a5,rmm
    80000eac:	286b1653          	fmax.s	fa2,fs6,ft6
    80000eb0:	0141                	add	sp,sp,16
    80000eb2:	d622                	sw	s0,44(sp)
    80000eb4:	0001979b          	sllw	a5,gp,0x0
    80000eb8:	034277bb          	remuw	a5,tp,s4
    80000ebc:	08e137af          	amoswap.d	a5,a4,(sp)

0000000080000ec0 <b00000000f8>:
    80000ec0:	019a8463          	beq	s5,s9,80000ec8 <b00000000f8+0x8>
    80000ec4:	fd1ff06f          	j	80000e94 <i00000000f3>
    80000ec8:	4aa9                	li	s5,10
    80000eca:	4402                	lw	s0,0(sp)
    80000ecc:	5712                	lw	a4,36(sp)
    80000ece:	a27a07d3          	fle.d	a5,fs4,ft7
    80000ed2:	34f10d23          	sb	a5,858(sp)
    80000ed6:	7159                	add	sp,sp,-112
    80000ed8:	b2637447          	fmsub.d	fs0,ft6,ft6,fs6
    80000edc:	029773bb          	remuw	t2,a4,s1

0000000080000ee0 <i00000000f8>:
    80000ee0:	7a615483          	lhu	s1,1958(sp)

0000000080000ee4 <i00000000f9>:
    80000ee4:	e9aa                	sd	a0,208(sp)

0000000080000ee6 <i00000000fa>:
    80000ee6:	82e9                	srl	a3,a3,0x1a

0000000080000ee8 <i00000000fb>:
    80000ee8:	e0c12d2f          	amomaxu.w	s10,a2,(sp)

0000000080000eec <i00000000fc>:
    80000eec:	acb6                	fsd	fa3,88(sp)

0000000080000eee <i00000000fd>:
    80000eee:	40f6563b          	sraw	a2,a2,a5
    80000ef2:	000df117          	auipc	sp,0xdf
    80000ef6:	10e10113          	add	sp,sp,270 # 800e0000 <begin_signature>
    80000efa:	6319                	lui	t1,0x6
    80000efc:	2e03031b          	addw	t1,t1,736 # 62e0 <_tbss_end+0x62e0>
    80000f00:	911a                	add	sp,sp,t1

0000000080000f02 <i00000000fe>:
    80000f02:	5742                	lw	a4,48(sp)

0000000080000f04 <i00000000ff>:
    80000f04:	e6c10ca3          	sb	a2,-391(sp)

0000000080000f08 <i0000000100>:
    80000f08:	810a                	mv	sp,sp
    80000f0a:	000df117          	auipc	sp,0xdf
    80000f0e:	0f610113          	add	sp,sp,246 # 800e0000 <begin_signature>
    80000f12:	6319                	lui	t1,0x6
    80000f14:	5103031b          	addw	t1,t1,1296 # 6510 <_tbss_end+0x6510>
    80000f18:	911a                	add	sp,sp,t1

0000000080000f1a <i0000000101>:
    80000f1a:	a4be                	fsd	fa5,72(sp)
    80000f1c:	000df117          	auipc	sp,0xdf
    80000f20:	0e410113          	add	sp,sp,228 # 800e0000 <begin_signature>
    80000f24:	632d                	lui	t1,0xb
    80000f26:	7d83031b          	addw	t1,t1,2008 # b7d8 <_tbss_end+0xb7d8>
    80000f2a:	911a                	add	sp,sp,t1
    80000f2c:	000df117          	auipc	sp,0xdf
    80000f30:	0d410113          	add	sp,sp,212 # 800e0000 <begin_signature>
    80000f34:	6319                	lui	t1,0x6
    80000f36:	c703031b          	addw	t1,t1,-912 # 5c70 <_tbss_end+0x5c70>
    80000f3a:	911a                	add	sp,sp,t1
    80000f3c:	02f75033          	divu	zero,a4,a5
    80000f40:	d019f6d3          	fcvt.s.wu	fa3,s3
    80000f44:	0981292f          	amoswap.w	s2,s8,(sp)
    80000f48:	02e7c3b3          	div	t2,a5,a4
    80000f4c:	016ddc13          	srl	s8,s11,0x16
    80000f50:	c2307d53          	fcvt.lu.d	s10,ft0
    80000f54:	c234fd53          	fcvt.lu.d	s10,fs1

0000000080000f58 <b0000000102>:
    80000f58:	00000817          	auipc	a6,0x0
    80000f5c:	03680813          	add	a6,a6,54 # 80000f8e <i0000000107>
    80000f60:	00080067          	jr	a6
    80000f64:	c1113baf          	amominu.d	s7,a7,(sp)
    80000f68:	5c811623          	sh	s0,1484(sp)
    80000f6c:	d037a253          	fcvt.s.lu	ft4,a5,rdn
    80000f70:	5226                	lw	tp,104(sp)
    80000f72:	c0248253          	fcvt.l.s	tp,fs1,rne
    80000f76:	7145                	add	sp,sp,-464
    80000f78:	b1fe                	fsd	ft11,224(sp)

0000000080000f7a <i0000000102>:
    80000f7a:	46412903          	lw	s2,1124(sp)

0000000080000f7e <i0000000103>:
    80000f7e:	20c1262f          	amoxor.w	a2,a2,(sp)

0000000080000f82 <i0000000104>:
    80000f82:	415cd513          	sra	a0,s9,0x15

0000000080000f86 <i0000000105>:
    80000f86:	02bc9513          	sll	a0,s9,0x2b

0000000080000f8a <i0000000106>:
    80000f8a:	03e4e5b3          	rem	a1,s1,t5

0000000080000f8e <i0000000107>:
    80000f8e:	20612caf          	amoxor.w	s9,t1,(sp)

0000000080000f92 <i0000000108>:
    80000f92:	ec5a                	sd	s6,24(sp)

0000000080000f94 <i0000000109>:
    80000f94:	13547ac7          	fmsub.d	fs5,fs0,fs5,ft2

0000000080000f98 <i000000010a>:
    80000f98:	e062                	sd	s8,0(sp)

0000000080000f9a <i000000010b>:
    80000f9a:	0031d61b          	srlw	a2,gp,0x3
    80000f9e:	4981                	li	s3,0
    80000fa0:	03197d3b          	remuw	s10,s2,a7
    80000fa4:	083123af          	amoswap.w	t2,gp,(sp)
    80000fa8:	a1712baf          	amomax.w	s7,s7,(sp)
    80000fac:	036b67bb          	remw	a5,s6,s6
    80000fb0:	68d1                	lui	a7,0x14
    80000fb2:	2642                	fld	fa2,16(sp)
    80000fb4:	e20384d3          	fmv.x.d	s1,ft7

0000000080000fb8 <b000000010c>:
    80000fb8:	00000033          	add	zero,zero,zero
    80000fbc:	fd3a89e3          	beq	s5,s3,80000f8e <i0000000107>
    80000fc0:	00000033          	add	zero,zero,zero
    80000fc4:	01d133af          	amoadd.d	t2,t4,(sp)
    80000fc8:	0294f73b          	remuw	a4,s1,s1
    80000fcc:	8761                	sra	a4,a4,0x18
    80000fce:	0841272f          	amoswap.w	a4,tp,(sp)
    80000fd2:	208134af          	amoxor.d	s1,s0,(sp)
    80000fd6:	2f770b13          	add	s6,a4,759
    80000fda:	37e6                	fld	fa5,120(sp)
    80000fdc:	4aa9                	li	s5,10

0000000080000fde <i000000010c>:
    80000fde:	c22b72d3          	fcvt.l.d	t0,fs6

0000000080000fe2 <i000000010d>:
    80000fe2:	00755793          	srl	a5,a0,0x7

0000000080000fe6 <i000000010e>:
    80000fe6:	db913c23          	sd	s9,-584(sp)

0000000080000fea <i000000010f>:
    80000fea:	260e                	fld	fa2,192(sp)

0000000080000fec <i0000000110>:
    80000fec:	60f1252f          	amoand.w	a0,a5,(sp)

0000000080000ff0 <i0000000111>:
    80000ff0:	4064563b          	sraw	a2,s0,t1

0000000080000ff4 <i0000000112>:
    80000ff4:	a1d136af          	amomax.d	a3,t4,(sp)

0000000080000ff8 <i0000000113>:
    80000ff8:	9cb9                	addw	s1,s1,a4

0000000080000ffa <i0000000114>:
    80000ffa:	47d2                	lw	a5,20(sp)

0000000080000ffc <i0000000115>:
    80000ffc:	8c15                	sub	s0,s0,a3
    80000ffe:	48a9                	li	a7,10
    80001000:	a0813e2f          	amomax.d	t3,s0,(sp)
    80001004:	8785                	sra	a5,a5,0x1
    80001006:	1227fb53          	fmul.d	fs6,fa5,ft2
    8000100a:	c0309bd3          	fcvt.lu.s	s7,ft1,rtz
    8000100e:	43813703          	ld	a4,1080(sp)
    80001012:	0000100f          	fence.i
    80001016:	0000100f          	fence.i

000000008000101a <b0000000116>:
    8000101a:	011a8863          	beq	s5,a7,8000102a <b0000000116+0x10>
    8000101e:	00000897          	auipc	a7,0x0
    80001022:	fd288893          	add	a7,a7,-46 # 80000ff0 <i0000000111>
    80001026:	00088567          	jalr	a0,a7
    8000102a:	4aa9                	li	s5,10
    8000102c:	9e9107a3          	sb	s1,-1553(sp)
    80001030:	f20d04d3          	fmv.d.x	fs1,s10
    80001034:	f7d13423          	sd	t4,-152(sp)
    80001038:	612129af          	amoand.w	s3,s2,(sp)
    8000103c:	0297ba33          	mulhu	s4,a5,s1
    80001040:	e2060fd3          	fmv.x.d	t6,fa2
    80001044:	ee870e1b          	addw	t3,a4,-280

0000000080001048 <i0000000116>:
    80001048:	02c53833          	mulhu	a6,a0,a2

000000008000104c <i0000000117>:
    8000104c:	b0a2                	fsd	fs0,96(sp)

000000008000104e <i0000000118>:
    8000104e:	798e                	ld	s3,224(sp)
    80001050:	000df117          	auipc	sp,0xdf
    80001054:	fb010113          	add	sp,sp,-80 # 800e0000 <begin_signature>
    80001058:	6331                	lui	t1,0xc
    8000105a:	4a03031b          	addw	t1,t1,1184 # c4a0 <_tbss_end+0xc4a0>
    8000105e:	911a                	add	sp,sp,t1

0000000080001060 <i0000000119>:
    80001060:	ed412207          	flw	ft4,-300(sp)

0000000080001064 <i000000011a>:
    80001064:	5a0af4d3          	fsqrt.d	fs1,fs5

0000000080001068 <i000000011b>:
    80001068:	a0e1252f          	amomax.w	a0,a4,(sp)

000000008000106c <i000000011c>:
    8000106c:	d2aa                	sw	a0,100(sp)

000000008000106e <i000000011d>:
    8000106e:	bc813d87          	fld	fs11,-1080(sp)

0000000080001072 <i000000011e>:
    80001072:	5e3d                	li	t3,-17

0000000080001074 <i000000011f>:
    80001074:	a0013f03          	ld	t5,-1536(sp)
    80001078:	4bb1                	li	s7,12
    8000107a:	0a85                	add	s5,s5,1
    8000107c:	000df117          	auipc	sp,0xdf
    80001080:	f8410113          	add	sp,sp,-124 # 800e0000 <begin_signature>
    80001084:	631d                	lui	t1,0x7
    80001086:	f803031b          	addw	t1,t1,-128 # 6f80 <_tbss_end+0x6f80>
    8000108a:	911a                	add	sp,sp,t1
    8000108c:	0000100f          	fence.i
    80001090:	c7416783          	lwu	a5,-908(sp)
    80001094:	c202f1d3          	fcvt.w.d	gp,ft5
    80001098:	0ff0000f          	fence
    8000109c:	5495                	li	s1,-27
    8000109e:	0000100f          	fence.i
    800010a2:	d426                	sw	s1,40(sp)

00000000800010a4 <b0000000120>:
    800010a4:	00000033          	add	zero,zero,zero
    800010a8:	fd7ac0e3          	blt	s5,s7,80001068 <i000000011b>
    800010ac:	00000033          	add	zero,zero,zero
    800010b0:	0ff0000f          	fence
    800010b4:	02e4e9bb          	remw	s3,s1,a4
    800010b8:	b5c15703          	lhu	a4,-1188(sp)
    800010bc:	00948b33          	add	s6,s1,s1
    800010c0:	0094e733          	or	a4,s1,s1
    800010c4:	02024433          	div	s0,tp,zero
    800010c8:	013b5cb3          	srl	s9,s6,s3
    800010cc:	4aa9                	li	s5,10
    800010ce:	000df117          	auipc	sp,0xdf
    800010d2:	f3210113          	add	sp,sp,-206 # 800e0000 <begin_signature>
    800010d6:	6305                	lui	t1,0x1
    800010d8:	5e03031b          	addw	t1,t1,1504 # 15e0 <_tbss_end+0x15e0>
    800010dc:	911a                	add	sp,sp,t1

00000000800010de <i0000000120>:
    800010de:	e8416603          	lwu	a2,-380(sp)

00000000800010e2 <i0000000121>:
    800010e2:	c0178853          	fcvt.wu.s	a6,fa5,rne

00000000800010e6 <i0000000122>:
    800010e6:	05412003          	lw	zero,84(sp)

00000000800010ea <i0000000123>:
    800010ea:	9d3d                	addw	a0,a0,a5

00000000800010ec <i0000000124>:
    800010ec:	9d35                	addw	a0,a0,a3

00000000800010ee <i0000000125>:
    800010ee:	985a                	add	a6,a6,s6

00000000800010f0 <i0000000126>:
    800010f0:	7121                	add	sp,sp,-448

00000000800010f2 <i0000000127>:
    800010f2:	00235073          	fsrmi	zero,6
    800010f6:	000df117          	auipc	sp,0xdf
    800010fa:	f0a10113          	add	sp,sp,-246 # 800e0000 <begin_signature>
    800010fe:	6339                	lui	t1,0xe
    80001100:	ed83031b          	addw	t1,t1,-296 # ded8 <_tbss_end+0xded8>
    80001104:	911a                	add	sp,sp,t1

0000000080001106 <i0000000128>:
    80001106:	ecb6                	sd	a3,88(sp)

0000000080001108 <i0000000129>:
    80001108:	1818                	add	a4,sp,48

000000008000110a <i000000012a>:
    8000110a:	8e51                	or	a2,a2,a2
    8000110c:	4ca9                	li	s9,10
    8000110e:	dcce                	sw	s3,120(sp)
    80001110:	29416703          	lwu	a4,660(sp)
    80001114:	60f124af          	amoand.w	s1,a5,(sp)
    80001118:	029787b3          	mul	a5,a5,s1
    8000111c:	8c21                	xor	s0,s0,s0
    8000111e:	a3bb14d3          	flt.d	s1,fs6,fs11
    80001122:	02007933          	remu	s2,zero,zero

0000000080001126 <b000000012b>:
    80001126:	019a8463          	beq	s5,s9,8000112e <b000000012b+0x8>
    8000112a:	fc7ff06f          	j	800010f0 <i0000000126>
    8000112e:	4aa9                	li	s5,10
    80001130:	da22                	sw	s0,52(sp)
    80001132:	8cf9                	and	s1,s1,a4
    80001134:	4014fdd3          	fcvt.s.d	fs11,fs1
    80001138:	0ff0000f          	fence
    8000113c:	037fc43b          	divw	s0,t6,s7
    80001140:	0171f4b3          	and	s1,gp,s7
    80001144:	01619713          	sll	a4,gp,0x16

0000000080001148 <i000000012b>:
    80001148:	c03c35d3          	fcvt.lu.s	a1,fs8,rup

000000008000114c <i000000012c>:
    8000114c:	0180119b          	sllw	gp,zero,0x18

0000000080001150 <i000000012d>:
    80001150:	00c136af          	amoadd.d	a3,a2,(sp)

0000000080001154 <i000000012e>:
    80001154:	ec42                	sd	a6,24(sp)
    80001156:	000df117          	auipc	sp,0xdf
    8000115a:	eaa10113          	add	sp,sp,-342 # 800e0000 <begin_signature>
    8000115e:	6321                	lui	t1,0x8
    80001160:	6e03031b          	addw	t1,t1,1760 # 86e0 <_tbss_end+0x86e0>
    80001164:	911a                	add	sp,sp,t1

0000000080001166 <i000000012f>:
    80001166:	6c66                	ld	s8,88(sp)

0000000080001168 <i0000000130>:
    80001168:	7ab13023          	sd	a1,1952(sp)

000000008000116c <i0000000131>:
    8000116c:	02a527b3          	mulhsu	a5,a0,a0
    80001170:	000df117          	auipc	sp,0xdf
    80001174:	e9010113          	add	sp,sp,-368 # 800e0000 <begin_signature>
    80001178:	6331                	lui	t1,0xc
    8000117a:	8703031b          	addw	t1,t1,-1936 # b870 <_tbss_end+0xb870>
    8000117e:	911a                	add	sp,sp,t1

0000000080001180 <i0000000132>:
    80001180:	b4a6                	fsd	fs1,104(sp)

0000000080001182 <i0000000133>:
    80001182:	8eda                	mv	t4,s6

0000000080001184 <i0000000134>:
    80001184:	a9113023          	sd	a7,-1408(sp)
    80001188:	4fa5                	li	t6,9
    8000118a:	4aa9                	li	s5,10
    8000118c:	e062                	sd	s8,0(sp)
    8000118e:	f2048a53          	fmv.d.x	fs4,s1
    80001192:	095893d3          	fsub.s	ft7,fa7,fs5,rtz
    80001196:	7129                	add	sp,sp,-320
    80001198:	d024b7d3          	fcvt.s.l	fa5,s1,rup
    8000119c:	a906                	fsd	ft1,144(sp)
    8000119e:	c2347b53          	fcvt.lu.d	s6,fs0

00000000800011a2 <b0000000135>:
    800011a2:	00000033          	add	zero,zero,zero
    800011a6:	055fd063          	bge	t6,s5,800011e6 <i000000013a>
    800011aa:	00000033          	add	zero,zero,zero
    800011ae:	61632f43          	fmadd.s	ft10,ft6,fs6,fa2,rdn
    800011b2:	8c813c27          	fsd	fs0,-1832(sp)
    800011b6:	21b134af          	amoxor.d	s1,s11,(sp)
    800011ba:	14b9                	add	s1,s1,-18
    800011bc:	2c86                	fld	fs9,64(sp)
    800011be:	2606                	fld	fa2,64(sp)
    800011c0:	09a134af          	amoswap.d	s1,s10,(sp)
    800011c4:	4aa9                	li	s5,10

00000000800011c6 <i0000000135>:
    800011c6:	c1413e2f          	amominu.d	t3,s4,(sp)

00000000800011ca <i0000000136>:
    800011ca:	7666                	ld	a2,120(sp)

00000000800011cc <i0000000137>:
    800011cc:	5e02                	lw	t3,32(sp)

00000000800011ce <i0000000138>:
    800011ce:	d9b3364f          	fnmadd.s	fa2,ft6,fs11,fs11,rup
    800011d2:	000df117          	auipc	sp,0xdf
    800011d6:	e2e10113          	add	sp,sp,-466 # 800e0000 <begin_signature>
    800011da:	630d                	lui	t1,0x3
    800011dc:	5a83031b          	addw	t1,t1,1448 # 35a8 <_tbss_end+0x35a8>
    800011e0:	911a                	add	sp,sp,t1

00000000800011e2 <i0000000139>:
    800011e2:	d4813783          	ld	a5,-696(sp)

00000000800011e6 <i000000013a>:
    800011e6:	61f13caf          	amoand.d	s9,t6,(sp)
    800011ea:	000df117          	auipc	sp,0xdf
    800011ee:	e1610113          	add	sp,sp,-490 # 800e0000 <begin_signature>
    800011f2:	6339                	lui	t1,0xe
    800011f4:	9a03031b          	addw	t1,t1,-1632 # d9a0 <_tbss_end+0xd9a0>
    800011f8:	911a                	add	sp,sp,t1

00000000800011fa <i000000013b>:
    800011fa:	adc16603          	lwu	a2,-1316(sp)

00000000800011fe <i000000013c>:
    800011fe:	7145                	add	sp,sp,-464

0000000080001200 <i000000013d>:
    80001200:	c636                	sw	a3,12(sp)

0000000080001202 <i000000013e>:
    80001202:	c0263ed3          	fcvt.l.s	t4,fa2,rup
    80001206:	48a5                	li	a7,9
    80001208:	000df117          	auipc	sp,0xdf
    8000120c:	df810113          	add	sp,sp,-520 # 800e0000 <begin_signature>
    80001210:	630d                	lui	t1,0x3
    80001212:	6d83031b          	addw	t1,t1,1752 # 36d8 <_tbss_end+0x36d8>
    80001216:	911a                	add	sp,sp,t1
    80001218:	2b968653          	fmin.d	fa2,fa3,fs9
    8000121c:	0a016b03          	lwu	s6,160(sp)
    80001220:	d21e81d3          	fcvt.d.wu	ft3,t4
    80001224:	139efdd3          	fmul.d	fs11,ft9,fs9
    80001228:	580dafd3          	fsqrt.s	ft11,fs11,rdn
    8000122c:	40f4dfbb          	sraw	t6,s1,a5
    80001230:	8011                	srl	s0,s0,0x4

0000000080001232 <b000000013f>:
    80001232:	00000033          	add	zero,zero,zero
    80001236:	fb1ac8e3          	blt	s5,a7,800011e6 <i000000013a>
    8000123a:	00000033          	add	zero,zero,zero
    8000123e:	7151                	add	sp,sp,-240
    80001240:	b4ae                	fsd	fa1,104(sp)
    80001242:	0ff0000f          	fence
    80001246:	0ff0000f          	fence
    8000124a:	8c41                	or	s0,s0,s0
    8000124c:	0271ca3b          	divw	s4,gp,t2
    80001250:	0000100f          	fence.i
    80001254:	4aa9                	li	s5,10

0000000080001256 <i000000013f>:
    80001256:	00c5563b          	srlw	a2,a0,a2

000000008000125a <i0000000140>:
    8000125a:	02c547bb          	divw	a5,a0,a2

000000008000125e <i0000000141>:
    8000125e:	7161                	add	sp,sp,-432

0000000080001260 <i0000000142>:
    80001260:	02c63633          	mulhu	a2,a2,a2

0000000080001264 <i0000000143>:
    80001264:	74c2                	ld	s1,48(sp)

0000000080001266 <i0000000144>:
    80001266:	c0239cd3          	fcvt.l.s	s9,ft7,rtz
    8000126a:	000df117          	auipc	sp,0xdf
    8000126e:	d9610113          	add	sp,sp,-618 # 800e0000 <begin_signature>
    80001272:	6321                	lui	t1,0x8
    80001274:	8103031b          	addw	t1,t1,-2032 # 7810 <_tbss_end+0x7810>
    80001278:	911a                	add	sp,sp,t1

000000008000127a <i0000000145>:
    8000127a:	09816783          	lwu	a5,152(sp)

000000008000127e <i0000000146>:
    8000127e:	74824613          	xor	a2,tp,1864
    80001282:	000df117          	auipc	sp,0xdf
    80001286:	d7e10113          	add	sp,sp,-642 # 800e0000 <begin_signature>
    8000128a:	6319                	lui	t1,0x6
    8000128c:	e803031b          	addw	t1,t1,-384 # 5e80 <_tbss_end+0x5e80>
    80001290:	911a                	add	sp,sp,t1

0000000080001292 <i0000000147>:
    80001292:	98215c03          	lhu	s8,-1662(sp)

0000000080001296 <i0000000148>:
    80001296:	93d2                	add	t2,t2,s4
    80001298:	4d81                	li	s11,0
    8000129a:	000df117          	auipc	sp,0xdf
    8000129e:	d6610113          	add	sp,sp,-666 # 800e0000 <begin_signature>
    800012a2:	6339                	lui	t1,0xe
    800012a4:	4003031b          	addw	t1,t1,1024 # e400 <_tbss_end+0xe400>
    800012a8:	911a                	add	sp,sp,t1
    800012aa:	d22efa53          	fcvt.d.l	fs4,t4
    800012ae:	c83e                	sw	a5,16(sp)
    800012b0:	08f134af          	amoswap.d	s1,a5,(sp)
    800012b4:	d03e                	sw	a5,32(sp)
    800012b6:	a0e1292f          	amomax.w	s2,a4,(sp)
    800012ba:	02e78d33          	mul	s10,a5,a4
    800012be:	210127af          	amoxor.w	a5,a6,(sp)

00000000800012c2 <b0000000149>:
    800012c2:	00000033          	add	zero,zero,zero
    800012c6:	fbba80e3          	beq	s5,s11,80001266 <i0000000144>
    800012ca:	00000033          	add	zero,zero,zero
    800012ce:	14c1                	add	s1,s1,-16
    800012d0:	8212                	mv	tp,tp
    800012d2:	e0f12e2f          	amomaxu.w	t3,a5,(sp)
    800012d6:	d0020f53          	fcvt.s.w	ft10,tp,rne
    800012da:	d029cdd3          	fcvt.s.l	fs11,s3,rmm
    800012de:	622e                	ld	tp,200(sp)
    800012e0:	e00294d3          	fclass.s	s1,ft5
    800012e4:	4aa9                	li	s5,10

00000000800012e6 <i0000000149>:
    800012e6:	096b1dd3          	fsub.s	fs11,fs6,fs6,rtz

00000000800012ea <i000000014a>:
    800012ea:	8ead                	xor	a3,a3,a1

00000000800012ec <i000000014b>:
    800012ec:	44e2                	lw	s1,24(sp)

00000000800012ee <i000000014c>:
    800012ee:	02c609b3          	mul	s3,a2,a2

00000000800012f2 <i000000014d>:
    800012f2:	02c7f7bb          	remuw	a5,a5,a2

00000000800012f6 <i000000014e>:
    800012f6:	0183e633          	or	a2,t2,s8

00000000800012fa <i000000014f>:
    800012fa:	0000100f          	fence.i

00000000800012fe <i0000000150>:
    800012fe:	eca6                	sd	s1,88(sp)

0000000080001300 <i0000000151>:
    80001300:	0626                	sll	a2,a2,0x9
    80001302:	000df117          	auipc	sp,0xdf
    80001306:	cfe10113          	add	sp,sp,-770 # 800e0000 <begin_signature>
    8000130a:	6311                	lui	t1,0x4
    8000130c:	0c83031b          	addw	t1,t1,200 # 40c8 <_tbss_end+0x40c8>
    80001310:	911a                	add	sp,sp,t1

0000000080001312 <i0000000152>:
    80001312:	39110f23          	sb	a7,926(sp)
    80001316:	4c31                	li	s8,12
    80001318:	0a85                	add	s5,s5,1
    8000131a:	000df117          	auipc	sp,0xdf
    8000131e:	ce610113          	add	sp,sp,-794 # 800e0000 <begin_signature>
    80001322:	6325                	lui	t1,0x9
    80001324:	9e03031b          	addw	t1,t1,-1568 # 89e0 <_tbss_end+0x89e0>
    80001328:	911a                	add	sp,sp,t1
    8000132a:	000df117          	auipc	sp,0xdf
    8000132e:	cd610113          	add	sp,sp,-810 # 800e0000 <begin_signature>
    80001332:	6325                	lui	t1,0x9
    80001334:	c983031b          	addw	t1,t1,-872 # 8c98 <_tbss_end+0x8c98>
    80001338:	911a                	add	sp,sp,t1
    8000133a:	eca2                	sd	s0,88(sp)
    8000133c:	d2198453          	fcvt.d.wu	fs0,s3
    80001340:	c0323453          	fcvt.lu.s	s0,ft4,rup
    80001344:	8021                	srl	s0,s0,0x8
    80001346:	019138af          	amoadd.d	a7,s9,(sp)
    8000134a:	12f12c23          	sw	a5,312(sp)
    8000134e:	24c2                	fld	fs1,16(sp)

0000000080001350 <b0000000153>:
    80001350:	00000033          	add	zero,zero,zero
    80001354:	fb8a91e3          	bne	s5,s8,800012f6 <i000000014e>
    80001358:	00000033          	add	zero,zero,zero
    8000135c:	f4a2                	sd	s0,104(sp)
    8000135e:	2486                	fld	fs1,64(sp)
    80001360:	ad9e                	fsd	ft7,216(sp)
    80001362:	40480a3b          	subw	s4,a6,tp
    80001366:	d2247b53          	fcvt.d.l	fs6,s0
    8000136a:	012f83bb          	addw	t2,t6,s2
    8000136e:	d22a7b53          	fcvt.d.l	fs6,s4
    80001372:	4aa9                	li	s5,10

0000000080001374 <i0000000153>:
    80001374:	47c6                	lw	a5,80(sp)

0000000080001376 <i0000000154>:
    80001376:	01f907bb          	addw	a5,s2,t6

000000008000137a <i0000000155>:
    8000137a:	d22675d3          	fcvt.d.l	fa1,a2

000000008000137e <i0000000156>:
    8000137e:	02a5423b          	divw	tp,a0,a0

0000000080001382 <i0000000157>:
    80001382:	a1b4a453          	feq.s	s0,fs1,fs11

0000000080001386 <i0000000158>:
    80001386:	e20b0353          	fmv.x.d	t1,fs6

000000008000138a <i0000000159>:
    8000138a:	813d                	srl	a0,a0,0xf

000000008000138c <i000000015a>:
    8000138c:	4ba10503          	lb	a0,1210(sp)

0000000080001390 <i000000015b>:
    80001390:	61f1252f          	amoand.w	a0,t6,(sp)

0000000080001394 <i000000015c>:
    80001394:	89013003          	ld	zero,-1904(sp)
    80001398:	4b2d                	li	s6,11
    8000139a:	4aa9                	li	s5,10
    8000139c:	0ff0000f          	fence
    800013a0:	03fd673b          	remw	a4,s10,t6
    800013a4:	c23f73d3          	fcvt.lu.d	t2,ft10
    800013a8:	cd213c23          	sd	s2,-808(sp)
    800013ac:	0094fcb3          	and	s9,s1,s1
    800013b0:	638a                	ld	t2,128(sp)
    800013b2:	f3a27b4b          	fnmsub.d	fs6,ft4,fs10,ft10

00000000800013b6 <b000000015d>:
    800013b6:	00000033          	add	zero,zero,zero
    800013ba:	035b5663          	bge	s6,s5,800013e6 <i0000000162>
    800013be:	00000033          	add	zero,zero,zero
    800013c2:	48d6                	lw	a7,84(sp)
    800013c4:	2c6c7797          	auipc	a5,0x2c6c7
    800013c8:	0000100f          	fence.i
    800013cc:	40f12daf          	amoor.w	s11,a5,(sp)
    800013d0:	68e5                	lui	a7,0x19
    800013d2:	8fa5                	xor	a5,a5,s1
    800013d4:	4442                	lw	s0,16(sp)
    800013d6:	4aa9                	li	s5,10

00000000800013d8 <i000000015d>:
    800013d8:	34a2                	fld	fs1,40(sp)

00000000800013da <i000000015e>:
    800013da:	06c2                	sll	a3,a3,0x10

00000000800013dc <i000000015f>:
    800013dc:	02c7d533          	divu	a0,a5,a2

00000000800013e0 <i0000000160>:
    800013e0:	e0b2                	sd	a2,64(sp)

00000000800013e2 <i0000000161>:
    800013e2:	3cc16503          	lwu	a0,972(sp)

00000000800013e6 <i0000000162>:
    800013e6:	e0a1272f          	amomaxu.w	a4,a0,(sp)

00000000800013ea <i0000000163>:
    800013ea:	ca2e                	sw	a1,20(sp)

00000000800013ec <i0000000164>:
    800013ec:	f0b6                	sd	a3,96(sp)
    800013ee:	000df117          	auipc	sp,0xdf
    800013f2:	c1210113          	add	sp,sp,-1006 # 800e0000 <begin_signature>
    800013f6:	6305                	lui	t1,0x1
    800013f8:	1f83031b          	addw	t1,t1,504 # 11f8 <_tbss_end+0x11f8>
    800013fc:	911a                	add	sp,sp,t1

00000000800013fe <i0000000165>:
    800013fe:	d4ea                	sw	s10,104(sp)

0000000080001400 <i0000000166>:
    80001400:	c8d11523          	sh	a3,-886(sp)
    80001404:	c03144d3          	fcvt.lu.s	s1,ft2,rmm
    80001408:	8c1d                	sub	s0,s0,a5
    8000140a:	8fc1                	or	a5,a5,s0
    8000140c:	0339ccbb          	divw	s9,s3,s3
    80001410:	41b12d2f          	amoor.w	s10,s11,(sp)
    80001414:	c13138af          	amominu.d	a7,s3,(sp)
    80001418:	dc013e83          	ld	t4,-576(sp)

000000008000141c <b0000000167>:
    8000141c:	0240056f          	jal	a0,80001440 <i000000016c>
    80001420:	d0270dd3          	fcvt.s.l	fs11,a4,rne
    80001424:	ce42                	sw	a6,28(sp)
    80001426:	57b5                	li	a5,-19
    80001428:	00e4dc93          	srl	s9,s1,0xe
    8000142c:	08a0                	add	s0,sp,88
    8000142e:	4772                	lw	a4,28(sp)
    80001430:	8c21                	xor	s0,s0,s0

0000000080001432 <i0000000167>:
    80001432:	136b7553          	fmul.d	fa0,fs6,fs6

0000000080001436 <i0000000168>:
    80001436:	9f99                	subw	a5,a5,a4

0000000080001438 <i0000000169>:
    80001438:	9869                	and	s0,s0,-6

000000008000143a <i000000016a>:
    8000143a:	7b1a                	ld	s6,416(sp)

000000008000143c <i000000016b>:
    8000143c:	4041252f          	amoor.w	a0,tp,(sp)

0000000080001440 <i000000016c>:
    80001440:	c83a                	sw	a4,16(sp)

0000000080001442 <i000000016d>:
    80001442:	4013f5d3          	fcvt.s.d	fa1,ft7

0000000080001446 <i000000016e>:
    80001446:	00c124af          	amoadd.w	s1,a2,(sp)

000000008000144a <i000000016f>:
    8000144a:	92aa                	add	t0,t0,a0

000000008000144c <i0000000170>:
    8000144c:	05c1                	add	a1,a1,16
    8000144e:	4da9                	li	s11,10
    80001450:	000df117          	auipc	sp,0xdf
    80001454:	bb010113          	add	sp,sp,-1104 # 800e0000 <begin_signature>
    80001458:	6339                	lui	t1,0xe
    8000145a:	3e83031b          	addw	t1,t1,1000 # e3e8 <_tbss_end+0xe3e8>
    8000145e:	911a                	add	sp,sp,t1
    80001460:	000df117          	auipc	sp,0xdf
    80001464:	ba010113          	add	sp,sp,-1120 # 800e0000 <begin_signature>
    80001468:	6321                	lui	t1,0x8
    8000146a:	fd83031b          	addw	t1,t1,-40 # 7fd8 <_tbss_end+0x7fd8>
    8000146e:	911a                	add	sp,sp,t1
    80001470:	18b62dd3          	fdiv.s	fs11,fa2,fa1,rdn
    80001474:	c02614d3          	fcvt.l.s	s1,fa2,rtz
    80001478:	a166                	fsd	fs9,128(sp)
    8000147a:	c211f7d3          	fcvt.wu.d	a5,ft3
    8000147e:	f20009d3          	fmv.d.x	fs3,zero
    80001482:	d73a                	sw	a4,172(sp)
    80001484:	0180                	add	s0,sp,192

0000000080001486 <b0000000171>:
    80001486:	00000033          	add	zero,zero,zero
    8000148a:	fbba9be3          	bne	s5,s11,80001440 <i000000016c>
    8000148e:	00000033          	add	zero,zero,zero
    80001492:	0ff0000f          	fence
    80001496:	ac3e                	fsd	fa5,24(sp)
    80001498:	b43e                	fsd	fa5,40(sp)
    8000149a:	00a7dc93          	srl	s9,a5,0xa
    8000149e:	0000100f          	fence.i
    800014a2:	9fa6                	add	t6,t6,s1
    800014a4:	d71d3e93          	sltiu	t4,s10,-655
    800014a8:	4aa9                	li	s5,10

00000000800014aa <i0000000171>:
    800014aa:	2b7c94d3          	fmax.d	fs1,fs9,fs7

00000000800014ae <i0000000172>:
    800014ae:	c234fb53          	fcvt.lu.d	s6,fs1

00000000800014b2 <i0000000173>:
    800014b2:	af211d23          	sh	s2,-1286(sp)
    800014b6:	000df117          	auipc	sp,0xdf
    800014ba:	b4a10113          	add	sp,sp,-1206 # 800e0000 <begin_signature>
    800014be:	6325                	lui	t1,0x9
    800014c0:	0203031b          	addw	t1,t1,32 # 9020 <_tbss_end+0x9020>
    800014c4:	911a                	add	sp,sp,t1

00000000800014c6 <i0000000174>:
    800014c6:	62f107a3          	sb	a5,1583(sp)

00000000800014ca <i0000000175>:
    800014ca:	c10137af          	amominu.d	a5,a6,(sp)

00000000800014ce <i0000000176>:
    800014ce:	8ca14783          	lbu	a5,-1846(sp)

00000000800014d2 <i0000000177>:
    800014d2:	c0a137af          	amominu.d	a5,a0,(sp)

00000000800014d6 <i0000000178>:
    800014d6:	e0a13f2f          	amomaxu.d	t5,a0,(sp)

00000000800014da <i0000000179>:
    800014da:	c2357d53          	fcvt.lu.d	s10,fa0

00000000800014de <i000000017a>:
    800014de:	9f95                	subw	a5,a5,a3
    800014e0:	4829                	li	a6,10
    800014e2:	000df117          	auipc	sp,0xdf
    800014e6:	b1e10113          	add	sp,sp,-1250 # 800e0000 <begin_signature>
    800014ea:	6335                	lui	t1,0xd
    800014ec:	6183031b          	addw	t1,t1,1560 # d618 <_tbss_end+0xd618>
    800014f0:	911a                	add	sp,sp,t1
    800014f2:	c0348fd3          	fcvt.lu.s	t6,fs1,rne
    800014f6:	79ca                	ld	s3,176(sp)
    800014f8:	d22774d3          	fcvt.d.l	fs1,a4
    800014fc:	419ed9bb          	sraw	s3,t4,s9
    80001500:	5795                	li	a5,-27
    80001502:	0ff0000f          	fence
    80001506:	20131053          	fsgnjn.s	ft0,ft6,ft1

000000008000150a <b000000017b>:
    8000150a:	010a8863          	beq	s5,a6,8000151a <b000000017b+0x10>
    8000150e:	00000817          	auipc	a6,0x0
    80001512:	fc080813          	add	a6,a6,-64 # 800014ce <i0000000176>
    80001516:	00080567          	jalr	a0,a6
    8000151a:	4aa9                	li	s5,10
    8000151c:	8ce1                	and	s1,s1,s0
    8000151e:	0af8                	add	a4,sp,348
    80001520:	02f78a33          	mul	s4,a5,a5
    80001524:	0ff0000f          	fence
    80001528:	42038ad3          	fcvt.d.s	fs5,ft7
    8000152c:	0ff0000f          	fence
    80001530:	40978b33          	sub	s6,a5,s1

0000000080001534 <i000000017b>:
    80001534:	02f52eb3          	mulhsu	t4,a0,a5

0000000080001538 <i000000017c>:
    80001538:	d6a12627          	fsw	fa0,-660(sp)

000000008000153c <i000000017d>:
    8000153c:	5965a4cb          	fnmsub.s	fs1,fa1,fs6,fa1,rdn

0000000080001540 <i000000017e>:
    80001540:	f20501d3          	fmv.d.x	ft3,a0

0000000080001544 <i000000017f>:
    80001544:	02dbe63b          	remw	a2,s7,a3

0000000080001548 <i0000000180>:
    80001548:	c026                	sw	s1,0(sp)
    8000154a:	000df117          	auipc	sp,0xdf
    8000154e:	ab610113          	add	sp,sp,-1354 # 800e0000 <begin_signature>
    80001552:	630d                	lui	t1,0x3
    80001554:	2083031b          	addw	t1,t1,520 # 3208 <_tbss_end+0x3208>
    80001558:	911a                	add	sp,sp,t1

000000008000155a <i0000000181>:
    8000155a:	5612                	lw	a2,36(sp)

000000008000155c <i0000000182>:
    8000155c:	d23674d3          	fcvt.d.lu	fs1,a2

0000000080001560 <i0000000183>:
    80001560:	b9ee                	fsd	fs11,240(sp)
    80001562:	000df117          	auipc	sp,0xdf
    80001566:	a9e10113          	add	sp,sp,-1378 # 800e0000 <begin_signature>
    8000156a:	6331                	lui	t1,0xc
    8000156c:	9203031b          	addw	t1,t1,-1760 # b920 <_tbss_end+0xb920>
    80001570:	911a                	add	sp,sp,t1

0000000080001572 <i0000000184>:
    80001572:	9f414603          	lbu	a2,-1548(sp)
    80001576:	4e29                	li	t3,10
    80001578:	000df117          	auipc	sp,0xdf
    8000157c:	a8810113          	add	sp,sp,-1400 # 800e0000 <begin_signature>
    80001580:	6315                	lui	t1,0x5
    80001582:	7303031b          	addw	t1,t1,1840 # 5730 <_tbss_end+0x5730>
    80001586:	911a                	add	sp,sp,t1
    80001588:	000df117          	auipc	sp,0xdf
    8000158c:	a7810113          	add	sp,sp,-1416 # 800e0000 <begin_signature>
    80001590:	631d                	lui	t1,0x7
    80001592:	4503031b          	addw	t1,t1,1104 # 7450 <_tbss_end+0x7450>
    80001596:	911a                	add	sp,sp,t1
    80001598:	000df117          	auipc	sp,0xdf
    8000159c:	a6810113          	add	sp,sp,-1432 # 800e0000 <begin_signature>
    800015a0:	6309                	lui	t1,0x2
    800015a2:	7903031b          	addw	t1,t1,1936 # 2790 <_tbss_end+0x2790>
    800015a6:	911a                	add	sp,sp,t1
    800015a8:	a30d2ed3          	feq.d	t4,fs10,fa6
    800015ac:	6109                	add	sp,sp,128
    800015ae:	72412703          	lw	a4,1828(sp)
    800015b2:	414edebb          	sraw	t4,t4,s4
    800015b6:	71a2                	ld	gp,40(sp)
    800015b8:	6b012223          	sw	a6,1700(sp)
    800015bc:	02046b3b          	remw	s6,s0,zero

00000000800015c0 <b0000000185>:
    800015c0:	00000033          	add	zero,zero,zero
    800015c4:	03ca8863          	beq	s5,t3,800015f4 <i000000018a>
    800015c8:	00000033          	add	zero,zero,zero
    800015cc:	8731                	sra	a4,a4,0xc
    800015ce:	9c9d                	subw	s1,s1,a5
    800015d0:	017c9493          	sll	s1,s9,0x17
    800015d4:	58f12823          	sw	a5,1424(sp)
    800015d8:	1248fb53          	fmul.d	fs6,fa7,ft4
    800015dc:	22f13023          	sd	a5,544(sp)
    800015e0:	49815483          	lhu	s1,1176(sp)
    800015e4:	4aa9                	li	s5,10

00000000800015e6 <i0000000185>:
    800015e6:	b0ee                	fsd	fs11,96(sp)

00000000800015e8 <i0000000186>:
    800015e8:	d03ffcd3          	fcvt.s.lu	fs9,t6

00000000800015ec <i0000000187>:
    800015ec:	a32f27d3          	feq.d	a5,ft10,fs2

00000000800015f0 <i0000000188>:
    800015f0:	7125                	add	sp,sp,-416

00000000800015f2 <i0000000189>:
    800015f2:	5792                	lw	a5,36(sp)

00000000800015f4 <i000000018a>:
    800015f4:	0ff0000f          	fence

00000000800015f8 <i000000018b>:
    800015f8:	004139af          	amoadd.d	s3,tp,(sp)

00000000800015fc <i000000018c>:
    800015fc:	80d125af          	amomin.w	a1,a3,(sp)

0000000080001600 <i000000018d>:
    80001600:	60a1262f          	amoand.w	a2,a0,(sp)
    80001604:	000df117          	auipc	sp,0xdf
    80001608:	9fc10113          	add	sp,sp,-1540 # 800e0000 <begin_signature>
    8000160c:	6305                	lui	t1,0x1
    8000160e:	2203031b          	addw	t1,t1,544 # 1220 <_tbss_end+0x1220>
    80001612:	911a                	add	sp,sp,t1

0000000080001614 <i000000018e>:
    80001614:	7666                	ld	a2,120(sp)
    80001616:	000df117          	auipc	sp,0xdf
    8000161a:	9ea10113          	add	sp,sp,-1558 # 800e0000 <begin_signature>
    8000161e:	6315                	lui	t1,0x5
    80001620:	d383031b          	addw	t1,t1,-712 # 4d38 <_tbss_end+0x4d38>
    80001624:	911a                	add	sp,sp,t1
    80001626:	0294f73b          	remuw	a4,s1,s1
    8000162a:	64a9                	lui	s1,0xa
    8000162c:	0000100f          	fence.i
    80001630:	a9ee                	fsd	fs11,208(sp)
    80001632:	c1c134af          	amominu.d	s1,t3,(sp)
    80001636:	02e4e7b3          	rem	a5,s1,a4
    8000163a:	0203d73b          	divuw	a4,t2,zero

000000008000163e <b000000018f>:
    8000163e:	02e0056f          	jal	a0,8000166c <i0000000194>
    80001642:	20f1272f          	amoxor.w	a4,a5,(sp)
    80001646:	3b0a                	fld	fs6,160(sp)
    80001648:	0297f733          	remu	a4,a5,s1
    8000164c:	98013003          	ld	zero,-1664(sp)
    80001650:	089124af          	amoswap.w	s1,s1,(sp)
    80001654:	1fc16483          	lwu	s1,508(sp)
    80001658:	c034f753          	fcvt.lu.s	a4,fs1

000000008000165c <i000000018f>:
    8000165c:	451d                	li	a0,7

000000008000165e <i0000000190>:
    8000165e:	40a7833b          	subw	t1,a5,a0

0000000080001662 <i0000000191>:
    80001662:	6f7d                	lui	t5,0x1f

0000000080001664 <i0000000192>:
    80001664:	d02fcd53          	fcvt.s.l	fs10,t6,rmm

0000000080001668 <i0000000193>:
    80001668:	0000100f          	fence.i

000000008000166c <i0000000194>:
    8000166c:	096b15d3          	fsub.s	fa1,fs6,fs6,rtz

0000000080001670 <i0000000195>:
    80001670:	c032                	sw	a2,0(sp)

0000000080001672 <i0000000196>:
    80001672:	02f674b3          	remu	s1,a2,a5

0000000080001676 <i0000000197>:
    80001676:	054e                	sll	a0,a0,0x13
    80001678:	000df117          	auipc	sp,0xdf
    8000167c:	98810113          	add	sp,sp,-1656 # 800e0000 <begin_signature>
    80001680:	6319                	lui	t1,0x6
    80001682:	5e83031b          	addw	t1,t1,1512 # 65e8 <_tbss_end+0x65e8>
    80001686:	911a                	add	sp,sp,t1

0000000080001688 <i0000000198>:
    80001688:	2482                	fld	fs1,0(sp)
    8000168a:	4da9                	li	s11,10
    8000168c:	000df117          	auipc	sp,0xdf
    80001690:	97410113          	add	sp,sp,-1676 # 800e0000 <begin_signature>
    80001694:	6315                	lui	t1,0x5
    80001696:	6803031b          	addw	t1,t1,1664 # 5680 <_tbss_end+0x5680>
    8000169a:	911a                	add	sp,sp,t1
    8000169c:	77e6                	ld	a5,120(sp)
    8000169e:	3fa12e23          	sw	s10,1020(sp)
    800016a2:	e9a6                	sd	s1,208(sp)
    800016a4:	02649e93          	sll	t4,s1,0x26
    800016a8:	470a                	lw	a4,128(sp)
    800016aa:	792a                	ld	s2,168(sp)
    800016ac:	81812a2f          	amomin.w	s4,s8,(sp)

00000000800016b0 <b0000000199>:
    800016b0:	00000033          	add	zero,zero,zero
    800016b4:	03ba8863          	beq	s5,s11,800016e4 <i000000019e>
    800016b8:	00000033          	add	zero,zero,zero
    800016bc:	86c16703          	lwu	a4,-1940(sp)
    800016c0:	9fa1                	addw	a5,a5,s0
    800016c2:	203137af          	amoxor.d	a5,gp,(sp)
    800016c6:	97be                	add	a5,a5,a5
    800016c8:	9c3d                	addw	s0,s0,a5
    800016ca:	0ff0000f          	fence
    800016ce:	c02ef453          	fcvt.l.s	s0,ft9
    800016d2:	4aa9                	li	s5,10

00000000800016d4 <i0000000199>:
    800016d4:	0017979b          	sllw	a5,a5,0x1

00000000800016d8 <i000000019a>:
    800016d8:	0268de3b          	divuw	t3,a7,t1

00000000800016dc <i000000019b>:
    800016dc:	97bd                	sra	a5,a5,0x2f

00000000800016de <i000000019c>:
    800016de:	026ffebb          	remuw	t4,t6,t1

00000000800016e2 <i000000019d>:
    800016e2:	02f4                	add	a3,sp,332

00000000800016e4 <i000000019e>:
    800016e4:	c82e                	sw	a1,16(sp)

00000000800016e6 <i000000019f>:
    800016e6:	c141362f          	amominu.d	a2,s4,(sp)

00000000800016ea <i00000001a0>:
    800016ea:	8d01                	sub	a0,a0,s0

00000000800016ec <i00000001a1>:
    800016ec:	fd75c813          	xor	a6,a1,-41

00000000800016f0 <i00000001a2>:
    800016f0:	00f137af          	amoadd.d	a5,a5,(sp)
    800016f4:	4fb1                	li	t6,12
    800016f6:	0a85                	add	s5,s5,1
    800016f8:	000df117          	auipc	sp,0xdf
    800016fc:	90810113          	add	sp,sp,-1784 # 800e0000 <begin_signature>
    80001700:	633d                	lui	t1,0xf
    80001702:	3e83031b          	addw	t1,t1,1000 # f3e8 <_tbss_end+0xf3e8>
    80001706:	911a                	add	sp,sp,t1
    80001708:	000df117          	auipc	sp,0xdf
    8000170c:	8f810113          	add	sp,sp,-1800 # 800e0000 <begin_signature>
    80001710:	6335                	lui	t1,0xd
    80001712:	a103031b          	addw	t1,t1,-1520 # ca10 <_tbss_end+0xca10>
    80001716:	911a                	add	sp,sp,t1
    80001718:	000df117          	auipc	sp,0xdf
    8000171c:	8e810113          	add	sp,sp,-1816 # 800e0000 <begin_signature>
    80001720:	6311                	lui	t1,0x4
    80001722:	4e03031b          	addw	t1,t1,1248 # 44e0 <_tbss_end+0x44e0>
    80001726:	911a                	add	sp,sp,t1
    80001728:	0ff0000f          	fence
    8000172c:	f2070dd3          	fmv.d.x	fs11,a4
    80001730:	37211703          	lh	a4,882(sp)
    80001734:	c205f7d3          	fcvt.w.d	a5,fa1
    80001738:	0338                	add	a4,sp,392
    8000173a:	4bbdfe4b          	fnmsub.d	ft8,fs11,fs11,fs1
    8000173e:	009497bb          	sllw	a5,s1,s1

0000000080001742 <b00000001a3>:
    80001742:	00000033          	add	zero,zero,zero
    80001746:	f9fa9fe3          	bne	s5,t6,800016e4 <i000000019e>
    8000174a:	00000033          	add	zero,zero,zero
    8000174e:	e0913827          	fsd	fs1,-496(sp)
    80001752:	8039                	srl	s0,s0,0xe
    80001754:	ca6a                	sw	s10,20(sp)
    80001756:	18949b53          	fdiv.s	fs6,fs1,fs1,rtz
    8000175a:	11c044d3          	fmul.s	fs1,ft0,ft8,rmm
    8000175e:	6bf57b47          	fmsub.d	fs6,fa0,ft11,fa3
    80001762:	e13e                	sd	a5,128(sp)
    80001764:	4aa9                	li	s5,10

0000000080001766 <i00000001a3>:
    80001766:	2d92                	fld	fs11,256(sp)

0000000080001768 <i00000001a4>:
    80001768:	be9fe0ef          	jal	80000350 <func1>

000000008000176c <i00000001a5>:
    8000176c:	0000100f          	fence.i

0000000080001770 <i00000001a6>:
    80001770:	7129                	add	sp,sp,-320

0000000080001772 <i00000001a7>:
    80001772:	6b3174c7          	fmsub.d	fs1,ft2,fs3,fa3
    80001776:	000df117          	auipc	sp,0xdf
    8000177a:	88a10113          	add	sp,sp,-1910 # 800e0000 <begin_signature>
    8000177e:	6305                	lui	t1,0x1
    80001780:	7e03031b          	addw	t1,t1,2016 # 17e0 <_tbss_end+0x17e0>
    80001784:	911a                	add	sp,sp,t1

0000000080001786 <i00000001a8>:
    80001786:	7526                	ld	a0,104(sp)

0000000080001788 <i00000001a9>:
    80001788:	a1e207d3          	fle.s	a5,ft4,ft10

000000008000178c <i00000001aa>:
    8000178c:	5572                	lw	a0,60(sp)

000000008000178e <i00000001ab>:
    8000178e:	248a                	fld	fs1,128(sp)

0000000080001790 <i00000001ac>:
    80001790:	a0a1362f          	amomax.d	a2,a0,(sp)

0000000080001794 <i00000001ad>:
    80001794:	0ff0000f          	fence
    80001798:	48a9                	li	a7,10
    8000179a:	000df117          	auipc	sp,0xdf
    8000179e:	86610113          	add	sp,sp,-1946 # 800e0000 <begin_signature>
    800017a2:	631d                	lui	t1,0x7
    800017a4:	5603031b          	addw	t1,t1,1376 # 7560 <_tbss_end+0x7560>
    800017a8:	911a                	add	sp,sp,t1
    800017aa:	f53a                	sd	a4,168(sp)
    800017ac:	03fcd7b3          	divu	a5,s9,t6
    800017b0:	01ac173b          	sllw	a4,s8,s10
    800017b4:	a09137af          	amomax.d	a5,s1,(sp)
    800017b8:	1ee11323          	sh	a4,486(sp)
    800017bc:	d03c0b53          	fcvt.s.lu	fs6,s8,rne
    800017c0:	c0270b53          	fcvt.l.s	s6,fa4,rne

00000000800017c4 <b00000001ae>:
    800017c4:	011a8463          	beq	s5,a7,800017cc <b00000001ae+0x8>
    800017c8:	fc1ff06f          	j	80001788 <i00000001a9>
    800017cc:	4aa9                	li	s5,10
    800017ce:	8c514703          	lbu	a4,-1851(sp)
    800017d2:	a12a                	fsd	fa0,128(sp)
    800017d4:	03306833          	rem	a6,zero,s3
    800017d8:	027c                	add	a5,sp,268
    800017da:	a06a                	fsd	fs10,0(sp)
    800017dc:	6c5d099b          	addw	s3,s10,1733
    800017e0:	a1b5a4d3          	feq.s	s1,fa1,fs11
    800017e4:	000df117          	auipc	sp,0xdf
    800017e8:	81c10113          	add	sp,sp,-2020 # 800e0000 <begin_signature>
    800017ec:	633d                	lui	t1,0xf
    800017ee:	e703031b          	addw	t1,t1,-400 # ee70 <_tbss_end+0xee70>
    800017f2:	911a                	add	sp,sp,t1

00000000800017f4 <i00000001ae>:
    800017f4:	56a2                	lw	a3,40(sp)

00000000800017f6 <i00000001af>:
    800017f6:	01cbdd9b          	srlw	s11,s7,0x1c

00000000800017fa <i00000001b0>:
    800017fa:	eb7e                	sd	t6,400(sp)
    800017fc:	000df117          	auipc	sp,0xdf
    80001800:	80410113          	add	sp,sp,-2044 # 800e0000 <begin_signature>
    80001804:	633d                	lui	t1,0xf
    80001806:	af83031b          	addw	t1,t1,-1288 # eaf8 <_tbss_end+0xeaf8>
    8000180a:	911a                	add	sp,sp,t1

000000008000180c <i00000001b1>:
    8000180c:	5482                	lw	s1,32(sp)

000000008000180e <i00000001b2>:
    8000180e:	6666                	ld	a2,88(sp)

0000000080001810 <i00000001b3>:
    80001810:	0308853b          	mulw	a0,a7,a6
    80001814:	000de117          	auipc	sp,0xde
    80001818:	7ec10113          	add	sp,sp,2028 # 800e0000 <begin_signature>
    8000181c:	633d                	lui	t1,0xf
    8000181e:	2203031b          	addw	t1,t1,544 # f220 <_tbss_end+0xf220>
    80001822:	911a                	add	sp,sp,t1

0000000080001824 <i00000001b4>:
    80001824:	f8c12f83          	lw	t6,-116(sp)

0000000080001828 <i00000001b5>:
    80001828:	f0060b53          	fmv.w.x	fs6,a2

000000008000182c <i00000001b6>:
    8000182c:	04ce                	sll	s1,s1,0x13

000000008000182e <i00000001b7>:
    8000182e:	8662                	mv	a2,s8
    80001830:	4e2d                	li	t3,11
    80001832:	4aa9                	li	s5,10
    80001834:	000de117          	auipc	sp,0xde
    80001838:	7cc10113          	add	sp,sp,1996 # 800e0000 <begin_signature>
    8000183c:	632d                	lui	t1,0xb
    8000183e:	6d03031b          	addw	t1,t1,1744 # b6d0 <_tbss_end+0xb6d0>
    80001842:	911a                	add	sp,sp,t1
    80001844:	000de117          	auipc	sp,0xde
    80001848:	7bc10113          	add	sp,sp,1980 # 800e0000 <begin_signature>
    8000184c:	6305                	lui	t1,0x1
    8000184e:	5e83031b          	addw	t1,t1,1512 # 15e8 <_tbss_end+0x15e8>
    80001852:	911a                	add	sp,sp,t1
    80001854:	000de117          	auipc	sp,0xde
    80001858:	7ac10113          	add	sp,sp,1964 # 800e0000 <begin_signature>
    8000185c:	631d                	lui	t1,0x7
    8000185e:	3983031b          	addw	t1,t1,920 # 7398 <_tbss_end+0x7398>
    80001862:	911a                	add	sp,sp,t1
    80001864:	000de117          	auipc	sp,0xde
    80001868:	79c10113          	add	sp,sp,1948 # 800e0000 <begin_signature>
    8000186c:	630d                	lui	t1,0x3
    8000186e:	5f83031b          	addw	t1,t1,1528 # 35f8 <_tbss_end+0x35f8>
    80001872:	911a                	add	sp,sp,t1
    80001874:	98e10b23          	sb	a4,-1642(sp)
    80001878:	0239e03b          	remw	zero,s3,gp
    8000187c:	6786                	ld	a5,64(sp)
    8000187e:	efb10023          	sb	s11,-288(sp)
    80001882:	d034b4d3          	fcvt.s.lu	fs1,s1,rup
    80001886:	802d                	srl	s0,s0,0xb
    80001888:	84bd                	sra	s1,s1,0xf

000000008000188a <b00000001b8>:
    8000188a:	00000033          	add	zero,zero,zero
    8000188e:	03ca9863          	bne	s5,t3,800018be <i00000001bd>
    80001892:	00000033          	add	zero,zero,zero
    80001896:	0059989b          	sllw	a7,s3,0x5
    8000189a:	c1713423          	sd	s7,-1016(sp)
    8000189e:	d237f4d3          	fcvt.d.lu	fs1,a5
    800018a2:	ea012383          	lw	t2,-352(sp)
    800018a6:	a832                	fsd	fa2,16(sp)
    800018a8:	f9ba                	sd	a4,240(sp)
    800018aa:	02f4f4bb          	remuw	s1,s1,a5
    800018ae:	4aa9                	li	s5,10

00000000800018b0 <i00000001b8>:
    800018b0:	829d                	srl	a3,a3,0x7

00000000800018b2 <i00000001b9>:
    800018b2:	0739                	add	a4,a4,14

00000000800018b4 <i00000001ba>:
    800018b4:	bf813583          	ld	a1,-1032(sp)

00000000800018b8 <i00000001bb>:
    800018b8:	40c12eaf          	amoor.w	t4,a2,(sp)

00000000800018bc <i00000001bc>:
    800018bc:	9dec                	.insn	2, 0x9dec

00000000800018be <i00000001bd>:
    800018be:	e0f1352f          	amomaxu.d	a0,a5,(sp)

00000000800018c2 <i00000001be>:
    800018c2:	05e6                	sll	a1,a1,0x19

00000000800018c4 <i00000001bf>:
    800018c4:	027b4c3b          	divw	s8,s6,t2

00000000800018c8 <i00000001c0>:
    800018c8:	600122af          	amoand.w	t0,zero,(sp)

00000000800018cc <i00000001c1>:
    800018cc:	04416603          	lwu	a2,68(sp)

00000000800018d0 <i00000001c2>:
    800018d0:	bd712623          	sw	s7,-1076(sp)
    800018d4:	000de117          	auipc	sp,0xde
    800018d8:	72c10113          	add	sp,sp,1836 # 800e0000 <begin_signature>
    800018dc:	6329                	lui	t1,0xa
    800018de:	0503031b          	addw	t1,t1,80 # a050 <_tbss_end+0xa050>
    800018e2:	911a                	add	sp,sp,t1
    800018e4:	c2297cd3          	fcvt.l.d	s9,fs2
    800018e8:	3a016703          	lwu	a4,928(sp)
    800018ec:	09212e2f          	amoswap.w	t3,s2,(sp)
    800018f0:	bcae                	fsd	fa1,120(sp)
    800018f2:	b926                	fsd	fs1,176(sp)
    800018f4:	0393a733          	mulhsu	a4,t2,s9
    800018f8:	87a1                	sra	a5,a5,0x8

00000000800018fa <b00000001c3>:
    800018fa:	00000d97          	auipc	s11,0x0
    800018fe:	03ad8d93          	add	s11,s11,58 # 80001934 <i00000001c8>
    80001902:	000d8567          	jalr	a0,s11
    80001906:	c025f3d3          	fcvt.l.s	t2,fa1
    8000190a:	714d                	add	sp,sp,-336
    8000190c:	02e49c33          	mulh	s8,s1,a4
    80001910:	c6813f83          	ld	t6,-920(sp)
    80001914:	030181bb          	mulw	gp,gp,a6
    80001918:	39e14703          	lbu	a4,926(sp)
    8000191c:	0ff0000f          	fence

0000000080001920 <i00000001c3>:
    80001920:	02f7a7b3          	mulhsu	a5,a5,a5

0000000080001924 <i00000001c4>:
    80001924:	d03bfdd3          	fcvt.s.lu	fs11,s7

0000000080001928 <i00000001c5>:
    80001928:	d037fdd3          	fcvt.s.lu	fs11,a5

000000008000192c <i00000001c6>:
    8000192c:	03041733          	mulh	a4,s0,a6

0000000080001930 <i00000001c7>:
    80001930:	a0c1322f          	amomax.d	tp,a2,(sp)

0000000080001934 <i00000001c8>:
    80001934:	1a30                	add	a2,sp,312

0000000080001936 <i00000001c9>:
    80001936:	0ff0000f          	fence

000000008000193a <i00000001ca>:
    8000193a:	7119                	add	sp,sp,-128
    8000193c:	000de117          	auipc	sp,0xde
    80001940:	6c410113          	add	sp,sp,1732 # 800e0000 <begin_signature>
    80001944:	6305                	lui	t1,0x1
    80001946:	3683031b          	addw	t1,t1,872 # 1368 <_tbss_end+0x1368>
    8000194a:	911a                	add	sp,sp,t1

000000008000194c <i00000001cb>:
    8000194c:	3b62                	fld	fs6,56(sp)

000000008000194e <i00000001cc>:
    8000194e:	71a7ee13          	or	t3,a5,1818
    80001952:	036b51bb          	divuw	gp,s6,s6
    80001956:	e091382f          	amomaxu.d	a6,s1,(sp)
    8000195a:	02f487bb          	mulw	a5,s1,a5
    8000195e:	03bb7a3b          	remuw	s4,s6,s11
    80001962:	0ff0000f          	fence
    80001966:	4047d493          	sra	s1,a5,0x4
    8000196a:	3465                	addw	s0,s0,-7

000000008000196c <b00000001cd>:
    8000196c:	00000f97          	auipc	t6,0x0
    80001970:	032f8f93          	add	t6,t6,50 # 8000199e <i00000001d2>
    80001974:	000f8567          	jalr	a0,t6
    80001978:	9ca1                	addw	s1,s1,s0
    8000197a:	0338fbbb          	remuw	s7,a7,s3
    8000197e:	fca6                	sd	s1,120(sp)
    80001980:	d03784d3          	fcvt.s.lu	fs1,a5,rne
    80001984:	6747aa13          	slti	s4,a5,1652
    80001988:	18d00dd3          	fdiv.s	fs11,ft0,fa3,rne
    8000198c:	c20b74d3          	fcvt.w.d	s1,fs6

0000000080001990 <i00000001cd>:
    80001990:	7b26                	ld	s6,104(sp)

0000000080001992 <i00000001ce>:
    80001992:	8e21                	xor	a2,a2,s0

0000000080001994 <i00000001cf>:
    80001994:	c43e                	sw	a5,8(sp)

0000000080001996 <i00000001d0>:
    80001996:	0000100f          	fence.i

000000008000199a <i00000001d1>:
    8000199a:	5d813883          	ld	a7,1496(sp)

000000008000199e <i00000001d2>:
    8000199e:	ea36e793          	or	a5,a3,-349

00000000800019a2 <i00000001d3>:
    800019a2:	f43e                	sd	a5,40(sp)

00000000800019a4 <i00000001d4>:
    800019a4:	c234f653          	fcvt.lu.d	a2,fs1

00000000800019a8 <i00000001d5>:
    800019a8:	02f78533          	mul	a0,a5,a5

00000000800019ac <i00000001d6>:
    800019ac:	5632                	lw	a2,44(sp)
    800019ae:	01986433          	or	s0,a6,s9
    800019b2:	8f39                	xor	a4,a4,a4
    800019b4:	c914b193          	sltiu	gp,s1,-879
    800019b8:	c8c2                	sw	a6,80(sp)
    800019ba:	8f81                	sub	a5,a5,s0
    800019bc:	d227f9d3          	fcvt.d.l	fs3,a5
    800019c0:	0000100f          	fence.i

00000000800019c4 <b00000001d7>:
    800019c4:	00000917          	auipc	s2,0x0
    800019c8:	04490913          	add	s2,s2,68 # 80001a08 <i00000001dc>
    800019cc:	00090067          	jr	s2
    800019d0:	e0013faf          	amomaxu.d	t6,zero,(sp)
    800019d4:	f2080a53          	fmv.d.x	fs4,a6
    800019d8:	6782                	ld	a5,0(sp)
    800019da:	01e4d01b          	srlw	zero,s1,0x1e
    800019de:	0b84                	add	s1,sp,464
    800019e0:	c02074d3          	fcvt.l.s	s1,ft0
    800019e4:	d02d2b53          	fcvt.s.l	fs6,s10,rdn

00000000800019e8 <i00000001d7>:
    800019e8:	32016c83          	lwu	s9,800(sp)

00000000800019ec <i00000001d8>:
    800019ec:	0ff0000f          	fence
    800019f0:	000de117          	auipc	sp,0xde
    800019f4:	61010113          	add	sp,sp,1552 # 800e0000 <begin_signature>
    800019f8:	6315                	lui	t1,0x5
    800019fa:	c883031b          	addw	t1,t1,-888 # 4c88 <_tbss_end+0x4c88>
    800019fe:	911a                	add	sp,sp,t1

0000000080001a00 <i00000001d9>:
    80001a00:	4582                	lw	a1,0(sp)

0000000080001a02 <i00000001da>:
    80001a02:	8e95                	sub	a3,a3,a3

0000000080001a04 <i00000001db>:
    80001a04:	e00b17d3          	fclass.s	a5,fs6

0000000080001a08 <i00000001dc>:
    80001a08:	02c78cbb          	mulw	s9,a5,a2
    80001a0c:	000de117          	auipc	sp,0xde
    80001a10:	5f410113          	add	sp,sp,1524 # 800e0000 <begin_signature>
    80001a14:	6305                	lui	t1,0x1
    80001a16:	3603031b          	addw	t1,t1,864 # 1360 <_tbss_end+0x1360>
    80001a1a:	911a                	add	sp,sp,t1

0000000080001a1c <i00000001dd>:
    80001a1c:	77a6                	ld	a5,104(sp)

0000000080001a1e <i00000001de>:
    80001a1e:	c22a                	sw	a0,4(sp)

0000000080001a20 <i00000001df>:
    80001a20:	1338                	add	a4,sp,424

0000000080001a22 <i00000001e0>:
    80001a22:	d00ecb53          	fcvt.s.w	fs6,t4,rmm
    80001a26:	4b01                	li	s6,0
    80001a28:	000de117          	auipc	sp,0xde
    80001a2c:	5d810113          	add	sp,sp,1496 # 800e0000 <begin_signature>
    80001a30:	630d                	lui	t1,0x3
    80001a32:	8903031b          	addw	t1,t1,-1904 # 2890 <_tbss_end+0x2890>
    80001a36:	911a                	add	sp,sp,t1
    80001a38:	7139                	add	sp,sp,-64
    80001a3a:	809124af          	amomin.w	s1,s1,(sp)
    80001a3e:	5222                	lw	tp,40(sp)
    80001a40:	0ff0000f          	fence
    80001a44:	260a                	fld	fa2,128(sp)
    80001a46:	03791933          	mulh	s2,s2,s7
    80001a4a:	40e4d73b          	sraw	a4,s1,a4

0000000080001a4e <b00000001e1>:
    80001a4e:	00000033          	add	zero,zero,zero
    80001a52:	fb6a8be3          	beq	s5,s6,80001a08 <i00000001dc>
    80001a56:	00000033          	add	zero,zero,zero
    80001a5a:	a094a453          	feq.s	s0,fs1,fs1
    80001a5e:	2091372f          	amoxor.d	a4,s1,(sp)
    80001a62:	fcbe                	sd	a5,120(sp)
    80001a64:	c025b1d3          	fcvt.l.s	gp,fa1,rup
    80001a68:	8b20079b          	addw	a5,zero,-1870
    80001a6c:	00e1202f          	amoadd.w	zero,a4,(sp)
    80001a70:	ec22                	sd	s0,24(sp)
    80001a72:	4aa9                	li	s5,10

0000000080001a74 <i00000001e1>:
    80001a74:	24ce                	fld	fs1,208(sp)

0000000080001a76 <i00000001e2>:
    80001a76:	02be063b          	mulw	a2,t3,a1

0000000080001a7a <i00000001e3>:
    80001a7a:	a0f1362f          	amomax.d	a2,a5,(sp)

0000000080001a7e <i00000001e4>:
    80001a7e:	0164fb53          	fadd.s	fs6,fs1,fs6

0000000080001a82 <i00000001e5>:
    80001a82:	f4b2                	sd	a2,104(sp)

0000000080001a84 <i00000001e6>:
    80001a84:	826d                	srl	a2,a2,0x1b

0000000080001a86 <i00000001e7>:
    80001a86:	9b52                	add	s6,s6,s4

0000000080001a88 <i00000001e8>:
    80001a88:	02a66eb3          	rem	t4,a2,a0

0000000080001a8c <i00000001e9>:
    80001a8c:	8159                	srl	a0,a0,0x16

0000000080001a8e <i00000001ea>:
    80001a8e:	c03d47d3          	fcvt.lu.s	a5,fs10,rmm
    80001a92:	4d25                	li	s10,9
    80001a94:	4aa9                	li	s5,10
    80001a96:	40f4d73b          	sraw	a4,s1,a5
    80001a9a:	40e137af          	amoor.d	a5,a4,(sp)
    80001a9e:	91c14483          	lbu	s1,-1764(sp)
    80001aa2:	809127af          	amomin.w	a5,s1,(sp)
    80001aa6:	6d611903          	lh	s2,1750(sp)
    80001aaa:	20c2                	fld	ft1,16(sp)
    80001aac:	09913daf          	amoswap.d	s11,s9,(sp)

0000000080001ab0 <b00000001eb>:
    80001ab0:	00000033          	add	zero,zero,zero
    80001ab4:	03aac963          	blt	s5,s10,80001ae6 <i00000001f0>
    80001ab8:	00000033          	add	zero,zero,zero
    80001abc:	038ee7bb          	remw	a5,t4,s8
    80001ac0:	03f447bb          	divw	a5,s0,t6
    80001ac4:	0294873b          	mulw	a4,s1,s1
    80001ac8:	02e74cbb          	divw	s9,a4,a4
    80001acc:	2ece                	fld	ft9,208(sp)
    80001ace:	0193d19b          	srlw	gp,t2,0x19
    80001ad2:	7462                	ld	s0,56(sp)
    80001ad4:	4aa9                	li	s5,10

0000000080001ad6 <i00000001eb>:
    80001ad6:	9ca9                	addw	s1,s1,a0

0000000080001ad8 <i00000001ec>:
    80001ad8:	29b48b53          	fmin.s	fs6,fs1,fs11

0000000080001adc <i00000001ed>:
    80001adc:	d2267453          	fcvt.d.l	fs0,a2

0000000080001ae0 <i00000001ee>:
    80001ae0:	a16497d3          	flt.s	a5,fs1,fs6

0000000080001ae4 <i00000001ef>:
    80001ae4:	9d01                	subw	a0,a0,s0

0000000080001ae6 <i00000001f0>:
    80001ae6:	095c                	add	a5,sp,148

0000000080001ae8 <i00000001f1>:
    80001ae8:	fc66                	sd	s9,56(sp)
    80001aea:	000de117          	auipc	sp,0xde
    80001aee:	51610113          	add	sp,sp,1302 # 800e0000 <begin_signature>
    80001af2:	632d                	lui	t1,0xb
    80001af4:	8b03031b          	addw	t1,t1,-1872 # a8b0 <_tbss_end+0xa8b0>
    80001af8:	911a                	add	sp,sp,t1

0000000080001afa <i00000001f2>:
    80001afa:	bd8a                	fsd	ft2,248(sp)

0000000080001afc <i00000001f3>:
    80001afc:	02f5503b          	divuw	zero,a0,a5

0000000080001b00 <i00000001f4>:
    80001b00:	12c0                	add	s0,sp,356
    80001b02:	000de117          	auipc	sp,0xde
    80001b06:	4fe10113          	add	sp,sp,1278 # 800e0000 <begin_signature>
    80001b0a:	6315                	lui	t1,0x5
    80001b0c:	8d83031b          	addw	t1,t1,-1832 # 48d8 <_tbss_end+0x48d8>
    80001b10:	911a                	add	sp,sp,t1
    80001b12:	03fff4bb          	remuw	s1,t6,t6
    80001b16:	0ff0000f          	fence
    80001b1a:	8ca5                	xor	s1,s1,s1
    80001b1c:	83bd                	srl	a5,a5,0xf
    80001b1e:	40e7023b          	subw	tp,a4,a4
    80001b22:	7111                	add	sp,sp,-256
    80001b24:	03af87bb          	mulw	a5,t6,s10

0000000080001b28 <b00000001f5>:
    80001b28:	03e0056f          	jal	a0,80001b66 <i00000001fa>
    80001b2c:	2191382f          	amoxor.d	a6,s9,(sp)
    80001b30:	66e11523          	sh	a4,1642(sp)
    80001b34:	61213d2f          	amoand.d	s10,s2,(sp)
    80001b38:	c83e                	sw	a5,16(sp)
    80001b3a:	03993033          	mulhu	zero,s2,s9
    80001b3e:	e0913c2f          	amomaxu.d	s8,s1,(sp)
    80001b42:	e0913caf          	amomaxu.d	s9,s1,(sp)

0000000080001b46 <i00000001f5>:
    80001b46:	d22d7a53          	fcvt.d.l	fs4,s10

0000000080001b4a <i00000001f6>:
    80001b4a:	0022d073          	fsrmi	zero,5

0000000080001b4e <i00000001f7>:
    80001b4e:	c2347553          	fcvt.lu.d	a0,fs0

0000000080001b52 <i00000001f8>:
    80001b52:	f0ae                	sd	a1,96(sp)

0000000080001b54 <i00000001f9>:
    80001b54:	9732                	add	a4,a4,a2
    80001b56:	000de117          	auipc	sp,0xde
    80001b5a:	4aa10113          	add	sp,sp,1194 # 800e0000 <begin_signature>
    80001b5e:	6339                	lui	t1,0xe
    80001b60:	1203031b          	addw	t1,t1,288 # e120 <_tbss_end+0xe120>
    80001b64:	911a                	add	sp,sp,t1

0000000080001b66 <i00000001fa>:
    80001b66:	31512627          	fsw	fs5,780(sp)

0000000080001b6a <i00000001fb>:
    80001b6a:	4662                	lw	a2,24(sp)
    80001b6c:	000de117          	auipc	sp,0xde
    80001b70:	49410113          	add	sp,sp,1172 # 800e0000 <begin_signature>
    80001b74:	630d                	lui	t1,0x3
    80001b76:	1a03031b          	addw	t1,t1,416 # 31a0 <_tbss_end+0x31a0>
    80001b7a:	911a                	add	sp,sp,t1

0000000080001b7c <i00000001fc>:
    80001b7c:	5562                	lw	a0,56(sp)

0000000080001b7e <i00000001fd>:
    80001b7e:	00a62633          	slt	a2,a2,a0
    80001b82:	000de117          	auipc	sp,0xde
    80001b86:	47e10113          	add	sp,sp,1150 # 800e0000 <begin_signature>
    80001b8a:	6329                	lui	t1,0xa
    80001b8c:	2903031b          	addw	t1,t1,656 # a290 <_tbss_end+0xa290>
    80001b90:	911a                	add	sp,sp,t1

0000000080001b92 <i00000001fe>:
    80001b92:	f43e                	sd	a5,40(sp)

0000000080001b94 <i00000001ff>:
    80001b94:	d037cad3          	fcvt.s.lu	fs5,a5,rmm
    80001b98:	000de117          	auipc	sp,0xde
    80001b9c:	46810113          	add	sp,sp,1128 # 800e0000 <begin_signature>
    80001ba0:	631d                	lui	t1,0x7
    80001ba2:	4403031b          	addw	t1,t1,1088 # 7440 <_tbss_end+0x7440>
    80001ba6:	911a                	add	sp,sp,t1
    80001ba8:	000de117          	auipc	sp,0xde
    80001bac:	45810113          	add	sp,sp,1112 # 800e0000 <begin_signature>
    80001bb0:	6339                	lui	t1,0xe
    80001bb2:	4903031b          	addw	t1,t1,1168 # e490 <_tbss_end+0xe490>
    80001bb6:	911a                	add	sp,sp,t1
    80001bb8:	0000100f          	fence.i
    80001bbc:	02e7f4b3          	remu	s1,a5,a4
    80001bc0:	9e912823          	sw	s1,-1552(sp)
    80001bc4:	030b443b          	divw	s0,s6,a6
    80001bc8:	034f8a33          	mul	s4,t6,s4
    80001bcc:	03a447bb          	divw	a5,s0,s10
    80001bd0:	c00c08d3          	fcvt.w.s	a7,fs8,rne

0000000080001bd4 <b0000000200>:
    80001bd4:	0240056f          	jal	a0,80001bf8 <i0000000205>
    80001bd8:	53013483          	ld	s1,1328(sp)
    80001bdc:	77c6                	ld	a5,112(sp)
    80001bde:	4716                	lw	a4,68(sp)
    80001be0:	e0c15783          	lhu	a5,-500(sp)
    80001be4:	f83a                	sd	a4,48(sp)
    80001be6:	c0f128af          	amominu.w	a7,a5,(sp)
    80001bea:	02e71d33          	mulh	s10,a4,a4

0000000080001bee <i0000000200>:
    80001bee:	15b9                	add	a1,a1,-18

0000000080001bf0 <i0000000201>:
    80001bf0:	ca22                	sw	s0,20(sp)

0000000080001bf2 <i0000000202>:
    80001bf2:	0522                	sll	a0,a0,0x8

0000000080001bf4 <i0000000203>:
    80001bf4:	5562                	lw	a0,56(sp)

0000000080001bf6 <i0000000204>:
    80001bf6:	2de6                	fld	fs11,88(sp)

0000000080001bf8 <i0000000205>:
    80001bf8:	d2357dd3          	fcvt.d.lu	fs11,a0

0000000080001bfc <i0000000206>:
    80001bfc:	4562                	lw	a0,24(sp)

0000000080001bfe <i0000000207>:
    80001bfe:	6129                	add	sp,sp,192

0000000080001c00 <i0000000208>:
    80001c00:	7542                	ld	a0,48(sp)

0000000080001c02 <i0000000209>:
    80001c02:	8e61                	and	a2,a2,s0
    80001c04:	4da5                	li	s11,9
    80001c06:	4aa9                	li	s5,10
    80001c08:	54e2                	lw	s1,56(sp)
    80001c0a:	047e                	sll	s0,s0,0x1f
    80001c0c:	084ffcd3          	fsub.s	fs9,ft11,ft4
    80001c10:	c228f9d3          	fcvt.l.d	s3,fa7
    80001c14:	b1da                	fsd	fs6,224(sp)
    80001c16:	e13e                	sd	a5,128(sp)
    80001c18:	f2078b53          	fmv.d.x	fs6,a5

0000000080001c1c <b000000020a>:
    80001c1c:	00000033          	add	zero,zero,zero
    80001c20:	03baca63          	blt	s5,s11,80001c54 <i000000020f>
    80001c24:	00000033          	add	zero,zero,zero
    80001c28:	31813403          	ld	s0,792(sp)
    80001c2c:	e1212caf          	amomaxu.w	s9,s2,(sp)
    80001c30:	2b6d99d3          	fmax.d	fs3,fs11,fs6
    80001c34:	c23271d3          	fcvt.lu.d	gp,ft4
    80001c38:	80c5                	srl	s1,s1,0x11
    80001c3a:	02f7e733          	rem	a4,a5,a5
    80001c3e:	c20d79d3          	fcvt.w.d	s3,fs10
    80001c42:	4aa9                	li	s5,10

0000000080001c44 <i000000020a>:
    80001c44:	c23b7053          	fcvt.lu.d	zero,fs6

0000000080001c48 <i000000020b>:
    80001c48:	1094bb53          	fmul.s	fs6,fs1,fs1,rup

0000000080001c4c <i000000020c>:
    80001c4c:	024c                	add	a1,sp,260

0000000080001c4e <i000000020d>:
    80001c4e:	d027b653          	fcvt.s.l	fa2,a5,rup

0000000080001c52 <i000000020e>:
    80001c52:	7125                	add	sp,sp,-416

0000000080001c54 <i000000020f>:
    80001c54:	26a6                	fld	fa3,72(sp)

0000000080001c56 <i0000000210>:
    80001c56:	49bdc3cf          	fnmadd.s	ft7,fs11,fs11,fs1,rmm

0000000080001c5a <i0000000211>:
    80001c5a:	07012003          	lw	zero,112(sp)

0000000080001c5e <i0000000212>:
    80001c5e:	ef2fe0ef          	jal	80000350 <func1>

0000000080001c62 <i0000000213>:
    80001c62:	57d2                	lw	a5,52(sp)

0000000080001c64 <i0000000214>:
    80001c64:	0acc                	add	a1,sp,340
    80001c66:	4da5                	li	s11,9
    80001c68:	4aa9                	li	s5,10
    80001c6a:	0ff0000f          	fence
    80001c6e:	02f78a3b          	mulw	s4,a5,a5
    80001c72:	f176                	sd	t4,160(sp)
    80001c74:	613127af          	amoand.w	a5,s3,(sp)
    80001c78:	a0e1242f          	amomax.w	s0,a4,(sp)
    80001c7c:	d02a14d3          	fcvt.s.l	fs1,s4,rtz
    80001c80:	61013423          	sd	a6,1544(sp)

0000000080001c84 <b0000000215>:
    80001c84:	00000033          	add	zero,zero,zero
    80001c88:	03bacb63          	blt	s5,s11,80001cbe <i000000021a>
    80001c8c:	00000033          	add	zero,zero,zero
    80001c90:	0000100f          	fence.i
    80001c94:	80f1342f          	amomin.d	s0,a5,(sp)
    80001c98:	02e7bcb3          	mulhu	s9,a5,a4
    80001c9c:	6165                	add	sp,sp,112
    80001c9e:	0000100f          	fence.i
    80001ca2:	58910d23          	sb	s1,1434(sp)
    80001ca6:	003ed8bb          	srlw	a7,t4,gp
    80001caa:	4aa9                	li	s5,10

0000000080001cac <i0000000215>:
    80001cac:	02f61f33          	mulh	t5,a2,a5

0000000080001cb0 <i0000000216>:
    80001cb0:	02d2e63b          	remw	a2,t0,a3

0000000080001cb4 <i0000000217>:
    80001cb4:	e20e8953          	fmv.x.d	s2,ft9

0000000080001cb8 <i0000000218>:
    80001cb8:	40d7d513          	sra	a0,a5,0xd

0000000080001cbc <i0000000219>:
    80001cbc:	8d55                	or	a0,a0,a3

0000000080001cbe <i000000021a>:
    80001cbe:	b43e                	fsd	fa5,40(sp)

0000000080001cc0 <i000000021b>:
    80001cc0:	02a577b3          	remu	a5,a0,a0

0000000080001cc4 <i000000021c>:
    80001cc4:	33aa                	fld	ft7,168(sp)

0000000080001cc6 <i000000021d>:
    80001cc6:	ce8e                	sw	gp,92(sp)

0000000080001cc8 <i000000021e>:
    80001cc8:	74a6                	ld	s1,104(sp)
    80001cca:	4da5                	li	s11,9
    80001ccc:	000de117          	auipc	sp,0xde
    80001cd0:	33410113          	add	sp,sp,820 # 800e0000 <begin_signature>
    80001cd4:	6335                	lui	t1,0xd
    80001cd6:	cb83031b          	addw	t1,t1,-840 # ccb8 <_tbss_end+0xccb8>
    80001cda:	911a                	add	sp,sp,t1
    80001cdc:	000de117          	auipc	sp,0xde
    80001ce0:	32410113          	add	sp,sp,804 # 800e0000 <begin_signature>
    80001ce4:	6321                	lui	t1,0x8
    80001ce6:	5d03031b          	addw	t1,t1,1488 # 85d0 <_tbss_end+0x85d0>
    80001cea:	911a                	add	sp,sp,t1
    80001cec:	0000100f          	fence.i
    80001cf0:	6a813803          	ld	a6,1704(sp)
    80001cf4:	3441                	addw	s0,s0,-16
    80001cf6:	b4810903          	lb	s2,-1208(sp)
    80001cfa:	2091272f          	amoxor.w	a4,s1,(sp)
    80001cfe:	98012183          	lw	gp,-1664(sp)
    80001d02:	02f4d8b3          	divu	a7,s1,a5

0000000080001d06 <b000000021f>:
    80001d06:	00000033          	add	zero,zero,zero
    80001d0a:	fbbacae3          	blt	s5,s11,80001cbe <i000000021a>
    80001d0e:	00000033          	add	zero,zero,zero
    80001d12:	2094abd3          	fabs.s	fs7,fs1
    80001d16:	7131                	add	sp,sp,-192
    80001d18:	d02720d3          	fcvt.s.l	ft1,a4,rdn
    80001d1c:	a0912d2f          	amomax.w	s10,s1,(sp)
    80001d20:	1101                	add	sp,sp,-32
    80001d22:	0000100f          	fence.i
    80001d26:	6cf11223          	sh	a5,1732(sp)
    80001d2a:	4aa9                	li	s5,10

0000000080001d2c <i000000021f>:
    80001d2c:	c22b7553          	fcvt.l.d	a0,fs6

0000000080001d30 <i0000000220>:
    80001d30:	3482                	fld	fs1,32(sp)

0000000080001d32 <i0000000221>:
    80001d32:	02f7f2bb          	remuw	t0,a5,a5
    80001d36:	000de117          	auipc	sp,0xde
    80001d3a:	2ca10113          	add	sp,sp,714 # 800e0000 <begin_signature>
    80001d3e:	6321                	lui	t1,0x8
    80001d40:	5803031b          	addw	t1,t1,1408 # 8580 <_tbss_end+0x8580>
    80001d44:	911a                	add	sp,sp,t1

0000000080001d46 <i0000000222>:
    80001d46:	d436                	sw	a3,40(sp)

0000000080001d48 <i0000000223>:
    80001d48:	356e                	fld	fa0,248(sp)

0000000080001d4a <i0000000224>:
    80001d4a:	37fd                	addw	a5,a5,-1 # ffffffffac6c83c3 <_end+0xffffffff2c5d5ac2>

0000000080001d4c <i0000000225>:
    80001d4c:	c23b7653          	fcvt.lu.d	a2,fs6

0000000080001d50 <i0000000226>:
    80001d50:	02c5553b          	divuw	a0,a0,a2

0000000080001d54 <i0000000227>:
    80001d54:	83c9                	srl	a5,a5,0x12

0000000080001d56 <i0000000228>:
    80001d56:	006fe833          	or	a6,t6,t1
    80001d5a:	49a9                	li	s3,10
    80001d5c:	000de117          	auipc	sp,0xde
    80001d60:	2a410113          	add	sp,sp,676 # 800e0000 <begin_signature>
    80001d64:	6319                	lui	t1,0x6
    80001d66:	3321                	addw	t1,t1,-24 # 5fe8 <_tbss_end+0x5fe8>
    80001d68:	911a                	add	sp,sp,t1
    80001d6a:	00e133af          	amoadd.d	t2,a4,(sp)
    80001d6e:	0000100f          	fence.i
    80001d72:	010c18bb          	sllw	a7,s8,a6
    80001d76:	15a15d03          	lhu	s10,346(sp)
    80001d7a:	0113b433          	sltu	s0,t2,a7
    80001d7e:	3c4e                	fld	fs8,240(sp)
    80001d80:	20e1322f          	amoxor.d	tp,a4,(sp)

0000000080001d84 <b0000000229>:
    80001d84:	013a8463          	beq	s5,s3,80001d8c <b0000000229+0x8>
    80001d88:	fc3ff06f          	j	80001d4a <i0000000224>
    80001d8c:	4aa9                	li	s5,10
    80001d8e:	40e75433          	sra	s0,a4,a4
    80001d92:	d0340153          	fcvt.s.lu	ft2,s0,rne
    80001d96:	a0ba                	fsd	fa4,64(sp)
    80001d98:	c00027d3          	fcvt.w.s	a5,ft0,rdn
    80001d9c:	37412783          	lw	a5,884(sp)
    80001da0:	c041242f          	amominu.w	s0,tp,(sp)
    80001da4:	0ff0000f          	fence

0000000080001da8 <i0000000229>:
    80001da8:	f2078f53          	fmv.d.x	ft10,a5

0000000080001dac <i000000022a>:
    80001dac:	014b48b3          	xor	a7,s6,s4

0000000080001db0 <i000000022b>:
    80001db0:	0ff0000f          	fence

0000000080001db4 <i000000022c>:
    80001db4:	f1aa                	sd	a0,224(sp)

0000000080001db6 <i000000022d>:
    80001db6:	01f4b633          	sltu	a2,s1,t6

0000000080001dba <i000000022e>:
    80001dba:	8cb1                	xor	s1,s1,a2

0000000080001dbc <i000000022f>:
    80001dbc:	d22bf4d3          	fcvt.d.l	fs1,s7

0000000080001dc0 <i0000000230>:
    80001dc0:	02a67c3b          	remuw	s8,a2,a0

0000000080001dc4 <i0000000231>:
    80001dc4:	19d0                	add	a2,sp,244

0000000080001dc6 <i0000000232>:
    80001dc6:	d8afe0ef          	jal	80000350 <func1>

0000000080001dca <i0000000233>:
    80001dca:	d222                	sw	s0,36(sp)
    80001dcc:	000de117          	auipc	sp,0xde
    80001dd0:	23410113          	add	sp,sp,564 # 800e0000 <begin_signature>
    80001dd4:	6331                	lui	t1,0xc
    80001dd6:	bc83031b          	addw	t1,t1,-1080 # bbc8 <_tbss_end+0xbbc8>
    80001dda:	911a                	add	sp,sp,t1
    80001ddc:	c0234a53          	fcvt.l.s	s4,ft6,rmm
    80001de0:	873e                	mv	a4,a5
    80001de2:	4372f2cb          	fnmsub.d	ft5,ft5,fs7,fs0
    80001de6:	00949433          	sll	s0,s1,s1
    80001dea:	071a                	sll	a4,a4,0x6
    80001dec:	9ca1                	addw	s1,s1,s0
    80001dee:	47b2                	lw	a5,12(sp)

0000000080001df0 <b0000000234>:
    80001df0:	00000d17          	auipc	s10,0x0
    80001df4:	042d0d13          	add	s10,s10,66 # 80001e32 <i0000000239>
    80001df8:	000d00e7          	jalr	s10
    80001dfc:	63ce                	ld	t2,208(sp)
    80001dfe:	b0f13c23          	sd	a5,-1256(sp)
    80001e02:	003fda3b          	srlw	s4,t6,gp
    80001e06:	412bd7b3          	sra	a5,s7,s2
    80001e0a:	029719b3          	mulh	s3,a4,s1
    80001e0e:	00f48433          	add	s0,s1,a5
    80001e12:	9f21                	addw	a4,a4,s0

0000000080001e14 <i0000000234>:
    80001e14:	02a7e1bb          	remw	gp,a5,a0

0000000080001e18 <i0000000235>:
    80001e18:	ac6e                	fsd	fs11,24(sp)

0000000080001e1a <i0000000236>:
    80001e1a:	c221f8d3          	fcvt.l.d	a7,ft3

0000000080001e1e <i0000000237>:
    80001e1e:	69ea                	ld	s3,152(sp)

0000000080001e20 <i0000000238>:
    80001e20:	6165                	add	sp,sp,112
    80001e22:	000de117          	auipc	sp,0xde
    80001e26:	1de10113          	add	sp,sp,478 # 800e0000 <begin_signature>
    80001e2a:	6315                	lui	t1,0x5
    80001e2c:	6383031b          	addw	t1,t1,1592 # 5638 <_tbss_end+0x5638>
    80001e30:	911a                	add	sp,sp,t1

0000000080001e32 <i0000000239>:
    80001e32:	3e26                	fld	ft8,104(sp)

0000000080001e34 <i000000023a>:
    80001e34:	01061493          	sll	s1,a2,0x10

0000000080001e38 <i000000023b>:
    80001e38:	0189e033          	or	zero,s3,s8

0000000080001e3c <i000000023c>:
    80001e3c:	3703f613          	and	a2,t2,880

0000000080001e40 <i000000023d>:
    80001e40:	5b29                	li	s6,-22
    80001e42:	4cb1                	li	s9,12
    80001e44:	0a85                	add	s5,s5,1
    80001e46:	0ff0000f          	fence
    80001e4a:	245efd97          	auipc	s11,0x245ef
    80001e4e:	0ff0000f          	fence
    80001e52:	1101                	add	sp,sp,-32
    80001e54:	7b26                	ld	s6,104(sp)
    80001e56:	20e1342f          	amoxor.d	s0,a4,(sp)
    80001e5a:	6109                	add	sp,sp,128

0000000080001e5c <b000000023e>:
    80001e5c:	019a8863          	beq	s5,s9,80001e6c <b000000023e+0x10>
    80001e60:	00000c97          	auipc	s9,0x0
    80001e64:	fd2c8c93          	add	s9,s9,-46 # 80001e32 <i0000000239>
    80001e68:	000c80e7          	jalr	s9
    80001e6c:	4aa9                	li	s5,10
    80001e6e:	0ff0000f          	fence
    80001e72:	9f1d                	subw	a4,a4,a5
    80001e74:	0077101b          	sllw	zero,a4,0x7
    80001e78:	644a                	ld	s0,144(sp)
    80001e7a:	016e98b3          	sll	a7,t4,s6
    80001e7e:	a0f12e2f          	amomax.w	t3,a5,(sp)
    80001e82:	c22c7a53          	fcvt.l.d	s4,fs8

0000000080001e86 <i000000023e>:
    80001e86:	0ab4                	add	a3,sp,344
    80001e88:	000de117          	auipc	sp,0xde
    80001e8c:	17810113          	add	sp,sp,376 # 800e0000 <begin_signature>
    80001e90:	631d                	lui	t1,0x7
    80001e92:	4683031b          	addw	t1,t1,1128 # 7468 <_tbss_end+0x7468>
    80001e96:	911a                	add	sp,sp,t1

0000000080001e98 <i000000023f>:
    80001e98:	ac26                	fsd	fs1,24(sp)

0000000080001e9a <i0000000240>:
    80001e9a:	9c29                	addw	s0,s0,a0

0000000080001e9c <i0000000241>:
    80001e9c:	010d64b3          	or	s1,s10,a6

0000000080001ea0 <i0000000242>:
    80001ea0:	0ff0000f          	fence

0000000080001ea4 <i0000000243>:
    80001ea4:	1161                	add	sp,sp,-8
    80001ea6:	e41e                	sd	t2,8(sp)
    80001ea8:	4381                	li	t2,0
    80001eaa:	0003a383          	lw	t2,0(t2)
    80001eae:	63a2                	ld	t2,8(sp)
    80001eb0:	0121                	add	sp,sp,8

0000000080001eb2 <i0000000244>:
    80001eb2:	0000100f          	fence.i

0000000080001eb6 <i0000000245>:
    80001eb6:	1a1c                	add	a5,sp,304

0000000080001eb8 <i0000000246>:
    80001eb8:	2dea                	fld	fs11,152(sp)

0000000080001eba <i0000000247>:
    80001eba:	8f5d                	or	a4,a4,a5

0000000080001ebc <i0000000248>:
    80001ebc:	0000100f          	fence.i
    80001ec0:	48b1                	li	a7,12
    80001ec2:	0a85                	add	s5,s5,1
    80001ec4:	000de117          	auipc	sp,0xde
    80001ec8:	13c10113          	add	sp,sp,316 # 800e0000 <begin_signature>
    80001ecc:	6319                	lui	t1,0x6
    80001ece:	0e83031b          	addw	t1,t1,232 # 60e8 <_tbss_end+0x60e8>
    80001ed2:	911a                	add	sp,sp,t1
    80001ed4:	000de117          	auipc	sp,0xde
    80001ed8:	12c10113          	add	sp,sp,300 # 800e0000 <begin_signature>
    80001edc:	6319                	lui	t1,0x6
    80001ede:	cf83031b          	addw	t1,t1,-776 # 5cf8 <_tbss_end+0x5cf8>
    80001ee2:	911a                	add	sp,sp,t1
    80001ee4:	819133af          	amomin.d	t2,s9,(sp)
    80001ee8:	01fd121b          	sllw	tp,s10,0x1f
    80001eec:	ce22                	sw	s0,28(sp)
    80001eee:	4b6b74c7          	fmsub.d	fs1,fs6,fs6,fs1
    80001ef2:	0ff0000f          	fence
    80001ef6:	197c                	add	a5,sp,188
    80001ef8:	6a6e                	ld	s4,216(sp)

0000000080001efa <b0000000249>:
    80001efa:	011a8863          	beq	s5,a7,80001f0a <b0000000249+0x10>
    80001efe:	00000897          	auipc	a7,0x0
    80001f02:	fb488893          	add	a7,a7,-76 # 80001eb2 <i0000000244>
    80001f06:	000880e7          	jalr	a7
    80001f0a:	4aa9                	li	s5,10
    80001f0c:	a24d2853          	feq.d	a6,fs10,ft4
    80001f10:	02f763b3          	rem	t2,a4,a5
    80001f14:	c2387053          	fcvt.lu.d	zero,fa6
    80001f18:	02e7c433          	div	s0,a5,a4
    80001f1c:	d23ef4d3          	fcvt.d.lu	fs1,t4
    80001f20:	810a                	mv	sp,sp
    80001f22:	0931272f          	amoswap.w	a4,s3,(sp)

0000000080001f26 <i0000000249>:
    80001f26:	ce3e                	sw	a5,28(sp)

0000000080001f28 <i000000024a>:
    80001f28:	0000100f          	fence.i

0000000080001f2c <i000000024b>:
    80001f2c:	9e39                	addw	a2,a2,a4
    80001f2e:	000de117          	auipc	sp,0xde
    80001f32:	0d210113          	add	sp,sp,210 # 800e0000 <begin_signature>
    80001f36:	6305                	lui	t1,0x1
    80001f38:	9903031b          	addw	t1,t1,-1648 # 990 <_tbss_end+0x990>
    80001f3c:	911a                	add	sp,sp,t1

0000000080001f3e <i000000024c>:
    80001f3e:	f82a                	sd	a0,48(sp)

0000000080001f40 <i000000024d>:
    80001f40:	0000100f          	fence.i

0000000080001f44 <i000000024e>:
    80001f44:	de3a                	sw	a4,60(sp)

0000000080001f46 <i000000024f>:
    80001f46:	0000100f          	fence.i

0000000080001f4a <i0000000250>:
    80001f4a:	40f50633          	sub	a2,a0,a5

0000000080001f4e <i0000000251>:
    80001f4e:	0ff0000f          	fence

0000000080001f52 <i0000000252>:
    80001f52:	09c78793          	add	a5,a5,156
    80001f56:	4e31                	li	t3,12
    80001f58:	0a85                	add	s5,s5,1
    80001f5a:	000de117          	auipc	sp,0xde
    80001f5e:	0a610113          	add	sp,sp,166 # 800e0000 <begin_signature>
    80001f62:	630d                	lui	t1,0x3
    80001f64:	8b03031b          	addw	t1,t1,-1872 # 28b0 <_tbss_end+0x28b0>
    80001f68:	911a                	add	sp,sp,t1
    80001f6a:	0311c73b          	divw	a4,gp,a7
    80001f6e:	28411203          	lh	tp,644(sp)
    80001f72:	a7812d07          	flw	fs10,-1416(sp)
    80001f76:	0000100f          	fence.i
    80001f7a:	341d                	addw	s0,s0,-25
    80001f7c:	a0712d2f          	amomax.w	s10,t2,(sp)
    80001f80:	02e7a733          	mulhsu	a4,a5,a4

0000000080001f84 <b0000000253>:
    80001f84:	01ca8863          	beq	s5,t3,80001f94 <b0000000253+0x10>
    80001f88:	00000e17          	auipc	t3,0x0
    80001f8c:	fbce0e13          	add	t3,t3,-68 # 80001f44 <i000000024e>
    80001f90:	000e0067          	jr	t3
    80001f94:	4aa9                	li	s5,10
    80001f96:	031b843b          	mulw	s0,s7,a7
    80001f9a:	e526                	sd	s1,136(sp)
    80001f9c:	37c9                	addw	a5,a5,-14
    80001f9e:	71016403          	lwu	s0,1808(sp)
    80001fa2:	8ce1                	and	s1,s1,s0
    80001fa4:	c03db4d3          	fcvt.lu.s	s1,fs11,rup
    80001fa8:	4c411e23          	sh	tp,1244(sp)

0000000080001fac <i0000000253>:
    80001fac:	6121                	add	sp,sp,64

0000000080001fae <i0000000254>:
    80001fae:	f4a6                	sd	s1,104(sp)

0000000080001fb0 <i0000000255>:
    80001fb0:	3482                	fld	fs1,32(sp)

0000000080001fb2 <i0000000256>:
    80001fb2:	6666                	ld	a2,88(sp)

0000000080001fb4 <i0000000257>:
    80001fb4:	0ff0000f          	fence

0000000080001fb8 <i0000000258>:
    80001fb8:	0bc4                	add	s1,sp,468

0000000080001fba <i0000000259>:
    80001fba:	0000100f          	fence.i

0000000080001fbe <i000000025a>:
    80001fbe:	9f2d                	addw	a4,a4,a1

0000000080001fc0 <i000000025b>:
    80001fc0:	83e5                	srl	a5,a5,0x19

0000000080001fc2 <i000000025c>:
    80001fc2:	c036                	sw	a3,0(sp)
    80001fc4:	48a9                	li	a7,10
    80001fc6:	012b5a33          	srl	s4,s6,s2
    80001fca:	c22ff7d3          	fcvt.l.d	a5,ft11
    80001fce:	8c21                	xor	s0,s0,s0
    80001fd0:	98b5                	and	s1,s1,-19
    80001fd2:	a07137af          	amomax.d	a5,t2,(sp)
    80001fd6:	d822                	sw	s0,48(sp)
    80001fd8:	a1e6                	fsd	fs9,192(sp)

0000000080001fda <b000000025d>:
    80001fda:	011a8463          	beq	s5,a7,80001fe2 <b000000025d+0x8>
    80001fde:	fdbff06f          	j	80001fb8 <i0000000258>
    80001fe2:	4aa9                	li	s5,10
    80001fe4:	00f4b733          	sltu	a4,s1,a5
    80001fe8:	40f7d23b          	sraw	tp,a5,a5
    80001fec:	02f754bb          	divuw	s1,a4,a5
    80001ff0:	d2e6                	sw	s9,100(sp)
    80001ff2:	7115                	add	sp,sp,-224
    80001ff4:	02f701bb          	mulw	gp,a4,a5
    80001ff8:	86e13023          	sd	a4,-1952(sp)

0000000080001ffc <i000000025d>:
    80001ffc:	7109                	add	sp,sp,-384

0000000080001ffe <i000000025e>:
    80001ffe:	0190                	add	a2,sp,192

0000000080002000 <i000000025f>:
    80002000:	0000100f          	fence.i

0000000080002004 <i0000000260>:
    80002004:	f94e                	sd	s3,176(sp)

0000000080002006 <i0000000261>:
    80002006:	13f8                	add	a4,sp,492
    80002008:	000de117          	auipc	sp,0xde
    8000200c:	ff810113          	add	sp,sp,-8 # 800e0000 <begin_signature>
    80002010:	6321                	lui	t1,0x8
    80002012:	d783031b          	addw	t1,t1,-648 # 7d78 <_tbss_end+0x7d78>
    80002016:	911a                	add	sp,sp,t1

0000000080002018 <i0000000262>:
    80002018:	d8be                	sw	a5,112(sp)

000000008000201a <i0000000263>:
    8000201a:	7cb52513          	slti	a0,a0,1995

000000008000201e <i0000000264>:
    8000201e:	f8be                	sd	a5,112(sp)

0000000080002020 <i0000000265>:
    80002020:	0ff0000f          	fence

0000000080002024 <i0000000266>:
    80002024:	07da                	sll	a5,a5,0x16
    80002026:	49a5                	li	s3,9
    80002028:	02e7e433          	rem	s0,a5,a4
    8000202c:	39c12783          	lw	a5,924(sp)
    80002030:	a0f1342f          	amomax.d	s0,a5,(sp)
    80002034:	614d                	add	sp,sp,176
    80002036:	4091372f          	amoor.d	a4,s1,(sp)
    8000203a:	57e2                	lw	a5,56(sp)
    8000203c:	77c6                	ld	a5,112(sp)

000000008000203e <b0000000267>:
    8000203e:	00000033          	add	zero,zero,zero
    80002042:	fd59dbe3          	bge	s3,s5,80002018 <i0000000262>
    80002046:	00000033          	add	zero,zero,zero
    8000204a:	02021733          	mulh	a4,tp,zero
    8000204e:	2ad90453          	fmin.d	fs0,fs2,fa3
    80002052:	0971292f          	amoswap.w	s2,s7,(sp)
    80002056:	0297c8b3          	div	a7,a5,s1
    8000205a:	8fc1                	or	a5,a5,s0
    8000205c:	01c127af          	amoadd.w	a5,t3,(sp)
    80002060:	a6a11483          	lh	s1,-1430(sp)
    80002064:	4aa9                	li	s5,10

0000000080002066 <i0000000267>:
    80002066:	0000100f          	fence.i

000000008000206a <i0000000268>:
    8000206a:	2f92                	fld	ft11,256(sp)

000000008000206c <i0000000269>:
    8000206c:	8775                	sra	a4,a4,0x1d

000000008000206e <i000000026a>:
    8000206e:	01c89533          	sll	a0,a7,t3

0000000080002072 <i000000026b>:
    80002072:	87e5                	sra	a5,a5,0x19

0000000080002074 <i000000026c>:
    80002074:	24ea                	fld	fs1,152(sp)

0000000080002076 <i000000026d>:
    80002076:	40c785b3          	sub	a1,a5,a2

000000008000207a <i000000026e>:
    8000207a:	1150                	add	a2,sp,164

000000008000207c <i000000026f>:
    8000207c:	5672                	lw	a2,60(sp)

000000008000207e <i0000000270>:
    8000207e:	62ca                	ld	t0,144(sp)
    80002080:	48ad                	li	a7,11
    80002082:	0a85                	add	s5,s5,1
    80002084:	60f13e2f          	amoand.d	t3,a5,(sp)
    80002088:	d227f553          	fcvt.d.l	fa0,a5
    8000208c:	43475793          	sra	a5,a4,0x34
    80002090:	e0712baf          	amomaxu.w	s7,t2,(sp)
    80002094:	d22efdd3          	fcvt.d.l	fs11,t4
    80002098:	c02b2753          	fcvt.l.s	a4,fs6,rdn
    8000209c:	8ebe                	mv	t4,a5

000000008000209e <b0000000271>:
    8000209e:	00000033          	add	zero,zero,zero
    800020a2:	fd1a89e3          	beq	s5,a7,80002074 <i000000026c>
    800020a6:	00000033          	add	zero,zero,zero
    800020aa:	d02badd3          	fcvt.s.l	fs11,s7,rdn
    800020ae:	13770793          	add	a5,a4,311
    800020b2:	0000100f          	fence.i
    800020b6:	d229f2d3          	fcvt.d.l	ft5,s3
    800020ba:	0297d7b3          	divu	a5,a5,s1
    800020be:	1298                	add	a4,sp,352
    800020c0:	40e784bb          	subw	s1,a5,a4
    800020c4:	4aa9                	li	s5,10

00000000800020c6 <i0000000271>:
    800020c6:	c83e                	sw	a5,16(sp)

00000000800020c8 <i0000000272>:
    800020c8:	00235073          	fsrmi	zero,6

00000000800020cc <i0000000273>:
    800020cc:	ed3e                	sd	a5,152(sp)

00000000800020ce <i0000000274>:
    800020ce:	8389                	srl	a5,a5,0x2

00000000800020d0 <i0000000275>:
    800020d0:	d43a                	sw	a4,40(sp)

00000000800020d2 <i0000000276>:
    800020d2:	08a4                	add	s1,sp,88

00000000800020d4 <i0000000277>:
    800020d4:	09f8                	add	a4,sp,220

00000000800020d6 <i0000000278>:
    800020d6:	8d09                	sub	a0,a0,a0

00000000800020d8 <i0000000279>:
    800020d8:	9e8d                	subw	a3,a3,a1

00000000800020da <i000000027a>:
    800020da:	62e1                	lui	t0,0x18

00000000800020dc <i000000027b>:
    800020dc:	0920                	add	s0,sp,152
    800020de:	4ea9                	li	t4,10
    800020e0:	d228f4d3          	fcvt.d.l	fs1,a7
    800020e4:	6129                	add	sp,sp,192
    800020e6:	11c82a53          	fmul.s	fs4,fa6,ft8,rdn
    800020ea:	01789793          	sll	a5,a7,0x17
    800020ee:	0297c733          	div	a4,a5,s1
    800020f2:	02e7c83b          	divw	a6,a5,a4
    800020f6:	c03b07d3          	fcvt.lu.s	a5,fs6,rne

00000000800020fa <b000000027c>:
    800020fa:	01da8463          	beq	s5,t4,80002102 <b000000027c+0x8>
    800020fe:	fd7ff56f          	jal	a0,800020d4 <i0000000277>
    80002102:	4aa9                	li	s5,10
    80002104:	6169                	add	sp,sp,208
    80002106:	02e7f43b          	remuw	s0,a5,a4
    8000210a:	34416403          	lwu	s0,836(sp)
    8000210e:	34a6                	fld	fs1,104(sp)
    80002110:	67a2                	ld	a5,8(sp)
    80002112:	02f7a233          	mulhsu	tp,a5,a5
    80002116:	e0e124af          	amomaxu.w	s1,a4,(sp)

000000008000211a <i000000027c>:
    8000211a:	0070                	add	a2,sp,12

000000008000211c <i000000027d>:
    8000211c:	87aa                	mv	a5,a0

000000008000211e <i000000027e>:
    8000211e:	467ff013          	and	zero,t6,1127
    80002122:	000de117          	auipc	sp,0xde
    80002126:	ede10113          	add	sp,sp,-290 # 800e0000 <begin_signature>
    8000212a:	633d                	lui	t1,0xf
    8000212c:	2e83031b          	addw	t1,t1,744 # f2e8 <_tbss_end+0xf2e8>
    80002130:	911a                	add	sp,sp,t1

0000000080002132 <i000000027f>:
    80002132:	b06e                	fsd	fs11,32(sp)

0000000080002134 <i0000000280>:
    80002134:	34e6                	fld	fs1,120(sp)

0000000080002136 <i0000000281>:
    80002136:	3e82                	fld	ft9,32(sp)

0000000080002138 <i0000000282>:
    80002138:	4402                	lw	s0,0(sp)

000000008000213a <i0000000283>:
    8000213a:	a16fe0ef          	jal	80000350 <func1>

000000008000213e <i0000000284>:
    8000213e:	8f55                	or	a4,a4,a3

0000000080002140 <i0000000285>:
    80002140:	239cc513          	xor	a0,s9,569

0000000080002144 <i0000000286>:
    80002144:	3649                	addw	a2,a2,-14
    80002146:	4ba9                	li	s7,10
    80002148:	000de117          	auipc	sp,0xde
    8000214c:	eb810113          	add	sp,sp,-328 # 800e0000 <begin_signature>
    80002150:	6335                	lui	t1,0xd
    80002152:	1a83031b          	addw	t1,t1,424 # d1a8 <_tbss_end+0xd1a8>
    80002156:	911a                	add	sp,sp,t1
    80002158:	7131                	add	sp,sp,-192
    8000215a:	9cbd                	addw	s1,s1,a5
    8000215c:	3642                	fld	fa2,48(sp)
    8000215e:	0000100f          	fence.i
    80002162:	019124af          	amoadd.w	s1,s9,(sp)
    80002166:	db04b793          	sltiu	a5,s1,-592
    8000216a:	20f127af          	amoxor.w	a5,a5,(sp)

000000008000216e <b0000000287>:
    8000216e:	00000033          	add	zero,zero,zero
    80002172:	057a8663          	beq	s5,s7,800021be <i000000028c>
    80002176:	00000033          	add	zero,zero,zero
    8000217a:	8c19                	sub	s0,s0,a4
    8000217c:	00706733          	or	a4,zero,t2
    80002180:	03b47e33          	remu	t3,s0,s11
    80002184:	0ff10403          	lb	s0,255(sp)
    80002188:	0000100f          	fence.i
    8000218c:	a1b1242f          	amomax.w	s0,s11,(sp)
    80002190:	014deb33          	or	s6,s11,s4
    80002194:	4aa9                	li	s5,10

0000000080002196 <i0000000287>:
    80002196:	7135                	add	sp,sp,-160

0000000080002198 <i0000000288>:
    80002198:	3579                	addw	a0,a0,-2

000000008000219a <i0000000289>:
    8000219a:	6726                	ld	a4,72(sp)

000000008000219c <i000000028a>:
    8000219c:	1141                	add	sp,sp,-16
    8000219e:	e40e                	sd	gp,8(sp)
    800021a0:	e802                	sd	zero,16(sp)
    800021a2:	818a                	mv	gp,sp
    800021a4:	00100013          	li	zero,1
    800021a8:	020181b3          	mul	gp,gp,zero
    800021ac:	0031b003          	ld	zero,3(gp)
    800021b0:	020181b3          	mul	gp,gp,zero
    800021b4:	61a2                	ld	gp,8(sp)
    800021b6:	01013003          	ld	zero,16(sp)
    800021ba:	0141                	add	sp,sp,16

00000000800021bc <i000000028b>:
    800021bc:	f02a                	sd	a0,32(sp)

00000000800021be <i000000028c>:
    800021be:	5686                	lw	a3,96(sp)

00000000800021c0 <i000000028d>:
    800021c0:	2562                	fld	fa0,24(sp)

00000000800021c2 <i000000028e>:
    800021c2:	7101                	add	sp,sp,-512

00000000800021c4 <i000000028f>:
    800021c4:	810a                	mv	sp,sp

00000000800021c6 <i0000000290>:
    800021c6:	9c81                	subw	s1,s1,s0

00000000800021c8 <i0000000291>:
    800021c8:	66a2                	ld	a3,8(sp)
    800021ca:	48b1                	li	a7,12
    800021cc:	0a85                	add	s5,s5,1
    800021ce:	000de117          	auipc	sp,0xde
    800021d2:	e3210113          	add	sp,sp,-462 # 800e0000 <begin_signature>
    800021d6:	631d                	lui	t1,0x7
    800021d8:	6703031b          	addw	t1,t1,1648 # 7670 <_tbss_end+0x7670>
    800021dc:	911a                	add	sp,sp,t1
    800021de:	000de117          	auipc	sp,0xde
    800021e2:	e2210113          	add	sp,sp,-478 # 800e0000 <begin_signature>
    800021e6:	6331                	lui	t1,0xc
    800021e8:	5f83031b          	addw	t1,t1,1528 # c5f8 <_tbss_end+0xc5f8>
    800021ec:	911a                	add	sp,sp,t1
    800021ee:	02f7f733          	remu	a4,a5,a5
    800021f2:	04da                	sll	s1,s1,0x16
    800021f4:	da3e                	sw	a5,52(sp)
    800021f6:	9f39                	addw	a4,a4,a4
    800021f8:	c01b47d3          	fcvt.wu.s	a5,fs6,rmm
    800021fc:	0328443b          	divw	s0,a6,s2
    80002200:	73aa                	ld	t2,168(sp)

0000000080002202 <b0000000292>:
    80002202:	00000033          	add	zero,zero,zero
    80002206:	fb58dde3          	bge	a7,s5,800021c0 <i000000028d>
    8000220a:	00000033          	add	zero,zero,zero
    8000220e:	bd5a                	fsd	fs6,184(sp)
    80002210:	f06a                	sd	s10,32(sp)
    80002212:	c1f12a2f          	amominu.w	s4,t6,(sp)
    80002216:	28913023          	sd	s1,640(sp)
    8000221a:	a0f137af          	amomax.d	a5,a5,(sp)
    8000221e:	e0e134af          	amomaxu.d	s1,a4,(sp)
    80002222:	d037c253          	fcvt.s.lu	ft4,a5,rmm
    80002226:	4aa9                	li	s5,10

0000000080002228 <i0000000292>:
    80002228:	1485                	add	s1,s1,-31 # 9fe1 <_tbss_end+0x9fe1>

000000008000222a <i0000000293>:
    8000222a:	712d                	add	sp,sp,-288

000000008000222c <i0000000294>:
    8000222c:	7179                	add	sp,sp,-48

000000008000222e <i0000000295>:
    8000222e:	41b6                	lw	gp,76(sp)

0000000080002230 <i0000000296>:
    80002230:	0422                	sll	s0,s0,0x8

0000000080002232 <i0000000297>:
    80002232:	409f82b3          	sub	t0,t6,s1

0000000080002236 <i0000000298>:
    80002236:	8239                	srl	a2,a2,0xe

0000000080002238 <i0000000299>:
    80002238:	bca6                	fsd	fs1,120(sp)

000000008000223a <i000000029a>:
    8000223a:	1342f517          	auipc	a0,0x1342f

000000008000223e <i000000029b>:
    8000223e:	912fe0ef          	jal	80000350 <func1>

0000000080002242 <i000000029c>:
    80002242:	40f55533          	sra	a0,a0,a5
    80002246:	4d81                	li	s11,0
    80002248:	9fba                	add	t6,t6,a4
    8000224a:	daa6                	sw	s1,116(sp)
    8000224c:	670a                	ld	a4,128(sp)
    8000224e:	d22d7b53          	fcvt.d.l	fs6,s10
    80002252:	5c2ca893          	slti	a7,s9,1474
    80002256:	bf914183          	lbu	gp,-1031(sp)
    8000225a:	3451                	addw	s0,s0,-12

000000008000225c <b000000029d>:
    8000225c:	00000033          	add	zero,zero,zero
    80002260:	03ba8e63          	beq	s5,s11,8000229c <i00000002a2>
    80002264:	00000033          	add	zero,zero,zero
    80002268:	17c16403          	lwu	s0,380(sp)
    8000226c:	6169                	add	sp,sp,208
    8000226e:	03779413          	sll	s0,a5,0x37
    80002272:	27bd                	addw	a5,a5,15
    80002274:	01c16703          	lwu	a4,28(sp)
    80002278:	0297fd3b          	remuw	s10,a5,s1
    8000227c:	0000100f          	fence.i
    80002280:	4aa9                	li	s5,10

0000000080002282 <i000000029d>:
    80002282:	8db5                	xor	a1,a1,a3
    80002284:	000de117          	auipc	sp,0xde
    80002288:	d7c10113          	add	sp,sp,-644 # 800e0000 <begin_signature>
    8000228c:	6325                	lui	t1,0x9
    8000228e:	dd03031b          	addw	t1,t1,-560 # 8dd0 <_tbss_end+0x8dd0>
    80002292:	911a                	add	sp,sp,t1

0000000080002294 <i000000029e>:
    80002294:	248a                	fld	fs1,128(sp)

0000000080002296 <i000000029f>:
    80002296:	f422                	sd	s0,40(sp)

0000000080002298 <i00000002a0>:
    80002298:	97b2                	add	a5,a5,a2

000000008000229a <i00000002a1>:
    8000229a:	1bf4                	add	a3,sp,508

000000008000229c <i00000002a2>:
    8000229c:	3622                	fld	fa2,40(sp)

000000008000229e <i00000002a3>:
    8000229e:	07ee                	sll	a5,a5,0x1b

00000000800022a0 <i00000002a4>:
    800022a0:	a2f6f613          	and	a2,a3,-1489

00000000800022a4 <i00000002a5>:
    800022a4:	6651                	lui	a2,0x14

00000000800022a6 <i00000002a6>:
    800022a6:	0134                	add	a3,sp,136
    800022a8:	4b29                	li	s6,10
    800022aa:	000de117          	auipc	sp,0xde
    800022ae:	d5610113          	add	sp,sp,-682 # 800e0000 <begin_signature>
    800022b2:	632d                	lui	t1,0xb
    800022b4:	9703031b          	addw	t1,t1,-1680 # a970 <_tbss_end+0xa970>
    800022b8:	911a                	add	sp,sp,t1
    800022ba:	000de117          	auipc	sp,0xde
    800022be:	d4610113          	add	sp,sp,-698 # 800e0000 <begin_signature>
    800022c2:	6339                	lui	t1,0xe
    800022c4:	3083031b          	addw	t1,t1,776 # e308 <_tbss_end+0xe308>
    800022c8:	911a                	add	sp,sp,t1
    800022ca:	20769253          	fsgnjn.s	ft4,fa3,ft7
    800022ce:	4722                	lw	a4,8(sp)
    800022d0:	6091292f          	amoand.w	s2,s1,(sp)
    800022d4:	e062                	sd	s8,0(sp)
    800022d6:	b422                	fsd	fs0,40(sp)
    800022d8:	cc1e                	sw	t2,24(sp)
    800022da:	f1a2                	sd	s0,224(sp)

00000000800022dc <b00000002a7>:
    800022dc:	016a8863          	beq	s5,s6,800022ec <b00000002a7+0x10>
    800022e0:	00000b17          	auipc	s6,0x0
    800022e4:	fbcb0b13          	add	s6,s6,-68 # 8000229c <i00000002a2>
    800022e8:	000b0067          	jr	s6
    800022ec:	4aa9                	li	s5,10
    800022ee:	a0813d2f          	amomax.d	s10,s0,(sp)
    800022f2:	c0912baf          	amominu.w	s7,s1,(sp)
    800022f6:	cc26                	sw	s1,24(sp)
    800022f8:	3b788d9b          	addw	s11,a7,951
    800022fc:	421e5193          	sra	gp,t3,0x21
    80002300:	dc3e                	sw	a5,56(sp)
    80002302:	0141                	add	sp,sp,16

0000000080002304 <i00000002a7>:
    80002304:	00c81793          	sll	a5,a6,0xc

0000000080002308 <i00000002a8>:
    80002308:	232a                	fld	ft6,136(sp)
    8000230a:	000de117          	auipc	sp,0xde
    8000230e:	cf610113          	add	sp,sp,-778 # 800e0000 <begin_signature>
    80002312:	6311                	lui	t1,0x4
    80002314:	dc03031b          	addw	t1,t1,-576 # 3dc0 <_tbss_end+0x3dc0>
    80002318:	911a                	add	sp,sp,t1

000000008000231a <i00000002a9>:
    8000231a:	a8aa                	fsd	fa0,80(sp)

000000008000231c <i00000002aa>:
    8000231c:	85f9                	sra	a1,a1,0x1e

000000008000231e <i00000002ab>:
    8000231e:	ce2a                	sw	a0,28(sp)

0000000080002320 <i00000002ac>:
    80002320:	24c2                	fld	fs1,16(sp)

0000000080002322 <i00000002ad>:
    80002322:	085c                	add	a5,sp,20

0000000080002324 <i00000002ae>:
    80002324:	154d                	add	a0,a0,-13 # 9343122d <_end+0x1333e92c>

0000000080002326 <i00000002af>:
    80002326:	3de2                	fld	fs11,56(sp)

0000000080002328 <i00000002b0>:
    80002328:	9cb5                	addw	s1,s1,a3
    8000232a:	000de117          	auipc	sp,0xde
    8000232e:	cd610113          	add	sp,sp,-810 # 800e0000 <begin_signature>
    80002332:	6331                	lui	t1,0xc
    80002334:	6803031b          	addw	t1,t1,1664 # c680 <_tbss_end+0xc680>
    80002338:	911a                	add	sp,sp,t1
    8000233a:	0297afb3          	mulhsu	t6,a5,s1
    8000233e:	b5713023          	sd	s7,-1216(sp)
    80002342:	0141                	add	sp,sp,16
    80002344:	6402                	ld	s0,0(sp)
    80002346:	b126                	fsd	fs1,160(sp)
    80002348:	9c21                	addw	s0,s0,s0
    8000234a:	7159                	add	sp,sp,-112

000000008000234c <b00000002b1>:
    8000234c:	0240056f          	jal	a0,80002370 <i00000002b6>
    80002350:	1782                	sll	a5,a5,0x20
    80002352:	27a6                	fld	fa5,72(sp)
    80002354:	86015783          	lhu	a5,-1952(sp)
    80002358:	e2098453          	fmv.x.d	s0,fs3
    8000235c:	c43e                	sw	a5,8(sp)
    8000235e:	0ff0000f          	fence
    80002362:	c16e                	sw	s11,128(sp)

0000000080002364 <i00000002b1>:
    80002364:	962a                	add	a2,a2,a0

0000000080002366 <i00000002b2>:
    80002366:	7169                	add	sp,sp,-304

0000000080002368 <i00000002b3>:
    80002368:	00a7a233          	slt	tp,a5,a0

000000008000236c <i00000002b4>:
    8000236c:	de32                	sw	a2,60(sp)

000000008000236e <i00000002b5>:
    8000236e:	65aa                	ld	a1,136(sp)

0000000080002370 <i00000002b6>:
    80002370:	00014037          	lui	zero,0x14

0000000080002374 <i00000002b7>:
    80002374:	4786                	lw	a5,64(sp)
    80002376:	000de117          	auipc	sp,0xde
    8000237a:	c8a10113          	add	sp,sp,-886 # 800e0000 <begin_signature>
    8000237e:	6329                	lui	t1,0xa
    80002380:	7e03031b          	addw	t1,t1,2016 # a7e0 <_tbss_end+0xa7e0>
    80002384:	911a                	add	sp,sp,t1

0000000080002386 <i00000002b8>:
    80002386:	7f2e                	ld	t5,232(sp)

0000000080002388 <i00000002b9>:
    80002388:	91da                	add	gp,gp,s6

000000008000238a <i00000002ba>:
    8000238a:	3c6e                	fld	fs8,248(sp)

000000008000238c <i00000002bb>:
    8000238c:	9002                	ebreak
    8000238e:	4da9                	li	s11,10
    80002390:	d23b77d3          	fcvt.d.lu	fa5,s6
    80002394:	64013903          	ld	s2,1600(sp)
    80002398:	d034c953          	fcvt.s.lu	fs2,s1,rmm
    8000239c:	f17ec5cb          	fnmsub.s	fa1,ft9,fs7,ft10,rmm
    800023a0:	4472                	lw	s0,28(sp)
    800023a2:	8441                	sra	s0,s0,0x10
    800023a4:	131c7b53          	fmul.d	fs6,fs8,fa7

00000000800023a8 <b00000002bc>:
    800023a8:	00000033          	add	zero,zero,zero
    800023ac:	03ba8663          	beq	s5,s11,800023d8 <i00000002c1>
    800023b0:	00000033          	add	zero,zero,zero
    800023b4:	7d415703          	lhu	a4,2004(sp)
    800023b8:	0ff0000f          	fence
    800023bc:	81be                	mv	gp,a5
    800023be:	d2078b53          	fcvt.d.w	fs6,a5
    800023c2:	012b5413          	srl	s0,s6,0x12
    800023c6:	17c5                	add	a5,a5,-15
    800023c8:	42db049b          	addw	s1,s6,1069
    800023cc:	4aa9                	li	s5,10

00000000800023ce <i00000002bc>:
    800023ce:	ec0e                	sd	gp,24(sp)

00000000800023d0 <i00000002bd>:
    800023d0:	137c                	add	a5,sp,428

00000000800023d2 <i00000002be>:
    800023d2:	5559                	li	a0,-10

00000000800023d4 <i00000002bf>:
    800023d4:	80ed                	srl	s1,s1,0x1b

00000000800023d6 <i00000002c0>:
    800023d6:	d8b6                	sw	a3,112(sp)

00000000800023d8 <i00000002c1>:
    800023d8:	870d                	sra	a4,a4,0x3

00000000800023da <i00000002c2>:
    800023da:	714d                	add	sp,sp,-336

00000000800023dc <i00000002c3>:
    800023dc:	05e6                	sll	a1,a1,0x19

00000000800023de <i00000002c4>:
    800023de:	9cbd                	addw	s1,s1,a5
    800023e0:	000de117          	auipc	sp,0xde
    800023e4:	c2010113          	add	sp,sp,-992 # 800e0000 <begin_signature>
    800023e8:	6311                	lui	t1,0x4
    800023ea:	a083031b          	addw	t1,t1,-1528 # 3a08 <_tbss_end+0x3a08>
    800023ee:	911a                	add	sp,sp,t1

00000000800023f0 <i00000002c5>:
    800023f0:	d022                	sw	s0,32(sp)
    800023f2:	4801                	li	a6,0
    800023f4:	c03d8753          	fcvt.lu.s	a4,fs11,rne
    800023f8:	23e30fd3          	fsgnj.d	ft11,ft6,ft10
    800023fc:	09f12c2f          	amoswap.w	s8,t6,(sp)
    80002400:	e2048753          	fmv.x.d	a4,fs1
    80002404:	90015183          	lhu	gp,-1792(sp)
    80002408:	02e754bb          	divuw	s1,a4,a4
    8000240c:	c0be                	sw	a5,64(sp)

000000008000240e <b00000002c6>:
    8000240e:	00000033          	add	zero,zero,zero
    80002412:	030a8663          	beq	s5,a6,8000243e <i00000002cb>
    80002416:	00000033          	add	zero,zero,zero
    8000241a:	9c81                	subw	s1,s1,s0
    8000241c:	0279f7b3          	remu	a5,s3,t2
    80002420:	0472                	sll	s0,s0,0x1c
    80002422:	0ff0000f          	fence
    80002426:	6001372f          	amoand.d	a4,zero,(sp)
    8000242a:	103c                	add	a5,sp,40
    8000242c:	0ac4                	add	s1,sp,340
    8000242e:	4aa9                	li	s5,10

0000000080002430 <i00000002c6>:
    80002430:	6c12                	ld	s8,256(sp)

0000000080002432 <i00000002c7>:
    80002432:	3bb50513          	add	a0,a0,955

0000000080002436 <i00000002c8>:
    80002436:	7161                	add	sp,sp,-432

0000000080002438 <i00000002c9>:
    80002438:	a0ba                	fsd	fa4,64(sp)

000000008000243a <i00000002ca>:
    8000243a:	0079fbb3          	and	s7,s3,t2

000000008000243e <i00000002cb>:
    8000243e:	f13fd0ef          	jal	80000350 <func1>

0000000080002442 <i00000002cc>:
    80002442:	4d86                	lw	s11,64(sp)

0000000080002444 <i00000002cd>:
    80002444:	84ad                	sra	s1,s1,0xb

0000000080002446 <i00000002ce>:
    80002446:	8d19                	sub	a0,a0,a4

0000000080002448 <i00000002cf>:
    80002448:	1acc                	add	a1,sp,372

000000008000244a <i00000002d0>:
    8000244a:	00c79513          	sll	a0,a5,0xc
    8000244e:	4eb1                	li	t4,12
    80002450:	0a85                	add	s5,s5,1
    80002452:	d2140153          	fcvt.d.wu	ft2,s0
    80002456:	7111                	add	sp,sp,-256
    80002458:	88713823          	sd	t2,-1904(sp)
    8000245c:	acae                	fsd	fa1,88(sp)
    8000245e:	6081282f          	amoand.w	a6,s0,(sp)
    80002462:	77e6                	ld	a5,120(sp)
    80002464:	000cd71b          	srlw	a4,s9,0x0

0000000080002468 <b00000002d1>:
    80002468:	01da8863          	beq	s5,t4,80002478 <b00000002d1+0x10>
    8000246c:	00000e97          	auipc	t4,0x0
    80002470:	fd6e8e93          	add	t4,t4,-42 # 80002442 <i00000002cc>
    80002474:	000e8567          	jalr	a0,t4
    80002478:	4aa9                	li	s5,10
    8000247a:	0000100f          	fence.i
    8000247e:	95b13427          	fsd	fs11,-1720(sp)
    80002482:	08f121af          	amoswap.w	gp,a5,(sp)
    80002486:	09472dd3          	fsub.s	fs11,fa4,fs4,rdn
    8000248a:	0297c433          	div	s0,a5,s1
    8000248e:	c02e84d3          	fcvt.l.s	s1,ft9,rne
    80002492:	34a6                	fld	fs1,104(sp)

0000000080002494 <i00000002d1>:
    80002494:	18c8                	add	a0,sp,116

0000000080002496 <i00000002d2>:
    80002496:	664d                	lui	a2,0x13

0000000080002498 <i00000002d3>:
    80002498:	6522                	ld	a0,8(sp)

000000008000249a <i00000002d4>:
    8000249a:	80d5                	srl	s1,s1,0x15

000000008000249c <i00000002d5>:
    8000249c:	ec32                	sd	a2,24(sp)

000000008000249e <i00000002d6>:
    8000249e:	bdc2                	fsd	fa6,248(sp)

00000000800024a0 <i00000002d7>:
    800024a0:	a462                	fsd	fs8,8(sp)
    800024a2:	000de117          	auipc	sp,0xde
    800024a6:	b5e10113          	add	sp,sp,-1186 # 800e0000 <begin_signature>
    800024aa:	631d                	lui	t1,0x7
    800024ac:	f683031b          	addw	t1,t1,-152 # 6f68 <_tbss_end+0x6f68>
    800024b0:	911a                	add	sp,sp,t1

00000000800024b2 <i00000002d8>:
    800024b2:	b826                	fsd	fs1,48(sp)
    800024b4:	000de117          	auipc	sp,0xde
    800024b8:	b4c10113          	add	sp,sp,-1204 # 800e0000 <begin_signature>
    800024bc:	633d                	lui	t1,0xf
    800024be:	b783031b          	addw	t1,t1,-1160 # eb78 <_tbss_end+0xeb78>
    800024c2:	911a                	add	sp,sp,t1

00000000800024c4 <i00000002d9>:
    800024c4:	c426                	sw	s1,8(sp)

00000000800024c6 <i00000002da>:
    800024c6:	a122                	fsd	fs0,128(sp)
    800024c8:	000de117          	auipc	sp,0xde
    800024cc:	b3810113          	add	sp,sp,-1224 # 800e0000 <begin_signature>
    800024d0:	6321                	lui	t1,0x8
    800024d2:	5f03031b          	addw	t1,t1,1520 # 85f0 <_tbss_end+0x85f0>
    800024d6:	911a                	add	sp,sp,t1
    800024d8:	00a75493          	srl	s1,a4,0xa
    800024dc:	09812a2f          	amoswap.w	s4,s8,(sp)
    800024e0:	9fa5                	addw	a5,a5,s1
    800024e2:	0ff0000f          	fence
    800024e6:	0998                	add	a4,sp,208
    800024e8:	82416d83          	lwu	s11,-2012(sp)
    800024ec:	c03684d3          	fcvt.lu.s	s1,fa3,rne

00000000800024f0 <b00000002db>:
    800024f0:	00000d17          	auipc	s10,0x0
    800024f4:	040d0d13          	add	s10,s10,64 # 80002530 <i00000002e0>
    800024f8:	000d0067          	jr	s10
    800024fc:	1af5f4d3          	fdiv.d	fs1,fa1,fa5
    80002500:	c23ef9d3          	fcvt.lu.d	s3,ft9
    80002504:	00f127af          	amoadd.w	a5,a5,(sp)
    80002508:	c03b07d3          	fcvt.lu.s	a5,fs6,rne
    8000250c:	0000100f          	fence.i
    80002510:	02e704bb          	mulw	s1,a4,a4
    80002514:	a83a                	fsd	fa4,16(sp)

0000000080002516 <i00000002db>:
    80002516:	da3a                	sw	a4,52(sp)

0000000080002518 <i00000002dc>:
    80002518:	6646                	ld	a2,80(sp)
    8000251a:	000de117          	auipc	sp,0xde
    8000251e:	ae610113          	add	sp,sp,-1306 # 800e0000 <begin_signature>
    80002522:	6339                	lui	t1,0xe
    80002524:	0b83031b          	addw	t1,t1,184 # e0b8 <_tbss_end+0xe0b8>
    80002528:	911a                	add	sp,sp,t1

000000008000252a <i00000002dd>:
    8000252a:	64a6                	ld	s1,72(sp)

000000008000252c <i00000002de>:
    8000252c:	8fd1                	or	a5,a5,a2

000000008000252e <i00000002df>:
    8000252e:	a45a                	fsd	fs6,8(sp)

0000000080002530 <i00000002e0>:
    80002530:	c2da                	sw	s6,68(sp)

0000000080002532 <i00000002e1>:
    80002532:	8a9d                	and	a3,a3,7

0000000080002534 <i00000002e2>:
    80002534:	8aa1                	and	a3,a3,8

0000000080002536 <i00000002e3>:
    80002536:	7179                	add	sp,sp,-48

0000000080002538 <i00000002e4>:
    80002538:	00487a33          	and	s4,a6,tp
    8000253c:	4929                	li	s2,10
    8000253e:	a164a4d3          	feq.s	s1,fs1,fs6
    80002542:	016247b3          	xor	a5,tp,s6
    80002546:	20f1242f          	amoxor.w	s0,a5,(sp)
    8000254a:	bc3a                	fsd	fa4,56(sp)
    8000254c:	6165                	add	sp,sp,112
    8000254e:	5452                	lw	s0,52(sp)
    80002550:	ab314703          	lbu	a4,-1357(sp)

0000000080002554 <b00000002e5>:
    80002554:	012a8463          	beq	s5,s2,8000255c <b00000002e5+0x8>
    80002558:	fd9ff06f          	j	80002530 <i00000002e0>
    8000255c:	4aa9                	li	s5,10
    8000255e:	070a                	sll	a4,a4,0x2
    80002560:	5fc6                	lw	t6,112(sp)
    80002562:	0416                	sll	s0,s0,0x5
    80002564:	6c66                	ld	s8,88(sp)
    80002566:	a3b4a4d3          	feq.d	s1,fs1,fs11
    8000256a:	f20c0dd3          	fmv.d.x	fs11,s8
    8000256e:	020e6d3b          	remw	s10,t3,zero

0000000080002572 <i00000002e5>:
    80002572:	b0a6                	fsd	fs1,96(sp)

0000000080002574 <i00000002e6>:
    80002574:	7d26                	ld	s10,104(sp)

0000000080002576 <i00000002e7>:
    80002576:	5675                	li	a2,-3

0000000080002578 <i00000002e8>:
    80002578:	8e31                	xor	a2,a2,a2
    8000257a:	000de117          	auipc	sp,0xde
    8000257e:	a8610113          	add	sp,sp,-1402 # 800e0000 <begin_signature>
    80002582:	6305                	lui	t1,0x1
    80002584:	0b03031b          	addw	t1,t1,176 # 10b0 <_tbss_end+0x10b0>
    80002588:	911a                	add	sp,sp,t1

000000008000258a <i00000002e9>:
    8000258a:	67ee                	ld	a5,216(sp)

000000008000258c <i00000002ea>:
    8000258c:	e83e                	sd	a5,16(sp)

000000008000258e <i00000002eb>:
    8000258e:	2b2e                	fld	fs6,200(sp)
    80002590:	000de117          	auipc	sp,0xde
    80002594:	a7010113          	add	sp,sp,-1424 # 800e0000 <begin_signature>
    80002598:	6331                	lui	t1,0xc
    8000259a:	2183031b          	addw	t1,t1,536 # c218 <_tbss_end+0xc218>
    8000259e:	911a                	add	sp,sp,t1

00000000800025a0 <i00000002ec>:
    800025a0:	fd32                	sd	a2,184(sp)

00000000800025a2 <i00000002ed>:
    800025a2:	d45e                	sw	s7,40(sp)

00000000800025a4 <i00000002ee>:
    800025a4:	9481                	sra	s1,s1,0x20
    800025a6:	4981                	li	s3,0
    800025a8:	000de117          	auipc	sp,0xde
    800025ac:	a5810113          	add	sp,sp,-1448 # 800e0000 <begin_signature>
    800025b0:	6309                	lui	t1,0x2
    800025b2:	b703031b          	addw	t1,t1,-1168 # 1b70 <_tbss_end+0x1b70>
    800025b6:	911a                	add	sp,sp,t1
    800025b8:	01191dbb          	sllw	s11,s2,a7
    800025bc:	03420733          	mul	a4,tp,s4
    800025c0:	e2f11523          	sh	a5,-470(sp)
    800025c4:	012b9793          	sll	a5,s7,0x12
    800025c8:	d22072d3          	fcvt.d.l	ft5,zero
    800025cc:	67ce                	ld	a5,208(sp)
    800025ce:	f0a6                	sd	s1,96(sp)

00000000800025d0 <b00000002ef>:
    800025d0:	00000033          	add	zero,zero,zero
    800025d4:	033a8763          	beq	s5,s3,80002602 <i00000002f4>
    800025d8:	00000033          	add	zero,zero,zero
    800025dc:	60313baf          	amoand.d	s7,gp,(sp)
    800025e0:	02f72033          	mulhsu	zero,a4,a5
    800025e4:	e14124af          	amomaxu.w	s1,s4,(sp)
    800025e8:	296b11d3          	fmax.s	ft3,fs6,fs6
    800025ec:	c11134af          	amominu.d	s1,a7,(sp)
    800025f0:	7dc6                	ld	s11,112(sp)
    800025f2:	11dc                	add	a5,sp,228
    800025f4:	4aa9                	li	s5,10

00000000800025f6 <i00000002ef>:
    800025f6:	4a464193          	xor	gp,a2,1188

00000000800025fa <i00000002f0>:
    800025fa:	c092                	sw	tp,64(sp)

00000000800025fc <i00000002f1>:
    800025fc:	06ca                	sll	a3,a3,0x12

00000000800025fe <i00000002f2>:
    800025fe:	6daa                	ld	s11,136(sp)

0000000080002600 <i00000002f3>:
    80002600:	9eb9                	addw	a3,a3,a4

0000000080002602 <i00000002f4>:
    80002602:	5662                	lw	a2,56(sp)

0000000080002604 <i00000002f5>:
    80002604:	8eb1                	xor	a3,a3,a2

0000000080002606 <i00000002f6>:
    80002606:	3619                	addw	a2,a2,-26 # 12fe6 <_tbss_end+0x12fe6>

0000000080002608 <i00000002f7>:
    80002608:	2b02                	fld	fs6,0(sp)

000000008000260a <i00000002f8>:
    8000260a:	b9da                	fsd	fs6,240(sp)
    8000260c:	8e7c6713          	or	a4,s8,-1817
    80002610:	0ff0000f          	fence
    80002614:	4b812c83          	lw	s9,1208(sp)
    80002618:	03f45e3b          	divuw	t3,s0,t6
    8000261c:	a1bb24d3          	feq.s	s1,fs6,fs11
    80002620:	0361e8bb          	remw	a7,gp,s6
    80002624:	7121                	add	sp,sp,-448

0000000080002626 <b00000002f9>:
    80002626:	00000817          	auipc	a6,0x0
    8000262a:	03280813          	add	a6,a6,50 # 80002658 <i00000002fe>
    8000262e:	00080067          	jr	a6
    80002632:	d03d9dd3          	fcvt.s.lu	fs11,s11,rtz
    80002636:	8a912227          	fsw	fs1,-1884(sp)
    8000263a:	0288d433          	divu	s0,a7,s0
    8000263e:	55013d83          	ld	s11,1360(sp)
    80002642:	aaf13023          	sd	a5,-1376(sp)
    80002646:	3429                	addw	s0,s0,-22
    80002648:	79210783          	lb	a5,1938(sp)

000000008000264c <i00000002f9>:
    8000264c:	82950293          	add	t0,a0,-2007

0000000080002650 <i00000002fa>:
    80002650:	75a2                	ld	a1,40(sp)

0000000080002652 <i00000002fb>:
    80002652:	02c8                	add	a0,sp,324

0000000080002654 <i00000002fc>:
    80002654:	346d                	addw	s0,s0,-5

0000000080002656 <i00000002fd>:
    80002656:	8d05                	sub	a0,a0,s1

0000000080002658 <i00000002fe>:
    80002658:	34c6                	fld	fs1,112(sp)
    8000265a:	000de117          	auipc	sp,0xde
    8000265e:	9a610113          	add	sp,sp,-1626 # 800e0000 <begin_signature>
    80002662:	632d                	lui	t1,0xb
    80002664:	7d03031b          	addw	t1,t1,2000 # b7d0 <_tbss_end+0xb7d0>
    80002668:	911a                	add	sp,sp,t1

000000008000266a <i00000002ff>:
    8000266a:	ce3e                	sw	a5,28(sp)

000000008000266c <i0000000300>:
    8000266c:	6646                	ld	a2,80(sp)

000000008000266e <i0000000301>:
    8000266e:	043d                	add	s0,s0,15

0000000080002670 <i0000000302>:
    80002670:	ac26                	fsd	fs1,24(sp)
    80002672:	4b2d                	li	s6,11
    80002674:	0a85                	add	s5,s5,1
    80002676:	000de117          	auipc	sp,0xde
    8000267a:	98a10113          	add	sp,sp,-1654 # 800e0000 <begin_signature>
    8000267e:	6331                	lui	t1,0xc
    80002680:	8703031b          	addw	t1,t1,-1936 # b870 <_tbss_end+0xb870>
    80002684:	911a                	add	sp,sp,t1
    80002686:	000de117          	auipc	sp,0xde
    8000268a:	97a10113          	add	sp,sp,-1670 # 800e0000 <begin_signature>
    8000268e:	632d                	lui	t1,0xb
    80002690:	dd03031b          	addw	t1,t1,-560 # add0 <_tbss_end+0xadd0>
    80002694:	911a                	add	sp,sp,t1
    80002696:	c003ca53          	fcvt.w.s	s4,ft7,rmm
    8000269a:	a09139af          	amomax.d	s3,s1,(sp)
    8000269e:	60e139af          	amoand.d	s3,a4,(sp)
    800026a2:	08f12baf          	amoswap.w	s7,a5,(sp)
    800026a6:	7ee10f83          	lb	t6,2030(sp)
    800026aa:	f1e6                	sd	s9,224(sp)
    800026ac:	014fb4b3          	sltu	s1,t6,s4

00000000800026b0 <b0000000303>:
    800026b0:	00000033          	add	zero,zero,zero
    800026b4:	fb6a82e3          	beq	s5,s6,80002658 <i00000002fe>
    800026b8:	00000033          	add	zero,zero,zero
    800026bc:	2b26                	fld	fs6,72(sp)
    800026be:	0000100f          	fence.i
    800026c2:	59d73717          	auipc	a4,0x59d73
    800026c6:	8f611f83          	lh	t6,-1802(sp)
    800026ca:	00e4dd33          	srl	s10,s1,a4
    800026ce:	69013783          	ld	a5,1680(sp)
    800026d2:	02e72fb3          	mulhsu	t6,a4,a4
    800026d6:	4aa9                	li	s5,10

00000000800026d8 <i0000000303>:
    800026d8:	c8de                	sw	s7,80(sp)

00000000800026da <i0000000304>:
    800026da:	46d2                	lw	a3,20(sp)

00000000800026dc <i0000000305>:
    800026dc:	8cc5                	or	s1,s1,s1

00000000800026de <i0000000306>:
    800026de:	1298                	add	a4,sp,352

00000000800026e0 <i0000000307>:
    800026e0:	e132                	sd	a2,128(sp)

00000000800026e2 <i0000000308>:
    800026e2:	7131                	add	sp,sp,-192

00000000800026e4 <i0000000309>:
    800026e4:	fc32                	sd	a2,56(sp)

00000000800026e6 <i000000030a>:
    800026e6:	7175                	add	sp,sp,-144

00000000800026e8 <i000000030b>:
    800026e8:	4e46                	lw	t3,80(sp)

00000000800026ea <i000000030c>:
    800026ea:	e42a                	sd	a0,8(sp)
    800026ec:	00e128af          	amoadd.w	a7,a4,(sp)
    800026f0:	0294e4bb          	remw	s1,s1,s1
    800026f4:	14912423          	sw	s1,328(sp)
    800026f8:	809e4713          	xor	a4,t3,-2039
    800026fc:	3fb77493          	and	s1,a4,1019
    80002700:	e0813e2f          	amomaxu.d	t3,s0,(sp)
    80002704:	21bd8dd3          	fmv.s	fs11,fs11

0000000080002708 <b000000030d>:
    80002708:	00000f97          	auipc	t6,0x0
    8000270c:	02ef8f93          	add	t6,t6,46 # 80002736 <i0000000312>
    80002710:	000f8067          	jr	t6
    80002714:	c0e13a2f          	amominu.d	s4,a4,(sp)
    80002718:	037dc733          	div	a4,s11,s7
    8000271c:	48c2                	lw	a7,16(sp)
    8000271e:	fff6                	sd	t4,504(sp)
    80002720:	014bb1b3          	sltu	gp,s7,s4
    80002724:	d03dc253          	fcvt.s.lu	ft4,s11,rmm
    80002728:	40e12eaf          	amoor.w	t4,a4,(sp)

000000008000272c <i000000030d>:
    8000272c:	13ec                	add	a1,sp,492

000000008000272e <i000000030e>:
    8000272e:	37f5                	addw	a5,a5,-3

0000000080002730 <i000000030f>:
    80002730:	8d31                	xor	a0,a0,a2

0000000080002732 <i0000000310>:
    80002732:	9f15                	subw	a4,a4,a3

0000000080002734 <i0000000311>:
    80002734:	f422                	sd	s0,40(sp)

0000000080002736 <i0000000312>:
    80002736:	4526                	lw	a0,72(sp)

0000000080002738 <i0000000313>:
    80002738:	4562                	lw	a0,24(sp)

000000008000273a <i0000000314>:
    8000273a:	e032                	sd	a2,0(sp)

000000008000273c <i0000000315>:
    8000273c:	07fe                	sll	a5,a5,0x1f

000000008000273e <i0000000316>:
    8000273e:	5efd2f93          	slti	t6,s10,1519
    80002742:	4c29                	li	s8,10
    80002744:	000de117          	auipc	sp,0xde
    80002748:	8bc10113          	add	sp,sp,-1860 # 800e0000 <begin_signature>
    8000274c:	6305                	lui	t1,0x1
    8000274e:	a883031b          	addw	t1,t1,-1400 # a88 <_tbss_end+0xa88>
    80002752:	911a                	add	sp,sp,t1
    80002754:	0d5dbc93          	sltiu	s9,s11,213
    80002758:	36e2                	fld	fa3,56(sp)
    8000275a:	21bd8dd3          	fmv.s	fs11,fs11
    8000275e:	d0207dd3          	fcvt.s.l	fs11,zero
    80002762:	8071                	srl	s0,s0,0x1c
    80002764:	d02d44d3          	fcvt.s.l	fs1,s10,rmm
    80002768:	4074de1b          	sraw	t3,s1,0x7

000000008000276c <b0000000317>:
    8000276c:	018a8863          	beq	s5,s8,8000277c <b0000000317+0x10>
    80002770:	00000c17          	auipc	s8,0x0
    80002774:	fc6c0c13          	add	s8,s8,-58 # 80002736 <i0000000312>
    80002778:	000c0067          	jr	s8
    8000277c:	4aa9                	li	s5,10
    8000277e:	0297fbbb          	remuw	s7,a5,s1
    80002782:	4064db9b          	sraw	s7,s1,0x6
    80002786:	c16127af          	amominu.w	a5,s6,(sp)
    8000278a:	64812b83          	lw	s7,1608(sp)
    8000278e:	df614483          	lbu	s1,-522(sp)
    80002792:	0ff0000f          	fence
    80002796:	d2387a53          	fcvt.d.lu	fs4,a6

000000008000279a <i0000000317>:
    8000279a:	8c09                	sub	s0,s0,a0

000000008000279c <i0000000318>:
    8000279c:	712d                	add	sp,sp,-288

000000008000279e <i0000000319>:
    8000279e:	e0be                	sd	a5,64(sp)
    800027a0:	000de117          	auipc	sp,0xde
    800027a4:	86010113          	add	sp,sp,-1952 # 800e0000 <begin_signature>
    800027a8:	6311                	lui	t1,0x4
    800027aa:	7983031b          	addw	t1,t1,1944 # 4798 <_tbss_end+0x4798>
    800027ae:	911a                	add	sp,sp,t1

00000000800027b0 <i000000031a>:
    800027b0:	4612                	lw	a2,4(sp)

00000000800027b2 <i000000031b>:
    800027b2:	8c1d                	sub	s0,s0,a5
    800027b4:	000de117          	auipc	sp,0xde
    800027b8:	84c10113          	add	sp,sp,-1972 # 800e0000 <begin_signature>
    800027bc:	631d                	lui	t1,0x7
    800027be:	3d83031b          	addw	t1,t1,984 # 73d8 <_tbss_end+0x73d8>
    800027c2:	911a                	add	sp,sp,t1

00000000800027c4 <i000000031c>:
    800027c4:	fc3e                	sd	a5,56(sp)

00000000800027c6 <i000000031d>:
    800027c6:	a824ce13          	xor	t3,s1,-1406

00000000800027ca <i000000031e>:
    800027ca:	7101                	add	sp,sp,-512

00000000800027cc <i000000031f>:
    800027cc:	9817e813          	or	a6,a5,-1663

00000000800027d0 <i0000000320>:
    800027d0:	b81fd0ef          	jal	80000350 <func1>

00000000800027d4 <i0000000321>:
    800027d4:	5669                	li	a2,-6
    800027d6:	4db1                	li	s11,12
    800027d8:	4aa9                	li	s5,10
    800027da:	000de117          	auipc	sp,0xde
    800027de:	82610113          	add	sp,sp,-2010 # 800e0000 <begin_signature>
    800027e2:	6321                	lui	t1,0x8
    800027e4:	de03031b          	addw	t1,t1,-544 # 7de0 <_tbss_end+0x7de0>
    800027e8:	911a                	add	sp,sp,t1
    800027ea:	000c84bb          	addw	s1,s9,zero
    800027ee:	02f7c23b          	divw	tp,a5,a5
    800027f2:	0ff0000f          	fence
    800027f6:	d037a4d3          	fcvt.s.lu	fs1,a5,rdn
    800027fa:	f00b01d3          	fmv.w.x	ft3,s6
    800027fe:	271d                	addw	a4,a4,7 # ffffffffd9d756c9 <_end+0xffffffff59c82dc8>
    80002800:	e6e11703          	lh	a4,-402(sp)

0000000080002804 <b0000000322>:
    80002804:	00000033          	add	zero,zero,zero
    80002808:	03bac563          	blt	s5,s11,80002832 <i0000000327>
    8000280c:	00000033          	add	zero,zero,zero
    80002810:	6121                	add	sp,sp,64
    80002812:	77c2                	ld	a5,48(sp)
    80002814:	8cfd                	and	s1,s1,a5
    80002816:	f83a                	sd	a4,48(sp)
    80002818:	bc012707          	flw	fa4,-1088(sp)
    8000281c:	1860                	add	s0,sp,60
    8000281e:	c03dfed3          	fcvt.lu.s	t4,fs11
    80002822:	4aa9                	li	s5,10

0000000080002824 <i0000000322>:
    80002824:	dd860613          	add	a2,a2,-552

0000000080002828 <i0000000323>:
    80002828:	8431                	sra	s0,s0,0xc

000000008000282a <i0000000324>:
    8000282a:	bc92                	fsd	ft4,120(sp)

000000008000282c <i0000000325>:
    8000282c:	4ee6                	lw	t4,88(sp)

000000008000282e <i0000000326>:
    8000282e:	238ded97          	auipc	s11,0x238de

0000000080002832 <i0000000327>:
    80002832:	6666                	ld	a2,88(sp)

0000000080002834 <i0000000328>:
    80002834:	817d                	srl	a0,a0,0x1f

0000000080002836 <i0000000329>:
    80002836:	8dc1                	or	a1,a1,s0
    80002838:	000dd117          	auipc	sp,0xdd
    8000283c:	7c810113          	add	sp,sp,1992 # 800e0000 <begin_signature>
    80002840:	6321                	lui	t1,0x8
    80002842:	9403031b          	addw	t1,t1,-1728 # 7940 <_tbss_end+0x7940>
    80002846:	911a                	add	sp,sp,t1

0000000080002848 <i000000032a>:
    80002848:	3782                	fld	fa5,32(sp)
    8000284a:	000dd117          	auipc	sp,0xdd
    8000284e:	7b610113          	add	sp,sp,1974 # 800e0000 <begin_signature>
    80002852:	6305                	lui	t1,0x1
    80002854:	1203031b          	addw	t1,t1,288 # 1120 <_tbss_end+0x1120>
    80002858:	911a                	add	sp,sp,t1

000000008000285a <i000000032b>:
    8000285a:	c46e                	sw	s11,8(sp)
    8000285c:	4a31                	li	s4,12
    8000285e:	0a85                	add	s5,s5,1
    80002860:	000dd117          	auipc	sp,0xdd
    80002864:	7a010113          	add	sp,sp,1952 # 800e0000 <begin_signature>
    80002868:	6331                	lui	t1,0xc
    8000286a:	b583031b          	addw	t1,t1,-1192 # bb58 <_tbss_end+0xbb58>
    8000286e:	911a                	add	sp,sp,t1
    80002870:	000dd117          	auipc	sp,0xdd
    80002874:	79010113          	add	sp,sp,1936 # 800e0000 <begin_signature>
    80002878:	6325                	lui	t1,0x9
    8000287a:	7503031b          	addw	t1,t1,1872 # 9750 <_tbss_end+0x9750>
    8000287e:	911a                	add	sp,sp,t1
    80002880:	34e6                	fld	fs1,120(sp)
    80002882:	c23579d3          	fcvt.lu.d	s3,fa0
    80002886:	b126                	fsd	fs1,160(sp)
    80002888:	0ff0000f          	fence
    8000288c:	6742                	ld	a4,16(sp)
    8000288e:	8c41                	or	s0,s0,s0
    80002890:	03a864bb          	remw	s1,a6,s10

0000000080002894 <b000000032c>:
    80002894:	00000033          	add	zero,zero,zero
    80002898:	f94a9de3          	bne	s5,s4,80002832 <i0000000327>
    8000289c:	00000033          	add	zero,zero,zero
    800028a0:	00e7d813          	srl	a6,a5,0xe
    800028a4:	02e76433          	rem	s0,a4,a4
    800028a8:	a26f2853          	feq.d	a6,ft10,ft6
    800028ac:	d0382dd3          	fcvt.s.lu	fs11,a6,rdn
    800028b0:	50412d83          	lw	s11,1284(sp)
    800028b4:	029787bb          	mulw	a5,a5,s1
    800028b8:	c2317953          	fcvt.lu.d	s2,ft2
    800028bc:	4aa9                	li	s5,10
    800028be:	000dd117          	auipc	sp,0xdd
    800028c2:	74210113          	add	sp,sp,1858 # 800e0000 <begin_signature>
    800028c6:	6331                	lui	t1,0xc
    800028c8:	2183031b          	addw	t1,t1,536 # c218 <_tbss_end+0xc218>
    800028cc:	911a                	add	sp,sp,t1

00000000800028ce <i000000032c>:
    800028ce:	f416                	sd	t0,40(sp)
    800028d0:	000dd117          	auipc	sp,0xdd
    800028d4:	73010113          	add	sp,sp,1840 # 800e0000 <begin_signature>
    800028d8:	6305                	lui	t1,0x1
    800028da:	8483031b          	addw	t1,t1,-1976 # 848 <_tbss_end+0x848>
    800028de:	911a                	add	sp,sp,t1

00000000800028e0 <i000000032d>:
    800028e0:	4612                	lw	a2,4(sp)

00000000800028e2 <i000000032e>:
    800028e2:	638b8513          	add	a0,s7,1592

00000000800028e6 <i000000032f>:
    800028e6:	8fe5                	and	a5,a5,s1

00000000800028e8 <i0000000330>:
    800028e8:	199c                	add	a5,sp,240

00000000800028ea <i0000000331>:
    800028ea:	5c42                	lw	s8,48(sp)

00000000800028ec <i0000000332>:
    800028ec:	4e7687b7          	lui	a5,0x4e768

00000000800028f0 <i0000000333>:
    800028f0:	87d2                	mv	a5,s4

00000000800028f2 <i0000000334>:
    800028f2:	9bbd                	and	a5,a5,-17

00000000800028f4 <i0000000335>:
    800028f4:	2486                	fld	fs1,64(sp)
    800028f6:	4fb1                	li	t6,12
    800028f8:	0a85                	add	s5,s5,1
    800028fa:	0ff0000f          	fence
    800028fe:	3682                	fld	fa3,32(sp)
    80002900:	01a1222f          	amoadd.w	tp,s10,(sp)
    80002904:	0756                	sll	a4,a4,0x15
    80002906:	0097ce33          	xor	t3,a5,s1
    8000290a:	e0912daf          	amomaxu.w	s11,s1,(sp)
    8000290e:	c02b0d53          	fcvt.l.s	s10,fs6,rne

0000000080002912 <b0000000336>:
    80002912:	01fa8863          	beq	s5,t6,80002922 <b0000000336+0x10>
    80002916:	00000f97          	auipc	t6,0x0
    8000291a:	fd4f8f93          	add	t6,t6,-44 # 800028ea <i0000000331>
    8000291e:	000f8567          	jalr	a0,t6
    80002922:	4aa9                	li	s5,10
    80002924:	0000100f          	fence.i
    80002928:	ce4e                	sw	s3,28(sp)
    8000292a:	0ff0000f          	fence
    8000292e:	d0349353          	fcvt.s.lu	ft6,s1,rtz
    80002932:	58e13823          	sd	a4,1424(sp)
    80002936:	5489                	li	s1,-30
    80002938:	0000100f          	fence.i

000000008000293c <i0000000336>:
    8000293c:	a426                	fsd	fs1,8(sp)

000000008000293e <i0000000337>:
    8000293e:	92c6                	add	t0,t0,a7

0000000080002940 <i0000000338>:
    80002940:	3742                	fld	fa4,48(sp)

0000000080002942 <i0000000339>:
    80002942:	042e                	sll	s0,s0,0xb
    80002944:	000dd117          	auipc	sp,0xdd
    80002948:	6bc10113          	add	sp,sp,1724 # 800e0000 <begin_signature>
    8000294c:	633d                	lui	t1,0xf
    8000294e:	2f03031b          	addw	t1,t1,752 # f2f0 <_tbss_end+0xf2f0>
    80002952:	911a                	add	sp,sp,t1

0000000080002954 <i000000033a>:
    80002954:	2662                	fld	fa2,24(sp)

0000000080002956 <i000000033b>:
    80002956:	7766                	ld	a4,120(sp)

0000000080002958 <i000000033c>:
    80002958:	3506                	fld	fa0,96(sp)

000000008000295a <i000000033d>:
    8000295a:	13b8                	add	a4,sp,488

000000008000295c <i000000033e>:
    8000295c:	9c95                	subw	s1,s1,a3

000000008000295e <i000000033f>:
    8000295e:	8f91                	sub	a5,a5,a2
    80002960:	4d31                	li	s10,12
    80002962:	4aa9                	li	s5,10
    80002964:	000dd117          	auipc	sp,0xdd
    80002968:	69c10113          	add	sp,sp,1692 # 800e0000 <begin_signature>
    8000296c:	632d                	lui	t1,0xb
    8000296e:	c483031b          	addw	t1,t1,-952 # ac48 <_tbss_end+0xac48>
    80002972:	911a                	add	sp,sp,t1
    80002974:	000dd117          	auipc	sp,0xdd
    80002978:	68c10113          	add	sp,sp,1676 # 800e0000 <begin_signature>
    8000297c:	6311                	lui	t1,0x4
    8000297e:	a383031b          	addw	t1,t1,-1480 # 3a38 <_tbss_end+0x3a38>
    80002982:	911a                	add	sp,sp,t1
    80002984:	033184bb          	mulw	s1,gp,s3
    80002988:	00e77033          	and	zero,a4,a4
    8000298c:	009748b3          	xor	a7,a4,s1
    80002990:	20e13b2f          	amoxor.d	s6,a4,(sp)
    80002994:	7466                	ld	s0,120(sp)
    80002996:	0060                	add	s0,sp,12
    80002998:	020243bb          	divw	t2,tp,zero

000000008000299c <b0000000340>:
    8000299c:	00000033          	add	zero,zero,zero
    800029a0:	03aac663          	blt	s5,s10,800029cc <i0000000345>
    800029a4:	00000033          	add	zero,zero,zero
    800029a8:	00e78fb3          	add	t6,a5,a4
    800029ac:	f176                	sd	t4,160(sp)
    800029ae:	018194bb          	sllw	s1,gp,s8
    800029b2:	7942                	ld	s2,48(sp)
    800029b4:	0373e4bb          	remw	s1,t2,s7
    800029b8:	20e13c2f          	amoxor.d	s8,a4,(sp)
    800029bc:	44a2                	lw	s1,8(sp)
    800029be:	4aa9                	li	s5,10

00000000800029c0 <i0000000340>:
    800029c0:	9f19                	subw	a4,a4,a4

00000000800029c2 <i0000000341>:
    800029c2:	a02e                	fsd	fa1,0(sp)

00000000800029c4 <i0000000342>:
    800029c4:	acaa                	fsd	fa0,88(sp)

00000000800029c6 <i0000000343>:
    800029c6:	01bce7b3          	or	a5,s9,s11

00000000800029ca <i0000000344>:
    800029ca:	6fe6                	ld	t6,88(sp)

00000000800029cc <i0000000345>:
    800029cc:	117c                	add	a5,sp,172

00000000800029ce <i0000000346>:
    800029ce:	64f5                	lui	s1,0x1d

00000000800029d0 <i0000000347>:
    800029d0:	9f31                	addw	a4,a4,a2
    800029d2:	000dd117          	auipc	sp,0xdd
    800029d6:	62e10113          	add	sp,sp,1582 # 800e0000 <begin_signature>
    800029da:	6335                	lui	t1,0xd
    800029dc:	8683031b          	addw	t1,t1,-1944 # c868 <_tbss_end+0xc868>
    800029e0:	911a                	add	sp,sp,t1

00000000800029e2 <i0000000348>:
    800029e2:	b42a                	fsd	fa0,40(sp)
    800029e4:	000dd117          	auipc	sp,0xdd
    800029e8:	61c10113          	add	sp,sp,1564 # 800e0000 <begin_signature>
    800029ec:	6321                	lui	t1,0x8
    800029ee:	e083031b          	addw	t1,t1,-504 # 7e08 <_tbss_end+0x7e08>
    800029f2:	911a                	add	sp,sp,t1

00000000800029f4 <i0000000349>:
    800029f4:	248a                	fld	fs1,128(sp)
    800029f6:	4b2d                	li	s6,11
    800029f8:	4aa9                	li	s5,10
    800029fa:	ce013403          	ld	s0,-800(sp)
    800029fe:	0054d713          	srl	a4,s1,0x5
    80002a02:	11e0                	add	s0,sp,236
    80002a04:	037fd1b3          	divu	gp,t6,s7
    80002a08:	0ff0000f          	fence
    80002a0c:	6105                	add	sp,sp,32
    80002a0e:	1141                	add	sp,sp,-16

0000000080002a10 <b000000034a>:
    80002a10:	00000033          	add	zero,zero,zero
    80002a14:	056a9563          	bne	s5,s6,80002a5e <i000000034f>
    80002a18:	00000033          	add	zero,zero,zero
    80002a1c:	f20d84d3          	fmv.d.x	fs1,s11
    80002a20:	da26                	sw	s1,52(sp)
    80002a22:	8cbd                	xor	s1,s1,a5
    80002a24:	013ed733          	srl	a4,t4,s3
    80002a28:	e0f12faf          	amomaxu.w	t6,a5,(sp)
    80002a2c:	8c3d                	xor	s0,s0,a5
    80002a2e:	0891342f          	amoswap.d	s0,s1,(sp)
    80002a32:	4aa9                	li	s5,10
    80002a34:	000dd117          	auipc	sp,0xdd
    80002a38:	5cc10113          	add	sp,sp,1484 # 800e0000 <begin_signature>
    80002a3c:	633d                	lui	t1,0xf
    80002a3e:	6003031b          	addw	t1,t1,1536 # f600 <_tbss_end+0xf600>
    80002a42:	911a                	add	sp,sp,t1

0000000080002a44 <i000000034a>:
    80002a44:	2746                	fld	fa4,80(sp)

0000000080002a46 <i000000034b>:
    80002a46:	64c2                	ld	s1,16(sp)

0000000080002a48 <i000000034c>:
    80002a48:	88b5                	and	s1,s1,13
    80002a4a:	000dd117          	auipc	sp,0xdd
    80002a4e:	5b610113          	add	sp,sp,1462 # 800e0000 <begin_signature>
    80002a52:	6311                	lui	t1,0x4
    80002a54:	5703031b          	addw	t1,t1,1392 # 4570 <_tbss_end+0x4570>
    80002a58:	911a                	add	sp,sp,t1

0000000080002a5a <i000000034d>:
    80002a5a:	6566                	ld	a0,88(sp)

0000000080002a5c <i000000034e>:
    80002a5c:	f426                	sd	s1,40(sp)

0000000080002a5e <i000000034f>:
    80002a5e:	e932                	sd	a2,144(sp)
    80002a60:	000dd117          	auipc	sp,0xdd
    80002a64:	5a010113          	add	sp,sp,1440 # 800e0000 <begin_signature>
    80002a68:	633d                	lui	t1,0xf
    80002a6a:	be03031b          	addw	t1,t1,-1056 # ebe0 <_tbss_end+0xebe0>
    80002a6e:	911a                	add	sp,sp,t1

0000000080002a70 <i0000000350>:
    80002a70:	ed3e                	sd	a5,152(sp)

0000000080002a72 <i0000000351>:
    80002a72:	9fba                	add	t6,t6,a4

0000000080002a74 <i0000000352>:
    80002a74:	34e2                	fld	fs1,56(sp)

0000000080002a76 <i0000000353>:
    80002a76:	8f6d                	and	a4,a4,a1
    80002a78:	4a2d                	li	s4,11
    80002a7a:	0a85                	add	s5,s5,1
    80002a7c:	7762                	ld	a4,56(sp)
    80002a7e:	2fae                	fld	ft11,200(sp)
    80002a80:	036ea4b3          	mulhsu	s1,t4,s6
    80002a84:	6165                	add	sp,sp,112
    80002a86:	40e7dcbb          	sraw	s9,a5,a4
    80002a8a:	032b07bb          	mulw	a5,s6,s2
    80002a8e:	9c81                	subw	s1,s1,s0

0000000080002a90 <b0000000354>:
    80002a90:	00000033          	add	zero,zero,zero
    80002a94:	fd4a85e3          	beq	s5,s4,80002a5e <i000000034f>
    80002a98:	00000033          	add	zero,zero,zero
    80002a9c:	e0248793          	add	a5,s1,-510 # 1ce02 <_tbss_end+0x1ce02>
    80002aa0:	0ff0000f          	fence
    80002aa4:	a294a7d3          	feq.d	a5,fs1,fs1
    80002aa8:	039b47b3          	div	a5,s6,s9
    80002aac:	6165                	add	sp,sp,112
    80002aae:	d03fb2d3          	fcvt.s.lu	ft5,t6,rup
    80002ab2:	7149                	add	sp,sp,-368
    80002ab4:	4aa9                	li	s5,10

0000000080002ab6 <i0000000354>:
    80002ab6:	24ee                	fld	fs1,216(sp)

0000000080002ab8 <i0000000355>:
    80002ab8:	08b8                	add	a4,sp,88

0000000080002aba <i0000000356>:
    80002aba:	7179                	add	sp,sp,-48

0000000080002abc <i0000000357>:
    80002abc:	5949                	li	s2,-14

0000000080002abe <i0000000358>:
    80002abe:	7119                	add	sp,sp,-128

0000000080002ac0 <i0000000359>:
    80002ac0:	2da6                	fld	fs11,72(sp)

0000000080002ac2 <i000000035a>:
    80002ac2:	9e1d                	subw	a2,a2,a5

0000000080002ac4 <i000000035b>:
    80002ac4:	88dfd0ef          	jal	80000350 <func1>

0000000080002ac8 <i000000035c>:
    80002ac8:	10e0                	add	s0,sp,108

0000000080002aca <i000000035d>:
    80002aca:	887fd0ef          	jal	80000350 <func1>

0000000080002ace <i000000035e>:
    80002ace:	00b448b3          	xor	a7,s0,a1

0000000080002ad2 <i000000035f>:
    80002ad2:	7165                	add	sp,sp,-400
    80002ad4:	4ea9                	li	t4,10
    80002ad6:	d01c4b53          	fcvt.s.wu	fs6,s8,rmm
    80002ada:	c23b77d3          	fcvt.lu.d	a5,fs6
    80002ade:	7442                	ld	s0,48(sp)
    80002ae0:	85b12827          	fsw	fs11,-1968(sp)
    80002ae4:	c026                	sw	s1,0(sp)
    80002ae6:	00e754bb          	srlw	s1,a4,a4
    80002aea:	407dd793          	sra	a5,s11,0x7

0000000080002aee <b0000000360>:
    80002aee:	01da8863          	beq	s5,t4,80002afe <b0000000360+0x10>
    80002af2:	00000e97          	auipc	t4,0x0
    80002af6:	fd2e8e93          	add	t4,t4,-46 # 80002ac4 <i000000035b>
    80002afa:	000e8067          	jr	t4
    80002afe:	4aa9                	li	s5,10
    80002b00:	1a811703          	lh	a4,424(sp)
    80002b04:	d223fb53          	fcvt.d.l	fs6,t2
    80002b08:	8349                	srl	a4,a4,0x12
    80002b0a:	7e3f8713          	add	a4,t6,2019
    80002b0e:	64d5                	lui	s1,0x15
    80002b10:	03218733          	mul	a4,gp,s2
    80002b14:	ac5a                	fsd	fs6,24(sp)

0000000080002b16 <i0000000360>:
    80002b16:	7149                	add	sp,sp,-368

0000000080002b18 <i0000000361>:
    80002b18:	260a                	fld	fa2,128(sp)

0000000080002b1a <i0000000362>:
    80002b1a:	3c364593          	xor	a1,a2,963

0000000080002b1e <i0000000363>:
    80002b1e:	7109                	add	sp,sp,-384

0000000080002b20 <i0000000364>:
    80002b20:	1110                	add	a2,sp,160

0000000080002b22 <i0000000365>:
    80002b22:	9f3d                	addw	a4,a4,a5

0000000080002b24 <i0000000366>:
    80002b24:	2606                	fld	fa2,64(sp)

0000000080002b26 <i0000000367>:
    80002b26:	01779893          	sll	a7,a5,0x17

0000000080002b2a <i0000000368>:
    80002b2a:	83e5                	srl	a5,a5,0x19

0000000080002b2c <i0000000369>:
    80002b2c:	09b4                	add	a3,sp,216
    80002b2e:	4dad                	li	s11,11
    80002b30:	4aa9                	li	s5,10
    80002b32:	093139af          	amoswap.d	s3,s3,(sp)
    80002b36:	034c8c3b          	mulw	s8,s9,s4
    80002b3a:	209484d3          	fmv.s	fs1,fs1
    80002b3e:	02e4c7bb          	divw	a5,s1,a4
    80002b42:	012134af          	amoadd.d	s1,s2,(sp)
    80002b46:	4e411e23          	sh	tp,1276(sp)
    80002b4a:	031ce033          	rem	zero,s9,a7

0000000080002b4e <b000000036a>:
    80002b4e:	00000033          	add	zero,zero,zero
    80002b52:	03ba9663          	bne	s5,s11,80002b7e <i000000036f>
    80002b56:	00000033          	add	zero,zero,zero
    80002b5a:	8ca1                	xor	s1,s1,s0
    80002b5c:	d239fb53          	fcvt.d.lu	fs6,s3
    80002b60:	f122                	sd	s0,160(sp)
    80002b62:	03094eb3          	div	t4,s2,a6
    80002b66:	680d                	lui	a6,0x3
    80002b68:	dc416b83          	lwu	s7,-572(sp)
    80002b6c:	8c99                	sub	s1,s1,a4
    80002b6e:	4aa9                	li	s5,10

0000000080002b70 <i000000036a>:
    80002b70:	eb774513          	xor	a0,a4,-329

0000000080002b74 <i000000036b>:
    80002b74:	d1c62793          	slti	a5,a2,-740

0000000080002b78 <i000000036c>:
    80002b78:	7171                	add	sp,sp,-176

0000000080002b7a <i000000036d>:
    80002b7a:	376e                	fld	fa4,248(sp)

0000000080002b7c <i000000036e>:
    80002b7c:	066a                	sll	a2,a2,0x1a

0000000080002b7e <i000000036f>:
    80002b7e:	9c29                	addw	s0,s0,a0

0000000080002b80 <i0000000370>:
    80002b80:	9d9d                	subw	a1,a1,a5

0000000080002b82 <i0000000371>:
    80002b82:	7ab1b513          	sltiu	a0,gp,1963

0000000080002b86 <i0000000372>:
    80002b86:	80a9                	srl	s1,s1,0xa

0000000080002b88 <i0000000373>:
    80002b88:	a86a                	fsd	fs10,16(sp)
    80002b8a:	4c29                	li	s8,10
    80002b8c:	000dd117          	auipc	sp,0xdd
    80002b90:	47410113          	add	sp,sp,1140 # 800e0000 <begin_signature>
    80002b94:	6335                	lui	t1,0xd
    80002b96:	8383031b          	addw	t1,t1,-1992 # c838 <_tbss_end+0xc838>
    80002b9a:	911a                	add	sp,sp,t1
    80002b9c:	00e494b3          	sll	s1,s1,a4
    80002ba0:	0294db33          	divu	s6,s1,s1
    80002ba4:	82912e23          	sw	s1,-1988(sp)
    80002ba8:	d0da                	sw	s6,96(sp)
    80002baa:	8772                	mv	a4,t3
    80002bac:	7ca15e83          	lhu	t4,1994(sp)
    80002bb0:	c034f753          	fcvt.lu.s	a4,fs1

0000000080002bb4 <b0000000374>:
    80002bb4:	018a8463          	beq	s5,s8,80002bbc <b0000000374+0x8>
    80002bb8:	fc7ff56f          	jal	a0,80002b7e <i000000036f>
    80002bbc:	4aa9                	li	s5,10
    80002bbe:	072a                	sll	a4,a4,0xa
    80002bc0:	0164949b          	sllw	s1,s1,0x16
    80002bc4:	107c                	add	a5,sp,44
    80002bc6:	8f21                	xor	a4,a4,s0
    80002bc8:	f8f13c23          	sd	a5,-104(sp)
    80002bcc:	c03a37d3          	fcvt.lu.s	a5,fs4,rup
    80002bd0:	7402                	ld	s0,32(sp)

0000000080002bd2 <i0000000374>:
    80002bd2:	0384                	add	s1,sp,448

0000000080002bd4 <i0000000375>:
    80002bd4:	83c9                	srl	a5,a5,0x12

0000000080002bd6 <i0000000376>:
    80002bd6:	0114                	add	a3,sp,128

0000000080002bd8 <i0000000377>:
    80002bd8:	9d91                	subw	a1,a1,a2

0000000080002bda <i0000000378>:
    80002bda:	2606                	fld	fa2,64(sp)

0000000080002bdc <i0000000379>:
    80002bdc:	9632                	add	a2,a2,a2

0000000080002bde <i000000037a>:
    80002bde:	9db5                	addw	a1,a1,a3

0000000080002be0 <i000000037b>:
    80002be0:	7105                	add	sp,sp,-480

0000000080002be2 <i000000037c>:
    80002be2:	8555                	sra	a0,a0,0x15

0000000080002be4 <i000000037d>:
    80002be4:	7129                	add	sp,sp,-320
    80002be6:	4da5                	li	s11,9
    80002be8:	4aa9                	li	s5,10
    80002bea:	000dd117          	auipc	sp,0xdd
    80002bee:	41610113          	add	sp,sp,1046 # 800e0000 <begin_signature>
    80002bf2:	6309                	lui	t1,0x2
    80002bf4:	7403031b          	addw	t1,t1,1856 # 2740 <_tbss_end+0x2740>
    80002bf8:	911a                	add	sp,sp,t1
    80002bfa:	d234f7d3          	fcvt.d.lu	fa5,s1
    80002bfe:	c20df4d3          	fcvt.w.d	s1,fs11
    80002c02:	bf013783          	ld	a5,-1040(sp)
    80002c06:	02e7873b          	mulw	a4,a5,a4
    80002c0a:	1be0                	add	s0,sp,508
    80002c0c:	0000100f          	fence.i
    80002c10:	2006                	fld	ft0,64(sp)

0000000080002c12 <b000000037e>:
    80002c12:	00000033          	add	zero,zero,zero
    80002c16:	03bac863          	blt	s5,s11,80002c46 <i0000000383>
    80002c1a:	00000033          	add	zero,zero,zero
    80002c1e:	c5410d23          	sb	s4,-934(sp)
    80002c22:	c0e12faf          	amominu.w	t6,a4,(sp)
    80002c26:	2101372f          	amoxor.d	a4,a6,(sp)
    80002c2a:	580194d3          	fsqrt.s	fs1,ft3,rtz
    80002c2e:	34e2                	fld	fs1,56(sp)
    80002c30:	a16d9753          	flt.s	a4,fs11,fs6
    80002c34:	6446                	ld	s0,80(sp)
    80002c36:	4aa9                	li	s5,10

0000000080002c38 <i000000037e>:
    80002c38:	810a                	mv	sp,sp

0000000080002c3a <i000000037f>:
    80002c3a:	7159                	add	sp,sp,-112

0000000080002c3c <i0000000380>:
    80002c3c:	6165                	add	sp,sp,112

0000000080002c3e <i0000000381>:
    80002c3e:	411f5db3          	sra	s11,t5,a7

0000000080002c42 <i0000000382>:
    80002c42:	43960513          	add	a0,a2,1081

0000000080002c46 <i0000000383>:
    80002c46:	00dd94b3          	sll	s1,s11,a3

0000000080002c4a <i0000000384>:
    80002c4a:	409f8b33          	sub	s6,t6,s1

0000000080002c4e <i0000000385>:
    80002c4e:	37567a13          	and	s4,a2,885

0000000080002c52 <i0000000386>:
    80002c52:	3a1b87b7          	lui	a5,0x3a1b8

0000000080002c56 <i0000000387>:
    80002c56:	4005d9b3          	sra	s3,a1,zero
    80002c5a:	4ea9                	li	t4,10
    80002c5c:	a29b2753          	feq.d	a4,fs6,fs1
    80002c60:	00e4                	add	s1,sp,76
    80002c62:	0ff0000f          	fence
    80002c66:	3a816483          	lwu	s1,936(sp)
    80002c6a:	d017b7d3          	fcvt.s.wu	fa5,a5,rup
    80002c6e:	036c693b          	remw	s2,s8,s6
    80002c72:	1004                	add	s1,sp,32

0000000080002c74 <b0000000388>:
    80002c74:	00000033          	add	zero,zero,zero
    80002c78:	fdda97e3          	bne	s5,t4,80002c46 <i0000000383>
    80002c7c:	00000033          	add	zero,zero,zero
    80002c80:	0000100f          	fence.i
    80002c84:	9c05                	subw	s0,s0,s1
    80002c86:	19a11523          	sh	s10,394(sp)
    80002c8a:	607134af          	amoand.d	s1,t2,(sp)
    80002c8e:	8031272f          	amomin.w	a4,gp,(sp)
    80002c92:	7161                	add	sp,sp,-432
    80002c94:	010dd23b          	srlw	tp,s11,a6
    80002c98:	4aa9                	li	s5,10

0000000080002c9a <i0000000388>:
    80002c9a:	00a7b633          	sltu	a2,a5,a0

0000000080002c9e <i0000000389>:
    80002c9e:	01ed4fb3          	xor	t6,s10,t5

0000000080002ca2 <i000000038a>:
    80002ca2:	7d252013          	slti	zero,a0,2002

0000000080002ca6 <i000000038b>:
    80002ca6:	5c97e513          	or	a0,a5,1481

0000000080002caa <i000000038c>:
    80002caa:	40c55533          	sra	a0,a0,a2

0000000080002cae <i000000038d>:
    80002cae:	017ff433          	and	s0,t6,s7

0000000080002cb2 <i000000038e>:
    80002cb2:	00c7b7b3          	sltu	a5,a5,a2

0000000080002cb6 <i000000038f>:
    80002cb6:	0044e633          	or	a2,s1,tp

0000000080002cba <i0000000390>:
    80002cba:	411c8933          	sub	s2,s9,a7

0000000080002cbe <i0000000391>:
    80002cbe:	00a607b3          	add	a5,a2,a0
    80002cc2:	000dd117          	auipc	sp,0xdd
    80002cc6:	33e10113          	add	sp,sp,830 # 800e0000 <begin_signature>
    80002cca:	6321                	lui	t1,0x8
    80002ccc:	3983031b          	addw	t1,t1,920 # 8398 <_tbss_end+0x8398>
    80002cd0:	911a                	add	sp,sp,t1
    80002cd2:	f522                	sd	s0,168(sp)
    80002cd4:	cfc16783          	lwu	a5,-772(sp)
    80002cd8:	c826                	sw	s1,16(sp)
    80002cda:	01a7571b          	srlw	a4,a4,0x1a
    80002cde:	a3247f4f          	fnmadd.d	ft10,fs0,fs2,fs4
    80002ce2:	f43a                	sd	a4,40(sp)
    80002ce4:	0ff0000f          	fence

0000000080002ce8 <b0000000392>:
    80002ce8:	0300056f          	jal	a0,80002d18 <i0000000397>
    80002cec:	4f813703          	ld	a4,1272(sp)
    80002cf0:	d21b0d53          	fcvt.d.wu	fs10,s6
    80002cf4:	e2048753          	fmv.x.d	a4,fs1
    80002cf8:	07fa                	sll	a5,a5,0x1e
    80002cfa:	36c6                	fld	fa3,112(sp)
    80002cfc:	c02d8753          	fcvt.l.s	a4,fs11,rne
    80002d00:	03746433          	rem	s0,s0,s7

0000000080002d04 <i0000000392>:
    80002d04:	cb664d13          	xor	s10,a2,-842

0000000080002d08 <i0000000393>:
    80002d08:	00e05813          	srl	a6,zero,0xe

0000000080002d0c <i0000000394>:
    80002d0c:	40c95c93          	sra	s9,s2,0xc

0000000080002d10 <i0000000395>:
    80002d10:	e40fd0ef          	jal	80000350 <func1>

0000000080002d14 <i0000000396>:
    80002d14:	00f7a7b3          	slt	a5,a5,a5

0000000080002d18 <i0000000397>:
    80002d18:	0aa7c613          	xor	a2,a5,170

0000000080002d1c <i0000000398>:
    80002d1c:	01261013          	sll	zero,a2,0x12

0000000080002d20 <i0000000399>:
    80002d20:	00818d33          	add	s10,gp,s0

0000000080002d24 <i000000039a>:
    80002d24:	0042e633          	or	a2,t0,tp

0000000080002d28 <i000000039b>:
    80002d28:	01949613          	sll	a2,s1,0x19

0000000080002d2c <i000000039c>:
    80002d2c:	40555b93          	sra	s7,a0,0x5
    80002d30:	4a01                	li	s4,0
    80002d32:	000dd117          	auipc	sp,0xdd
    80002d36:	2ce10113          	add	sp,sp,718 # 800e0000 <begin_signature>
    80002d3a:	6315                	lui	t1,0x5
    80002d3c:	a103031b          	addw	t1,t1,-1520 # 4a10 <_tbss_end+0x4a10>
    80002d40:	911a                	add	sp,sp,t1
    80002d42:	8f21                	xor	a4,a4,s0
    80002d44:	0294b4b3          	mulhu	s1,s1,s1
    80002d48:	009127af          	amoadd.w	a5,s1,(sp)
    80002d4c:	03c0                	add	s0,sp,452
    80002d4e:	d004ab53          	fcvt.s.w	fs6,s1,rdn
    80002d52:	3429                	addw	s0,s0,-22
    80002d54:	580dbdd3          	fsqrt.s	fs11,fs11,rup

0000000080002d58 <b000000039d>:
    80002d58:	00000033          	add	zero,zero,zero
    80002d5c:	fd4a80e3          	beq	s5,s4,80002d1c <i0000000398>
    80002d60:	00000033          	add	zero,zero,zero
    80002d64:	14311223          	sh	gp,324(sp)
    80002d68:	d2138b53          	fcvt.d.wu	fs6,t2
    80002d6c:	22559dd3          	fsgnjn.d	fs11,fa1,ft5
    80002d70:	09b8                	add	a4,sp,216
    80002d72:	6d49                	lui	s10,0x12
    80002d74:	50813803          	ld	a6,1288(sp)
    80002d78:	6b910923          	sb	s9,1714(sp)
    80002d7c:	4aa9                	li	s5,10
    80002d7e:	4185                	li	gp,1
    80002d80:	000eff17          	auipc	t5,0xef
    80002d84:	283f2023          	sw	gp,640(t5) # 800f2000 <tohost>
    80002d88:	0000100f          	fence.i
    80002d8c:	00020fb7          	lui	t6,0x20
    80002d90:	000ddf17          	auipc	t5,0xdd
    80002d94:	270f0f13          	add	t5,t5,624 # 800e0000 <begin_signature>
    80002d98:	01efa023          	sw	t5,0(t6) # 20000 <_tbss_end+0x20000>
    80002d9c:	000edf17          	auipc	t5,0xed
    80002da0:	264f0f13          	add	t5,t5,612 # 800f0000 <end_signature>
    80002da4:	01efa423          	sw	t5,8(t6)
    80002da8:	01efa623          	sw	t5,12(t6)
    80002dac:	0000                	unimp
	...

Disassembly of section .tohost:

00000000800f2000 <tohost>:
	...

00000000800f2040 <fromhost>:
	...

00000000800f2050 <ecause_num>:
	...
