
work/bin/out_pg_excep5_00000.riscv:     file format elf64-littleriscv


Disassembly of section .text.init:

0000000080000000 <_start>:
    80000000:	000e0117          	auipc	sp,0xe0
    80000004:	00010113          	mv	sp,sp
    80000008:	6082                	ld	ra,0(sp)
    8000000a:	61a2                	ld	gp,8(sp)
    8000000c:	6242                	ld	tp,16(sp)
    8000000e:	62e2                	ld	t0,24(sp)
    80000010:	7302                	ld	t1,32(sp)
    80000012:	73a2                	ld	t2,40(sp)
    80000014:	7442                	ld	s0,48(sp)
    80000016:	74e2                	ld	s1,56(sp)
    80000018:	6506                	ld	a0,64(sp)
    8000001a:	65a6                	ld	a1,72(sp)
    8000001c:	6646                	ld	a2,80(sp)
    8000001e:	66e6                	ld	a3,88(sp)
    80000020:	7706                	ld	a4,96(sp)
    80000022:	77a6                	ld	a5,104(sp)
    80000024:	7846                	ld	a6,112(sp)
    80000026:	78e6                	ld	a7,120(sp)
    80000028:	690a                	ld	s2,128(sp)
    8000002a:	69aa                	ld	s3,136(sp)
    8000002c:	6a4a                	ld	s4,144(sp)
    8000002e:	6aea                	ld	s5,152(sp)
    80000030:	7b0a                	ld	s6,160(sp)
    80000032:	7baa                	ld	s7,168(sp)
    80000034:	7c4a                	ld	s8,176(sp)
    80000036:	7cea                	ld	s9,184(sp)
    80000038:	6d0e                	ld	s10,192(sp)
    8000003a:	6dae                	ld	s11,200(sp)
    8000003c:	6e4e                	ld	t3,208(sp)
    8000003e:	6eee                	ld	t4,216(sp)
    80000040:	7f0e                	ld	t5,224(sp)
    80000042:	7fae                	ld	t6,232(sp)
    80000044:	62f9                	lui	t0,0x1e
    80000046:	3002a073          	csrs	mstatus,t0
    8000004a:	4285                	li	t0,1
    8000004c:	02fe                	sll	t0,t0,0x1f
    8000004e:	0002d863          	bgez	t0,8000005e <_start+0x5e>
    80000052:	4505                	li	a0,1
    80000054:	000f2297          	auipc	t0,0xf2
    80000058:	faa2a623          	sw	a0,-84(t0) # 800f2000 <tohost>
    8000005c:	bfdd                	j	80000052 <_start+0x52>
    8000005e:	00000297          	auipc	t0,0x0
    80000062:	09228293          	add	t0,t0,146 # 800000f0 <_start+0xf0>
    80000066:	30529073          	csrw	mtvec,t0
    8000006a:	00301073          	fscsr	zero
    8000006e:	f2008053          	fmv.d.x	ft0,ra
    80000072:	f20080d3          	fmv.d.x	ft1,ra
    80000076:	f2010153          	fmv.d.x	ft2,sp
    8000007a:	f20181d3          	fmv.d.x	ft3,gp
    8000007e:	f2020253          	fmv.d.x	ft4,tp
    80000082:	f20282d3          	fmv.d.x	ft5,t0
    80000086:	f2030353          	fmv.d.x	ft6,t1
    8000008a:	f20383d3          	fmv.d.x	ft7,t2
    8000008e:	f2040453          	fmv.d.x	fs0,s0
    80000092:	f20484d3          	fmv.d.x	fs1,s1
    80000096:	f2050553          	fmv.d.x	fa0,a0
    8000009a:	f20585d3          	fmv.d.x	fa1,a1
    8000009e:	f2060653          	fmv.d.x	fa2,a2
    800000a2:	f20686d3          	fmv.d.x	fa3,a3
    800000a6:	f2070753          	fmv.d.x	fa4,a4
    800000aa:	f20787d3          	fmv.d.x	fa5,a5
    800000ae:	f2080853          	fmv.d.x	fa6,a6
    800000b2:	f20888d3          	fmv.d.x	fa7,a7
    800000b6:	f2090953          	fmv.d.x	fs2,s2
    800000ba:	f20989d3          	fmv.d.x	fs3,s3
    800000be:	f20a0a53          	fmv.d.x	fs4,s4
    800000c2:	f20a8ad3          	fmv.d.x	fs5,s5
    800000c6:	f20b0b53          	fmv.d.x	fs6,s6
    800000ca:	f20b8bd3          	fmv.d.x	fs7,s7
    800000ce:	f20c0c53          	fmv.d.x	fs8,s8
    800000d2:	f20c8cd3          	fmv.d.x	fs9,s9
    800000d6:	f20d0d53          	fmv.d.x	fs10,s10
    800000da:	f20d8dd3          	fmv.d.x	fs11,s11
    800000de:	f20e0e53          	fmv.d.x	ft8,t3
    800000e2:	f20e8ed3          	fmv.d.x	ft9,t4
    800000e6:	f20f0f53          	fmv.d.x	ft10,t5
    800000ea:	f20f8fd3          	fmv.d.x	ft11,t6
    800000ee:	0001                	nop
    800000f0:	00000297          	auipc	t0,0x0
    800000f4:	03428293          	add	t0,t0,52 # 80000124 <trap_entry>
    800000f8:	30529073          	csrw	mtvec,t0
    800000fc:	000f3217          	auipc	tp,0xf3
    80000100:	84420213          	add	tp,tp,-1980 # 800f2940 <_end+0x3f>
    80000104:	fc027213          	and	tp,tp,-64
    80000108:	f1402573          	csrr	a0,mhartid
    8000010c:	4585                	li	a1,1
    8000010e:	00b57063          	bgeu	a0,a1,8000010e <_start+0x10e>
    80000112:	01151613          	sll	a2,a0,0x11
    80000116:	9232                	add	tp,tp,a2
    80000118:	00150113          	add	sp,a0,1
    8000011c:	0146                	sll	sp,sp,0x11
    8000011e:	9112                	add	sp,sp,tp
    80000120:	2400006f          	j	80000360 <main>

0000000080000124 <trap_entry>:
    80000124:	716d                	add	sp,sp,-272
    80000126:	e406                	sd	ra,8(sp)
    80000128:	e80a                	sd	sp,16(sp)
    8000012a:	ec0e                	sd	gp,24(sp)
    8000012c:	f012                	sd	tp,32(sp)
    8000012e:	f416                	sd	t0,40(sp)
    80000130:	f81a                	sd	t1,48(sp)
    80000132:	fc1e                	sd	t2,56(sp)
    80000134:	e0a2                	sd	s0,64(sp)
    80000136:	e4a6                	sd	s1,72(sp)
    80000138:	e8aa                	sd	a0,80(sp)
    8000013a:	ecae                	sd	a1,88(sp)
    8000013c:	f0b2                	sd	a2,96(sp)
    8000013e:	f4b6                	sd	a3,104(sp)
    80000140:	f8ba                	sd	a4,112(sp)
    80000142:	fcbe                	sd	a5,120(sp)
    80000144:	e142                	sd	a6,128(sp)
    80000146:	e546                	sd	a7,136(sp)
    80000148:	e94a                	sd	s2,144(sp)
    8000014a:	ed4e                	sd	s3,152(sp)
    8000014c:	f152                	sd	s4,160(sp)
    8000014e:	f556                	sd	s5,168(sp)
    80000150:	f95a                	sd	s6,176(sp)
    80000152:	fd5e                	sd	s7,184(sp)
    80000154:	e1e2                	sd	s8,192(sp)
    80000156:	e5e6                	sd	s9,200(sp)
    80000158:	e9ea                	sd	s10,208(sp)
    8000015a:	edee                	sd	s11,216(sp)
    8000015c:	f1f2                	sd	t3,224(sp)
    8000015e:	f5f6                	sd	t4,232(sp)
    80000160:	f9fa                	sd	t5,240(sp)
    80000162:	fdfe                	sd	t6,248(sp)
    80000164:	34202573          	csrr	a0,mcause
    80000168:	341025f3          	csrr	a1,mepc
    8000016c:	0005d603          	lhu	a2,0(a1)
    80000170:	8a0d                	and	a2,a2,3
    80000172:	428d                	li	t0,3
    80000174:	00561563          	bne	a2,t0,8000017e <inst16>

0000000080000178 <inst32>:
    80000178:	0591                	add	a1,a1,4
    8000017a:	00000363          	beqz	zero,80000180 <inst16+0x2>

000000008000017e <inst16>:
    8000017e:	0589                	add	a1,a1,2
    80000180:	34159073          	csrw	mepc,a1
    80000184:	6289                	lui	t0,0x2
    80000186:	8002829b          	addw	t0,t0,-2048 # 1800 <_tbss_end+0x1800>
    8000018a:	3002a073          	csrs	mstatus,t0
    8000018e:	60a2                	ld	ra,8(sp)
    80000190:	6142                	ld	sp,16(sp)
    80000192:	61e2                	ld	gp,24(sp)
    80000194:	7202                	ld	tp,32(sp)
    80000196:	72a2                	ld	t0,40(sp)
    80000198:	7342                	ld	t1,48(sp)
    8000019a:	73e2                	ld	t2,56(sp)
    8000019c:	6406                	ld	s0,64(sp)
    8000019e:	64a6                	ld	s1,72(sp)
    800001a0:	6546                	ld	a0,80(sp)
    800001a2:	65e6                	ld	a1,88(sp)
    800001a4:	7606                	ld	a2,96(sp)
    800001a6:	76a6                	ld	a3,104(sp)
    800001a8:	7746                	ld	a4,112(sp)
    800001aa:	77e6                	ld	a5,120(sp)
    800001ac:	680a                	ld	a6,128(sp)
    800001ae:	68aa                	ld	a7,136(sp)
    800001b0:	694a                	ld	s2,144(sp)
    800001b2:	69ea                	ld	s3,152(sp)
    800001b4:	7a0a                	ld	s4,160(sp)
    800001b6:	7aaa                	ld	s5,168(sp)
    800001b8:	7b4a                	ld	s6,176(sp)
    800001ba:	7bea                	ld	s7,184(sp)
    800001bc:	6c0e                	ld	s8,192(sp)
    800001be:	6cae                	ld	s9,200(sp)
    800001c0:	6d4e                	ld	s10,208(sp)
    800001c2:	6dee                	ld	s11,216(sp)
    800001c4:	7e0e                	ld	t3,224(sp)
    800001c6:	7eae                	ld	t4,232(sp)
    800001c8:	7f4e                	ld	t5,240(sp)
    800001ca:	7fee                	ld	t6,248(sp)
    800001cc:	6151                	add	sp,sp,272
    800001ce:	30200073          	mret

Disassembly of section .text:

00000000800001e0 <custom_trap_handler_s>:
    800001e0:	7129                	add	sp,sp,-320
    800001e2:	e406                	sd	ra,8(sp)
    800001e4:	ec0e                	sd	gp,24(sp)
    800001e6:	f012                	sd	tp,32(sp)
    800001e8:	f416                	sd	t0,40(sp)
    800001ea:	f81a                	sd	t1,48(sp)
    800001ec:	fc1e                	sd	t2,56(sp)
    800001ee:	e0a2                	sd	s0,64(sp)
    800001f0:	e4a6                	sd	s1,72(sp)
    800001f2:	e8aa                	sd	a0,80(sp)
    800001f4:	ecae                	sd	a1,88(sp)
    800001f6:	f0b2                	sd	a2,96(sp)
    800001f8:	f4b6                	sd	a3,104(sp)
    800001fa:	f8ba                	sd	a4,112(sp)
    800001fc:	fcbe                	sd	a5,120(sp)
    800001fe:	e142                	sd	a6,128(sp)
    80000200:	e546                	sd	a7,136(sp)
    80000202:	e94a                	sd	s2,144(sp)
    80000204:	ed4e                	sd	s3,152(sp)
    80000206:	f152                	sd	s4,160(sp)
    80000208:	f556                	sd	s5,168(sp)
    8000020a:	f95a                	sd	s6,176(sp)
    8000020c:	fd5e                	sd	s7,184(sp)
    8000020e:	e1e2                	sd	s8,192(sp)
    80000210:	e5e6                	sd	s9,200(sp)
    80000212:	e9ea                	sd	s10,208(sp)
    80000214:	edee                	sd	s11,216(sp)
    80000216:	f1f2                	sd	t3,224(sp)
    80000218:	f5f6                	sd	t4,232(sp)
    8000021a:	f9fa                	sd	t5,240(sp)
    8000021c:	fdfe                	sd	t6,248(sp)
    8000021e:	10002573          	csrr	a0,sstatus
    80000222:	14102573          	csrr	a0,sepc
    80000226:	10502573          	csrr	a0,stvec
    8000022a:	14202573          	csrr	a0,scause
    8000022e:	4601                	li	a2,0
    80000230:	00c50763          	beq	a0,a2,8000023e <custom_trap_handler_s+0x5e>
    80000234:	4605                	li	a2,1
    80000236:	00c50463          	beq	a0,a2,8000023e <custom_trap_handler_s+0x5e>
    8000023a:	141025f3          	csrr	a1,sepc
    8000023e:	00059603          	lh	a2,0(a1)
    80000242:	8a0d                	and	a2,a2,3
    80000244:	428d                	li	t0,3
    80000246:	00561563          	bne	a2,t0,80000250 <inst16_s>

000000008000024a <inst32_s>:
    8000024a:	0591                	add	a1,a1,4
    8000024c:	00000363          	beqz	zero,80000252 <inst16_s+0x2>

0000000080000250 <inst16_s>:
    80000250:	0589                	add	a1,a1,2
    80000252:	14159073          	csrw	sepc,a1
    80000256:	60a2                	ld	ra,8(sp)
    80000258:	61e2                	ld	gp,24(sp)
    8000025a:	7202                	ld	tp,32(sp)
    8000025c:	72a2                	ld	t0,40(sp)
    8000025e:	7342                	ld	t1,48(sp)
    80000260:	73e2                	ld	t2,56(sp)
    80000262:	6406                	ld	s0,64(sp)
    80000264:	64a6                	ld	s1,72(sp)
    80000266:	6546                	ld	a0,80(sp)
    80000268:	65e6                	ld	a1,88(sp)
    8000026a:	7606                	ld	a2,96(sp)
    8000026c:	76a6                	ld	a3,104(sp)
    8000026e:	7746                	ld	a4,112(sp)
    80000270:	77e6                	ld	a5,120(sp)
    80000272:	680a                	ld	a6,128(sp)
    80000274:	68aa                	ld	a7,136(sp)
    80000276:	694a                	ld	s2,144(sp)
    80000278:	69ea                	ld	s3,152(sp)
    8000027a:	7a0a                	ld	s4,160(sp)
    8000027c:	7aaa                	ld	s5,168(sp)
    8000027e:	7b4a                	ld	s6,176(sp)
    80000280:	7bea                	ld	s7,184(sp)
    80000282:	6c0e                	ld	s8,192(sp)
    80000284:	6cae                	ld	s9,200(sp)
    80000286:	6d4e                	ld	s10,208(sp)
    80000288:	6dee                	ld	s11,216(sp)
    8000028a:	7e0e                	ld	t3,224(sp)
    8000028c:	7eae                	ld	t4,232(sp)
    8000028e:	7f4e                	ld	t5,240(sp)
    80000290:	7fee                	ld	t6,248(sp)
    80000292:	6131                	add	sp,sp,320
    80000294:	10200073          	sret

0000000080000298 <custom_trap_handler>:
    80000298:	7129                	add	sp,sp,-320
    8000029a:	e406                	sd	ra,8(sp)
    8000029c:	ec0e                	sd	gp,24(sp)
    8000029e:	f012                	sd	tp,32(sp)
    800002a0:	f416                	sd	t0,40(sp)
    800002a2:	f81a                	sd	t1,48(sp)
    800002a4:	fc1e                	sd	t2,56(sp)
    800002a6:	e0a2                	sd	s0,64(sp)
    800002a8:	e4a6                	sd	s1,72(sp)
    800002aa:	e8aa                	sd	a0,80(sp)
    800002ac:	ecae                	sd	a1,88(sp)
    800002ae:	f0b2                	sd	a2,96(sp)
    800002b0:	f4b6                	sd	a3,104(sp)
    800002b2:	f8ba                	sd	a4,112(sp)
    800002b4:	fcbe                	sd	a5,120(sp)
    800002b6:	e142                	sd	a6,128(sp)
    800002b8:	e546                	sd	a7,136(sp)
    800002ba:	e94a                	sd	s2,144(sp)
    800002bc:	ed4e                	sd	s3,152(sp)
    800002be:	f152                	sd	s4,160(sp)
    800002c0:	f556                	sd	s5,168(sp)
    800002c2:	f95a                	sd	s6,176(sp)
    800002c4:	fd5e                	sd	s7,184(sp)
    800002c6:	e1e2                	sd	s8,192(sp)
    800002c8:	e5e6                	sd	s9,200(sp)
    800002ca:	e9ea                	sd	s10,208(sp)
    800002cc:	edee                	sd	s11,216(sp)
    800002ce:	f1f2                	sd	t3,224(sp)
    800002d0:	f5f6                	sd	t4,232(sp)
    800002d2:	f9fa                	sd	t5,240(sp)
    800002d4:	fdfe                	sd	t6,248(sp)
    800002d6:	30002573          	csrr	a0,mstatus
    800002da:	34102573          	csrr	a0,mepc
    800002de:	30502573          	csrr	a0,mtvec
    800002e2:	34202573          	csrr	a0,mcause
    800002e6:	4601                	li	a2,0
    800002e8:	00c50763          	beq	a0,a2,800002f6 <custom_trap_handler+0x5e>
    800002ec:	4605                	li	a2,1
    800002ee:	00c50463          	beq	a0,a2,800002f6 <custom_trap_handler+0x5e>
    800002f2:	341025f3          	csrr	a1,mepc
    800002f6:	00059603          	lh	a2,0(a1)
    800002fa:	8a0d                	and	a2,a2,3
    800002fc:	428d                	li	t0,3
    800002fe:	00561563          	bne	a2,t0,80000308 <inst16>

0000000080000302 <inst32>:
    80000302:	0591                	add	a1,a1,4
    80000304:	00000363          	beqz	zero,8000030a <inst16+0x2>

0000000080000308 <inst16>:
    80000308:	0589                	add	a1,a1,2
    8000030a:	34159073          	csrw	mepc,a1
    8000030e:	60a2                	ld	ra,8(sp)
    80000310:	61e2                	ld	gp,24(sp)
    80000312:	7202                	ld	tp,32(sp)
    80000314:	72a2                	ld	t0,40(sp)
    80000316:	7342                	ld	t1,48(sp)
    80000318:	73e2                	ld	t2,56(sp)
    8000031a:	6406                	ld	s0,64(sp)
    8000031c:	64a6                	ld	s1,72(sp)
    8000031e:	6546                	ld	a0,80(sp)
    80000320:	65e6                	ld	a1,88(sp)
    80000322:	7606                	ld	a2,96(sp)
    80000324:	76a6                	ld	a3,104(sp)
    80000326:	7746                	ld	a4,112(sp)
    80000328:	77e6                	ld	a5,120(sp)
    8000032a:	680a                	ld	a6,128(sp)
    8000032c:	68aa                	ld	a7,136(sp)
    8000032e:	694a                	ld	s2,144(sp)
    80000330:	69ea                	ld	s3,152(sp)
    80000332:	7a0a                	ld	s4,160(sp)
    80000334:	7aaa                	ld	s5,168(sp)
    80000336:	7b4a                	ld	s6,176(sp)
    80000338:	7bea                	ld	s7,184(sp)
    8000033a:	6c0e                	ld	s8,192(sp)
    8000033c:	6cae                	ld	s9,200(sp)
    8000033e:	6d4e                	ld	s10,208(sp)
    80000340:	6dee                	ld	s11,216(sp)
    80000342:	7e0e                	ld	t3,224(sp)
    80000344:	7eae                	ld	t4,232(sp)
    80000346:	7f4e                	ld	t5,240(sp)
    80000348:	7fee                	ld	t6,248(sp)
    8000034a:	6131                	add	sp,sp,320
    8000034c:	30200073          	mret

0000000080000350 <func1>:
    80000350:	00000033          	add	zero,zero,zero
    80000354:	8082                	ret
    80000356:	00000013          	nop
    8000035a:	00000013          	nop
    8000035e:	0001                	nop

0000000080000360 <main>:
    80000360:	00000033          	add	zero,zero,zero
    80000364:	00000297          	auipc	t0,0x0
    80000368:	f3428293          	add	t0,t0,-204 # 80000298 <custom_trap_handler>
    8000036c:	30529073          	csrw	mtvec,t0
    80000370:	000e0117          	auipc	sp,0xe0
    80000374:	c9010113          	add	sp,sp,-880 # 800e0000 <begin_signature>
    80000378:	6329                	lui	t1,0xa
    8000037a:	cd83031b          	addw	t1,t1,-808 # 9cd8 <_tbss_end+0x9cd8>
    8000037e:	911a                	add	sp,sp,t1

0000000080000380 <i0000000000>:
    80000380:	4ea9                	li	t4,10

0000000080000382 <i0000000001>:
    80000382:	022dfd53          	fadd.d	fs10,fs11,ft2

0000000080000386 <i0000000002>:
    80000386:	432ddf93          	sra	t6,s11,0x32
    8000038a:	000e0117          	auipc	sp,0xe0
    8000038e:	c7610113          	add	sp,sp,-906 # 800e0000 <begin_signature>
    80000392:	6335                	lui	t1,0xd
    80000394:	7203031b          	addw	t1,t1,1824 # d720 <_tbss_end+0xd720>
    80000398:	911a                	add	sp,sp,t1

000000008000039a <i0000000003>:
    8000039a:	8d813503          	ld	a0,-1832(sp)

000000008000039e <i0000000004>:
    8000039e:	8009                	srl	s0,s0,0x2

00000000800003a0 <i0000000005>:
    800003a0:	00d59b33          	sll	s6,a1,a3

00000000800003a4 <i0000000006>:
    800003a4:	2ac094d3          	fmax.d	fs1,ft1,fa2

00000000800003a8 <i0000000007>:
    800003a8:	d0322353          	fcvt.s.lu	ft6,tp,rdn

00000000800003ac <i0000000008>:
    800003ac:	0023d073          	fsrmi	zero,7

00000000800003b0 <i0000000009>:
    800003b0:	23a31153          	fsgnjn.d	ft2,ft6,fs10

00000000800003b4 <i000000000a>:
    800003b4:	690e                	ld	s2,192(sp)

00000000800003b6 <i000000000b>:
    800003b6:	5b66                	lw	s6,120(sp)

00000000800003b8 <i000000000c>:
    800003b8:	40a136af          	amoor.d	a3,a0,(sp)
    800003bc:	000e0117          	auipc	sp,0xe0
    800003c0:	c4410113          	add	sp,sp,-956 # 800e0000 <begin_signature>
    800003c4:	630d                	lui	t1,0x3
    800003c6:	5183031b          	addw	t1,t1,1304 # 3518 <_tbss_end+0x3518>
    800003ca:	911a                	add	sp,sp,t1
    800003cc:	000e0117          	auipc	sp,0xe0
    800003d0:	c3410113          	add	sp,sp,-972 # 800e0000 <begin_signature>
    800003d4:	6339                	lui	t1,0xe
    800003d6:	2003031b          	addw	t1,t1,512 # e200 <_tbss_end+0xe200>
    800003da:	911a                	add	sp,sp,t1
    800003dc:	000e0117          	auipc	sp,0xe0
    800003e0:	c2410113          	add	sp,sp,-988 # 800e0000 <begin_signature>
    800003e4:	6331                	lui	t1,0xc
    800003e6:	4583031b          	addw	t1,t1,1112 # c458 <_tbss_end+0xc458>
    800003ea:	911a                	add	sp,sp,t1
    800003ec:	000e0117          	auipc	sp,0xe0
    800003f0:	c1410113          	add	sp,sp,-1004 # 800e0000 <begin_signature>
    800003f4:	6319                	lui	t1,0x6
    800003f6:	a203031b          	addw	t1,t1,-1504 # 5a20 <_tbss_end+0x5a20>
    800003fa:	911a                	add	sp,sp,t1
    800003fc:	8c05                	sub	s0,s0,s1
    800003fe:	f4be                	sd	a5,104(sp)
    80000400:	d01a9d53          	fcvt.s.wu	fs10,s5,rtz
    80000404:	c03124af          	amominu.w	s1,gp,(sp)
    80000408:	a0d10b83          	lb	s7,-1523(sp)
    8000040c:	4ad6                	lw	s5,84(sp)
    8000040e:	e0031453          	fclass.s	s0,ft6

0000000080000412 <b000000000d>:
    80000412:	03e0056f          	jal	a0,80000450 <i0000000012>
    80000416:	02415183          	lhu	gp,36(sp)
    8000041a:	4d7af393          	and	t2,s5,1239
    8000041e:	7d913c23          	sd	s9,2008(sp)
    80000422:	d20b8153          	fcvt.d.w	ft2,s7
    80000426:	3b311f23          	sh	s3,958(sp)
    8000042a:	0f611d03          	lh	s10,246(sp)
    8000042e:	41e2                	lw	gp,24(sp)

0000000080000430 <i000000000d>:
    80000430:	41f12e2f          	amoor.w	t3,t6,(sp)

0000000080000434 <i000000000e>:
    80000434:	e03e                	sd	a5,0(sp)

0000000080000436 <i000000000f>:
    80000436:	0000100f          	fence.i

000000008000043a <i0000000010>:
    8000043a:	0ff0000f          	fence

000000008000043e <i0000000011>:
    8000043e:	d4ca                	sw	s2,104(sp)
    80000440:	000e0117          	auipc	sp,0xe0
    80000444:	bc010113          	add	sp,sp,-1088 # 800e0000 <begin_signature>
    80000448:	6319                	lui	t1,0x6
    8000044a:	8c83031b          	addw	t1,t1,-1848 # 58c8 <_tbss_end+0x58c8>
    8000044e:	911a                	add	sp,sp,t1

0000000080000450 <i0000000012>:
    80000450:	efca                	sd	s2,472(sp)

0000000080000452 <i0000000013>:
    80000452:	01b1f633          	and	a2,gp,s11

0000000080000456 <i0000000014>:
    80000456:	2606                	fld	fa2,64(sp)

0000000080000458 <i0000000015>:
    80000458:	03f55cb3          	divu	s9,a0,t6

000000008000045c <i0000000016>:
    8000045c:	21e1332f          	amoxor.d	t1,t5,(sp)

0000000080000460 <i0000000017>:
    80000460:	4712                	lw	a4,4(sp)
    80000462:	f4a2                	sd	s0,104(sp)
    80000464:	d626                	sw	s1,44(sp)
    80000466:	c9816f83          	lwu	t6,-872(sp)
    8000046a:	0921392f          	amoswap.d	s2,s2,(sp)
    8000046e:	8c41                	or	s0,s0,s0
    80000470:	8f79                	and	a4,a4,a4
    80000472:	67f14f83          	lbu	t6,1663(sp)

0000000080000476 <b0000000018>:
    80000476:	04a0006f          	j	800004c0 <i000000001e>
    8000047a:	ac3a                	fsd	fa4,24(sp)
    8000047c:	011d9193          	sll	gp,s11,0x11
    80000480:	c23f7d53          	fcvt.lu.d	s10,ft10
    80000484:	9c01                	subw	s0,s0,s0
    80000486:	0860                	add	s0,sp,28
    80000488:	f06a                	sd	s10,32(sp)
    8000048a:	038c093b          	mulw	s2,s8,s8

000000008000048e <i0000000018>:
    8000048e:	0210                	add	a2,sp,256

0000000080000490 <i0000000019>:
    80000490:	d03fb653          	fcvt.s.lu	fa2,t6,rup

0000000080000494 <i000000001a>:
    80000494:	a111202f          	amomax.w	zero,a7,(sp)
    80000498:	000e0117          	auipc	sp,0xe0
    8000049c:	b6810113          	add	sp,sp,-1176 # 800e0000 <begin_signature>
    800004a0:	6311                	lui	t1,0x4
    800004a2:	5d03031b          	addw	t1,t1,1488 # 45d0 <_tbss_end+0x45d0>
    800004a6:	911a                	add	sp,sp,t1

00000000800004a8 <i000000001b>:
    800004a8:	a99a                	fsd	ft6,208(sp)
    800004aa:	000e0117          	auipc	sp,0xe0
    800004ae:	b5610113          	add	sp,sp,-1194 # 800e0000 <begin_signature>
    800004b2:	6305                	lui	t1,0x1
    800004b4:	9483031b          	addw	t1,t1,-1720 # 948 <_tbss_end+0x948>
    800004b8:	911a                	add	sp,sp,t1

00000000800004ba <i000000001c>:
    800004ba:	4492                	lw	s1,4(sp)

00000000800004bc <i000000001d>:
    800004bc:	0ff0000f          	fence

00000000800004c0 <i000000001e>:
    800004c0:	1168                	add	a0,sp,172

00000000800004c2 <i000000001f>:
    800004c2:	40c50dbb          	subw	s11,a0,a2
    800004c6:	000e0117          	auipc	sp,0xe0
    800004ca:	b3a10113          	add	sp,sp,-1222 # 800e0000 <begin_signature>
    800004ce:	6315                	lui	t1,0x5
    800004d0:	1803031b          	addw	t1,t1,384 # 5180 <_tbss_end+0x5180>
    800004d4:	911a                	add	sp,sp,t1

00000000800004d6 <i0000000020>:
    800004d6:	56816d83          	lwu	s11,1384(sp)

00000000800004da <i0000000021>:
    800004da:	e2613827          	fsd	ft6,-464(sp)

00000000800004de <i0000000022>:
    800004de:	4a6379cb          	fnmsub.d	fs3,ft6,ft6,fs1
    800004e2:	48ad                	li	a7,11
    800004e4:	4ea9                	li	t4,10
    800004e6:	6912                	ld	s2,256(sp)
    800004e8:	9899                	and	s1,s1,-26
    800004ea:	032b0bbb          	mulw	s7,s6,s2
    800004ee:	d23b70d3          	fcvt.d.lu	ft1,s6
    800004f2:	d03ab0d3          	fcvt.s.lu	ft1,s5,rup
    800004f6:	4d19                	li	s10,6
    800004f8:	91016903          	lwu	s2,-1776(sp)

00000000800004fc <b0000000023>:
    800004fc:	00000033          	add	zero,zero,zero
    80000500:	031e9863          	bne	t4,a7,80000530 <i0000000028>
    80000504:	00000033          	add	zero,zero,zero
    80000508:	22909fd3          	fsgnjn.d	ft11,ft1,fs1
    8000050c:	2b4a                	fld	fs6,144(sp)
    8000050e:	58032353          	fsqrt.s	ft6,ft6,rdn
    80000512:	c0308dd3          	fcvt.lu.s	s11,ft1,rne
    80000516:	7125                	add	sp,sp,-416
    80000518:	d23df0d3          	fcvt.d.lu	ft1,s11
    8000051c:	1141                	add	sp,sp,-16
    8000051e:	4ea9                	li	t4,10

0000000080000520 <i0000000023>:
    80000520:	e0012daf          	amomaxu.w	s11,zero,(sp)

0000000080000524 <i0000000024>:
    80000524:	07fe                	sll	a5,a5,0x1f

0000000080000526 <i0000000025>:
    80000526:	02ab1833          	mulh	a6,s6,a0

000000008000052a <i0000000026>:
    8000052a:	c037f953          	fcvt.lu.s	s2,fa5

000000008000052e <i0000000027>:
    8000052e:	8f9d                	sub	a5,a5,a5

0000000080000530 <i0000000028>:
    80000530:	8d810783          	lb	a5,-1832(sp)

0000000080000534 <i0000000029>:
    80000534:	9e816783          	lwu	a5,-1560(sp)

0000000080000538 <i000000002a>:
    80000538:	60f13faf          	amoand.d	t6,a5,(sp)

000000008000053c <i000000002b>:
    8000053c:	02ab763b          	remuw	a2,s6,a0

0000000080000540 <i000000002c>:
    80000540:	214121af          	amoxor.w	gp,s4,(sp)

0000000080000544 <i000000002d>:
    80000544:	a132                	fsd	fa2,128(sp)
    80000546:	02ffffbb          	remuw	t6,t6,a5
    8000054a:	408131af          	amoor.d	gp,s0,(sp)
    8000054e:	d20d8bd3          	fcvt.d.w	fs7,s11
    80000552:	4235                	li	tp,13
    80000554:	e1a7ee13          	or	t3,a5,-486
    80000558:	0348ea3b          	remw	s4,a7,s4
    8000055c:	b8812d83          	lw	s11,-1144(sp)

0000000080000560 <b000000002e>:
    80000560:	00000997          	auipc	s3,0x0
    80000564:	03698993          	add	s3,s3,54 # 80000596 <i0000000033>
    80000568:	00098067          	jr	s3
    8000056c:	9bcd                	and	a5,a5,-13
    8000056e:	7dce                	ld	s11,240(sp)
    80000570:	0000100f          	fence.i
    80000574:	74012d03          	lw	s10,1856(sp)
    80000578:	c2367fd3          	fcvt.lu.d	t6,fa2
    8000057c:	20418453          	fsgnj.s	fs0,ft3,ft4
    80000580:	0ab14b03          	lbu	s6,171(sp)

0000000080000584 <i000000002e>:
    80000584:	21e124af          	amoxor.w	s1,t5,(sp)

0000000080000588 <i000000002f>:
    80000588:	0000100f          	fence.i

000000008000058c <i0000000030>:
    8000058c:	03b7b933          	mulhu	s2,a5,s11

0000000080000590 <i0000000031>:
    80000590:	13a4                	add	s1,sp,488

0000000080000592 <i0000000032>:
    80000592:	6161252f          	amoand.w	a0,s6,(sp)

0000000080000596 <i0000000033>:
    80000596:	0ff0000f          	fence

000000008000059a <i0000000034>:
    8000059a:	02a7c7bb          	divw	a5,a5,a0

000000008000059e <i0000000035>:
    8000059e:	02967b53          	fadd.d	fs6,fa2,fs1

00000000800005a2 <i0000000036>:
    800005a2:	ea413423          	sd	tp,-344(sp)

00000000800005a6 <i0000000037>:
    800005a6:	8b2a                	mv	s6,a0

00000000800005a8 <i0000000038>:
    800005a8:	fbda                	sd	s6,496(sp)
    800005aa:	49a9                	li	s3,10
    800005ac:	20211f53          	fneg.s	ft10,ft2
    800005b0:	010caa33          	slt	s4,s9,a6
    800005b4:	e8a6                	sd	s1,80(sp)
    800005b6:	2892                	fld	fa7,256(sp)
    800005b8:	d1112823          	sw	a7,-752(sp)
    800005bc:	00579f9b          	sllw	t6,a5,0x5
    800005c0:	b87a                	fsd	ft10,48(sp)

00000000800005c2 <b0000000039>:
    800005c2:	013e8463          	beq	t4,s3,800005ca <b0000000039+0x8>
    800005c6:	fd5ff56f          	jal	a0,8000059a <i0000000034>
    800005ca:	4ea9                	li	t4,10
    800005cc:	20712b2f          	amoxor.w	s6,t2,(sp)
    800005d0:	4722                	lw	a4,8(sp)
    800005d2:	032b5cbb          	divuw	s9,s6,s2
    800005d6:	c21b7cd3          	fcvt.wu.d	s9,fs6
    800005da:	288f8353          	fmin.s	ft6,ft11,fs0
    800005de:	17f9                	add	a5,a5,-2
    800005e0:	a1f1382f          	amomax.d	a6,t6,(sp)

00000000800005e4 <i0000000039>:
    800005e4:	2f54c393          	xor	t2,s1,757

00000000800005e8 <i000000003a>:
    800005e8:	9e810523          	sb	s0,-1558(sp)

00000000800005ec <i000000003b>:
    800005ec:	0131322f          	amoadd.d	tp,s3,(sp)

00000000800005f0 <i000000003c>:
    800005f0:	5442                	lw	s0,48(sp)

00000000800005f2 <i000000003d>:
    800005f2:	c1b137af          	amominu.d	a5,s11,(sp)

00000000800005f6 <i000000003e>:
    800005f6:	7111                	add	sp,sp,-256
    800005f8:	000e0117          	auipc	sp,0xe0
    800005fc:	a0810113          	add	sp,sp,-1528 # 800e0000 <begin_signature>
    80000600:	6335                	lui	t1,0xd
    80000602:	0d83031b          	addw	t1,t1,216 # d0d8 <_tbss_end+0xd0d8>
    80000606:	911a                	add	sp,sp,t1

0000000080000608 <i000000003f>:
    80000608:	fd411903          	lh	s2,-44(sp)

000000008000060c <i0000000040>:
    8000060c:	02267653          	fadd.d	fa2,fa2,ft2

0000000080000610 <i0000000041>:
    80000610:	41c1352f          	amoor.d	a0,t3,(sp)

0000000080000614 <i0000000042>:
    80000614:	9967f913          	and	s2,a5,-1642

0000000080000618 <i0000000043>:
    80000618:	e0011dd3          	fclass.s	s11,ft2
    8000061c:	4881                	li	a7,0
    8000061e:	000e0117          	auipc	sp,0xe0
    80000622:	9e210113          	add	sp,sp,-1566 # 800e0000 <begin_signature>
    80000626:	6305                	lui	t1,0x1
    80000628:	f603031b          	addw	t1,t1,-160 # f60 <_tbss_end+0xf60>
    8000062c:	911a                	add	sp,sp,t1
    8000062e:	67e1                	lui	a5,0x18
    80000630:	028b5e13          	srl	t3,s6,0x28
    80000634:	8ca1                	xor	s1,s1,s0
    80000636:	0abc                	add	a5,sp,344
    80000638:	70311423          	sh	gp,1800(sp)
    8000063c:	5b013783          	ld	a5,1456(sp)
    80000640:	610d                	add	sp,sp,160

0000000080000642 <b0000000044>:
    80000642:	00000033          	add	zero,zero,zero
    80000646:	051e8363          	beq	t4,a7,8000068c <i000000004a>
    8000064a:	00000033          	add	zero,zero,zero
    8000064e:	f00d8153          	fmv.w.x	ft2,s11
    80000652:	b8b6                	fsd	fa3,112(sp)
    80000654:	a171242f          	amomax.w	s0,s7,(sp)
    80000658:	e20d0fd3          	fmv.x.d	t6,fs10
    8000065c:	bd511f23          	sh	s5,-1058(sp)
    80000660:	d0397b53          	fcvt.s.lu	fs6,s2
    80000664:	03bdecbb          	remw	s9,s11,s11
    80000668:	4ea9                	li	t4,10

000000008000066a <i0000000044>:
    8000066a:	a061322f          	amomax.d	tp,t1,(sp)

000000008000066e <i0000000045>:
    8000066e:	02a787b3          	mul	a5,a5,a0
    80000672:	000e0117          	auipc	sp,0xe0
    80000676:	98e10113          	add	sp,sp,-1650 # 800e0000 <begin_signature>
    8000067a:	6309                	lui	t1,0x2
    8000067c:	c683031b          	addw	t1,t1,-920 # 1c68 <_tbss_end+0x1c68>
    80000680:	911a                	add	sp,sp,t1

0000000080000682 <i0000000046>:
    80000682:	c83e                	sw	a5,16(sp)

0000000080000684 <i0000000047>:
    80000684:	c032a9d3          	fcvt.lu.s	s3,ft5,rdn

0000000080000688 <i0000000048>:
    80000688:	09f8                	add	a4,sp,220

000000008000068a <i0000000049>:
    8000068a:	4501                	li	a0,0

000000008000068c <i000000004a>:
    8000068c:	53213023          	sd	s2,1312(sp)

0000000080000690 <i000000004b>:
    80000690:	01691b1b          	sllw	s6,s2,0x16

0000000080000694 <i000000004c>:
    80000694:	030685bb          	mulw	a1,a3,a6

0000000080000698 <i000000004d>:
    80000698:	22c4a653          	fsgnjx.d	fa2,fs1,fa2
    8000069c:	000e0117          	auipc	sp,0xe0
    800006a0:	96410113          	add	sp,sp,-1692 # 800e0000 <begin_signature>
    800006a4:	632d                	lui	t1,0xb
    800006a6:	a983031b          	addw	t1,t1,-1384 # aa98 <_tbss_end+0xaa98>
    800006aa:	911a                	add	sp,sp,t1

00000000800006ac <i000000004e>:
    800006ac:	e0510d03          	lb	s10,-507(sp)
    800006b0:	000e0117          	auipc	sp,0xe0
    800006b4:	95010113          	add	sp,sp,-1712 # 800e0000 <begin_signature>
    800006b8:	6311                	lui	t1,0x4
    800006ba:	5703031b          	addw	t1,t1,1392 # 4570 <_tbss_end+0x4570>
    800006be:	911a                	add	sp,sp,t1
    800006c0:	000e0117          	auipc	sp,0xe0
    800006c4:	94010113          	add	sp,sp,-1728 # 800e0000 <begin_signature>
    800006c8:	6329                	lui	t1,0xa
    800006ca:	4483031b          	addw	t1,t1,1096 # a448 <_tbss_end+0xa448>
    800006ce:	911a                	add	sp,sp,t1
    800006d0:	d6c16a83          	lwu	s5,-660(sp)
    800006d4:	86816b03          	lwu	s6,-1944(sp)
    800006d8:	b182                	fsd	ft0,224(sp)
    800006da:	28016f83          	lwu	t6,640(sp)
    800006de:	1160                	add	s0,sp,172
    800006e0:	ac2a                	fsd	fa0,24(sp)
    800006e2:	de3e                	sw	a5,60(sp)

00000000800006e4 <b000000004f>:
    800006e4:	00000d97          	auipc	s11,0x0
    800006e8:	030d8d93          	add	s11,s11,48 # 80000714 <i0000000054>
    800006ec:	000d8567          	jalr	a0,s11
    800006f0:	8799                	sra	a5,a5,0x6
    800006f2:	de5a                	sw	s6,60(sp)
    800006f4:	e121222f          	amomaxu.w	tp,s2,(sp)
    800006f8:	6129                	add	sp,sp,192
    800006fa:	6cb9                	lui	s9,0xe
    800006fc:	09612b2f          	amoswap.w	s6,s6,(sp)
    80000700:	029ba833          	mulhsu	a6,s7,s1

0000000080000704 <i000000004f>:
    80000704:	0ff0000f          	fence

0000000080000708 <i0000000050>:
    80000708:	02f50833          	mul	a6,a0,a5

000000008000070c <i0000000051>:
    8000070c:	38812d03          	lw	s10,904(sp)

0000000080000710 <i0000000052>:
    80000710:	b1f2                	fsd	ft8,224(sp)

0000000080000712 <i0000000053>:
    80000712:	1502                	sll	a0,a0,0x20

0000000080000714 <i0000000054>:
    80000714:	00f91933          	sll	s2,s2,a5

0000000080000718 <i0000000055>:
    80000718:	0a8874d3          	fsub.d	fs1,fa6,fs0

000000008000071c <i0000000056>:
    8000071c:	e2012503          	lw	a0,-480(sp)

0000000080000720 <i0000000057>:
    80000720:	6129                	add	sp,sp,192

0000000080000722 <i0000000058>:
    80000722:	03b996b3          	mulh	a3,s3,s11

0000000080000726 <i0000000059>:
    80000726:	e20011d3          	fclass.d	gp,ft0
    8000072a:	a31a0dd3          	fle.d	s11,fs4,fa7
    8000072e:	011121af          	amoadd.w	gp,a7,(sp)
    80000732:	41213daf          	amoor.d	s11,s2,(sp)
    80000736:	03b97dbb          	remuw	s11,s2,s11
    8000073a:	f44a                	sd	s2,40(sp)
    8000073c:	41b137af          	amoor.d	a5,s11,(sp)
    80000740:	47b2                	lw	a5,12(sp)

0000000080000742 <b000000005a>:
    80000742:	00000b97          	auipc	s7,0x0
    80000746:	03eb8b93          	add	s7,s7,62 # 80000780 <i0000000060>
    8000074a:	000b80e7          	jalr	s7
    8000074e:	69212223          	sw	s2,1668(sp)
    80000752:	d2347cd3          	fcvt.d.lu	fs9,s0
    80000756:	e18127af          	amomaxu.w	a5,s8,(sp)
    8000075a:	02847933          	remu	s2,s0,s0
    8000075e:	a0f12daf          	amomax.w	s11,a5,(sp)
    80000762:	c041282f          	amominu.w	a6,tp,(sp)
    80000766:	a0f1392f          	amomax.d	s2,a5,(sp)

000000008000076a <i000000005a>:
    8000076a:	d036ad53          	fcvt.s.lu	fs10,a3,rdn

000000008000076e <i000000005b>:
    8000076e:	9e614d83          	lbu	s11,-1562(sp)

0000000080000772 <i000000005c>:
    80000772:	6129                	add	sp,sp,192

0000000080000774 <i000000005d>:
    80000774:	d2397cd3          	fcvt.d.lu	fs9,s2

0000000080000778 <i000000005e>:
    80000778:	08d1342f          	amoswap.d	s0,a3,(sp)

000000008000077c <i000000005f>:
    8000077c:	e7016183          	lwu	gp,-400(sp)

0000000080000780 <i0000000060>:
    80000780:	1c812607          	flw	fa2,456(sp)

0000000080000784 <i0000000061>:
    80000784:	c2217dd3          	fcvt.l.d	s11,ft2

0000000080000788 <i0000000062>:
    80000788:	80d127af          	amomin.w	a5,a3,(sp)

000000008000078c <i0000000063>:
    8000078c:	101c                	add	a5,sp,32

000000008000078e <i0000000064>:
    8000078e:	0834                	add	a3,sp,24
    80000790:	4829                	li	a6,10
    80000792:	cb211d03          	lh	s10,-846(sp)
    80000796:	09bc                	add	a5,sp,216
    80000798:	2aadf9c7          	fmsub.d	fs3,fs11,fa0,ft5
    8000079c:	c21d7dd3          	fcvt.wu.d	s11,fs10
    800007a0:	d039f653          	fcvt.s.lu	fa2,s3
    800007a4:	20072bd3          	fsgnjx.s	fs7,fa4,ft0
    800007a8:	6121                	add	sp,sp,64

00000000800007aa <b0000000065>:
    800007aa:	010e8863          	beq	t4,a6,800007ba <b0000000065+0x10>
    800007ae:	00000817          	auipc	a6,0x0
    800007b2:	fce80813          	add	a6,a6,-50 # 8000077c <i000000005f>
    800007b6:	00080067          	jr	a6
    800007ba:	4ea9                	li	t4,10
    800007bc:	00f9591b          	srlw	s2,s2,0xf
    800007c0:	0491                	add	s1,s1,4
    800007c2:	e20393d3          	fclass.d	t2,ft7
    800007c6:	d027f153          	fcvt.s.l	ft2,a5
    800007ca:	50f13823          	sd	a5,1296(sp)
    800007ce:	0796                	sll	a5,a5,0x5
    800007d0:	b83ac913          	xor	s2,s5,-1149

00000000800007d4 <i0000000065>:
    800007d4:	c02d7fd3          	fcvt.l.s	t6,fs10

00000000800007d8 <i0000000066>:
    800007d8:	29a49653          	fmax.s	fa2,fs1,fs10

00000000800007dc <i0000000067>:
    800007dc:	e022                	sd	s0,0(sp)

00000000800007de <i0000000068>:
    800007de:	d3c7891b          	addw	s2,a5,-708 # 17d3c <_tbss_end+0x17d3c>

00000000800007e2 <i0000000069>:
    800007e2:	025c                	add	a5,sp,260

00000000800007e4 <i000000006a>:
    800007e4:	01851d13          	sll	s10,a0,0x18

00000000800007e8 <i000000006b>:
    800007e8:	141d                	add	s0,s0,-25

00000000800007ea <i000000006c>:
    800007ea:	893e                	mv	s2,a5

00000000800007ec <i000000006d>:
    800007ec:	8651                	sra	a2,a2,0x14

00000000800007ee <i000000006e>:
    800007ee:	0334093b          	mulw	s2,s0,s3

00000000800007f2 <i000000006f>:
    800007f2:	34e2                	fld	fs1,56(sp)
    800007f4:	4bb1                	li	s7,12
    800007f6:	0e85                	add	t4,t4,1
    800007f8:	000e0117          	auipc	sp,0xe0
    800007fc:	80810113          	add	sp,sp,-2040 # 800e0000 <begin_signature>
    80000800:	6321                	lui	t1,0x8
    80000802:	0783031b          	addw	t1,t1,120 # 8078 <_tbss_end+0x8078>
    80000806:	911a                	add	sp,sp,t1
    80000808:	000df117          	auipc	sp,0xdf
    8000080c:	7f810113          	add	sp,sp,2040 # 800e0000 <begin_signature>
    80000810:	6309                	lui	t1,0x2
    80000812:	d283031b          	addw	t1,t1,-728 # 1d28 <_tbss_end+0x1d28>
    80000816:	911a                	add	sp,sp,t1
    80000818:	c030cdd3          	fcvt.lu.s	s11,ft1,rmm
    8000081c:	e0a2                	sd	s0,64(sp)
    8000081e:	54816a83          	lwu	s5,1352(sp)
    80000822:	3d82                	fld	fs11,32(sp)
    80000824:	2346                	fld	ft6,80(sp)
    80000826:	22dca353          	fsgnjx.d	ft6,fs9,fa3
    8000082a:	00d7979b          	sllw	a5,a5,0xd

000000008000082e <b0000000070>:
    8000082e:	017e8863          	beq	t4,s7,8000083e <b0000000070+0x10>
    80000832:	00000b97          	auipc	s7,0x0
    80000836:	fb2b8b93          	add	s7,s7,-78 # 800007e4 <i000000006a>
    8000083a:	000b8567          	jalr	a0,s7
    8000083e:	4ea9                	li	t4,10
    80000840:	0329773b          	remuw	a4,s2,s2
    80000844:	8a5dea13          	or	s4,s11,-1883
    80000848:	374e                	fld	fa4,240(sp)
    8000084a:	ff813d03          	ld	s10,-8(sp)
    8000084e:	400d0a3b          	subw	s4,s10,zero
    80000852:	032928b3          	mulhsu	a7,s2,s2
    80000856:	e2031dd3          	fclass.d	s11,ft6
    8000085a:	000df117          	auipc	sp,0xdf
    8000085e:	7a610113          	add	sp,sp,1958 # 800e0000 <begin_signature>
    80000862:	632d                	lui	t1,0xb
    80000864:	5203031b          	addw	t1,t1,1312 # b520 <_tbss_end+0xb520>
    80000868:	911a                	add	sp,sp,t1

000000008000086a <i0000000070>:
    8000086a:	e9be                	sd	a5,208(sp)
    8000086c:	000df117          	auipc	sp,0xdf
    80000870:	79410113          	add	sp,sp,1940 # 800e0000 <begin_signature>
    80000874:	6309                	lui	t1,0x2
    80000876:	6b83031b          	addw	t1,t1,1720 # 26b8 <_tbss_end+0x26b8>
    8000087a:	911a                	add	sp,sp,t1

000000008000087c <i0000000071>:
    8000087c:	b036                	fsd	fa3,32(sp)

000000008000087e <i0000000072>:
    8000087e:	d2510483          	lb	s1,-731(sp)

0000000080000882 <i0000000073>:
    80000882:	28ea                	fld	fa7,152(sp)

0000000080000884 <i0000000074>:
    80000884:	61b12d2f          	amoand.w	s10,s11,(sp)
    80000888:	000df117          	auipc	sp,0xdf
    8000088c:	77810113          	add	sp,sp,1912 # 800e0000 <begin_signature>
    80000890:	6315                	lui	t1,0x5
    80000892:	5603031b          	addw	t1,t1,1376 # 5560 <_tbss_end+0x5560>
    80000896:	911a                	add	sp,sp,t1

0000000080000898 <i0000000075>:
    80000898:	a7416783          	lwu	a5,-1420(sp)

000000008000089c <i0000000076>:
    8000089c:	4091292f          	amoor.w	s2,s1,(sp)

00000000800008a0 <i0000000077>:
    800008a0:	d0270653          	fcvt.s.l	fa2,a4,rne

00000000800008a4 <i0000000078>:
    800008a4:	8e5d                	or	a2,a2,a5
    800008a6:	000df117          	auipc	sp,0xdf
    800008aa:	75a10113          	add	sp,sp,1882 # 800e0000 <begin_signature>
    800008ae:	6309                	lui	t1,0x2
    800008b0:	1a83031b          	addw	t1,t1,424 # 21a8 <_tbss_end+0x21a8>
    800008b4:	911a                	add	sp,sp,t1

00000000800008b6 <i0000000079>:
    800008b6:	5b010f23          	sb	a6,1470(sp)

00000000800008ba <i000000007a>:
    800008ba:	40a55533          	sra	a0,a0,a0
    800008be:	4c25                	li	s8,9
    800008c0:	4ea9                	li	t4,10
    800008c2:	000df117          	auipc	sp,0xdf
    800008c6:	73e10113          	add	sp,sp,1854 # 800e0000 <begin_signature>
    800008ca:	6309                	lui	t1,0x2
    800008cc:	8703031b          	addw	t1,t1,-1936 # 1870 <_tbss_end+0x1870>
    800008d0:	911a                	add	sp,sp,t1
    800008d2:	710d                	add	sp,sp,-352
    800008d4:	21b13e2f          	amoxor.d	t3,s11,(sp)
    800008d8:	88611383          	lh	t2,-1914(sp)
    800008dc:	22752153          	fsgnjx.d	ft2,fa0,ft7
    800008e0:	032dce3b          	divw	t3,s11,s2
    800008e4:	11a4                	add	s1,sp,232
    800008e6:	386a                	fld	fa6,184(sp)

00000000800008e8 <b000000007b>:
    800008e8:	00000033          	add	zero,zero,zero
    800008ec:	03dc5a63          	bge	s8,t4,80000920 <i0000000080>
    800008f0:	00000033          	add	zero,zero,zero
    800008f4:	0000100f          	fence.i
    800008f8:	20740153          	fsgnj.s	ft2,fs0,ft7
    800008fc:	03af9a33          	mulh	s4,t6,s10
    80000900:	76a10903          	lb	s2,1898(sp)
    80000904:	0898                	add	a4,sp,80
    80000906:	bca2                	fsd	fs0,120(sp)
    80000908:	0ff0000f          	fence
    8000090c:	4ea9                	li	t4,10

000000008000090e <i000000007b>:
    8000090e:	0327e7b3          	rem	a5,a5,s2

0000000080000912 <i000000007c>:
    80000912:	66c15783          	lhu	a5,1644(sp)

0000000080000916 <i000000007d>:
    80000916:	031375b3          	remu	a1,t1,a7

000000008000091a <i000000007e>:
    8000091a:	00301533          	sll	a0,zero,gp

000000008000091e <i000000007f>:
    8000091e:	d04e                	sw	s3,32(sp)

0000000080000920 <i0000000080>:
    80000920:	e05e                	sd	s7,0(sp)

0000000080000922 <i0000000081>:
    80000922:	eaa13c23          	sd	a0,-328(sp)

0000000080000926 <i0000000082>:
    80000926:	09fc                	add	a5,sp,220

0000000080000928 <i0000000083>:
    80000928:	0ff0000f          	fence

000000008000092c <i0000000084>:
    8000092c:	61c1352f          	amoand.d	a0,t3,(sp)

0000000080000930 <i0000000085>:
    80000930:	b8b2                	fsd	fa2,112(sp)
    80000932:	4fb1                	li	t6,12
    80000934:	0e85                	add	t4,t4,1
    80000936:	a13a14d3          	flt.s	s1,fs4,fs3
    8000093a:	29ad04d3          	fmin.s	fs1,fs10,fs10
    8000093e:	22c62953          	fabs.d	fs2,fa2
    80000942:	fc811f23          	sh	s0,-34(sp)
    80000946:	f03e                	sd	a5,32(sp)
    80000948:	f942                	sd	a6,176(sp)
    8000094a:	03bdbb33          	mulhu	s6,s11,s11

000000008000094e <b0000000086>:
    8000094e:	00000033          	add	zero,zero,zero
    80000952:	fdfe98e3          	bne	t4,t6,80000922 <i0000000081>
    80000956:	00000033          	add	zero,zero,zero
    8000095a:	03603933          	mulhu	s2,zero,s6
    8000095e:	c0a6                	sw	s1,64(sp)
    80000960:	f20d80d3          	fmv.d.x	ft1,s11
    80000964:	0bbc                	add	a5,sp,472
    80000966:	1782                	sll	a5,a5,0x20
    80000968:	00712daf          	amoadd.w	s11,t2,(sp)
    8000096c:	c20c71d3          	fcvt.w.d	gp,fs8
    80000970:	4ea9                	li	t4,10

0000000080000972 <i0000000086>:
    80000972:	0ff0000f          	fence

0000000080000976 <i0000000087>:
    80000976:	a24016d3          	flt.d	a3,ft0,ft4

000000008000097a <i0000000088>:
    8000097a:	c02d0853          	fcvt.l.s	a6,fs10,rne

000000008000097e <i0000000089>:
    8000097e:	032916b3          	mulh	a3,s2,s2

0000000080000982 <i000000008a>:
    80000982:	b03a                	fsd	fa4,32(sp)

0000000080000984 <i000000008b>:
    80000984:	e2028dd3          	fmv.x.d	s11,ft5

0000000080000988 <i000000008c>:
    80000988:	234e                	fld	ft6,208(sp)

000000008000098a <i000000008d>:
    8000098a:	7139                	add	sp,sp,-64

000000008000098c <i000000008e>:
    8000098c:	02747233          	remu	tp,s0,t2

0000000080000990 <i000000008f>:
    80000990:	08bc                	add	a5,sp,88

0000000080000992 <i0000000090>:
    80000992:	0308593b          	divuw	s2,a6,a6
    80000996:	4b01                	li	s6,0
    80000998:	000df117          	auipc	sp,0xdf
    8000099c:	66810113          	add	sp,sp,1640 # 800e0000 <begin_signature>
    800009a0:	6339                	lui	t1,0xe
    800009a2:	2583031b          	addw	t1,t1,600 # e258 <_tbss_end+0xe258>
    800009a6:	911a                	add	sp,sp,t1
    800009a8:	030ff733          	remu	a4,t6,a6
    800009ac:	8c19                	sub	s0,s0,a4
    800009ae:	5402                	lw	s0,32(sp)
    800009b0:	010cec33          	or	s8,s9,a6
    800009b4:	ce4a                	sw	s2,28(sp)
    800009b6:	c20d7bd3          	fcvt.w.d	s7,fs10
    800009ba:	02f7fdbb          	remuw	s11,a5,a5

00000000800009be <b0000000091>:
    800009be:	00000033          	add	zero,zero,zero
    800009c2:	036e8863          	beq	t4,s6,800009f2 <i0000000096>
    800009c6:	00000033          	add	zero,zero,zero
    800009ca:	2339a3d3          	fabs.d	ft7,fs3
    800009ce:	0ff0000f          	fence
    800009d2:	5a0d7853          	fsqrt.d	fa6,fs10
    800009d6:	5a0d7353          	fsqrt.d	ft6,fs10
    800009da:	8f39                	xor	a4,a4,a4
    800009dc:	44013003          	ld	zero,1088(sp)
    800009e0:	ccc2                	sw	a6,88(sp)
    800009e2:	4ea9                	li	t4,10

00000000800009e4 <i0000000091>:
    800009e4:	0b60                	add	s0,sp,412

00000000800009e6 <i0000000092>:
    800009e6:	dec15903          	lhu	s2,-532(sp)

00000000800009ea <i0000000093>:
    800009ea:	9d3d                	addw	a0,a0,a5

00000000800009ec <i0000000094>:
    800009ec:	2ba60653          	fmin.d	fa2,fa2,fs10

00000000800009f0 <i0000000095>:
    800009f0:	f92e                	sd	a1,176(sp)

00000000800009f2 <i0000000096>:
    800009f2:	5e812c23          	sw	s0,1528(sp)

00000000800009f6 <i0000000097>:
    800009f6:	d2367553          	fcvt.d.lu	fa0,a2

00000000800009fa <i0000000098>:
    800009fa:	00401f13          	sll	t5,zero,0x4

00000000800009fe <i0000000099>:
    800009fe:	25ad                	addw	a1,a1,11

0000000080000a00 <i000000009a>:
    80000a00:	c22679d3          	fcvt.l.d	s3,fa2

0000000080000a04 <i000000009b>:
    80000a04:	60a13aaf          	amoand.d	s5,a0,(sp)

0000000080000a08 <i000000009c>:
    80000a08:	1161                	add	sp,sp,-8
    80000a0a:	e41e                	sd	t2,8(sp)
    80000a0c:	4381                	li	t2,0
    80000a0e:	0003d383          	lhu	t2,0(t2)
    80000a12:	63a2                	ld	t2,8(sp)
    80000a14:	0121                	add	sp,sp,8
    80000a16:	4b01                	li	s6,0
    80000a18:	000df117          	auipc	sp,0xdf
    80000a1c:	5e810113          	add	sp,sp,1512 # 800e0000 <begin_signature>
    80000a20:	6329                	lui	t1,0xa
    80000a22:	1a03031b          	addw	t1,t1,416 # a1a0 <_tbss_end+0xa1a0>
    80000a26:	911a                	add	sp,sp,t1
    80000a28:	34ed                	addw	s1,s1,-5
    80000a2a:	3706                	fld	fa4,96(sp)
    80000a2c:	bb713823          	sd	s7,-1104(sp)
    80000a30:	d22c7d53          	fcvt.d.l	fs10,s8
    80000a34:	6ee15c03          	lhu	s8,1774(sp)
    80000a38:	844a                	mv	s0,s2
    80000a3a:	2562                	fld	fa0,24(sp)

0000000080000a3c <b000000009d>:
    80000a3c:	00000033          	add	zero,zero,zero
    80000a40:	036e8a63          	beq	t4,s6,80000a74 <i00000000a3>
    80000a44:	00000033          	add	zero,zero,zero
    80000a48:	400131af          	amoor.d	gp,zero,(sp)
    80000a4c:	032959b3          	divu	s3,s2,s2
    80000a50:	00e00033          	add	zero,zero,a4
    80000a54:	9c19                	subw	s0,s0,a4
    80000a56:	9cb9                	addw	s1,s1,a4
    80000a58:	b0a6                	fsd	fs1,96(sp)
    80000a5a:	9af12223          	sw	a5,-1628(sp)
    80000a5e:	4ea9                	li	t4,10

0000000080000a60 <i000000009d>:
    80000a60:	0022d073          	fsrmi	zero,5

0000000080000a64 <i000000009e>:
    80000a64:	580d2a53          	fsqrt.s	fs4,fs10,rdn

0000000080000a68 <i000000009f>:
    80000a68:	1bd0                	add	a2,sp,500

0000000080000a6a <i00000000a0>:
    80000a6a:	02c672d3          	fadd.d	ft5,fa2,fa2

0000000080000a6e <i00000000a1>:
    80000a6e:	0000100f          	fence.i

0000000080000a72 <i00000000a2>:
    80000a72:	8cee                	mv	s9,s11

0000000080000a74 <i00000000a3>:
    80000a74:	0a74                	add	a3,sp,284

0000000080000a76 <i00000000a4>:
    80000a76:	0288d533          	divu	a0,a7,s0

0000000080000a7a <i00000000a5>:
    80000a7a:	67d5                	lui	a5,0x15

0000000080000a7c <i00000000a6>:
    80000a7c:	3642                	fld	fa2,48(sp)

0000000080000a7e <i00000000a7>:
    80000a7e:	03567e3b          	remuw	t3,a2,s5

0000000080000a82 <i00000000a8>:
    80000a82:	0325753b          	remuw	a0,a0,s2
    80000a86:	4a81                	li	s5,0
    80000a88:	000df117          	auipc	sp,0xdf
    80000a8c:	57810113          	add	sp,sp,1400 # 800e0000 <begin_signature>
    80000a90:	6315                	lui	t1,0x5
    80000a92:	f303031b          	addw	t1,t1,-208 # 4f30 <_tbss_end+0x4f30>
    80000a96:	911a                	add	sp,sp,t1
    80000a98:	a32b0453          	fle.d	s0,fs6,fs2
    80000a9c:	03124b33          	div	s6,tp,a7
    80000aa0:	1b5c                	add	a5,sp,436
    80000aa2:	c0304453          	fcvt.lu.s	s0,ft0,rmm
    80000aa6:	7486                	ld	s1,96(sp)
    80000aa8:	1ae4                	add	s1,sp,380
    80000aaa:	c025c453          	fcvt.l.s	s0,fa1,rmm

0000000080000aae <b00000000a9>:
    80000aae:	00000033          	add	zero,zero,zero
    80000ab2:	035e8963          	beq	t4,s5,80000ae4 <i00000000ae>
    80000ab6:	00000033          	add	zero,zero,zero
    80000aba:	e20b0453          	fmv.x.d	s0,fs6
    80000abe:	43745793          	sra	a5,s0,0x37
    80000ac2:	03bffa3b          	remuw	s4,t6,s11
    80000ac6:	9899                	and	s1,s1,-26
    80000ac8:	87ce                	mv	a5,s3
    80000aca:	b432                	fsd	fa2,40(sp)
    80000acc:	40f121af          	amoor.w	gp,a5,(sp)
    80000ad0:	4ea9                	li	t4,10

0000000080000ad2 <i00000000a9>:
    80000ad2:	28948353          	fmin.s	ft6,fs1,fs1

0000000080000ad6 <i00000000aa>:
    80000ad6:	0021d073          	fsrmi	zero,3

0000000080000ada <i00000000ab>:
    80000ada:	d02006d3          	fcvt.s.l	fa3,zero,rne

0000000080000ade <i00000000ac>:
    80000ade:	2b013503          	ld	a0,688(sp)

0000000080000ae2 <i00000000ad>:
    80000ae2:	9fde                	add	t6,t6,s7

0000000080000ae4 <i00000000ae>:
    80000ae4:	37e1                	addw	a5,a5,-8 # 14ff8 <_tbss_end+0x14ff8>

0000000080000ae6 <i00000000af>:
    80000ae6:	e20f0fd3          	fmv.x.d	t6,ft10

0000000080000aea <i00000000b0>:
    80000aea:	032797b3          	mulh	a5,a5,s2

0000000080000aee <i00000000b1>:
    80000aee:	123f73d3          	fmul.d	ft7,ft10,ft3

0000000080000af2 <i00000000b2>:
    80000af2:	61c1362f          	amoand.d	a2,t3,(sp)

0000000080000af6 <i00000000b3>:
    80000af6:	0015119b          	sllw	gp,a0,0x1

0000000080000afa <i00000000b4>:
    80000afa:	42a9                	li	t0,10
    80000afc:	0000100f          	fence.i
    80000b00:	41913e2f          	amoor.d	t3,s9,(sp)
    80000b04:	0313fabb          	remuw	s5,t2,a7
    80000b08:	8c61                	and	s0,s0,s0
    80000b0a:	b45a                	fsd	fs6,40(sp)
    80000b0c:	09a0                	add	s0,sp,216
    80000b0e:	0000100f          	fence.i

0000000080000b12 <b00000000b5>:
    80000b12:	00000817          	auipc	a6,0x0
    80000b16:	04680813          	add	a6,a6,70 # 80000b58 <i00000000ba>
    80000b1a:	00080567          	jalr	a0,a6
    80000b1e:	d0204d53          	fcvt.s.l	fs10,zero,rmm
    80000b22:	d422                	sw	s0,40(sp)
    80000b24:	09554d53          	fsub.s	fs10,fa0,fs5,rmm
    80000b28:	12816983          	lwu	s3,296(sp)
    80000b2c:	018b97bb          	sllw	a5,s7,s8
    80000b30:	6131292f          	amoand.w	s2,s3,(sp)
    80000b34:	8439                	sra	s0,s0,0xe
    80000b36:	000df117          	auipc	sp,0xdf
    80000b3a:	4ca10113          	add	sp,sp,1226 # 800e0000 <begin_signature>
    80000b3e:	630d                	lui	t1,0x3
    80000b40:	9683031b          	addw	t1,t1,-1688 # 2968 <_tbss_end+0x2968>
    80000b44:	911a                	add	sp,sp,t1

0000000080000b46 <i00000000b5>:
    80000b46:	dbc10903          	lb	s2,-580(sp)

0000000080000b4a <i00000000b6>:
    80000b4a:	2bfa0d53          	fmin.d	fs10,fs4,ft11

0000000080000b4e <i00000000b7>:
    80000b4e:	03e8d93b          	divuw	s2,a7,t5

0000000080000b52 <i00000000b8>:
    80000b52:	c22ff353          	fcvt.l.d	t1,ft11

0000000080000b56 <i00000000b9>:
    80000b56:	65e6                	ld	a1,88(sp)

0000000080000b58 <i00000000ba>:
    80000b58:	d4a11783          	lh	a5,-694(sp)

0000000080000b5c <i00000000bb>:
    80000b5c:	bd1a                	fsd	ft6,184(sp)

0000000080000b5e <i00000000bc>:
    80000b5e:	54ad                	li	s1,-21

0000000080000b60 <i00000000bd>:
    80000b60:	94010a23          	sb	zero,-1708(sp)

0000000080000b64 <i00000000be>:
    80000b64:	bf514783          	lbu	a5,-1035(sp)

0000000080000b68 <i00000000bf>:
    80000b68:	a1e124af          	amomax.w	s1,t5,(sp)
    80000b6c:	000df117          	auipc	sp,0xdf
    80000b70:	49410113          	add	sp,sp,1172 # 800e0000 <begin_signature>
    80000b74:	6305                	lui	t1,0x1
    80000b76:	6083031b          	addw	t1,t1,1544 # 1608 <_tbss_end+0x1608>
    80000b7a:	911a                	add	sp,sp,t1
    80000b7c:	000df117          	auipc	sp,0xdf
    80000b80:	48410113          	add	sp,sp,1156 # 800e0000 <begin_signature>
    80000b84:	6339                	lui	t1,0xe
    80000b86:	1603031b          	addw	t1,t1,352 # e160 <_tbss_end+0xe160>
    80000b8a:	911a                	add	sp,sp,t1
    80000b8c:	000df117          	auipc	sp,0xdf
    80000b90:	47410113          	add	sp,sp,1140 # 800e0000 <begin_signature>
    80000b94:	6309                	lui	t1,0x2
    80000b96:	a503031b          	addw	t1,t1,-1456 # 1a50 <_tbss_end+0x1a50>
    80000b9a:	911a                	add	sp,sp,t1
    80000b9c:	7159                	add	sp,sp,-112
    80000b9e:	32618013          	add	zero,gp,806
    80000ba2:	4752                	lw	a4,20(sp)
    80000ba4:	5906                	lw	s2,96(sp)
    80000ba6:	2a718653          	fmin.d	fa2,ft3,ft7
    80000baa:	f20a0353          	fmv.d.x	ft6,s4
    80000bae:	9f016903          	lwu	s2,-1552(sp)

0000000080000bb2 <b00000000c0>:
    80000bb2:	0500006f          	j	80000c02 <i00000000c6>
    80000bb6:	09b124af          	amoswap.w	s1,s11,(sp)
    80000bba:	030cd833          	divu	a6,s9,a6
    80000bbe:	34a6                	fld	fs1,104(sp)
    80000bc0:	6462                	ld	s0,24(sp)
    80000bc2:	01300033          	add	zero,zero,s3
    80000bc6:	20814d83          	lbu	s11,520(sp)
    80000bca:	0d278d93          	add	s11,a5,210
    80000bce:	000df117          	auipc	sp,0xdf
    80000bd2:	43210113          	add	sp,sp,1074 # 800e0000 <begin_signature>
    80000bd6:	6309                	lui	t1,0x2
    80000bd8:	8b03031b          	addw	t1,t1,-1872 # 18b0 <_tbss_end+0x18b0>
    80000bdc:	911a                	add	sp,sp,t1

0000000080000bde <i00000000c0>:
    80000bde:	b9f6                	fsd	ft9,240(sp)

0000000080000be0 <i00000000c1>:
    80000be0:	0ff0000f          	fence
    80000be4:	000df117          	auipc	sp,0xdf
    80000be8:	41c10113          	add	sp,sp,1052 # 800e0000 <begin_signature>
    80000bec:	6321                	lui	t1,0x8
    80000bee:	8f03031b          	addw	t1,t1,-1808 # 78f0 <_tbss_end+0x78f0>
    80000bf2:	911a                	add	sp,sp,t1

0000000080000bf4 <i00000000c2>:
    80000bf4:	0ac10903          	lb	s2,172(sp)

0000000080000bf8 <i00000000c3>:
    80000bf8:	b8b2                	fsd	fa2,112(sp)

0000000080000bfa <i00000000c4>:
    80000bfa:	41a60e33          	sub	t3,a2,s10

0000000080000bfe <i00000000c5>:
    80000bfe:	02f7ea33          	rem	s4,a5,a5

0000000080000c02 <i00000000c6>:
    80000c02:	9e39                	addw	a2,a2,a4

0000000080000c04 <i00000000c7>:
    80000c04:	c626                	sw	s1,12(sp)

0000000080000c06 <i00000000c8>:
    80000c06:	02f7e33b          	remw	t1,a5,a5

0000000080000c0a <i00000000c9>:
    80000c0a:	c051392f          	amominu.d	s2,t0,(sp)

0000000080000c0e <i00000000ca>:
    80000c0e:	3606                	fld	fa2,96(sp)
    80000c10:	4cad                	li	s9,11
    80000c12:	0e85                	add	t4,t4,1
    80000c14:	d0816003          	lwu	zero,-760(sp)
    80000c18:	41a1242f          	amoor.w	s0,s10,(sp)
    80000c1c:	00488fbb          	addw	t6,a7,tp
    80000c20:	09210ba3          	sb	s2,151(sp)
    80000c24:	1bc4                	add	s1,sp,500
    80000c26:	a0f12aaf          	amomax.w	s5,a5,(sp)
    80000c2a:	7105                	add	sp,sp,-480

0000000080000c2c <b00000000cb>:
    80000c2c:	00000033          	add	zero,zero,zero
    80000c30:	fd9e87e3          	beq	t4,s9,80000bfe <i00000000c5>
    80000c34:	00000033          	add	zero,zero,zero
    80000c38:	d01b12d3          	fcvt.s.wu	ft5,s6,rtz
    80000c3c:	02e1e733          	rem	a4,gp,a4
    80000c40:	8795                	sra	a5,a5,0x5
    80000c42:	74014e03          	lbu	t3,1856(sp)
    80000c46:	019dd91b          	srlw	s2,s11,0x19
    80000c4a:	2725                	addw	a4,a4,9
    80000c4c:	73512a23          	sw	s5,1844(sp)
    80000c50:	4ea9                	li	t4,10
    80000c52:	000df117          	auipc	sp,0xdf
    80000c56:	3ae10113          	add	sp,sp,942 # 800e0000 <begin_signature>
    80000c5a:	6321                	lui	t1,0x8
    80000c5c:	6103031b          	addw	t1,t1,1552 # 8610 <_tbss_end+0x8610>
    80000c60:	911a                	add	sp,sp,t1

0000000080000c62 <i00000000cb>:
    80000c62:	86f11c23          	sh	a5,-1928(sp)

0000000080000c66 <i00000000cc>:
    80000c66:	cd016903          	lwu	s2,-816(sp)

0000000080000c6a <i00000000cd>:
    80000c6a:	03efc7b3          	div	a5,t6,t5

0000000080000c6e <i00000000ce>:
    80000c6e:	54f2                	lw	s1,60(sp)

0000000080000c70 <i00000000cf>:
    80000c70:	d02914d3          	fcvt.s.l	fs1,s2,rtz

0000000080000c74 <i00000000d0>:
    80000c74:	41b25d9b          	sraw	s11,tp,0x1b

0000000080000c78 <i00000000d1>:
    80000c78:	4de9a513          	slti	a0,s3,1246

0000000080000c7c <i00000000d2>:
    80000c7c:	e2038b53          	fmv.x.d	s6,ft7

0000000080000c80 <i00000000d3>:
    80000c80:	0ff0000f          	fence

0000000080000c84 <i00000000d4>:
    80000c84:	e131382f          	amomaxu.d	a6,s3,(sp)

0000000080000c88 <i00000000d5>:
    80000c88:	09e126af          	amoswap.w	a3,t5,(sp)
    80000c8c:	0ff0000f          	fence
    80000c90:	5962                	lw	s2,56(sp)
    80000c92:	9f9d                	subw	a5,a5,a5
    80000c94:	32a7879b          	addw	a5,a5,810
    80000c98:	03b9403b          	divw	zero,s2,s11
    80000c9c:	0a667dd3          	fsub.d	fs11,fa2,ft6
    80000ca0:	032da933          	mulhsu	s2,s11,s2

0000000080000ca4 <b00000000d6>:
    80000ca4:	00000b17          	auipc	s6,0x0
    80000ca8:	042b0b13          	add	s6,s6,66 # 80000ce6 <i00000000dc>
    80000cac:	000b00e7          	jalr	s6
    80000cb0:	8dea                	mv	s11,s10
    80000cb2:	b89a                	fsd	ft6,112(sp)
    80000cb4:	8c7d                	and	s0,s0,a5
    80000cb6:	8cfd                	and	s1,s1,a5
    80000cb8:	2094a653          	fabs.s	fa2,fs1
    80000cbc:	218784d3          	fsgnj.s	fs1,fa5,fs8
    80000cc0:	3642                	fld	fa2,48(sp)

0000000080000cc2 <i00000000d6>:
    80000cc2:	0b50                	add	a2,sp,404

0000000080000cc4 <i00000000d7>:
    80000cc4:	d2357053          	fcvt.d.lu	ft0,a0

0000000080000cc8 <i00000000d8>:
    80000cc8:	00205073          	fsrmi	zero,0

0000000080000ccc <i00000000d9>:
    80000ccc:	e20c87d3          	fmv.x.d	a5,fs9

0000000080000cd0 <i00000000da>:
    80000cd0:	e2028053          	fmv.x.d	zero,ft5
    80000cd4:	000df117          	auipc	sp,0xdf
    80000cd8:	32c10113          	add	sp,sp,812 # 800e0000 <begin_signature>
    80000cdc:	6329                	lui	t1,0xa
    80000cde:	6303031b          	addw	t1,t1,1584 # a630 <_tbss_end+0xa630>
    80000ce2:	911a                	add	sp,sp,t1

0000000080000ce4 <i00000000db>:
    80000ce4:	c026                	sw	s1,0(sp)

0000000080000ce6 <i00000000dc>:
    80000ce6:	2aa91a53          	fmax.d	fs4,fs2,fa0

0000000080000cea <i00000000dd>:
    80000cea:	c00b9553          	fcvt.w.s	a0,fs7,rtz

0000000080000cee <i00000000de>:
    80000cee:	77a2                	ld	a5,40(sp)

0000000080000cf0 <i00000000df>:
    80000cf0:	23d82653          	fsgnjx.d	fa2,fa6,ft9

0000000080000cf4 <i00000000e0>:
    80000cf4:	00225073          	fsrmi	zero,4

0000000080000cf8 <i00000000e1>:
    80000cf8:	a0cd0553          	fle.s	a0,fs10,fa2

0000000080000cfc <i00000000e2>:
    80000cfc:	9f9d                	subw	a5,a5,a5
    80000cfe:	4831                	li	a6,12
    80000d00:	0e85                	add	t4,t4,1
    80000d02:	5ac9                	li	s5,-14
    80000d04:	41dcd793          	sra	a5,s9,0x1d
    80000d08:	a926                	fsd	fs1,144(sp)
    80000d0a:	3df9841b          	addw	s0,s3,991
    80000d0e:	034c68bb          	remw	a7,s8,s4
    80000d12:	97ba                	add	a5,a5,a4
    80000d14:	e20d07d3          	fmv.x.d	a5,fs10

0000000080000d18 <b00000000e3>:
    80000d18:	00000033          	add	zero,zero,zero
    80000d1c:	fdd859e3          	bge	a6,t4,80000cee <i00000000de>
    80000d20:	00000033          	add	zero,zero,zero
    80000d24:	c02f9a53          	fcvt.l.s	s4,ft11,rtz
    80000d28:	02fd8fbb          	mulw	t6,s11,a5
    80000d2c:	e2048953          	fmv.x.d	s2,fs1
    80000d30:	413e03b3          	sub	t2,t3,s3
    80000d34:	7111                	add	sp,sp,-256
    80000d36:	a49a                	fsd	ft6,72(sp)
    80000d38:	85414783          	lbu	a5,-1964(sp)
    80000d3c:	4ea9                	li	t4,10

0000000080000d3e <i00000000e3>:
    80000d3e:	00f57933          	and	s2,a0,a5

0000000080000d42 <i00000000e4>:
    80000d42:	e9415903          	lhu	s2,-364(sp)

0000000080000d46 <i00000000e5>:
    80000d46:	0b74                	add	a3,sp,412

0000000080000d48 <i00000000e6>:
    80000d48:	715d                	add	sp,sp,-80

0000000080000d4a <i00000000e7>:
    80000d4a:	19a306d3          	fdiv.s	fa3,ft6,fs10,rne

0000000080000d4e <i00000000e8>:
    80000d4e:	6726                	ld	a4,72(sp)
    80000d50:	000df117          	auipc	sp,0xdf
    80000d54:	2b010113          	add	sp,sp,688 # 800e0000 <begin_signature>
    80000d58:	6315                	lui	t1,0x5
    80000d5a:	ab83031b          	addw	t1,t1,-1352 # 4ab8 <_tbss_end+0x4ab8>
    80000d5e:	911a                	add	sp,sp,t1

0000000080000d60 <i00000000e9>:
    80000d60:	7ef13c23          	sd	a5,2040(sp)

0000000080000d64 <i00000000ea>:
    80000d64:	f4e6                	sd	s9,104(sp)

0000000080000d66 <i00000000eb>:
    80000d66:	a149a4d3          	feq.s	s1,fs3,fs4

0000000080000d6a <i00000000ec>:
    80000d6a:	1aa0                	add	s0,sp,376

0000000080000d6c <i00000000ed>:
    80000d6c:	e0f1382f          	amomaxu.d	a6,a5,(sp)
    80000d70:	4c81                	li	s9,0
    80000d72:	716d                	add	sp,sp,-272
    80000d74:	7159                	add	sp,sp,-112
    80000d76:	22813983          	ld	s3,552(sp)
    80000d7a:	b7412483          	lw	s1,-1164(sp)
    80000d7e:	c03d1bd3          	fcvt.lu.s	s7,fs10,rtz
    80000d82:	0327e93b          	remw	s2,a5,s2
    80000d86:	412139af          	amoor.d	s3,s2,(sp)

0000000080000d8a <b00000000ee>:
    80000d8a:	00000033          	add	zero,zero,zero
    80000d8e:	fd9e80e3          	beq	t4,s9,80000d4e <i00000000e8>
    80000d92:	00000033          	add	zero,zero,zero
    80000d96:	0249d43b          	divuw	s0,s3,tp
    80000d9a:	0000100f          	fence.i
    80000d9e:	c024b453          	fcvt.l.s	s0,fs1,rup
    80000da2:	47b2                	lw	a5,12(sp)
    80000da4:	8741                	sra	a4,a4,0x10
    80000da6:	c02c87d3          	fcvt.l.s	a5,fs9,rne
    80000daa:	6f92                	ld	t6,256(sp)
    80000dac:	4ea9                	li	t4,10

0000000080000dae <i00000000ee>:
    80000dae:	e00b1253          	fclass.s	tp,fs6

0000000080000db2 <i00000000ef>:
    80000db2:	028e583b          	divuw	a6,t3,s0

0000000080000db6 <i00000000f0>:
    80000db6:	8962                	mv	s2,s8

0000000080000db8 <i00000000f1>:
    80000db8:	9f81                	subw	a5,a5,s0

0000000080000dba <i00000000f2>:
    80000dba:	9c99                	subw	s1,s1,a4

0000000080000dbc <i00000000f3>:
    80000dbc:	9d3d                	addw	a0,a0,a5

0000000080000dbe <i00000000f4>:
    80000dbe:	02f9553b          	divuw	a0,s2,a5

0000000080000dc2 <i00000000f5>:
    80000dc2:	0327c6bb          	divw	a3,a5,s2

0000000080000dc6 <i00000000f6>:
    80000dc6:	a06488d3          	fle.s	a7,fs1,ft6

0000000080000dca <i00000000f7>:
    80000dca:	2171242f          	amoxor.w	s0,s7,(sp)

0000000080000dce <i00000000f8>:
    80000dce:	4c39                	li	s8,14
    80000dd0:	97a6                	add	a5,a5,s1
    80000dd2:	e121202f          	amomaxu.w	zero,s2,(sp)
    80000dd6:	0000100f          	fence.i
    80000dda:	c034b7d3          	fcvt.lu.s	a5,fs1,rup
    80000dde:	a43a                	fsd	fa4,8(sp)
    80000de0:	03bcfcbb          	remuw	s9,s9,s11
    80000de4:	2091222f          	amoxor.w	tp,s1,(sp)

0000000080000de8 <b00000000f9>:
    80000de8:	04e0006f          	j	80000e36 <i00000000ff>
    80000dec:	b932                	fsd	fa2,176(sp)
    80000dee:	24c6                	fld	fs1,80(sp)
    80000df0:	41212d2f          	amoor.w	s10,s2,(sp)
    80000df4:	c43a                	sw	a4,8(sp)
    80000df6:	a552                	fsd	fs4,136(sp)
    80000df8:	02f4fa33          	remu	s4,s1,a5
    80000dfc:	03278abb          	mulw	s5,a5,s2

0000000080000e00 <i00000000f9>:
    80000e00:	01f2591b          	srlw	s2,tp,0x1f

0000000080000e04 <i00000000fa>:
    80000e04:	02a557bb          	divuw	a5,a0,a0

0000000080000e08 <i00000000fb>:
    80000e08:	1a48                	add	a0,sp,308

0000000080000e0a <i00000000fc>:
    80000e0a:	00e31513          	sll	a0,t1,0xe
    80000e0e:	000df117          	auipc	sp,0xdf
    80000e12:	1f210113          	add	sp,sp,498 # 800e0000 <begin_signature>
    80000e16:	6311                	lui	t1,0x4
    80000e18:	2803031b          	addw	t1,t1,640 # 4280 <_tbss_end+0x4280>
    80000e1c:	911a                	add	sp,sp,t1

0000000080000e1e <i00000000fd>:
    80000e1e:	63812c83          	lw	s9,1592(sp)
    80000e22:	000df117          	auipc	sp,0xdf
    80000e26:	1de10113          	add	sp,sp,478 # 800e0000 <begin_signature>
    80000e2a:	6325                	lui	t1,0x9
    80000e2c:	8f03031b          	addw	t1,t1,-1808 # 88f0 <_tbss_end+0x88f0>
    80000e30:	911a                	add	sp,sp,t1

0000000080000e32 <i00000000fe>:
    80000e32:	d9812023          	sw	s8,-640(sp)

0000000080000e36 <i00000000ff>:
    80000e36:	d23576d3          	fcvt.d.lu	fa3,a0

0000000080000e3a <i0000000100>:
    80000e3a:	023307bb          	mulw	a5,t1,gp

0000000080000e3e <i0000000101>:
    80000e3e:	a1f3ac53          	feq.s	s8,ft7,ft11

0000000080000e42 <i0000000102>:
    80000e42:	ed12                	sd	tp,152(sp)

0000000080000e44 <i0000000103>:
    80000e44:	cdc16903          	lwu	s2,-804(sp)
    80000e48:	4b31                	li	s6,12
    80000e4a:	0e85                	add	t4,t4,1
    80000e4c:	21c12caf          	amoxor.w	s9,t3,(sp)
    80000e50:	87d6                	mv	a5,s5
    80000e52:	d034c353          	fcvt.s.lu	ft6,s1,rmm
    80000e56:	0901342f          	amoswap.d	s0,a6,(sp)
    80000e5a:	c0f1222f          	amominu.w	tp,a5,(sp)
    80000e5e:	088137af          	amoswap.d	a5,s0,(sp)
    80000e62:	809137af          	amomin.d	a5,s1,(sp)

0000000080000e66 <b0000000104>:
    80000e66:	00000033          	add	zero,zero,zero
    80000e6a:	fddb54e3          	bge	s6,t4,80000e32 <i00000000fe>
    80000e6e:	00000033          	add	zero,zero,zero
    80000e72:	9fa5                	addw	a5,a5,s1
    80000e74:	0000100f          	fence.i
    80000e78:	001fd893          	srl	a7,t6,0x1
    80000e7c:	9fa1                	addw	a5,a5,s0
    80000e7e:	d028ad53          	fcvt.s.l	fs10,a7,rdn
    80000e82:	4f913823          	sd	s9,1264(sp)
    80000e86:	f7ca                	sd	s2,488(sp)
    80000e88:	4ea9                	li	t4,10

0000000080000e8a <i0000000104>:
    80000e8a:	e4aa                	sd	a0,72(sp)

0000000080000e8c <i0000000105>:
    80000e8c:	0ff0000f          	fence

0000000080000e90 <i0000000106>:
    80000e90:	dd178f9b          	addw	t6,a5,-559

0000000080000e94 <i0000000107>:
    80000e94:	20a1352f          	amoxor.d	a0,a0,(sp)

0000000080000e98 <i0000000108>:
    80000e98:	c0289b53          	fcvt.l.s	s6,fa7,rtz

0000000080000e9c <i0000000109>:
    80000e9c:	02f7a7b3          	mulhsu	a5,a5,a5

0000000080000ea0 <i000000010a>:
    80000ea0:	c503c30f          	.insn	4, 0xc503c30f

0000000080000ea4 <i000000010b>:
    80000ea4:	1141                	add	sp,sp,-16
    80000ea6:	e41a                	sd	t1,8(sp)
    80000ea8:	e80e                	sd	gp,16(sp)
    80000eaa:	830a                	mv	t1,sp
    80000eac:	4185                	li	gp,1
    80000eae:	02330333          	mul	t1,t1,gp
    80000eb2:	00333123          	sd	gp,2(t1)
    80000eb6:	02330333          	mul	t1,t1,gp
    80000eba:	6322                	ld	t1,8(sp)
    80000ebc:	61c2                	ld	gp,16(sp)
    80000ebe:	0141                	add	sp,sp,16

0000000080000ec0 <i000000010c>:
    80000ec0:	0000100f          	fence.i

0000000080000ec4 <i000000010d>:
    80000ec4:	d007cd53          	fcvt.s.w	fs10,a5,rmm

0000000080000ec8 <i000000010e>:
    80000ec8:	00b13a2f          	amoadd.d	s4,a1,(sp)

0000000080000ecc <i000000010f>:
    80000ecc:	9d2d                	addw	a0,a0,a1

0000000080000ece <i0000000110>:
    80000ece:	5a8108a3          	sb	s0,1457(sp)
    80000ed2:	4925                	li	s2,9
    80000ed4:	4ea9                	li	t4,10
    80000ed6:	000df117          	auipc	sp,0xdf
    80000eda:	12a10113          	add	sp,sp,298 # 800e0000 <begin_signature>
    80000ede:	6335                	lui	t1,0xd
    80000ee0:	3d03031b          	addw	t1,t1,976 # d3d0 <_tbss_end+0xd3d0>
    80000ee4:	911a                	add	sp,sp,t1
    80000ee6:	03b4d83b          	divuw	a6,s1,s11
    80000eea:	0000100f          	fence.i
    80000eee:	1d016403          	lwu	s0,464(sp)
    80000ef2:	77b109a3          	sb	s11,1907(sp)
    80000ef6:	0ff0000f          	fence
    80000efa:	79ae                	ld	s3,232(sp)
    80000efc:	01fc57bb          	srlw	a5,s8,t6

0000000080000f00 <b0000000111>:
    80000f00:	00000033          	add	zero,zero,zero
    80000f04:	052ec363          	blt	t4,s2,80000f4a <i0000000117>
    80000f08:	00000033          	add	zero,zero,zero
    80000f0c:	0000100f          	fence.i
    80000f10:	0ff0000f          	fence
    80000f14:	41e4de1b          	sraw	t3,s1,0x1e
    80000f18:	c02b9dd3          	fcvt.l.s	s11,fs7,rtz
    80000f1c:	1b60                	add	s0,sp,444
    80000f1e:	41bdde3b          	sraw	t3,s11,s11
    80000f22:	0ff0000f          	fence
    80000f26:	4ea9                	li	t4,10

0000000080000f28 <i0000000111>:
    80000f28:	20a1352f          	amoxor.d	a0,a0,(sp)

0000000080000f2c <i0000000112>:
    80000f2c:	02a7e433          	rem	s0,a5,a0

0000000080000f30 <i0000000113>:
    80000f30:	7129                	add	sp,sp,-320

0000000080000f32 <i0000000114>:
    80000f32:	36c2                	fld	fa3,48(sp)

0000000080000f34 <i0000000115>:
    80000f34:	a8911c23          	sh	s1,-1384(sp)
    80000f38:	000df117          	auipc	sp,0xdf
    80000f3c:	0c810113          	add	sp,sp,200 # 800e0000 <begin_signature>
    80000f40:	6309                	lui	t1,0x2
    80000f42:	e083031b          	addw	t1,t1,-504 # 1e08 <_tbss_end+0x1e08>
    80000f46:	911a                	add	sp,sp,t1

0000000080000f48 <i0000000116>:
    80000f48:	b4ba                	fsd	fa4,104(sp)

0000000080000f4a <i0000000117>:
    80000f4a:	3d213023          	sd	s2,960(sp)

0000000080000f4e <i0000000118>:
    80000f4e:	c03dc953          	fcvt.lu.s	s2,fs11,rmm

0000000080000f52 <i0000000119>:
    80000f52:	05611223          	sh	s6,68(sp)
    80000f56:	000df117          	auipc	sp,0xdf
    80000f5a:	0aa10113          	add	sp,sp,170 # 800e0000 <begin_signature>
    80000f5e:	6325                	lui	t1,0x9
    80000f60:	2403031b          	addw	t1,t1,576 # 9240 <_tbss_end+0x9240>
    80000f64:	911a                	add	sp,sp,t1

0000000080000f66 <i000000011a>:
    80000f66:	47b2                	lw	a5,12(sp)

0000000080000f68 <i000000011b>:
    80000f68:	e2060653          	fmv.x.d	a2,fa2
    80000f6c:	4a01                	li	s4,0
    80000f6e:	000df117          	auipc	sp,0xdf
    80000f72:	09210113          	add	sp,sp,146 # 800e0000 <begin_signature>
    80000f76:	6325                	lui	t1,0x9
    80000f78:	2c03031b          	addw	t1,t1,704 # 92c0 <_tbss_end+0x92c0>
    80000f7c:	911a                	add	sp,sp,t1
    80000f7e:	7115                	add	sp,sp,-224
    80000f80:	03ad7653          	fadd.d	fa2,fs10,fs10
    80000f84:	c12137af          	amominu.d	a5,s2,(sp)
    80000f88:	3799                	addw	a5,a5,-26
    80000f8a:	45016403          	lwu	s0,1104(sp)
    80000f8e:	01b41913          	sll	s2,s0,0x1b
    80000f92:	0c110d03          	lb	s10,193(sp)

0000000080000f96 <b000000011c>:
    80000f96:	00000033          	add	zero,zero,zero
    80000f9a:	034e8c63          	beq	t4,s4,80000fd2 <i0000000122>
    80000f9e:	00000033          	add	zero,zero,zero
    80000fa2:	00341b13          	sll	s6,s0,0x3
    80000fa6:	08f13caf          	amoswap.d	s9,a5,(sp)
    80000faa:	e15137af          	amomaxu.d	a5,s5,(sp)
    80000fae:	c63e                	sw	a5,12(sp)
    80000fb0:	c0238253          	fcvt.l.s	tp,ft7,rne
    80000fb4:	d22af353          	fcvt.d.l	ft6,s5
    80000fb8:	d0211e03          	lh	t3,-766(sp)
    80000fbc:	4ea9                	li	t4,10

0000000080000fbe <i000000011c>:
    80000fbe:	40a1252f          	amoor.w	a0,a0,(sp)

0000000080000fc2 <i000000011d>:
    80000fc2:	8c35                	xor	s0,s0,a3

0000000080000fc4 <i000000011e>:
    80000fc4:	c02a07d3          	fcvt.l.s	a5,fs4,rne

0000000080000fc8 <i000000011f>:
    80000fc8:	03048833          	mul	a6,s1,a6

0000000080000fcc <i0000000120>:
    80000fcc:	01b3b533          	sltu	a0,t2,s11

0000000080000fd0 <i0000000121>:
    80000fd0:	ca3e                	sw	a5,20(sp)

0000000080000fd2 <i0000000122>:
    80000fd2:	0000100f          	fence.i
    80000fd6:	000df117          	auipc	sp,0xdf
    80000fda:	02a10113          	add	sp,sp,42 # 800e0000 <begin_signature>
    80000fde:	6339                	lui	t1,0xe
    80000fe0:	1103031b          	addw	t1,t1,272 # e110 <_tbss_end+0xe110>
    80000fe4:	911a                	add	sp,sp,t1

0000000080000fe6 <i0000000123>:
    80000fe6:	35c6                	fld	fa1,112(sp)

0000000080000fe8 <i0000000124>:
    80000fe8:	c20afad3          	fcvt.w.d	s5,fs5

0000000080000fec <i0000000125>:
    80000fec:	032797b3          	mulh	a5,a5,s2

0000000080000ff0 <i0000000126>:
    80000ff0:	403e579b          	sraw	a5,t3,0x3
    80000ff4:	4ab1                	li	s5,12
    80000ff6:	0e85                	add	t4,t4,1
    80000ff8:	61712faf          	amoand.w	t6,s7,(sp)
    80000ffc:	8f59                	or	a4,a4,a4
    80000ffe:	8922                	mv	s2,s0
    80001000:	f5012783          	lw	a5,-176(sp)
    80001004:	8f85                	sub	a5,a5,s1
    80001006:	c6812c23          	sw	s0,-904(sp)
    8000100a:	000007b3          	add	a5,zero,zero

000000008000100e <b0000000127>:
    8000100e:	00000033          	add	zero,zero,zero
    80001012:	fbdadfe3          	bge	s5,t4,80000fd0 <i0000000121>
    80001016:	00000033          	add	zero,zero,zero
    8000101a:	c02447d3          	fcvt.l.s	a5,fs0,rmm
    8000101e:	9a3e                	add	s4,s4,a5
    80001020:	d223f653          	fcvt.d.l	fa2,t2
    80001024:	a8b6                	fsd	fa3,80(sp)
    80001026:	0ff0000f          	fence
    8000102a:	8992                	mv	s3,tp
    8000102c:	40f1282f          	amoor.w	a6,a5,(sp)
    80001030:	4ea9                	li	t4,10

0000000080001032 <i0000000127>:
    80001032:	58913027          	fsd	fs1,1408(sp)

0000000080001036 <i0000000128>:
    80001036:	03bd0bb3          	mul	s7,s10,s11

000000008000103a <i0000000129>:
    8000103a:	e20607d3          	fmv.x.d	a5,fa2

000000008000103e <i000000012a>:
    8000103e:	0097971b          	sllw	a4,a5,0x9

0000000080001042 <i000000012b>:
    80001042:	e42e                	sd	a1,8(sp)

0000000080001044 <i000000012c>:
    80001044:	c6013483          	ld	s1,-928(sp)

0000000080001048 <i000000012d>:
    80001048:	02e267b3          	rem	a5,tp,a4

000000008000104c <i000000012e>:
    8000104c:	e20184d3          	fmv.x.d	s1,ft3

0000000080001050 <i000000012f>:
    80001050:	00612d2f          	amoadd.w	s10,t1,(sp)

0000000080001054 <i0000000130>:
    80001054:	f9812503          	lw	a0,-104(sp)

0000000080001058 <i0000000131>:
    80001058:	a00e                	fsd	ft3,0(sp)
    8000105a:	4c31                	li	s8,12
    8000105c:	0e85                	add	t4,t4,1
    8000105e:	000df117          	auipc	sp,0xdf
    80001062:	fa210113          	add	sp,sp,-94 # 800e0000 <begin_signature>
    80001066:	6335                	lui	t1,0xd
    80001068:	9183031b          	addw	t1,t1,-1768 # c918 <_tbss_end+0xc918>
    8000106c:	911a                	add	sp,sp,t1
    8000106e:	0ff0000f          	fence
    80001072:	028bdcbb          	divuw	s9,s7,s0
    80001076:	e2010953          	fmv.x.d	s2,ft2
    8000107a:	a0a6                	fsd	fs1,64(sp)
    8000107c:	bc2a                	fsd	fa0,56(sp)
    8000107e:	613137af          	amoand.d	a5,s3,(sp)
    80001082:	a8a6                	fsd	fs1,80(sp)

0000000080001084 <b0000000132>:
    80001084:	018e8863          	beq	t4,s8,80001094 <b0000000132+0x10>
    80001088:	00000c17          	auipc	s8,0x0
    8000108c:	fbcc0c13          	add	s8,s8,-68 # 80001044 <i000000012c>
    80001090:	000c00e7          	jalr	s8
    80001094:	4ea9                	li	t4,10
    80001096:	032947b3          	div	a5,s2,s2
    8000109a:	03576b3b          	remw	s6,a4,s5
    8000109e:	c226                	sw	s1,4(sp)
    800010a0:	1972                	sll	s2,s2,0x3c
    800010a2:	43f7d413          	sra	s0,a5,0x3f
    800010a6:	6165                	add	sp,sp,112
    800010a8:	c387f643          	fmadd.d	fa2,fa5,fs8,fs8

00000000800010ac <i0000000132>:
    800010ac:	c0271953          	fcvt.l.s	s2,fa4,rtz

00000000800010b0 <i0000000133>:
    800010b0:	a18a1ad3          	flt.s	s5,fs4,fs8

00000000800010b4 <i0000000134>:
    800010b4:	02f7f7bb          	remuw	a5,a5,a5

00000000800010b8 <i0000000135>:
    800010b8:	e20d0953          	fmv.x.d	s2,fs10

00000000800010bc <i0000000136>:
    800010bc:	0000100f          	fence.i

00000000800010c0 <i0000000137>:
    800010c0:	08f13baf          	amoswap.d	s7,a5,(sp)

00000000800010c4 <i0000000138>:
    800010c4:	29ad12d3          	fmax.s	ft5,fs10,fs10

00000000800010c8 <i0000000139>:
    800010c8:	02a78533          	mul	a0,a5,a0

00000000800010cc <i000000013a>:
    800010cc:	02ed4a3b          	divw	s4,s10,a4

00000000800010d0 <i000000013b>:
    800010d0:	6526                	ld	a0,72(sp)

00000000800010d2 <i000000013c>:
    800010d2:	02a5493b          	divw	s2,a0,a0

00000000800010d6 <i000000013d>:
    800010d6:	9002                	ebreak
    800010d8:	4b2d                	li	s6,11
    800010da:	0e85                	add	t4,t4,1
    800010dc:	fd4a                	sd	s2,184(sp)
    800010de:	d013b9d3          	fcvt.s.wu	fs3,t2,rup
    800010e2:	21b1342f          	amoxor.d	s0,s11,(sp)
    800010e6:	c0ca                	sw	s2,64(sp)
    800010e8:	d03cb4d3          	fcvt.s.lu	fs1,s9,rup
    800010ec:	0ff0000f          	fence
    800010f0:	02f4b933          	mulhu	s2,s1,a5

00000000800010f4 <b000000013e>:
    800010f4:	00000033          	add	zero,zero,zero
    800010f8:	fd6e88e3          	beq	t4,s6,800010c8 <i0000000139>
    800010fc:	00000033          	add	zero,zero,zero
    80001100:	032797b3          	mulh	a5,a5,s2
    80001104:	4107d71b          	sraw	a4,a5,0x10
    80001108:	0aa9f553          	fsub.d	fa0,fs3,fa0
    8000110c:	00cd40d3          	fadd.s	ft1,fs10,fa2,rmm
    80001110:	9f81                	subw	a5,a5,s0
    80001112:	e9c16e03          	lwu	t3,-356(sp)
    80001116:	98816403          	lwu	s0,-1656(sp)
    8000111a:	4ea9                	li	t4,10

000000008000111c <i000000013e>:
    8000111c:	e82a                	sd	a0,16(sp)

000000008000111e <i000000013f>:
    8000111e:	f5412e23          	sw	s4,-164(sp)

0000000080001122 <i0000000140>:
    80001122:	2486                	fld	fs1,64(sp)
    80001124:	000df117          	auipc	sp,0xdf
    80001128:	edc10113          	add	sp,sp,-292 # 800e0000 <begin_signature>
    8000112c:	6309                	lui	t1,0x2
    8000112e:	bd03031b          	addw	t1,t1,-1072 # 1bd0 <_tbss_end+0x1bd0>
    80001132:	911a                	add	sp,sp,t1

0000000080001134 <i0000000141>:
    80001134:	7706                	ld	a4,96(sp)

0000000080001136 <i0000000142>:
    80001136:	1a84                	add	s1,sp,368

0000000080001138 <i0000000143>:
    80001138:	e2050553          	fmv.x.d	a0,fa0

000000008000113c <i0000000144>:
    8000113c:	00f5503b          	srlw	zero,a0,a5

0000000080001140 <i0000000145>:
    80001140:	0296f4d3          	fadd.d	fs1,fa3,fs1

0000000080001144 <i0000000146>:
    80001144:	7bba                	ld	s7,424(sp)

0000000080001146 <i0000000147>:
    80001146:	400207bb          	subw	a5,tp,zero

000000008000114a <i0000000148>:
    8000114a:	7175                	add	sp,sp,-144
    8000114c:	000df117          	auipc	sp,0xdf
    80001150:	eb410113          	add	sp,sp,-332 # 800e0000 <begin_signature>
    80001154:	6305                	lui	t1,0x1
    80001156:	f783031b          	addw	t1,t1,-136 # f78 <_tbss_end+0xf78>
    8000115a:	911a                	add	sp,sp,t1
    8000115c:	000df117          	auipc	sp,0xdf
    80001160:	ea410113          	add	sp,sp,-348 # 800e0000 <begin_signature>
    80001164:	6331                	lui	t1,0xc
    80001166:	2203031b          	addw	t1,t1,544 # c220 <_tbss_end+0xc220>
    8000116a:	911a                	add	sp,sp,t1
    8000116c:	a1213e2f          	amomax.d	t3,s2,(sp)
    80001170:	c012                	sw	tp,0(sp)
    80001172:	d43e                	sw	a5,40(sp)
    80001174:	8cdd                	or	s1,s1,a5
    80001176:	943e                	add	s0,s0,a5
    80001178:	69cd                	lui	s3,0x13
    8000117a:	01ef1c53          	fadd.s	fs8,ft10,ft10,rtz

000000008000117e <b0000000149>:
    8000117e:	02a0006f          	j	800011a8 <i000000014e>
    80001182:	22d484d3          	fsgnj.d	fs1,fs1,fa3
    80001186:	02f4d7bb          	divuw	a5,s1,a5
    8000118a:	e00d1e53          	fclass.s	t3,fs10
    8000118e:	4a06                	lw	s4,64(sp)
    80001190:	033d693b          	remw	s2,s10,s3
    80001194:	034017b3          	mulh	a5,zero,s4
    80001198:	6145                	add	sp,sp,48

000000008000119a <i0000000149>:
    8000119a:	d0298953          	fcvt.s.l	fs2,s3,rne

000000008000119e <i000000014a>:
    8000119e:	8d1d                	sub	a0,a0,a5

00000000800011a0 <i000000014b>:
    800011a0:	02062cb3          	mulhsu	s9,a2,zero

00000000800011a4 <i000000014c>:
    800011a4:	193a                	sll	s2,s2,0x2e

00000000800011a6 <i000000014d>:
    800011a6:	9e52                	add	t3,t3,s4

00000000800011a8 <i000000014e>:
    800011a8:	416c551b          	sraw	a0,s8,0x16

00000000800011ac <i000000014f>:
    800011ac:	e00a1cd3          	fclass.s	s9,fs4

00000000800011b0 <i0000000150>:
    800011b0:	13d0                	add	a2,sp,484

00000000800011b2 <i0000000151>:
    800011b2:	d02fc253          	fcvt.s.l	ft4,t6,rmm

00000000800011b6 <i0000000152>:
    800011b6:	0ff0000f          	fence

00000000800011ba <i0000000153>:
    800011ba:	bd36                	fsd	fa3,184(sp)

00000000800011bc <i0000000154>:
    800011bc:	1141                	add	sp,sp,-16
    800011be:	e42e                	sd	a1,8(sp)
    800011c0:	e836                	sd	a3,16(sp)
    800011c2:	00000597          	auipc	a1,0x0
    800011c6:	00a58593          	add	a1,a1,10 # 800011cc <i0000000154+0x10>
    800011ca:	4681                	li	a3,0
    800011cc:	8682                	jr	a3
    800011ce:	65a2                	ld	a1,8(sp)
    800011d0:	66c2                	ld	a3,16(sp)
    800011d2:	0141                	add	sp,sp,16
    800011d4:	4931                	li	s2,12
    800011d6:	0e85                	add	t4,t4,1
    800011d8:	0000100f          	fence.i
    800011dc:	017137af          	amoadd.d	a5,s7,(sp)
    800011e0:	53e6                	lw	t2,120(sp)
    800011e2:	d02fc4d3          	fcvt.s.l	fs1,t6,rmm
    800011e6:	5462                	lw	s0,56(sp)
    800011e8:	0000100f          	fence.i
    800011ec:	0000100f          	fence.i

00000000800011f0 <b0000000155>:
    800011f0:	00000033          	add	zero,zero,zero
    800011f4:	fb2e9ee3          	bne	t4,s2,800011b0 <i0000000150>
    800011f8:	00000033          	add	zero,zero,zero
    800011fc:	9f3d                	addw	a4,a4,a5
    800011fe:	c222                	sw	s0,4(sp)
    80001200:	032274d3          	fadd.d	fs1,ft4,fs2
    80001204:	02f42db3          	mulhsu	s11,s0,a5
    80001208:	52913c27          	fsd	fs1,1336(sp)
    8000120c:	8f61                	and	a4,a4,s0
    8000120e:	c233fcd3          	fcvt.lu.d	s9,ft7
    80001212:	4ea9                	li	t4,10

0000000080001214 <i0000000155>:
    80001214:	b4b2                	fsd	fa2,104(sp)

0000000080001216 <i0000000156>:
    80001216:	e0068953          	fmv.x.w	s2,fa3

000000008000121a <i0000000157>:
    8000121a:	0044d53b          	srlw	a0,s1,tp

000000008000121e <i0000000158>:
    8000121e:	03f58abb          	mulw	s5,a1,t6

0000000080001222 <i0000000159>:
    80001222:	61a13daf          	amoand.d	s11,s10,(sp)

0000000080001226 <i000000015a>:
    80001226:	62d6f4c7          	fmsub.d	fs1,fa3,fa3,fa2

000000008000122a <i000000015b>:
    8000122a:	b926                	fsd	fs1,176(sp)

000000008000122c <i000000015c>:
    8000122c:	0516                	sll	a0,a0,0x5

000000008000122e <i000000015d>:
    8000122e:	02f5773b          	remuw	a4,a0,a5

0000000080001232 <i000000015e>:
    80001232:	23ad25d3          	fabs.d	fa1,fs10

0000000080001236 <i000000015f>:
    80001236:	c0a1262f          	amominu.w	a2,a0,(sp)
    8000123a:	609127af          	amoand.w	a5,s1,(sp)
    8000123e:	195c                	add	a5,sp,180
    80001240:	836d                	srl	a4,a4,0x1b
    80001242:	8fb9                	xor	a5,a5,a4
    80001244:	01c26d33          	or	s10,tp,t3
    80001248:	1ac6fd53          	fdiv.d	fs10,fa3,fa2
    8000124c:	87f2                	mv	a5,t3

000000008000124e <b0000000160>:
    8000124e:	00000f97          	auipc	t6,0x0
    80001252:	03af8f93          	add	t6,t6,58 # 80001288 <i0000000165>
    80001256:	000f80e7          	jalr	t6
    8000125a:	f0013403          	ld	s0,-256(sp)
    8000125e:	03a20933          	mul	s2,tp,s10
    80001262:	a121292f          	amomax.w	s2,s2,(sp)
    80001266:	01e49e13          	sll	t3,s1,0x1e
    8000126a:	20c4a6d3          	fsgnjx.s	fa3,fs1,fa2
    8000126e:	0327e8bb          	remw	a7,a5,s2
    80001272:	02f907b3          	mul	a5,s2,a5

0000000080001276 <i0000000160>:
    80001276:	35811183          	lh	gp,856(sp)

000000008000127a <i0000000161>:
    8000127a:	8d6ff0ef          	jal	80000350 <func1>

000000008000127e <i0000000162>:
    8000127e:	02a53233          	mulhu	tp,a0,a0

0000000080001282 <i0000000163>:
    80001282:	6e39                	lui	t3,0xe

0000000080001284 <i0000000164>:
    80001284:	c121292f          	amominu.w	s2,s2,(sp)

0000000080001288 <i0000000165>:
    80001288:	68a13823          	sd	a0,1680(sp)

000000008000128c <i0000000166>:
    8000128c:	77e2                	ld	a5,56(sp)

000000008000128e <i0000000167>:
    8000128e:	8cb1                	xor	s1,s1,a2

0000000080001290 <i0000000168>:
    80001290:	14a11c23          	sh	a0,344(sp)

0000000080001294 <i0000000169>:
    80001294:	03fc0db3          	mul	s11,s8,t6

0000000080001298 <i000000016a>:
    80001298:	6c013783          	ld	a5,1728(sp)

000000008000129c <i000000016b>:
    8000129c:	1161                	add	sp,sp,-8
    8000129e:	e42a                	sd	a0,8(sp)
    800012a0:	4501                	li	a0,0
    800012a2:	00a51023          	sh	a0,0(a0)
    800012a6:	6522                	ld	a0,8(sp)
    800012a8:	0121                	add	sp,sp,8

00000000800012aa <i000000016c>:
    800012aa:	e118f213          	and	tp,a7,-495
    800012ae:	4b31                	li	s6,12
    800012b0:	0e85                	add	t4,t4,1
    800012b2:	407ad9bb          	sraw	s3,s5,t2
    800012b6:	02f97433          	remu	s0,s2,a5
    800012ba:	28cd0353          	fmin.s	ft6,fs10,fa2
    800012be:	21a62cd3          	fsgnjx.s	fs9,fa2,fs10
    800012c2:	219138af          	amoxor.d	a7,s9,(sp)
    800012c6:	e942                	sd	a6,144(sp)
    800012c8:	d02201d3          	fcvt.s.l	ft3,tp,rne

00000000800012cc <b000000016d>:
    800012cc:	016e8463          	beq	t4,s6,800012d4 <b000000016d+0x8>
    800012d0:	fbfff06f          	j	8000128e <i0000000167>
    800012d4:	4ea9                	li	t4,10
    800012d6:	24aa                	fld	fs1,136(sp)
    800012d8:	47f2                	lw	a5,28(sp)
    800012da:	08933253          	fsub.s	ft4,ft6,fs1,rup
    800012de:	0ff0000f          	fence
    800012e2:	91f2                	add	gp,gp,t3
    800012e4:	618139af          	amoand.d	s3,s8,(sp)
    800012e8:	6975                	lui	s2,0x1d

00000000800012ea <i000000016d>:
    800012ea:	6586                	ld	a1,64(sp)

00000000800012ec <i000000016e>:
    800012ec:	8ec12603          	lw	a2,-1812(sp)

00000000800012f0 <i000000016f>:
    800012f0:	7602                	ld	a2,32(sp)

00000000800012f2 <i0000000170>:
    800012f2:	01613f2f          	amoadd.d	t5,s6,(sp)

00000000800012f6 <i0000000171>:
    800012f6:	02fb9f93          	sll	t6,s7,0x2f

00000000800012fa <i0000000172>:
    800012fa:	0000100f          	fence.i

00000000800012fe <i0000000173>:
    800012fe:	e0d12baf          	amomaxu.w	s7,a3,(sp)

0000000080001302 <i0000000174>:
    80001302:	0000100f          	fence.i

0000000080001306 <i0000000175>:
    80001306:	66013903          	ld	s2,1632(sp)

000000008000130a <i0000000176>:
    8000130a:	c03d47d3          	fcvt.lu.s	a5,fs10,rmm
    8000130e:	000df117          	auipc	sp,0xdf
    80001312:	cf210113          	add	sp,sp,-782 # 800e0000 <begin_signature>
    80001316:	633d                	lui	t1,0xf
    80001318:	d983031b          	addw	t1,t1,-616 # ed98 <_tbss_end+0xed98>
    8000131c:	911a                	add	sp,sp,t1

000000008000131e <i0000000177>:
    8000131e:	de3e                	sw	a5,60(sp)
    80001320:	48a9                	li	a7,10
    80001322:	000df117          	auipc	sp,0xdf
    80001326:	cde10113          	add	sp,sp,-802 # 800e0000 <begin_signature>
    8000132a:	632d                	lui	t1,0xb
    8000132c:	8103031b          	addw	t1,t1,-2032 # a810 <_tbss_end+0xa810>
    80001330:	911a                	add	sp,sp,t1
    80001332:	000df117          	auipc	sp,0xdf
    80001336:	cce10113          	add	sp,sp,-818 # 800e0000 <begin_signature>
    8000133a:	633d                	lui	t1,0xf
    8000133c:	0f03031b          	addw	t1,t1,240 # f0f0 <_tbss_end+0xf0f0>
    80001340:	911a                	add	sp,sp,t1
    80001342:	000df117          	auipc	sp,0xdf
    80001346:	cbe10113          	add	sp,sp,-834 # 800e0000 <begin_signature>
    8000134a:	631d                	lui	t1,0x7
    8000134c:	a203031b          	addw	t1,t1,-1504 # 6a20 <_tbss_end+0x6a20>
    80001350:	911a                	add	sp,sp,t1
    80001352:	6091242f          	amoand.w	s0,s1,(sp)
    80001356:	d23cfbd3          	fcvt.d.lu	fs7,s9
    8000135a:	3546                	fld	fa0,112(sp)
    8000135c:	cf010a03          	lb	s4,-784(sp)
    80001360:	6409                	lui	s0,0x2
    80001362:	d237f653          	fcvt.d.lu	fa2,a5
    80001366:	5e46                	lw	t3,112(sp)

0000000080001368 <b0000000178>:
    80001368:	011e8863          	beq	t4,a7,80001378 <b0000000178+0x10>
    8000136c:	00000897          	auipc	a7,0x0
    80001370:	f9288893          	add	a7,a7,-110 # 800012fe <i0000000173>
    80001374:	00088567          	jalr	a0,a7
    80001378:	4ea9                	li	t4,10
    8000137a:	c46e                	sw	s11,8(sp)
    8000137c:	34dd                	addw	s1,s1,-9
    8000137e:	3c615183          	lhu	gp,966(sp)
    80001382:	4074d793          	sra	a5,s1,0x7
    80001386:	7b02                	ld	s6,32(sp)
    80001388:	644e                	ld	s0,208(sp)
    8000138a:	0141                	add	sp,sp,16
    8000138c:	000df117          	auipc	sp,0xdf
    80001390:	c7410113          	add	sp,sp,-908 # 800e0000 <begin_signature>
    80001394:	6319                	lui	t1,0x6
    80001396:	6e83031b          	addw	t1,t1,1768 # 66e8 <_tbss_end+0x66e8>
    8000139a:	911a                	add	sp,sp,t1

000000008000139c <i0000000178>:
    8000139c:	5a013b87          	fld	fs7,1440(sp)

00000000800013a0 <i0000000179>:
    800013a0:	02df3933          	mulhu	s2,t5,a3

00000000800013a4 <i000000017a>:
    800013a4:	a4d12427          	fsw	fa3,-1464(sp)

00000000800013a8 <i000000017b>:
    800013a8:	d2178153          	fcvt.d.wu	ft2,a5

00000000800013ac <i000000017c>:
    800013ac:	6121222f          	amoand.w	tp,s2,(sp)

00000000800013b0 <i000000017d>:
    800013b0:	02829013          	sll	zero,t0,0x28

00000000800013b4 <i000000017e>:
    800013b4:	0075d7bb          	srlw	a5,a1,t2

00000000800013b8 <i000000017f>:
    800013b8:	0325643b          	remw	s0,a0,s2

00000000800013bc <i0000000180>:
    800013bc:	5c12                	lw	s8,36(sp)

00000000800013be <i0000000181>:
    800013be:	c12e                	sw	a1,128(sp)

00000000800013c0 <i0000000182>:
    800013c0:	02a547bb          	divw	a5,a0,a0
    800013c4:	4db1                	li	s11,12
    800013c6:	0e85                	add	t4,t4,1
    800013c8:	000df117          	auipc	sp,0xdf
    800013cc:	c3810113          	add	sp,sp,-968 # 800e0000 <begin_signature>
    800013d0:	6311                	lui	t1,0x4
    800013d2:	8d83031b          	addw	t1,t1,-1832 # 38d8 <_tbss_end+0x38d8>
    800013d6:	911a                	add	sp,sp,t1
    800013d8:	000df117          	auipc	sp,0xdf
    800013dc:	c2810113          	add	sp,sp,-984 # 800e0000 <begin_signature>
    800013e0:	6339                	lui	t1,0xe
    800013e2:	2d83031b          	addw	t1,t1,728 # e2d8 <_tbss_end+0xe2d8>
    800013e6:	911a                	add	sp,sp,t1
    800013e8:	98ea                	add	a7,a7,s10
    800013ea:	e7b10903          	lb	s2,-389(sp)
    800013ee:	a0912a2f          	amomax.w	s4,s1,(sp)
    800013f2:	25e6                	fld	fa1,88(sp)
    800013f4:	4492                	lw	s1,4(sp)
    800013f6:	d0238653          	fcvt.s.l	fa2,t2,rne
    800013fa:	00f977b3          	and	a5,s2,a5

00000000800013fe <b0000000183>:
    800013fe:	01be8863          	beq	t4,s11,8000140e <b0000000183+0x10>
    80001402:	00000d97          	auipc	s11,0x0
    80001406:	faed8d93          	add	s11,s11,-82 # 800013b0 <i000000017d>
    8000140a:	000d80e7          	jalr	s11
    8000140e:	4ea9                	li	t4,10
    80001410:	251d5197          	auipc	gp,0x251d5
    80001414:	c236f7d3          	fcvt.lu.d	a5,fa3
    80001418:	69013203          	ld	tp,1680(sp)
    8000141c:	debe                	sw	a5,124(sp)
    8000141e:	d237f4d3          	fcvt.d.lu	fs1,a5
    80001422:	0ff0000f          	fence
    80001426:	c2137453          	fcvt.wu.d	s0,ft6

000000008000142a <i0000000183>:
    8000142a:	02f5793b          	remuw	s2,a0,a5
    8000142e:	000df117          	auipc	sp,0xdf
    80001432:	bd210113          	add	sp,sp,-1070 # 800e0000 <begin_signature>
    80001436:	6321                	lui	t1,0x8
    80001438:	4603031b          	addw	t1,t1,1120 # 8460 <_tbss_end+0x8460>
    8000143c:	911a                	add	sp,sp,t1

000000008000143e <i0000000184>:
    8000143e:	e02a                	sd	a0,0(sp)

0000000080001440 <i0000000185>:
    80001440:	0000100f          	fence.i

0000000080001444 <i0000000186>:
    80001444:	0ff0000f          	fence

0000000080001448 <i0000000187>:
    80001448:	0325053b          	mulw	a0,a0,s2

000000008000144c <i0000000188>:
    8000144c:	02f532b3          	mulhu	t0,a0,a5

0000000080001450 <i0000000189>:
    80001450:	acb6                	fsd	fa3,88(sp)

0000000080001452 <i000000018a>:
    80001452:	20afad53          	fsgnjx.s	fs10,ft11,fa0

0000000080001456 <i000000018b>:
    80001456:	d227f8d3          	fcvt.d.l	fa7,a5

000000008000145a <i000000018c>:
    8000145a:	8cb10da3          	sb	a1,-1829(sp)

000000008000145e <i000000018d>:
    8000145e:	1c314303          	lbu	t1,451(sp)
    80001462:	000df117          	auipc	sp,0xdf
    80001466:	b9e10113          	add	sp,sp,-1122 # 800e0000 <begin_signature>
    8000146a:	630d                	lui	t1,0x3
    8000146c:	3783031b          	addw	t1,t1,888 # 3378 <_tbss_end+0x3378>
    80001470:	911a                	add	sp,sp,t1
    80001472:	000df117          	auipc	sp,0xdf
    80001476:	b8e10113          	add	sp,sp,-1138 # 800e0000 <begin_signature>
    8000147a:	632d                	lui	t1,0xb
    8000147c:	d503031b          	addw	t1,t1,-688 # ad50 <_tbss_end+0xad50>
    80001480:	911a                	add	sp,sp,t1
    80001482:	000df117          	auipc	sp,0xdf
    80001486:	b7e10113          	add	sp,sp,-1154 # 800e0000 <begin_signature>
    8000148a:	6311                	lui	t1,0x4
    8000148c:	a883031b          	addw	t1,t1,-1400 # 3a88 <_tbss_end+0x3a88>
    80001490:	911a                	add	sp,sp,t1
    80001492:	53816d83          	lwu	s11,1336(sp)
    80001496:	e03a                	sd	a4,0(sp)
    80001498:	c161242f          	amominu.w	s0,s6,(sp)
    8000149c:	c21671d3          	fcvt.wu.d	gp,fa2
    800014a0:	8cbd                	xor	s1,s1,a5
    800014a2:	8069                	srl	s0,s0,0x1a
    800014a4:	1c918a93          	add	s5,gp,457 # a51d65d9 <_end+0x250e3cd8>

00000000800014a8 <b000000018e>:
    800014a8:	00000d17          	auipc	s10,0x0
    800014ac:	042d0d13          	add	s10,s10,66 # 800014ea <i0000000193>
    800014b0:	000d00e7          	jalr	s10
    800014b4:	8fc5                	or	a5,a5,s1
    800014b6:	3c913c23          	sd	s1,984(sp)
    800014ba:	90f13023          	sd	a5,-1792(sp)
    800014be:	8922                	mv	s2,s0
    800014c0:	c822                	sw	s0,16(sp)
    800014c2:	d1416783          	lwu	a5,-748(sp)
    800014c6:	b2a3c793          	xor	a5,t2,-1238

00000000800014ca <i000000018e>:
    800014ca:	0000100f          	fence.i

00000000800014ce <i000000018f>:
    800014ce:	610d                	add	sp,sp,160

00000000800014d0 <i0000000190>:
    800014d0:	fcbe                	sd	a5,120(sp)

00000000800014d2 <i0000000191>:
    800014d2:	69c16783          	lwu	a5,1692(sp)

00000000800014d6 <i0000000192>:
    800014d6:	c034b953          	fcvt.lu.s	s2,fs1,rup
    800014da:	000df117          	auipc	sp,0xdf
    800014de:	b2610113          	add	sp,sp,-1242 # 800e0000 <begin_signature>
    800014e2:	6305                	lui	t1,0x1
    800014e4:	df83031b          	addw	t1,t1,-520 # df8 <_tbss_end+0xdf8>
    800014e8:	911a                	add	sp,sp,t1

00000000800014ea <i0000000193>:
    800014ea:	ca2a                	sw	a0,20(sp)

00000000800014ec <i0000000194>:
    800014ec:	65a6                	ld	a1,72(sp)

00000000800014ee <i0000000195>:
    800014ee:	f20905d3          	fmv.d.x	fa1,s2
    800014f2:	000df117          	auipc	sp,0xdf
    800014f6:	b0e10113          	add	sp,sp,-1266 # 800e0000 <begin_signature>
    800014fa:	6315                	lui	t1,0x5
    800014fc:	d083031b          	addw	t1,t1,-760 # 4d08 <_tbss_end+0x4d08>
    80001500:	911a                	add	sp,sp,t1

0000000080001502 <i0000000196>:
    80001502:	4786                	lw	a5,64(sp)

0000000080001504 <i0000000197>:
    80001504:	c02187d3          	fcvt.l.s	a5,ft3,rne

0000000080001508 <i0000000198>:
    80001508:	f0078ed3          	fmv.w.x	ft9,a5
    8000150c:	4ba9                	li	s7,10
    8000150e:	000df117          	auipc	sp,0xdf
    80001512:	af210113          	add	sp,sp,-1294 # 800e0000 <begin_signature>
    80001516:	6329                	lui	t1,0xa
    80001518:	6303031b          	addw	t1,t1,1584 # a630 <_tbss_end+0xa630>
    8000151c:	911a                	add	sp,sp,t1
    8000151e:	000df117          	auipc	sp,0xdf
    80001522:	ae210113          	add	sp,sp,-1310 # 800e0000 <begin_signature>
    80001526:	632d                	lui	t1,0xb
    80001528:	2e03031b          	addw	t1,t1,736 # b2e0 <_tbss_end+0xb2e0>
    8000152c:	911a                	add	sp,sp,t1
    8000152e:	69e6                	ld	s3,88(sp)
    80001530:	3fc10e03          	lb	t3,1020(sp)
    80001534:	5442                	lw	s0,48(sp)
    80001536:	c024a953          	fcvt.l.s	s2,fs1,rdn
    8000153a:	d23e                	sw	a5,36(sp)
    8000153c:	036008bb          	mulw	a7,zero,s6
    80001540:	01f9e933          	or	s2,s3,t6

0000000080001544 <b0000000199>:
    80001544:	00000033          	add	zero,zero,zero
    80001548:	fb7e92e3          	bne	t4,s7,800014ec <i0000000194>
    8000154c:	00000033          	add	zero,zero,zero
    80001550:	4422                	lw	s0,8(sp)
    80001552:	f2048653          	fmv.d.x	fa2,s1
    80001556:	019a121b          	sllw	tp,s4,0x19
    8000155a:	11d8                	add	a4,sp,228
    8000155c:	c237f7d3          	fcvt.lu.d	a5,fa5
    80001560:	9ca6                	add	s9,s9,s1
    80001562:	d224f653          	fcvt.d.l	fa2,s1
    80001566:	4ea9                	li	t4,10

0000000080001568 <i0000000199>:
    80001568:	d02c14d3          	fcvt.s.l	fs1,s8,rtz

000000008000156c <i000000019a>:
    8000156c:	80a12faf          	amomin.w	t6,a0,(sp)

0000000080001570 <i000000019b>:
    80001570:	00a7993b          	sllw	s2,a5,a0

0000000080001574 <i000000019c>:
    80001574:	c0364b53          	fcvt.lu.s	s6,fa2,rmm

0000000080001578 <i000000019d>:
    80001578:	10416783          	lwu	a5,260(sp)

000000008000157c <i000000019e>:
    8000157c:	dc2a                	sw	a0,56(sp)

000000008000157e <i000000019f>:
    8000157e:	9ebd                	addw	a3,a3,a5

0000000080001580 <i00000001a0>:
    80001580:	02a507b3          	mul	a5,a0,a0

0000000080001584 <i00000001a1>:
    80001584:	078e                	sll	a5,a5,0x3

0000000080001586 <i00000001a2>:
    80001586:	c223fcd3          	fcvt.l.d	s9,ft7

000000008000158a <i00000001a3>:
    8000158a:	038ad7b3          	divu	a5,s5,s8
    8000158e:	000df117          	auipc	sp,0xdf
    80001592:	a7210113          	add	sp,sp,-1422 # 800e0000 <begin_signature>
    80001596:	6321                	lui	t1,0x8
    80001598:	4f83031b          	addw	t1,t1,1272 # 84f8 <_tbss_end+0x84f8>
    8000159c:	911a                	add	sp,sp,t1
    8000159e:	2b711523          	sh	s7,682(sp)
    800015a2:	09693253          	fsub.s	ft4,fs2,fs6,rup
    800015a6:	12c4                	add	s1,sp,356
    800015a8:	2182                	fld	ft3,0(sp)
    800015aa:	027ad933          	divu	s2,s5,t2
    800015ae:	a191342f          	amomax.d	s0,s9,(sp)
    800015b2:	03ac843b          	mulw	s0,s9,s10

00000000800015b6 <b00000001a4>:
    800015b6:	0520056f          	jal	a0,80001608 <i00000001aa>
    800015ba:	61b1392f          	amoand.d	s2,s11,(sp)
    800015be:	e2010dd3          	fmv.x.d	s11,ft2
    800015c2:	802d                	srl	s0,s0,0xb
    800015c4:	d0249d53          	fcvt.s.l	fs10,s1,rtz
    800015c8:	03a3f933          	remu	s2,t2,s10
    800015cc:	02f4d7bb          	divuw	a5,s1,a5
    800015d0:	44815483          	lhu	s1,1096(sp)

00000000800015d4 <i00000001a4>:
    800015d4:	d7dfe0ef          	jal	80000350 <func1>

00000000800015d8 <i00000001a5>:
    800015d8:	8d1d                	sub	a0,a0,a5
    800015da:	000df117          	auipc	sp,0xdf
    800015de:	a2610113          	add	sp,sp,-1498 # 800e0000 <begin_signature>
    800015e2:	631d                	lui	t1,0x7
    800015e4:	3341                	addw	t1,t1,-16 # 6ff0 <_tbss_end+0x6ff0>
    800015e6:	911a                	add	sp,sp,t1

00000000800015e8 <i00000001a6>:
    800015e8:	3fb11823          	sh	s11,1008(sp)

00000000800015ec <i00000001a7>:
    800015ec:	02f527b3          	mulhsu	a5,a0,a5

00000000800015f0 <i00000001a8>:
    800015f0:	0ff0000f          	fence

00000000800015f4 <i00000001a9>:
    800015f4:	0041392f          	amoadd.d	s2,tp,(sp)
    800015f8:	000df117          	auipc	sp,0xdf
    800015fc:	a0810113          	add	sp,sp,-1528 # 800e0000 <begin_signature>
    80001600:	631d                	lui	t1,0x7
    80001602:	ae03031b          	addw	t1,t1,-1312 # 6ae0 <_tbss_end+0x6ae0>
    80001606:	911a                	add	sp,sp,t1

0000000080001608 <i00000001aa>:
    80001608:	0af10c23          	sb	a5,184(sp)

000000008000160c <i00000001ab>:
    8000160c:	53857547          	fmsub.d	fa0,fa0,fs8,fa0

0000000080001610 <i00000001ac>:
    80001610:	401f7653          	fcvt.s.d	fa2,ft10

0000000080001614 <i00000001ad>:
    80001614:	1121                	add	sp,sp,-24
    80001616:	e42e                	sd	a1,8(sp)
    80001618:	e826                	sd	s1,16(sp)
    8000161a:	ec32                	sd	a2,24(sp)
    8000161c:	00000497          	auipc	s1,0x0
    80001620:	01448493          	add	s1,s1,20 # 80001630 <i00000001ad+0x1c>
    80001624:	00000597          	auipc	a1,0x0
    80001628:	00858593          	add	a1,a1,8 # 8000162c <i00000001ad+0x18>
    8000162c:	00248667          	jalr	a2,2(s1)
    80001630:	0001                	nop
    80001632:	0001                	nop
    80001634:	65a2                	ld	a1,8(sp)
    80001636:	64c2                	ld	s1,16(sp)
    80001638:	6662                	ld	a2,24(sp)
    8000163a:	0161                	add	sp,sp,24

000000008000163c <i00000001ae>:
    8000163c:	e00c0953          	fmv.x.w	s2,fs8

0000000080001640 <i00000001af>:
    80001640:	5532                	lw	a0,44(sp)

0000000080001642 <i00000001b0>:
    80001642:	c6614903          	lbu	s2,-922(sp)
    80001646:	49b1                	li	s3,12
    80001648:	0e85                	add	t4,t4,1
    8000164a:	202b98d3          	fsgnjn.s	fa7,fs7,ft2
    8000164e:	c0228cd3          	fcvt.l.s	s9,ft5,rne
    80001652:	83dd                	srl	a5,a5,0x17
    80001654:	01b8e933          	or	s2,a7,s11
    80001658:	80912baf          	amomin.w	s7,s1,(sp)
    8000165c:	00f1392f          	amoadd.d	s2,a5,(sp)
    80001660:	08f13b2f          	amoswap.d	s6,a5,(sp)

0000000080001664 <b00000001b1>:
    80001664:	013e8463          	beq	t4,s3,8000166c <b00000001b1+0x8>
    80001668:	fa9ff06f          	j	80001610 <i00000001ac>
    8000166c:	4ea9                	li	t4,10
    8000166e:	40712e2f          	amoor.w	t3,t2,(sp)
    80001672:	0ff0000f          	fence
    80001676:	8cc5                	or	s1,s1,s1
    80001678:	d63e                	sw	a5,44(sp)
    8000167a:	2726                	fld	fa4,72(sp)
    8000167c:	6105                	add	sp,sp,32
    8000167e:	3d2a                	fld	fs10,168(sp)

0000000080001680 <i00000001b1>:
    80001680:	02f7853b          	mulw	a0,a5,a5

0000000080001684 <i00000001b2>:
    80001684:	c02337d3          	fcvt.l.s	a5,ft6,rup
    80001688:	000df117          	auipc	sp,0xdf
    8000168c:	97810113          	add	sp,sp,-1672 # 800e0000 <begin_signature>
    80001690:	630d                	lui	t1,0x3
    80001692:	9183031b          	addw	t1,t1,-1768 # 2918 <_tbss_end+0x2918>
    80001696:	911a                	add	sp,sp,t1

0000000080001698 <i00000001b3>:
    80001698:	7506                	ld	a0,96(sp)
    8000169a:	000df117          	auipc	sp,0xdf
    8000169e:	96610113          	add	sp,sp,-1690 # 800e0000 <begin_signature>
    800016a2:	6335                	lui	t1,0xd
    800016a4:	5003031b          	addw	t1,t1,1280 # d500 <_tbss_end+0xd500>
    800016a8:	911a                	add	sp,sp,t1

00000000800016aa <i00000001b4>:
    800016aa:	28016d83          	lwu	s11,640(sp)

00000000800016ae <i00000001b5>:
    800016ae:	2b82                	fld	fs7,0(sp)

00000000800016b0 <i00000001b6>:
    800016b0:	6542                	ld	a0,16(sp)

00000000800016b2 <i00000001b7>:
    800016b2:	e027e513          	or	a0,a5,-510
    800016b6:	000df117          	auipc	sp,0xdf
    800016ba:	94a10113          	add	sp,sp,-1718 # 800e0000 <begin_signature>
    800016be:	6331                	lui	t1,0xc
    800016c0:	6b03031b          	addw	t1,t1,1712 # c6b0 <_tbss_end+0xc6b0>
    800016c4:	911a                	add	sp,sp,t1

00000000800016c6 <i00000001b8>:
    800016c6:	260e                	fld	fa2,192(sp)

00000000800016c8 <i00000001b9>:
    800016c8:	0327a933          	mulhsu	s2,a5,s2

00000000800016cc <i00000001ba>:
    800016cc:	21a6                	fld	ft3,72(sp)

00000000800016ce <i00000001bb>:
    800016ce:	6622                	ld	a2,8(sp)
    800016d0:	4c31                	li	s8,12
    800016d2:	0e85                	add	t4,t4,1
    800016d4:	000df117          	auipc	sp,0xdf
    800016d8:	92c10113          	add	sp,sp,-1748 # 800e0000 <begin_signature>
    800016dc:	633d                	lui	t1,0xf
    800016de:	eb83031b          	addw	t1,t1,-328 # eeb8 <_tbss_end+0xeeb8>
    800016e2:	911a                	add	sp,sp,t1
    800016e4:	000df117          	auipc	sp,0xdf
    800016e8:	91c10113          	add	sp,sp,-1764 # 800e0000 <begin_signature>
    800016ec:	6331                	lui	t1,0xc
    800016ee:	4d83031b          	addw	t1,t1,1240 # c4d8 <_tbss_end+0xc4d8>
    800016f2:	911a                	add	sp,sp,t1
    800016f4:	0961292f          	amoswap.w	s2,s6,(sp)
    800016f8:	9885                	and	s1,s1,-31
    800016fa:	e4ba                	sd	a4,72(sp)
    800016fc:	87a5                	sra	a5,a5,0x9
    800016fe:	c030c953          	fcvt.lu.s	s2,ft1,rmm
    80001702:	41016f83          	lwu	t6,1040(sp)
    80001706:	38214403          	lbu	s0,898(sp)

000000008000170a <b00000001bc>:
    8000170a:	00000033          	add	zero,zero,zero
    8000170e:	fbdc52e3          	bge	s8,t4,800016b2 <i00000001b7>
    80001712:	00000033          	add	zero,zero,zero
    80001716:	01241213          	sll	tp,s0,0x12
    8000171a:	2bcb9653          	fmax.d	fa2,fs7,ft8
    8000171e:	d23e7153          	fcvt.d.lu	ft2,t3
    80001722:	5dbe4413          	xor	s0,t3,1499
    80001726:	8aa6                	mv	s5,s1
    80001728:	0000100f          	fence.i
    8000172c:	113c                	add	a5,sp,168
    8000172e:	4ea9                	li	t4,10
    80001730:	000df117          	auipc	sp,0xdf
    80001734:	8d010113          	add	sp,sp,-1840 # 800e0000 <begin_signature>
    80001738:	6311                	lui	t1,0x4
    8000173a:	a083031b          	addw	t1,t1,-1528 # 3a08 <_tbss_end+0x3a08>
    8000173e:	911a                	add	sp,sp,t1

0000000080001740 <i00000001bc>:
    80001740:	b462                	fsd	fs8,40(sp)

0000000080001742 <i00000001bd>:
    80001742:	02d3d03b          	divuw	zero,t2,a3

0000000080001746 <i00000001be>:
    80001746:	87a5                	sra	a5,a5,0x9
    80001748:	000df117          	auipc	sp,0xdf
    8000174c:	8b810113          	add	sp,sp,-1864 # 800e0000 <begin_signature>
    80001750:	6329                	lui	t1,0xa
    80001752:	b303031b          	addw	t1,t1,-1232 # 9b30 <_tbss_end+0x9b30>
    80001756:	911a                	add	sp,sp,t1

0000000080001758 <i00000001bf>:
    80001758:	3c2a                	fld	fs8,168(sp)

000000008000175a <i00000001c0>:
    8000175a:	2d143917          	auipc	s2,0x2d143

000000008000175e <i00000001c1>:
    8000175e:	4061352f          	amoor.d	a0,t1,(sp)
    80001762:	000df117          	auipc	sp,0xdf
    80001766:	89e10113          	add	sp,sp,-1890 # 800e0000 <begin_signature>
    8000176a:	632d                	lui	t1,0xb
    8000176c:	0e03031b          	addw	t1,t1,224 # b0e0 <_tbss_end+0xb0e0>
    80001770:	911a                	add	sp,sp,t1

0000000080001772 <i00000001c2>:
    80001772:	62416783          	lwu	a5,1572(sp)

0000000080001776 <i00000001c3>:
    80001776:	115bc4d3          	fmul.s	fs1,fs7,fs5,rmm

000000008000177a <i00000001c4>:
    8000177a:	02f971b3          	remu	gp,s2,a5

000000008000177e <i00000001c5>:
    8000177e:	87ca                	mv	a5,s2
    80001780:	000df117          	auipc	sp,0xdf
    80001784:	88010113          	add	sp,sp,-1920 # 800e0000 <begin_signature>
    80001788:	6321                	lui	t1,0x8
    8000178a:	5283031b          	addw	t1,t1,1320 # 8528 <_tbss_end+0x8528>
    8000178e:	911a                	add	sp,sp,t1

0000000080001790 <i00000001c6>:
    80001790:	c0816b03          	lwu	s6,-1016(sp)
    80001794:	4b31                	li	s6,12
    80001796:	4ea9                	li	t4,10
    80001798:	d018c6d3          	fcvt.s.wu	fa3,a7,rmm
    8000179c:	09213e2f          	amoswap.d	t3,s2,(sp)
    800017a0:	6111                	add	sp,sp,256
    800017a2:	4151392f          	amoor.d	s2,s5,(sp)
    800017a6:	c234f953          	fcvt.lu.d	s2,fs1
    800017aa:	d027aed3          	fcvt.s.l	ft9,a5,rdn
    800017ae:	0ff0000f          	fence

00000000800017b2 <b00000001c7>:
    800017b2:	00000033          	add	zero,zero,zero
    800017b6:	036eca63          	blt	t4,s6,800017ea <i00000001cc>
    800017ba:	00000033          	add	zero,zero,zero
    800017be:	c121392f          	amominu.d	s2,s2,(sp)
    800017c2:	0820                	add	s0,sp,24
    800017c4:	a081282f          	amomax.w	a6,s0,(sp)
    800017c8:	22f112d3          	fsgnjn.d	ft5,ft2,fa5
    800017cc:	2aba0853          	fmin.d	fa6,fs4,fa1
    800017d0:	6105                	add	sp,sp,32
    800017d2:	11212823          	sw	s2,272(sp)
    800017d6:	4ea9                	li	t4,10

00000000800017d8 <i00000001c7>:
    800017d8:	83013423          	sd	a6,-2008(sp)

00000000800017dc <i00000001c8>:
    800017dc:	ed213c23          	sd	s2,-296(sp)

00000000800017e0 <i00000001c9>:
    800017e0:	668a                	ld	a3,128(sp)

00000000800017e2 <i00000001ca>:
    800017e2:	03254c33          	div	s8,a0,s2

00000000800017e6 <i00000001cb>:
    800017e6:	03076f33          	rem	t5,a4,a6

00000000800017ea <i00000001cc>:
    800017ea:	8505                	sra	a0,a0,0x1

00000000800017ec <i00000001cd>:
    800017ec:	c622                	sw	s0,12(sp)

00000000800017ee <i00000001ce>:
    800017ee:	e367a513          	slti	a0,a5,-458

00000000800017f2 <i00000001cf>:
    800017f2:	02f5593b          	divuw	s2,a0,a5

00000000800017f6 <i00000001d0>:
    800017f6:	60f1322f          	amoand.d	tp,a5,(sp)

00000000800017fa <i00000001d1>:
    800017fa:	b5c14783          	lbu	a5,-1188(sp)
    800017fe:	4db1                	li	s11,12
    80001800:	0e85                	add	t4,t4,1
    80001802:	000de117          	auipc	sp,0xde
    80001806:	7fe10113          	add	sp,sp,2046 # 800e0000 <begin_signature>
    8000180a:	6311                	lui	t1,0x4
    8000180c:	3d03031b          	addw	t1,t1,976 # 43d0 <_tbss_end+0x43d0>
    80001810:	911a                	add	sp,sp,t1
    80001812:	a041372f          	amomax.d	a4,tp,(sp)
    80001816:	03278433          	mul	s0,a5,s2
    8000181a:	0000100f          	fence.i
    8000181e:	f5411903          	lh	s2,-172(sp)
    80001822:	e2060bd3          	fmv.x.d	s7,fa2
    80001826:	00f907bb          	addw	a5,s2,a5
    8000182a:	6f011123          	sh	a6,1762(sp)

000000008000182e <b00000001d2>:
    8000182e:	00000033          	add	zero,zero,zero
    80001832:	fbdddde3          	bge	s11,t4,800017ec <i00000001cd>
    80001836:	00000033          	add	zero,zero,zero
    8000183a:	f0be                	sd	a5,96(sp)
    8000183c:	b866                	fsd	fs9,48(sp)
    8000183e:	bc2e                	fsd	fa1,56(sp)
    80001840:	e2028853          	fmv.x.d	a6,ft5
    80001844:	7125                	add	sp,sp,-416
    80001846:	a1512a2f          	amomax.w	s4,s5,(sp)
    8000184a:	43e4dc13          	sra	s8,s1,0x3e
    8000184e:	4ea9                	li	t4,10

0000000080001850 <i00000001d2>:
    80001850:	00f54bb3          	xor	s7,a0,a5

0000000080001854 <i00000001d3>:
    80001854:	c00d3553          	fcvt.w.s	a0,fs10,rup

0000000080001858 <i00000001d4>:
    80001858:	eb211783          	lh	a5,-334(sp)

000000008000185c <i00000001d5>:
    8000185c:	04c6                	sll	s1,s1,0x11

000000008000185e <i00000001d6>:
    8000185e:	5cbd                	li	s9,-17

0000000080001860 <i00000001d7>:
    80001860:	e2039953          	fclass.d	s2,ft7

0000000080001864 <i00000001d8>:
    80001864:	07a2                	sll	a5,a5,0x8

0000000080001866 <i00000001d9>:
    80001866:	01e89493          	sll	s1,a7,0x1e

000000008000186a <i00000001da>:
    8000186a:	a0f1252f          	amomax.w	a0,a5,(sp)

000000008000186e <i00000001db>:
    8000186e:	ae3fe0ef          	jal	80000350 <func1>
    80001872:	000de117          	auipc	sp,0xde
    80001876:	78e10113          	add	sp,sp,1934 # 800e0000 <begin_signature>
    8000187a:	6309                	lui	t1,0x2
    8000187c:	6f83031b          	addw	t1,t1,1784 # 26f8 <_tbss_end+0x26f8>
    80001880:	911a                	add	sp,sp,t1

0000000080001882 <i00000001dc>:
    80001882:	83313823          	sd	s3,-2000(sp)

0000000080001886 <i00000001dd>:
    80001886:	36416903          	lwu	s2,868(sp)
    8000188a:	4ab1                	li	s5,12
    8000188c:	0e85                	add	t4,t4,1
    8000188e:	000de117          	auipc	sp,0xde
    80001892:	77210113          	add	sp,sp,1906 # 800e0000 <begin_signature>
    80001896:	6311                	lui	t1,0x4
    80001898:	c903031b          	addw	t1,t1,-880 # 3c90 <_tbss_end+0x3c90>
    8000189c:	911a                	add	sp,sp,t1
    8000189e:	027e1933          	mulh	s2,t3,t2
    800018a2:	5402                	lw	s0,32(sp)
    800018a4:	93a6                	add	t2,t2,s1
    800018a6:	60e1392f          	amoand.d	s2,a4,(sp)
    800018aa:	9831                	and	s0,s0,-20
    800018ac:	036c67b3          	rem	a5,s8,s6
    800018b0:	030c27b3          	mulhsu	a5,s8,a6

00000000800018b4 <b00000001de>:
    800018b4:	015e8863          	beq	t4,s5,800018c4 <b00000001de+0x10>
    800018b8:	00000a97          	auipc	s5,0x0
    800018bc:	faca8a93          	add	s5,s5,-84 # 80001864 <i00000001d8>
    800018c0:	000a8567          	jalr	a0,s5
    800018c4:	4ea9                	li	t4,10
    800018c6:	9c9d                	subw	s1,s1,a5
    800018c8:	034fb7b3          	mulhu	a5,t6,s4
    800018cc:	6091392f          	amoand.d	s2,s1,(sp)
    800018d0:	a091282f          	amomax.w	a6,s1,(sp)
    800018d4:	0ff0000f          	fence
    800018d8:	7d2a                	ld	s10,168(sp)
    800018da:	293916d3          	fmax.s	fa3,fs2,fs3

00000000800018de <i00000001de>:
    800018de:	8149                	srl	a0,a0,0x12

00000000800018e0 <i00000001df>:
    800018e0:	c03f37d3          	fcvt.lu.s	a5,ft10,rup

00000000800018e4 <i00000001e0>:
    800018e4:	00a7903b          	sllw	zero,a5,a0

00000000800018e8 <i00000001e1>:
    800018e8:	03639913          	sll	s2,t2,0x36

00000000800018ec <i00000001e2>:
    800018ec:	0000100f          	fence.i

00000000800018f0 <i00000001e3>:
    800018f0:	9792                	add	a5,a5,tp

00000000800018f2 <i00000001e4>:
    800018f2:	00f136af          	amoadd.d	a3,a5,(sp)

00000000800018f6 <i00000001e5>:
    800018f6:	d0357d53          	fcvt.s.lu	fs10,a0

00000000800018fa <i00000001e6>:
    800018fa:	f6813903          	ld	s2,-152(sp)

00000000800018fe <i00000001e7>:
    800018fe:	f0058e53          	fmv.w.x	ft8,a1

0000000080001902 <i00000001e8>:
    80001902:	00661c13          	sll	s8,a2,0x6
    80001906:	4da9                	li	s11,10
    80001908:	a1ad1853          	flt.s	a6,fs10,fs10
    8000190c:	6109                	add	sp,sp,128
    8000190e:	e3016183          	lwu	gp,-464(sp)
    80001912:	0297a433          	mulhsu	s0,a5,s1
    80001916:	02e88abb          	mulw	s5,a7,a4
    8000191a:	0124bfb3          	sltu	t6,s1,s2
    8000191e:	215f0653          	fsgnj.s	fa2,ft10,fs5

0000000080001922 <b00000001e9>:
    80001922:	01be8463          	beq	t4,s11,8000192a <b00000001e9+0x8>
    80001926:	fcbff56f          	jal	a0,800018f0 <i00000001e3>
    8000192a:	4ea9                	li	t4,10
    8000192c:	5474ab93          	slti	s7,s1,1351
    80001930:	c037b453          	fcvt.lu.s	s0,fa5,rup
    80001934:	c03694d3          	fcvt.lu.s	s1,fa3,rtz
    80001938:	035a6033          	rem	zero,s4,s5
    8000193c:	121c                	add	a5,sp,288
    8000193e:	8907c793          	xor	a5,a5,-1904
    80001942:	8f41                	or	a4,a4,s0

0000000080001944 <i00000001e9>:
    80001944:	0ff0000f          	fence

0000000080001948 <i00000001ea>:
    80001948:	d0278153          	fcvt.s.l	ft2,a5,rne

000000008000194c <i00000001eb>:
    8000194c:	61612e2f          	amoand.w	t3,s6,(sp)

0000000080001950 <i00000001ec>:
    80001950:	0000100f          	fence.i
    80001954:	000de117          	auipc	sp,0xde
    80001958:	6ac10113          	add	sp,sp,1708 # 800e0000 <begin_signature>
    8000195c:	6315                	lui	t1,0x5
    8000195e:	6203031b          	addw	t1,t1,1568 # 5620 <_tbss_end+0x5620>
    80001962:	911a                	add	sp,sp,t1

0000000080001964 <i00000001ed>:
    80001964:	e0816503          	lwu	a0,-504(sp)

0000000080001968 <i00000001ee>:
    80001968:	c02f4a53          	fcvt.l.s	s4,ft10,rmm

000000008000196c <i00000001ef>:
    8000196c:	e0000553          	fmv.x.w	a0,ft0

0000000080001970 <i00000001f0>:
    80001970:	c034a953          	fcvt.lu.s	s2,fs1,rdn

0000000080001974 <i00000001f1>:
    80001974:	81b10e23          	sb	s11,-2020(sp)

0000000080001978 <i00000001f2>:
    80001978:	02f78533          	mul	a0,a5,a5

000000008000197c <i00000001f3>:
    8000197c:	9d5fe0ef          	jal	80000350 <func1>

0000000080001980 <i00000001f4>:
    80001980:	fcb2                	sd	a2,120(sp)
    80001982:	4829                	li	a6,10
    80001984:	0278                	add	a4,sp,268
    80001986:	7782                	ld	a5,32(sp)
    80001988:	716d                	add	sp,sp,-272
    8000198a:	c0248253          	fcvt.l.s	tp,fs1,rne
    8000198e:	01fd81bb          	addw	gp,s11,t6
    80001992:	f20404d3          	fmv.d.x	fs1,s0
    80001996:	a0582053          	feq.s	zero,fa6,ft5

000000008000199a <b00000001f5>:
    8000199a:	010e8863          	beq	t4,a6,800019aa <b00000001f5+0x10>
    8000199e:	00000817          	auipc	a6,0x0
    800019a2:	fd280813          	add	a6,a6,-46 # 80001970 <i00000001f0>
    800019a6:	000800e7          	jalr	a6
    800019aa:	4ea9                	li	t4,10
    800019ac:	f5013403          	ld	s0,-176(sp)
    800019b0:	e0de                	sd	s7,64(sp)
    800019b2:	420d0653          	fcvt.d.s	fa2,fs10
    800019b6:	d0370653          	fcvt.s.lu	fa2,a4,rne
    800019ba:	a091342f          	amomax.d	s0,s1,(sp)
    800019be:	d2297653          	fcvt.d.l	fa2,s2
    800019c2:	0ff0000f          	fence

00000000800019c6 <i00000001f5>:
    800019c6:	c02147d3          	fcvt.l.s	a5,ft2,rmm

00000000800019ca <i00000001f6>:
    800019ca:	6d92                	ld	s11,256(sp)

00000000800019cc <i00000001f7>:
    800019cc:	010889bb          	addw	s3,a7,a6

00000000800019d0 <i00000001f8>:
    800019d0:	0ff0000f          	fence

00000000800019d4 <i00000001f9>:
    800019d4:	8151292f          	amomin.w	s2,s5,(sp)

00000000800019d8 <i00000001fa>:
    800019d8:	c121292f          	amominu.w	s2,s2,(sp)

00000000800019dc <i00000001fb>:
    800019dc:	13a67653          	fmul.d	fa2,fa2,fs10

00000000800019e0 <i00000001fc>:
    800019e0:	971fe0ef          	jal	80000350 <func1>
    800019e4:	000de117          	auipc	sp,0xde
    800019e8:	61c10113          	add	sp,sp,1564 # 800e0000 <begin_signature>
    800019ec:	6329                	lui	t1,0xa
    800019ee:	b603031b          	addw	t1,t1,-1184 # 9b60 <_tbss_end+0x9b60>
    800019f2:	911a                	add	sp,sp,t1

00000000800019f4 <i00000001fd>:
    800019f4:	45813a83          	ld	s5,1112(sp)

00000000800019f8 <i00000001fe>:
    800019f8:	03254633          	div	a2,a0,s2

00000000800019fc <i00000001ff>:
    800019fc:	d6f13023          	sd	a5,-672(sp)
    80001a00:	000de117          	auipc	sp,0xde
    80001a04:	60010113          	add	sp,sp,1536 # 800e0000 <begin_signature>
    80001a08:	6325                	lui	t1,0x9
    80001a0a:	3383031b          	addw	t1,t1,824 # 9338 <_tbss_end+0x9338>
    80001a0e:	911a                	add	sp,sp,t1

0000000080001a10 <i0000000200>:
    80001a10:	93e14903          	lbu	s2,-1730(sp)
    80001a14:	48b1                	li	a7,12
    80001a16:	0e85                	add	t4,t4,1
    80001a18:	000de117          	auipc	sp,0xde
    80001a1c:	5e810113          	add	sp,sp,1512 # 800e0000 <begin_signature>
    80001a20:	6311                	lui	t1,0x4
    80001a22:	d203031b          	addw	t1,t1,-736 # 3d20 <_tbss_end+0x3d20>
    80001a26:	911a                	add	sp,sp,t1
    80001a28:	000de117          	auipc	sp,0xde
    80001a2c:	5d810113          	add	sp,sp,1496 # 800e0000 <begin_signature>
    80001a30:	632d                	lui	t1,0xb
    80001a32:	b383031b          	addw	t1,t1,-1224 # ab38 <_tbss_end+0xab38>
    80001a36:	911a                	add	sp,sp,t1
    80001a38:	612134af          	amoand.d	s1,s2,(sp)
    80001a3c:	d03baad3          	fcvt.s.lu	fs5,s7,rdn
    80001a40:	6131242f          	amoand.w	s0,s3,(sp)
    80001a44:	ed5a                	sd	s6,152(sp)
    80001a46:	f022                	sd	s0,32(sp)
    80001a48:	c03607d3          	fcvt.lu.s	a5,fa2,rne
    80001a4c:	47f2                	lw	a5,28(sp)

0000000080001a4e <b0000000201>:
    80001a4e:	011e8863          	beq	t4,a7,80001a5e <b0000000201+0x10>
    80001a52:	00000897          	auipc	a7,0x0
    80001a56:	f8e88893          	add	a7,a7,-114 # 800019e0 <i00000001fc>
    80001a5a:	00088067          	jr	a7
    80001a5e:	4ea9                	li	t4,10
    80001a60:	5742                	lw	a4,48(sp)
    80001a62:	04ee                	sll	s1,s1,0x1b
    80001a64:	67c6                	ld	a5,80(sp)
    80001a66:	a09121af          	amomax.w	gp,s1,(sp)
    80001a6a:	07c2                	sll	a5,a5,0x10
    80001a6c:	c0262953          	fcvt.l.s	s2,fa2,rdn
    80001a70:	0294f43b          	remuw	s0,s1,s1

0000000080001a74 <i0000000201>:
    80001a74:	0000100f          	fence.i

0000000080001a78 <i0000000202>:
    80001a78:	23ea                	fld	ft7,152(sp)

0000000080001a7a <i0000000203>:
    80001a7a:	dc26                	sw	s1,56(sp)

0000000080001a7c <i0000000204>:
    80001a7c:	0ff0000f          	fence

0000000080001a80 <i0000000205>:
    80001a80:	a8be                	fsd	fa5,80(sp)

0000000080001a82 <i0000000206>:
    80001a82:	9c09                	subw	s0,s0,a0

0000000080001a84 <i0000000207>:
    80001a84:	02a7c93b          	divw	s2,a5,a0

0000000080001a88 <i0000000208>:
    80001a88:	5459                	li	s0,-10

0000000080001a8a <i0000000209>:
    80001a8a:	e0413e2f          	amomaxu.d	t3,tp,(sp)

0000000080001a8e <i000000020a>:
    80001a8e:	3822                	fld	fa6,40(sp)

0000000080001a90 <i000000020b>:
    80001a90:	e20d1953          	fclass.d	s2,fs10
    80001a94:	4929                	li	s2,10
    80001a96:	000de117          	auipc	sp,0xde
    80001a9a:	56a10113          	add	sp,sp,1386 # 800e0000 <begin_signature>
    80001a9e:	6325                	lui	t1,0x9
    80001aa0:	b803031b          	addw	t1,t1,-1152 # 8b80 <_tbss_end+0x8b80>
    80001aa4:	911a                	add	sp,sp,t1
    80001aa6:	a7a11203          	lh	tp,-1414(sp)
    80001aaa:	02275d93          	srl	s11,a4,0x22
    80001aae:	029494b3          	mulh	s1,s1,s1
    80001ab2:	e20d87d3          	fmv.x.d	a5,fs11
    80001ab6:	03bdc43b          	divw	s0,s11,s11
    80001aba:	0000100f          	fence.i
    80001abe:	8361                	srl	a4,a4,0x18

0000000080001ac0 <b000000020c>:
    80001ac0:	00000033          	add	zero,zero,zero
    80001ac4:	032e8a63          	beq	t4,s2,80001af8 <i0000000212>
    80001ac8:	00000033          	add	zero,zero,zero
    80001acc:	0ff0000f          	fence
    80001ad0:	4094ddbb          	sraw	s11,s1,s1
    80001ad4:	8b05                	and	a4,a4,1
    80001ad6:	7109                	add	sp,sp,-384
    80001ad8:	67aa                	ld	a5,136(sp)
    80001ada:	7d4a                	ld	s10,176(sp)
    80001adc:	a0038253          	fle.s	tp,ft7,ft0
    80001ae0:	4ea9                	li	t4,10

0000000080001ae2 <i000000020c>:
    80001ae2:	00f1322f          	amoadd.d	tp,a5,(sp)

0000000080001ae6 <i000000020d>:
    80001ae6:	8579                	sra	a0,a0,0x1e

0000000080001ae8 <i000000020e>:
    80001ae8:	0105d91b          	srlw	s2,a1,0x10

0000000080001aec <i000000020f>:
    80001aec:	79013703          	ld	a4,1936(sp)

0000000080001af0 <i0000000210>:
    80001af0:	c03446d3          	fcvt.lu.s	a3,fs0,rmm

0000000080001af4 <i0000000211>:
    80001af4:	1240f4d3          	fmul.d	fs1,ft1,ft4

0000000080001af8 <i0000000212>:
    80001af8:	e2060ad3          	fmv.x.d	s5,fa2

0000000080001afc <i0000000213>:
    80001afc:	61213aaf          	amoand.d	s5,s2,(sp)

0000000080001b00 <i0000000214>:
    80001b00:	c161322f          	amominu.d	tp,s6,(sp)

0000000080001b04 <i0000000215>:
    80001b04:	d027b653          	fcvt.s.l	fa2,a5,rup

0000000080001b08 <i0000000216>:
    80001b08:	36c5                	addw	a3,a3,-15
    80001b0a:	4e25                	li	t3,9
    80001b0c:	c7013203          	ld	tp,-912(sp)
    80001b10:	e2048453          	fmv.x.d	s0,fs1
    80001b14:	0ff0000f          	fence
    80001b18:	4191292f          	amoor.w	s2,s9,(sp)
    80001b1c:	02f4d9b3          	divu	s3,s1,a5
    80001b20:	c03d1253          	fcvt.lu.s	tp,fs10,rtz
    80001b24:	0ff0000f          	fence

0000000080001b28 <b0000000217>:
    80001b28:	00000033          	add	zero,zero,zero
    80001b2c:	fdde56e3          	bge	t3,t4,80001af8 <i0000000212>
    80001b30:	00000033          	add	zero,zero,zero
    80001b34:	6702                	ld	a4,0(sp)
    80001b36:	d02a2d53          	fcvt.s.l	fs10,s4,rdn
    80001b3a:	0000100f          	fence.i
    80001b3e:	9f85                	subw	a5,a5,s1
    80001b40:	29f79153          	fmax.s	ft2,fa5,ft11
    80001b44:	029781b3          	mul	gp,a5,s1
    80001b48:	0c016183          	lwu	gp,192(sp)
    80001b4c:	4ea9                	li	t4,10

0000000080001b4e <i0000000217>:
    80001b4e:	5bf11c23          	sh	t6,1464(sp)

0000000080001b52 <i0000000218>:
    80001b52:	21313d2f          	amoxor.d	s10,s3,(sp)

0000000080001b56 <i0000000219>:
    80001b56:	a181292f          	amomax.w	s2,s8,(sp)

0000000080001b5a <i000000021a>:
    80001b5a:	03b31c13          	sll	s8,t1,0x3b

0000000080001b5e <i000000021b>:
    80001b5e:	408c86b3          	sub	a3,s9,s0

0000000080001b62 <i000000021c>:
    80001b62:	b08a                	fsd	ft2,96(sp)

0000000080001b64 <i000000021d>:
    80001b64:	07b9                	add	a5,a5,14

0000000080001b66 <i000000021e>:
    80001b66:	8d3d                	xor	a0,a0,a5

0000000080001b68 <i000000021f>:
    80001b68:	57c16b03          	lwu	s6,1404(sp)

0000000080001b6c <i0000000220>:
    80001b6c:	f9c16903          	lwu	s2,-100(sp)

0000000080001b70 <i0000000221>:
    80001b70:	03254933          	div	s2,a0,s2
    80001b74:	4d29                	li	s10,10
    80001b76:	000de117          	auipc	sp,0xde
    80001b7a:	48a10113          	add	sp,sp,1162 # 800e0000 <begin_signature>
    80001b7e:	633d                	lui	t1,0xf
    80001b80:	4683031b          	addw	t1,t1,1128 # f468 <_tbss_end+0xf468>
    80001b84:	911a                	add	sp,sp,t1
    80001b86:	248e                	fld	fs1,192(sp)
    80001b88:	ad16                	fsd	ft5,152(sp)
    80001b8a:	01249a9b          	sllw	s5,s1,0x12
    80001b8e:	6422                	ld	s0,8(sp)
    80001b90:	61b1282f          	amoand.w	a6,s11,(sp)
    80001b94:	de3a                	sw	a4,60(sp)
    80001b96:	629d7d47          	fmsub.d	fs10,fs10,fs1,fa2

0000000080001b9a <b0000000222>:
    80001b9a:	01ae8463          	beq	t4,s10,80001ba2 <b0000000222+0x8>
    80001b9e:	fc7ff56f          	jal	a0,80001b64 <i000000021d>
    80001ba2:	4ea9                	li	t4,10
    80001ba4:	22c488d3          	fsgnj.d	fa7,fs1,fa2
    80001ba8:	e0f127af          	amomaxu.w	a5,a5,(sp)
    80001bac:	9c01                	subw	s0,s0,s0
    80001bae:	57b2                	lw	a5,44(sp)
    80001bb0:	030b803b          	mulw	zero,s7,a6
    80001bb4:	9c19                	subw	s0,s0,a4
    80001bb6:	5472                	lw	s0,60(sp)

0000000080001bb8 <i0000000222>:
    80001bb8:	2766                	fld	fa4,88(sp)
    80001bba:	000de117          	auipc	sp,0xde
    80001bbe:	44610113          	add	sp,sp,1094 # 800e0000 <begin_signature>
    80001bc2:	6315                	lui	t1,0x5
    80001bc4:	ed03031b          	addw	t1,t1,-304 # 4ed0 <_tbss_end+0x4ed0>
    80001bc8:	911a                	add	sp,sp,t1

0000000080001bca <i0000000223>:
    80001bca:	ed813383          	ld	t2,-296(sp)

0000000080001bce <i0000000224>:
    80001bce:	77ea                	ld	a5,184(sp)

0000000080001bd0 <i0000000225>:
    80001bd0:	85c5                	sra	a1,a1,0x11
    80001bd2:	000de117          	auipc	sp,0xde
    80001bd6:	42e10113          	add	sp,sp,1070 # 800e0000 <begin_signature>
    80001bda:	630d                	lui	t1,0x3
    80001bdc:	4f03031b          	addw	t1,t1,1264 # 34f0 <_tbss_end+0x34f0>
    80001be0:	911a                	add	sp,sp,t1

0000000080001be2 <i0000000226>:
    80001be2:	3622                	fld	fa2,40(sp)

0000000080001be4 <i0000000227>:
    80001be4:	03c4e7b3          	rem	a5,s1,t3

0000000080001be8 <i0000000228>:
    80001be8:	00e58d3b          	addw	s10,a1,a4

0000000080001bec <i0000000229>:
    80001bec:	5851                	li	a6,-12

0000000080001bee <i000000022a>:
    80001bee:	2181392f          	amoxor.d	s2,s8,(sp)

0000000080001bf2 <i000000022b>:
    80001bf2:	e83e                	sd	a5,16(sp)

0000000080001bf4 <i000000022c>:
    80001bf4:	5d213023          	sd	s2,1472(sp)
    80001bf8:	4ca9                	li	s9,10
    80001bfa:	615124af          	amoand.w	s1,s5,(sp)
    80001bfe:	8fe5                	and	a5,a5,s1
    80001c00:	0ff0000f          	fence
    80001c04:	028a07bb          	mulw	a5,s4,s0
    80001c08:	60912baf          	amoand.w	s7,s1,(sp)
    80001c0c:	0240                	add	s0,sp,260
    80001c0e:	d0024bd3          	fcvt.s.w	fs7,tp,rmm

0000000080001c12 <b000000022d>:
    80001c12:	019e8463          	beq	t4,s9,80001c1a <b000000022d+0x8>
    80001c16:	fcfff06f          	j	80001be4 <i0000000227>
    80001c1a:	4ea9                	li	t4,10
    80001c1c:	07b2                	sll	a5,a5,0xc
    80001c1e:	5cc16403          	lwu	s0,1484(sp)
    80001c22:	a1e021d3          	feq.s	gp,ft0,ft10
    80001c26:	0000100f          	fence.i
    80001c2a:	0796                	sll	a5,a5,0x5
    80001c2c:	0121292f          	amoadd.w	s2,s2,(sp)
    80001c30:	e0813aaf          	amomaxu.d	s5,s0,(sp)

0000000080001c34 <i000000022d>:
    80001c34:	031cff3b          	remuw	t5,s9,a7

0000000080001c38 <i000000022e>:
    80001c38:	00f2d79b          	srlw	a5,t0,0xf

0000000080001c3c <i000000022f>:
    80001c3c:	7406                	ld	s0,96(sp)

0000000080001c3e <i0000000230>:
    80001c3e:	007133af          	amoadd.d	t2,t2,(sp)

0000000080001c42 <i0000000231>:
    80001c42:	02a92933          	mulhsu	s2,s2,a0

0000000080001c46 <i0000000232>:
    80001c46:	02a7e73b          	remw	a4,a5,a0

0000000080001c4a <i0000000233>:
    80001c4a:	9f9d                	subw	a5,a5,a5

0000000080001c4c <i0000000234>:
    80001c4c:	0ff0000f          	fence

0000000080001c50 <i0000000235>:
    80001c50:	02f78933          	mul	s2,a5,a5

0000000080001c54 <i0000000236>:
    80001c54:	214125af          	amoxor.w	a1,s4,(sp)

0000000080001c58 <i0000000237>:
    80001c58:	3511                	addw	a0,a0,-28
    80001c5a:	49a9                	li	s3,10
    80001c5c:	000de117          	auipc	sp,0xde
    80001c60:	3a410113          	add	sp,sp,932 # 800e0000 <begin_signature>
    80001c64:	6325                	lui	t1,0x9
    80001c66:	dc03031b          	addw	t1,t1,-576 # 8dc0 <_tbss_end+0x8dc0>
    80001c6a:	911a                	add	sp,sp,t1
    80001c6c:	f96a                	sd	s10,176(sp)
    80001c6e:	00e4d41b          	srlw	s0,s1,0xe
    80001c72:	1a912423          	sw	s1,424(sp)
    80001c76:	01673ab3          	sltu	s5,a4,s6
    80001c7a:	7d013483          	ld	s1,2000(sp)
    80001c7e:	030d3e33          	mulhu	t3,s10,a6
    80001c82:	5f416403          	lwu	s0,1524(sp)

0000000080001c86 <b0000000238>:
    80001c86:	013e8863          	beq	t4,s3,80001c96 <b0000000238+0x10>
    80001c8a:	00000997          	auipc	s3,0x0
    80001c8e:	fc098993          	add	s3,s3,-64 # 80001c4a <i0000000233>
    80001c92:	00098067          	jr	s3
    80001c96:	4ea9                	li	t4,10
    80001c98:	0ff0000f          	fence
    80001c9c:	0327d7b3          	divu	a5,a5,s2
    80001ca0:	7482                	ld	s1,32(sp)
    80001ca2:	da3a                	sw	a4,52(sp)
    80001ca4:	031ddcbb          	divuw	s9,s11,a7
    80001ca8:	03fbffbb          	remuw	t6,s7,t6
    80001cac:	0000100f          	fence.i

0000000080001cb0 <i0000000238>:
    80001cb0:	d03a2ed3          	fcvt.s.lu	ft9,s4,rdn

0000000080001cb4 <i0000000239>:
    80001cb4:	1afc                	add	a5,sp,380

0000000080001cb6 <i000000023a>:
    80001cb6:	83ed                	srl	a5,a5,0x1b

0000000080001cb8 <i000000023b>:
    80001cb8:	f6f12223          	sw	a5,-156(sp)

0000000080001cbc <i000000023c>:
    80001cbc:	00a132af          	amoadd.d	t0,a0,(sp)

0000000080001cc0 <i000000023d>:
    80001cc0:	1141                	add	sp,sp,-16
    80001cc2:	e43e                	sd	a5,8(sp)
    80001cc4:	e822                	sd	s0,16(sp)
    80001cc6:	878a                	mv	a5,sp
    80001cc8:	0037b403          	ld	s0,3(a5)
    80001ccc:	67a2                	ld	a5,8(sp)
    80001cce:	6442                	ld	s0,16(sp)
    80001cd0:	0141                	add	sp,sp,16

0000000080001cd2 <i000000023e>:
    80001cd2:	606125af          	amoand.w	a1,t1,(sp)

0000000080001cd6 <i000000023f>:
    80001cd6:	c03443d3          	fcvt.lu.s	t2,fs0,rmm

0000000080001cda <i0000000240>:
    80001cda:	025b053b          	mulw	a0,s6,t0

0000000080001cde <i0000000241>:
    80001cde:	02f7c9bb          	divw	s3,a5,a5

0000000080001ce2 <i0000000242>:
    80001ce2:	036353bb          	divuw	t2,t1,s6

0000000080001ce6 <i0000000243>:
    80001ce6:	d0294cd3          	fcvt.s.l	fs9,s2,rmm
    80001cea:	4a31                	li	s4,12
    80001cec:	0e85                	add	t4,t4,1
    80001cee:	000de117          	auipc	sp,0xde
    80001cf2:	31210113          	add	sp,sp,786 # 800e0000 <begin_signature>
    80001cf6:	633d                	lui	t1,0xf
    80001cf8:	0303031b          	addw	t1,t1,48 # f030 <_tbss_end+0xf030>
    80001cfc:	911a                	add	sp,sp,t1
    80001cfe:	000de117          	auipc	sp,0xde
    80001d02:	30210113          	add	sp,sp,770 # 800e0000 <begin_signature>
    80001d06:	6331                	lui	t1,0xc
    80001d08:	5983031b          	addw	t1,t1,1432 # c598 <_tbss_end+0xc598>
    80001d0c:	911a                	add	sp,sp,t1
    80001d0e:	c000b953          	fcvt.w.s	s2,ft1,rup
    80001d12:	60c12427          	fsw	fa2,1544(sp)
    80001d16:	7141                	add	sp,sp,-496
    80001d18:	80e13faf          	amomin.d	t6,a4,(sp)
    80001d1c:	a2948953          	fle.d	s2,fs1,fs1
    80001d20:	0ff0000f          	fence
    80001d24:	77c6                	ld	a5,112(sp)

0000000080001d26 <b0000000244>:
    80001d26:	014e8863          	beq	t4,s4,80001d36 <b0000000244+0x10>
    80001d2a:	00000a17          	auipc	s4,0x0
    80001d2e:	fa8a0a13          	add	s4,s4,-88 # 80001cd2 <i000000023e>
    80001d32:	000a00e7          	jalr	s4
    80001d36:	4ea9                	li	t4,10
    80001d38:	c236f8d3          	fcvt.lu.d	a7,fa3
    80001d3c:	098129af          	amoswap.w	s3,s8,(sp)
    80001d40:	c2267953          	fcvt.l.d	s2,fa2
    80001d44:	262a                	fld	fa2,136(sp)
    80001d46:	0000100f          	fence.i
    80001d4a:	6111                	add	sp,sp,256
    80001d4c:	b932                	fsd	fa2,176(sp)

0000000080001d4e <i0000000244>:
    80001d4e:	8c3d                	xor	s0,s0,a5

0000000080001d50 <i0000000245>:
    80001d50:	d037f253          	fcvt.s.lu	ft4,a5

0000000080001d54 <i0000000246>:
    80001d54:	031e24b3          	mulhsu	s1,t3,a7

0000000080001d58 <i0000000247>:
    80001d58:	d017f753          	fcvt.s.wu	fa4,a5

0000000080001d5c <i0000000248>:
    80001d5c:	0ff0000f          	fence
    80001d60:	000de117          	auipc	sp,0xde
    80001d64:	2a010113          	add	sp,sp,672 # 800e0000 <begin_signature>
    80001d68:	6335                	lui	t1,0xd
    80001d6a:	0383031b          	addw	t1,t1,56 # d038 <_tbss_end+0xd038>
    80001d6e:	911a                	add	sp,sp,t1

0000000080001d70 <i0000000249>:
    80001d70:	28f14903          	lbu	s2,655(sp)

0000000080001d74 <i000000024a>:
    80001d74:	f20209d3          	fmv.d.x	fs3,tp

0000000080001d78 <i000000024b>:
    80001d78:	0338793b          	remuw	s2,a6,s3

0000000080001d7c <i000000024c>:
    80001d7c:	0338d53b          	divuw	a0,a7,s3

0000000080001d80 <i000000024d>:
    80001d80:	00f7a7b3          	slt	a5,a5,a5

0000000080001d84 <i000000024e>:
    80001d84:	e1be                	sd	a5,192(sp)
    80001d86:	5ad6                	lw	s5,116(sp)
    80001d88:	8f59                	or	a4,a4,a4
    80001d8a:	7c33f1b7          	lui	gp,0x7c33f
    80001d8e:	36cda897          	auipc	a7,0x36cda
    80001d92:	129d78d3          	fmul.d	fa7,fs10,fs1
    80001d96:	8cfd                	and	s1,s1,a5
    80001d98:	87ad                	sra	a5,a5,0xb

0000000080001d9a <b000000024f>:
    80001d9a:	00000d17          	auipc	s10,0x0
    80001d9e:	036d0d13          	add	s10,s10,54 # 80001dd0 <i0000000254>
    80001da2:	000d00e7          	jalr	s10
    80001da6:	0801242f          	amoswap.w	s0,zero,(sp)
    80001daa:	ca3a                	sw	a4,20(sp)
    80001dac:	5ce2                	lw	s9,56(sp)
    80001dae:	d02fc6d3          	fcvt.s.l	fa3,t6,rmm
    80001db2:	c238f953          	fcvt.lu.d	s2,fa7
    80001db6:	fdb12a23          	sw	s11,-44(sp)
    80001dba:	6702                	ld	a4,0(sp)

0000000080001dbc <i000000024f>:
    80001dbc:	27610423          	sb	s6,616(sp)

0000000080001dc0 <i0000000250>:
    80001dc0:	03279fb3          	mulh	t6,a5,s2

0000000080001dc4 <i0000000251>:
    80001dc4:	d8cfe0ef          	jal	80000350 <func1>

0000000080001dc8 <i0000000252>:
    80001dc8:	6d211803          	lh	a6,1746(sp)

0000000080001dcc <i0000000253>:
    80001dcc:	009c973b          	sllw	a4,s9,s1

0000000080001dd0 <i0000000254>:
    80001dd0:	8d29                	xor	a0,a0,a0

0000000080001dd2 <i0000000255>:
    80001dd2:	e001262f          	amomaxu.w	a2,zero,(sp)

0000000080001dd6 <i0000000256>:
    80001dd6:	d022cd53          	fcvt.s.l	fs10,t0,rmm

0000000080001dda <i0000000257>:
    80001dda:	f00f04d3          	fmv.w.x	fs1,t5

0000000080001dde <i0000000258>:
    80001dde:	1571                	add	a0,a0,-4

0000000080001de0 <i0000000259>:
    80001de0:	8fdd                	or	a5,a5,a5

0000000080001de2 <i000000025a>:
    80001de2:	e12127af          	amomaxu.w	a5,s2,(sp)
    80001de6:	4a29                	li	s4,10
    80001de8:	0ff0000f          	fence
    80001dec:	038b48bb          	divw	a7,s6,s8
    80001df0:	5f2378b7          	lui	a7,0x5f237
    80001df4:	d422                	sw	s0,40(sp)
    80001df6:	e12131af          	amomaxu.d	gp,s2,(sp)
    80001dfa:	02f7d8bb          	divuw	a7,a5,a5
    80001dfe:	03291733          	mulh	a4,s2,s2

0000000080001e02 <b000000025b>:
    80001e02:	014e8863          	beq	t4,s4,80001e12 <b000000025b+0x10>
    80001e06:	00000a17          	auipc	s4,0x0
    80001e0a:	fcca0a13          	add	s4,s4,-52 # 80001dd2 <i0000000255>
    80001e0e:	000a0067          	jr	s4
    80001e12:	4ea9                	li	t4,10
    80001e14:	0000100f          	fence.i
    80001e18:	386a                	fld	fa6,184(sp)
    80001e1a:	986d                	and	s0,s0,-5
    80001e1c:	c09123af          	amominu.w	t2,s1,(sp)
    80001e20:	205c8d53          	fsgnj.s	fs10,fs9,ft5
    80001e24:	81513aaf          	amomin.d	s5,s5,(sp)
    80001e28:	c0f12623          	sw	a5,-1012(sp)

0000000080001e2c <i000000025b>:
    80001e2c:	0000100f          	fence.i

0000000080001e30 <i000000025c>:
    80001e30:	9ba54913          	xor	s2,a0,-1606

0000000080001e34 <i000000025d>:
    80001e34:	02f577b3          	remu	a5,a0,a5

0000000080001e38 <i000000025e>:
    80001e38:	76c16603          	lwu	a2,1900(sp)

0000000080001e3c <i000000025f>:
    80001e3c:	c23d7bd3          	fcvt.lu.d	s7,fs10

0000000080001e40 <i0000000260>:
    80001e40:	78c16183          	lwu	gp,1932(sp)

0000000080001e44 <i0000000261>:
    80001e44:	d03ba653          	fcvt.s.lu	fa2,s7,rdn

0000000080001e48 <i0000000262>:
    80001e48:	64c11783          	lh	a5,1612(sp)

0000000080001e4c <i0000000263>:
    80001e4c:	7151                	add	sp,sp,-240
    80001e4e:	000de117          	auipc	sp,0xde
    80001e52:	1b210113          	add	sp,sp,434 # 800e0000 <begin_signature>
    80001e56:	631d                	lui	t1,0x7
    80001e58:	5d83031b          	addw	t1,t1,1496 # 75d8 <_tbss_end+0x75d8>
    80001e5c:	911a                	add	sp,sp,t1

0000000080001e5e <i0000000264>:
    80001e5e:	ca22                	sw	s0,20(sp)

0000000080001e60 <i0000000265>:
    80001e60:	8f89                	sub	a5,a5,a0
    80001e62:	4931                	li	s2,12
    80001e64:	0e85                	add	t4,t4,1
    80001e66:	0b9a0437          	lui	s0,0xb9a0
    80001e6a:	f50e                	sd	gp,168(sp)
    80001e6c:	a16137af          	amomax.d	a5,s6,(sp)
    80001e70:	0ff0000f          	fence
    80001e74:	12dc                	add	a5,sp,356
    80001e76:	edba                	sd	a4,216(sp)
    80001e78:	6dc44a93          	xor	s5,s0,1756

0000000080001e7c <b0000000266>:
    80001e7c:	012e8863          	beq	t4,s2,80001e8c <b0000000266+0x10>
    80001e80:	00000917          	auipc	s2,0x0
    80001e84:	fc090913          	add	s2,s2,-64 # 80001e40 <i0000000260>
    80001e88:	000900e7          	jalr	s2
    80001e8c:	4ea9                	li	t4,10
    80001e8e:	03c76c3b          	remw	s8,a4,t3
    80001e92:	7135                	add	sp,sp,-160
    80001e94:	0284bfb3          	mulhu	t6,s1,s0
    80001e98:	e20b0453          	fmv.x.d	s0,fs6
    80001e9c:	1421                	add	s0,s0,-24 # b99ffe8 <_tbss_end+0xb99ffe8>
    80001e9e:	c026ad53          	fcvt.l.s	s10,fa3,rdn
    80001ea2:	b4b2                	fsd	fa2,104(sp)

0000000080001ea4 <i0000000266>:
    80001ea4:	003c                	add	a5,sp,8

0000000080001ea6 <i0000000267>:
    80001ea6:	e0e12c23          	sw	a4,-488(sp)

0000000080001eaa <i0000000268>:
    80001eaa:	d2020bd3          	fcvt.d.w	fs7,tp

0000000080001eae <i0000000269>:
    80001eae:	00d714bb          	sllw	s1,a4,a3

0000000080001eb2 <i000000026a>:
    80001eb2:	c22bf7d3          	fcvt.l.d	a5,fs7
    80001eb6:	000de117          	auipc	sp,0xde
    80001eba:	14a10113          	add	sp,sp,330 # 800e0000 <begin_signature>
    80001ebe:	632d                	lui	t1,0xb
    80001ec0:	1683031b          	addw	t1,t1,360 # b168 <_tbss_end+0xb168>
    80001ec4:	911a                	add	sp,sp,t1

0000000080001ec6 <i000000026b>:
    80001ec6:	4b42                	lw	s6,16(sp)

0000000080001ec8 <i000000026c>:
    80001ec8:	29ad0d53          	fmin.s	fs10,fs10,fs10

0000000080001ecc <i000000026d>:
    80001ecc:	28013f83          	ld	t6,640(sp)

0000000080001ed0 <i000000026e>:
    80001ed0:	4509                	li	a0,2

0000000080001ed2 <i000000026f>:
    80001ed2:	03e86933          	rem	s2,a6,t5

0000000080001ed6 <i0000000270>:
    80001ed6:	28297d13          	and	s10,s2,642
    80001eda:	000de117          	auipc	sp,0xde
    80001ede:	12610113          	add	sp,sp,294 # 800e0000 <begin_signature>
    80001ee2:	6331                	lui	t1,0xc
    80001ee4:	7683031b          	addw	t1,t1,1896 # c768 <_tbss_end+0xc768>
    80001ee8:	911a                	add	sp,sp,t1
    80001eea:	000de117          	auipc	sp,0xde
    80001eee:	11610113          	add	sp,sp,278 # 800e0000 <begin_signature>
    80001ef2:	6331                	lui	t1,0xc
    80001ef4:	6683031b          	addw	t1,t1,1640 # c668 <_tbss_end+0xc668>
    80001ef8:	911a                	add	sp,sp,t1
    80001efa:	1894a753          	fdiv.s	fa4,fs1,fs1,rdn
    80001efe:	9859                	and	s0,s0,-10
    80001f00:	f95a                	sd	s6,176(sp)
    80001f02:	4091392f          	amoor.d	s2,s1,(sp)
    80001f06:	e2088bd3          	fmv.x.d	s7,fa7
    80001f0a:	e8a6                	sd	s1,80(sp)
    80001f0c:	f4ba                	sd	a4,104(sp)

0000000080001f0e <b0000000271>:
    80001f0e:	00000a17          	auipc	s4,0x0
    80001f12:	032a0a13          	add	s4,s4,50 # 80001f40 <i0000000277>
    80001f16:	000a0567          	jalr	a0,s4
    80001f1a:	d23b74d3          	fcvt.d.lu	fs1,s6
    80001f1e:	0097c933          	xor	s2,a5,s1
    80001f22:	0064                	add	s1,sp,12
    80001f24:	5462                	lw	s0,56(sp)
    80001f26:	7105                	add	sp,sp,-480
    80001f28:	a091392f          	amomax.d	s2,s1,(sp)
    80001f2c:	790a                	ld	s2,160(sp)

0000000080001f2e <i0000000271>:
    80001f2e:	a1213caf          	amomax.d	s9,s2,(sp)

0000000080001f32 <i0000000272>:
    80001f32:	8fe9                	and	a5,a5,a0

0000000080001f34 <i0000000273>:
    80001f34:	02ed1993          	sll	s3,s10,0x2e

0000000080001f38 <i0000000274>:
    80001f38:	24a6                	fld	fs1,72(sp)

0000000080001f3a <i0000000275>:
    80001f3a:	f82a                	sd	a0,48(sp)

0000000080001f3c <i0000000276>:
    80001f3c:	a3659cd3          	flt.d	s9,fa1,fs6

0000000080001f40 <i0000000277>:
    80001f40:	d0334cd3          	fcvt.s.lu	fs9,t1,rmm

0000000080001f44 <i0000000278>:
    80001f44:	97de                	add	a5,a5,s7

0000000080001f46 <i0000000279>:
    80001f46:	0796                	sll	a5,a5,0x5

0000000080001f48 <i000000027a>:
    80001f48:	12bc                	add	a5,sp,360

0000000080001f4a <i000000027b>:
    80001f4a:	c2c16283          	lwu	t0,-980(sp)
    80001f4e:	4e31                	li	t3,12
    80001f50:	0e85                	add	t4,t4,1
    80001f52:	000de117          	auipc	sp,0xde
    80001f56:	0ae10113          	add	sp,sp,174 # 800e0000 <begin_signature>
    80001f5a:	6335                	lui	t1,0xd
    80001f5c:	0f03031b          	addw	t1,t1,240 # d0f0 <_tbss_end+0xd0f0>
    80001f60:	911a                	add	sp,sp,t1
    80001f62:	0124a3b3          	slt	t2,s1,s2
    80001f66:	a0b2                	fsd	fa2,64(sp)
    80001f68:	59f2                	lw	s3,60(sp)
    80001f6a:	f00d8bd3          	fmv.w.x	fs7,s11
    80001f6e:	8371                	srl	a4,a4,0x1c
    80001f70:	d2cd74cf          	fnmadd.d	fs1,fs10,fa2,fs10
    80001f74:	02f94833          	div	a6,s2,a5

0000000080001f78 <b000000027c>:
    80001f78:	00000033          	add	zero,zero,zero
    80001f7c:	fdce90e3          	bne	t4,t3,80001f3c <i0000000276>
    80001f80:	00000033          	add	zero,zero,zero
    80001f84:	c091392f          	amominu.d	s2,s1,(sp)
    80001f88:	4121392f          	amoor.d	s2,s2,(sp)
    80001f8c:	61a1342f          	amoand.d	s0,s10,(sp)
    80001f90:	7922                	ld	s2,40(sp)
    80001f92:	715d                	add	sp,sp,-80
    80001f94:	03795d13          	srl	s10,s2,0x37
    80001f98:	4894f8c7          	fmsub.s	fa7,fs1,fs1,fs1
    80001f9c:	4ea9                	li	t4,10

0000000080001f9e <i000000027c>:
    80001f9e:	28cd04d3          	fmin.s	fs1,fs10,fa2

0000000080001fa2 <i000000027d>:
    80001fa2:	008843b3          	xor	t2,a6,s0

0000000080001fa6 <i000000027e>:
    80001fa6:	01c5999b          	sllw	s3,a1,0x1c

0000000080001faa <i000000027f>:
    80001faa:	0329493b          	divw	s2,s2,s2

0000000080001fae <i0000000280>:
    80001fae:	00f7fc33          	and	s8,a5,a5

0000000080001fb2 <i0000000281>:
    80001fb2:	c01d03d3          	fcvt.wu.s	t2,fs10,rne

0000000080001fb6 <i0000000282>:
    80001fb6:	032957bb          	divuw	a5,s2,s2

0000000080001fba <i0000000283>:
    80001fba:	8da9                	xor	a1,a1,a0

0000000080001fbc <i0000000284>:
    80001fbc:	c03335d3          	fcvt.lu.s	a1,ft6,rup

0000000080001fc0 <i0000000285>:
    80001fc0:	d02c09d3          	fcvt.s.l	fs3,s8,rne

0000000080001fc4 <i0000000286>:
    80001fc4:	0327f53b          	remuw	a0,a5,s2
    80001fc8:	4d81                	li	s11,0
    80001fca:	8fb9                	xor	a5,a5,a4
    80001fcc:	0ff0000f          	fence
    80001fd0:	92912823          	sw	s1,-1744(sp)
    80001fd4:	a12129af          	amomax.w	s3,s2,(sp)
    80001fd8:	0184                	add	s1,sp,192
    80001fda:	9c25                	addw	s0,s0,s1
    80001fdc:	0000100f          	fence.i

0000000080001fe0 <b0000000287>:
    80001fe0:	00000033          	add	zero,zero,zero
    80001fe4:	03be8963          	beq	t4,s11,80002016 <i000000028c>
    80001fe8:	00000033          	add	zero,zero,zero
    80001fec:	02978d3b          	mulw	s10,a5,s1
    80001ff0:	acb2                	fsd	fa2,88(sp)
    80001ff2:	86c15403          	lhu	s0,-1940(sp)
    80001ff6:	1b64d917          	auipc	s2,0x1b64d
    80001ffa:	e20e8753          	fmv.x.d	a4,ft9
    80001ffe:	09213e2f          	amoswap.d	t3,s2,(sp)
    80002002:	e422                	sd	s0,8(sp)
    80002004:	4ea9                	li	t4,10

0000000080002006 <i0000000287>:
    80002006:	9c8d                	subw	s1,s1,a1

0000000080002008 <i0000000288>:
    80002008:	d037c4d3          	fcvt.s.lu	fs1,a5,rmm

000000008000200c <i0000000289>:
    8000200c:	21d5ad53          	fsgnjx.s	fs10,fa1,ft9

0000000080002010 <i000000028a>:
    80002010:	c0f1392f          	amominu.d	s2,a5,(sp)

0000000080002014 <i000000028b>:
    80002014:	24a6                	fld	fs1,72(sp)

0000000080002016 <i000000028c>:
    80002016:	025c653b          	remw	a0,s8,t0

000000008000201a <i000000028d>:
    8000201a:	01294533          	xor	a0,s2,s2

000000008000201e <i000000028e>:
    8000201e:	c0252553          	fcvt.l.s	a0,fa0,rdn

0000000080002022 <i000000028f>:
    80002022:	8ed12827          	fsw	fa3,-1808(sp)

0000000080002026 <i0000000290>:
    80002026:	fcd2                	sd	s4,120(sp)

0000000080002028 <i0000000291>:
    80002028:	696e                	ld	s2,216(sp)
    8000202a:	4e29                	li	t3,10
    8000202c:	0000100f          	fence.i
    80002030:	033b4fbb          	divw	t6,s6,s3
    80002034:	02f79233          	mulh	tp,a5,a5
    80002038:	e5a2                	sd	s0,200(sp)
    8000203a:	c826                	sw	s1,16(sp)
    8000203c:	28949653          	fmax.s	fa2,fs1,fs1
    80002040:	0ff0000f          	fence

0000000080002044 <b0000000292>:
    80002044:	01ce8863          	beq	t4,t3,80002054 <b0000000292+0x10>
    80002048:	00000e17          	auipc	t3,0x0
    8000204c:	fd2e0e13          	add	t3,t3,-46 # 8000201a <i000000028d>
    80002050:	000e0067          	jr	t3
    80002054:	4ea9                	li	t4,10
    80002056:	f0015403          	lhu	s0,-256(sp)
    8000205a:	40f1342f          	amoor.d	s0,a5,(sp)
    8000205e:	0ff0000f          	fence
    80002062:	0324e93b          	remw	s2,s1,s2
    80002066:	28960d53          	fmin.s	fs10,fa2,fs1
    8000206a:	0000100f          	fence.i
    8000206e:	fe013b03          	ld	s6,-32(sp)

0000000080002072 <i0000000292>:
    80002072:	35e1                	addw	a1,a1,-8

0000000080002074 <i0000000293>:
    80002074:	c018c553          	fcvt.wu.s	a0,fa7,rmm

0000000080002078 <i0000000294>:
    80002078:	a2072b53          	feq.d	s6,fa4,ft0

000000008000207c <i0000000295>:
    8000207c:	08f131af          	amoswap.d	gp,a5,(sp)

0000000080002080 <i0000000296>:
    80002080:	b032                	fsd	fa2,32(sp)

0000000080002082 <i0000000297>:
    80002082:	02d02933          	mulhsu	s2,zero,a3

0000000080002086 <i0000000298>:
    80002086:	02a50cbb          	mulw	s9,a0,a0

000000008000208a <i0000000299>:
    8000208a:	6105                	add	sp,sp,32

000000008000208c <i000000029a>:
    8000208c:	a697f793          	and	a5,a5,-1431

0000000080002090 <i000000029b>:
    80002090:	9d1d                	subw	a0,a0,a5

0000000080002092 <i000000029c>:
    80002092:	00dfd7b3          	srl	a5,t6,a3
    80002096:	4bb1                	li	s7,12
    80002098:	0e85                	add	t4,t4,1
    8000209a:	d22974d3          	fcvt.d.l	fs1,s2
    8000209e:	0ff0000f          	fence
    800020a2:	b82e                	fsd	fa1,48(sp)
    800020a4:	02990933          	mul	s2,s2,s1
    800020a8:	8ca1                	xor	s1,s1,s0
    800020aa:	e0049a53          	fclass.s	s4,fs1
    800020ae:	2bd11653          	fmax.d	fa2,ft2,ft9

00000000800020b2 <b000000029d>:
    800020b2:	00000033          	add	zero,zero,zero
    800020b6:	fd7e96e3          	bne	t4,s7,80002082 <i0000000297>
    800020ba:	00000033          	add	zero,zero,zero
    800020be:	1b20                	add	s0,sp,440
    800020c0:	a01fa753          	feq.s	a4,ft11,ft1
    800020c4:	c23673d3          	fcvt.lu.d	t2,fa2
    800020c8:	03576733          	rem	a4,a4,s5
    800020cc:	40f12e2f          	amoor.w	t3,a5,(sp)
    800020d0:	0124d43b          	srlw	s0,s1,s2
    800020d4:	2582                	fld	fa1,0(sp)
    800020d6:	4ea9                	li	t4,10

00000000800020d8 <i000000029d>:
    800020d8:	d02a0f53          	fcvt.s.l	ft10,s4,rne

00000000800020dc <i000000029e>:
    800020dc:	40e137af          	amoor.d	a5,a4,(sp)

00000000800020e0 <i000000029f>:
    800020e0:	e0d1252f          	amomaxu.w	a0,a3,(sp)

00000000800020e4 <i00000002a0>:
    800020e4:	e121352f          	amomaxu.d	a0,s2,(sp)

00000000800020e8 <i00000002a1>:
    800020e8:	403137af          	amoor.d	a5,gp,(sp)

00000000800020ec <i00000002a2>:
    800020ec:	02dd1db3          	mulh	s11,s10,a3

00000000800020f0 <i00000002a3>:
    800020f0:	032957bb          	divuw	a5,s2,s2

00000000800020f4 <i00000002a4>:
    800020f4:	e0f1392f          	amomaxu.d	s2,a5,(sp)

00000000800020f8 <i00000002a5>:
    800020f8:	033e47bb          	divw	a5,t3,s3

00000000800020fc <i00000002a6>:
    800020fc:	01fe1f3b          	sllw	t5,t3,t6

0000000080002100 <i00000002a7>:
    80002100:	023e5513          	srl	a0,t3,0x23
    80002104:	4bb1                	li	s7,12
    80002106:	4ea9                	li	t4,10
    80002108:	000de117          	auipc	sp,0xde
    8000210c:	ef810113          	add	sp,sp,-264 # 800e0000 <begin_signature>
    80002110:	6309                	lui	t1,0x2
    80002112:	0403031b          	addw	t1,t1,64 # 2040 <_tbss_end+0x2040>
    80002116:	911a                	add	sp,sp,t1
    80002118:	87813a83          	ld	s5,-1928(sp)
    8000211c:	5972                	lw	s2,60(sp)
    8000211e:	0000100f          	fence.i
    80002122:	d20484d3          	fcvt.d.w	fs1,s1
    80002126:	ca913423          	sd	s1,-856(sp)
    8000212a:	e2099953          	fclass.d	s2,fs3
    8000212e:	00f907bb          	addw	a5,s2,a5

0000000080002132 <b00000002a8>:
    80002132:	00000033          	add	zero,zero,zero
    80002136:	037ec763          	blt	t4,s7,80002164 <i00000002ae>
    8000213a:	00000033          	add	zero,zero,zero
    8000213e:	9cbd                	addw	s1,s1,a5
    80002140:	594d                	li	s2,-13
    80002142:	6094bcc3          	fmadd.s	fs9,fs1,fs1,fa2,rup
    80002146:	2662                	fld	fa2,24(sp)
    80002148:	0062119b          	sllw	gp,tp,0x6
    8000214c:	c0be                	sw	a5,64(sp)
    8000214e:	c166                	sw	s9,128(sp)
    80002150:	4ea9                	li	t4,10

0000000080002152 <i00000002a8>:
    80002152:	02f7c1bb          	divw	gp,a5,a5

0000000080002156 <i00000002a9>:
    80002156:	d03d2c53          	fcvt.s.lu	fs8,s10,rdn

000000008000215a <i00000002aa>:
    8000215a:	42d2                	lw	t0,20(sp)

000000008000215c <i00000002ab>:
    8000215c:	610d                	add	sp,sp,160

000000008000215e <i00000002ac>:
    8000215e:	0ff0000f          	fence

0000000080002162 <i00000002ad>:
    80002162:	7726                	ld	a4,104(sp)

0000000080002164 <i00000002ae>:
    80002164:	02a507bb          	mulw	a5,a0,a0

0000000080002168 <i00000002af>:
    80002168:	e5a13027          	fsd	fs10,-448(sp)

000000008000216c <i00000002b0>:
    8000216c:	0000100f          	fence.i

0000000080002170 <i00000002b1>:
    80002170:	a0c12aaf          	amomax.w	s5,a2,(sp)

0000000080002174 <i00000002b2>:
    80002174:	0ae4                	add	s1,sp,348
    80002176:	000de117          	auipc	sp,0xde
    8000217a:	e8a10113          	add	sp,sp,-374 # 800e0000 <begin_signature>
    8000217e:	6311                	lui	t1,0x4
    80002180:	d303031b          	addw	t1,t1,-720 # 3d30 <_tbss_end+0x3d30>
    80002184:	911a                	add	sp,sp,t1
    80002186:	000de117          	auipc	sp,0xde
    8000218a:	e7a10113          	add	sp,sp,-390 # 800e0000 <begin_signature>
    8000218e:	6311                	lui	t1,0x4
    80002190:	cf03031b          	addw	t1,t1,-784 # 3cf0 <_tbss_end+0x3cf0>
    80002194:	911a                	add	sp,sp,t1
    80002196:	a0ea                	fsd	fs10,64(sp)
    80002198:	56815803          	lhu	a6,1384(sp)
    8000219c:	c02298d3          	fcvt.l.s	a7,ft5,rtz
    800021a0:	61b137af          	amoand.d	a5,s11,(sp)
    800021a4:	71532347          	fmsub.s	ft6,ft6,fs5,fa4,rdn
    800021a8:	1ad8                	add	a4,sp,372
    800021aa:	612d                	add	sp,sp,224

00000000800021ac <b00000002b3>:
    800021ac:	00000997          	auipc	s3,0x0
    800021b0:	03698993          	add	s3,s3,54 # 800021e2 <i00000002b8>
    800021b4:	000980e7          	jalr	s3
    800021b8:	bf812c83          	lw	s9,-1032(sp)
    800021bc:	ce66                	sw	s9,28(sp)
    800021be:	029977b3          	remu	a5,s2,s1
    800021c2:	88911123          	sh	s1,-1918(sp)
    800021c6:	c21cf3d3          	fcvt.wu.d	t2,fs9
    800021ca:	f0816183          	lwu	gp,-248(sp)
    800021ce:	91013003          	ld	zero,-1776(sp)

00000000800021d2 <i00000002b3>:
    800021d2:	41b85f13          	sra	t5,a6,0x1b

00000000800021d6 <i00000002b4>:
    800021d6:	a151392f          	amomax.d	s2,s5,(sp)

00000000800021da <i00000002b5>:
    800021da:	f4aa                	sd	a0,104(sp)

00000000800021dc <i00000002b6>:
    800021dc:	378d                	addw	a5,a5,-29

00000000800021de <i00000002b7>:
    800021de:	c232f853          	fcvt.lu.d	a6,ft5

00000000800021e2 <i00000002b8>:
    800021e2:	02087533          	remu	a0,a6,zero

00000000800021e6 <i00000002b9>:
    800021e6:	00749913          	sll	s2,s1,0x7

00000000800021ea <i00000002ba>:
    800021ea:	41095013          	sra	zero,s2,0x10

00000000800021ee <i00000002bb>:
    800021ee:	651d                	lui	a0,0x7

00000000800021f0 <i00000002bc>:
    800021f0:	0020d073          	fsrmi	zero,1

00000000800021f4 <i00000002bd>:
    800021f4:	23c804d3          	fsgnj.d	fs1,fa6,ft8

00000000800021f8 <i00000002be>:
    800021f8:	c03b9553          	fcvt.lu.s	a0,fs7,rtz
    800021fc:	4a29                	li	s4,10
    800021fe:	4ea9                	li	t4,10
    80002200:	401978d3          	fcvt.s.d	fa7,fs2
    80002204:	c23c7453          	fcvt.lu.d	s0,fs8
    80002208:	981d                	and	s0,s0,-25
    8000220a:	a121292f          	amomax.w	s2,s2,(sp)
    8000220e:	c034a953          	fcvt.lu.s	s2,fs1,rdn
    80002212:	a2ae83d3          	fle.d	t2,ft9,fa0
    80002216:	9f99                	subw	a5,a5,a4

0000000080002218 <b00000002bf>:
    80002218:	00000033          	add	zero,zero,zero
    8000221c:	034e9763          	bne	t4,s4,8000224a <i00000002c4>
    80002220:	00000033          	add	zero,zero,zero
    80002224:	3b06                	fld	fs6,96(sp)
    80002226:	57f11a23          	sh	t6,1396(sp)
    8000222a:	fcbe                	sd	a5,120(sp)
    8000222c:	6d55                	lui	s10,0x15
    8000222e:	b8913423          	sd	s1,-1144(sp)
    80002232:	2486                	fld	fs1,64(sp)
    80002234:	77e6                	ld	a5,120(sp)
    80002236:	4ea9                	li	t4,10

0000000080002238 <i00000002bf>:
    80002238:	c06137af          	amominu.d	a5,t1,(sp)

000000008000223c <i00000002c0>:
    8000223c:	e0038253          	fmv.x.w	tp,ft7

0000000080002240 <i00000002c1>:
    80002240:	0466                	sll	s0,s0,0x19

0000000080002242 <i00000002c2>:
    80002242:	02a78cbb          	mulw	s9,a5,a0

0000000080002246 <i00000002c3>:
    80002246:	c2267553          	fcvt.l.d	a0,fa2

000000008000224a <i00000002c4>:
    8000224a:	e00d0fd3          	fmv.x.w	t6,fs10

000000008000224e <i00000002c5>:
    8000224e:	41012e2f          	amoor.w	t3,a6,(sp)

0000000080002252 <i00000002c6>:
    80002252:	f03e                	sd	a5,32(sp)

0000000080002254 <i00000002c7>:
    80002254:	8fcfe0ef          	jal	80000350 <func1>

0000000080002258 <i00000002c8>:
    80002258:	7346                	ld	t1,112(sp)

000000008000225a <i00000002c9>:
    8000225a:	b1b2                	fsd	fa2,224(sp)

000000008000225c <i00000002ca>:
    8000225c:	9ca1                	addw	s1,s1,s0
    8000225e:	4d29                	li	s10,10
    80002260:	000de117          	auipc	sp,0xde
    80002264:	da010113          	add	sp,sp,-608 # 800e0000 <begin_signature>
    80002268:	633d                	lui	t1,0xf
    8000226a:	8c03031b          	addw	t1,t1,-1856 # e8c0 <_tbss_end+0xe8c0>
    8000226e:	911a                	add	sp,sp,t1
    80002270:	000de117          	auipc	sp,0xde
    80002274:	d9010113          	add	sp,sp,-624 # 800e0000 <begin_signature>
    80002278:	6309                	lui	t1,0x2
    8000227a:	bb83031b          	addw	t1,t1,-1096 # 1bb8 <_tbss_end+0x1bb8>
    8000227e:	911a                	add	sp,sp,t1
    80002280:	e0048ad3          	fmv.x.w	s5,fs1
    80002284:	54c2                	lw	s1,48(sp)
    80002286:	f0ba                	sd	a4,96(sp)
    80002288:	81c127af          	amomin.w	a5,t3,(sp)
    8000228c:	8c3d                	xor	s0,s0,a5
    8000228e:	2b0380d3          	fmin.d	ft1,ft7,fa6
    80002292:	00e847b3          	xor	a5,a6,a4

0000000080002296 <b00000002cb>:
    80002296:	01ae8863          	beq	t4,s10,800022a6 <b00000002cb+0x10>
    8000229a:	00000d17          	auipc	s10,0x0
    8000229e:	fb4d0d13          	add	s10,s10,-76 # 8000224e <i00000002c5>
    800022a2:	000d00e7          	jalr	s10
    800022a6:	4ea9                	li	t4,10
    800022a8:	810a                	mv	sp,sp
    800022aa:	d0349c53          	fcvt.s.lu	fs8,s1,rtz
    800022ae:	84ca                	mv	s1,s2
    800022b0:	04e10003          	lb	zero,78(sp)
    800022b4:	2091292f          	amoxor.w	s2,s1,(sp)
    800022b8:	711db797          	auipc	a5,0x711db
    800022bc:	4e816903          	lwu	s2,1256(sp)

00000000800022c0 <i00000002cb>:
    800022c0:	56c2                	lw	a3,48(sp)

00000000800022c2 <i00000002cc>:
    800022c2:	00a1342f          	amoadd.d	s0,a0,(sp)

00000000800022c6 <i00000002cd>:
    800022c6:	6362                	ld	t1,24(sp)

00000000800022c8 <i00000002ce>:
    800022c8:	2606                	fld	fa2,64(sp)

00000000800022ca <i00000002cf>:
    800022ca:	c16127af          	amominu.w	a5,s6,(sp)

00000000800022ce <i00000002d0>:
    800022ce:	ccc6                	sw	a7,88(sp)

00000000800022d0 <i00000002d1>:
    800022d0:	0ff0000f          	fence

00000000800022d4 <i00000002d2>:
    800022d4:	d0338053          	fcvt.s.lu	ft0,t2,rne

00000000800022d8 <i00000002d3>:
    800022d8:	00205073          	fsrmi	zero,0

00000000800022dc <i00000002d4>:
    800022dc:	18c62fd3          	fdiv.s	ft11,fa2,fa2,rdn

00000000800022e0 <i00000002d5>:
    800022e0:	40f1292f          	amoor.w	s2,a5,(sp)

00000000800022e4 <i00000002d6>:
    800022e4:	e2048453          	fmv.x.d	s0,fs1
    800022e8:	000de117          	auipc	sp,0xde
    800022ec:	d1810113          	add	sp,sp,-744 # 800e0000 <begin_signature>
    800022f0:	633d                	lui	t1,0xf
    800022f2:	4183031b          	addw	t1,t1,1048 # f418 <_tbss_end+0xf418>
    800022f6:	911a                	add	sp,sp,t1
    800022f8:	000de117          	auipc	sp,0xde
    800022fc:	d0810113          	add	sp,sp,-760 # 800e0000 <begin_signature>
    80002300:	631d                	lui	t1,0x7
    80002302:	b883031b          	addw	t1,t1,-1144 # 6b88 <_tbss_end+0x6b88>
    80002306:	911a                	add	sp,sp,t1
    80002308:	400d5b3b          	sraw	s6,s10,zero
    8000230c:	268a                	fld	fa3,128(sp)
    8000230e:	a416                	fsd	ft5,8(sp)
    80002310:	4432                	lw	s0,12(sp)
    80002312:	029487bb          	mulw	a5,s1,s1
    80002316:	a42a                	fsd	fa0,8(sp)
    80002318:	e0f1382f          	amomaxu.d	a6,a5,(sp)

000000008000231c <b00000002d7>:
    8000231c:	00000d97          	auipc	s11,0x0
    80002320:	03ad8d93          	add	s11,s11,58 # 80002356 <i00000002dc>
    80002324:	000d8567          	jalr	a0,s11
    80002328:	0ff0000f          	fence
    8000232c:	4127dd3b          	sraw	s10,a5,s2
    80002330:	f0078453          	fmv.w.x	fs0,a5
    80002334:	dc3a                	sw	a4,56(sp)
    80002336:	23ad1653          	fneg.d	fa2,fs10
    8000233a:	d037b4d3          	fcvt.s.lu	fs1,a5,rup
    8000233e:	029907bb          	mulw	a5,s2,s1

0000000080002342 <i00000002d7>:
    80002342:	f0016903          	lwu	s2,-256(sp)

0000000080002346 <i00000002d8>:
    80002346:	20d1352f          	amoxor.d	a0,a3,(sp)

000000008000234a <i00000002d9>:
    8000234a:	00869793          	sll	a5,a3,0x8

000000008000234e <i00000002da>:
    8000234e:	0ff0000f          	fence

0000000080002352 <i00000002db>:
    80002352:	4072579b          	sraw	a5,tp,0x7

0000000080002356 <i00000002dc>:
    80002356:	7e280a37          	lui	s4,0x7e280

000000008000235a <i00000002dd>:
    8000235a:	c222f7d3          	fcvt.l.d	a5,ft5

000000008000235e <i00000002de>:
    8000235e:	012507b3          	add	a5,a0,s2

0000000080002362 <i00000002df>:
    80002362:	0000100f          	fence.i

0000000080002366 <i00000002e0>:
    80002366:	5f16                	lw	t5,100(sp)

0000000080002368 <i00000002e1>:
    80002368:	0363f53b          	remuw	a0,t2,s6

000000008000236c <i00000002e2>:
    8000236c:	fe5fd0ef          	jal	80000350 <func1>
    80002370:	4bad                	li	s7,11
    80002372:	4ea9                	li	t4,10
    80002374:	d234f653          	fcvt.d.lu	fa2,s1
    80002378:	0000100f          	fence.i
    8000237c:	fc6e                	sd	s11,56(sp)
    8000237e:	01279c13          	sll	s8,a5,0x12
    80002382:	e426                	sd	s1,8(sp)
    80002384:	0000100f          	fence.i
    80002388:	c4c12003          	lw	zero,-948(sp)

000000008000238c <b00000002e3>:
    8000238c:	00000033          	add	zero,zero,zero
    80002390:	057e9463          	bne	t4,s7,800023d8 <i00000002e9>
    80002394:	00000033          	add	zero,zero,zero
    80002398:	a1813783          	ld	a5,-1512(sp)
    8000239c:	0127d7bb          	srlw	a5,a5,s2
    800023a0:	b3816b03          	lwu	s6,-1224(sp)
    800023a4:	02f7b933          	mulhu	s2,a5,a5
    800023a8:	4462                	lw	s0,24(sp)
    800023aa:	28c498d3          	fmax.s	fa7,fs1,fa2
    800023ae:	60f12daf          	amoand.w	s11,a5,(sp)
    800023b2:	4ea9                	li	t4,10

00000000800023b4 <i00000002e3>:
    800023b4:	8559                	sra	a0,a0,0x16

00000000800023b6 <i00000002e4>:
    800023b6:	4f813903          	ld	s2,1272(sp)

00000000800023ba <i00000002e5>:
    800023ba:	c436                	sw	a3,8(sp)

00000000800023bc <i00000002e6>:
    800023bc:	0ff0000f          	fence

00000000800023c0 <i00000002e7>:
    800023c0:	c234fdd3          	fcvt.lu.d	s11,fs1

00000000800023c4 <i00000002e8>:
    800023c4:	dc47e513          	or	a0,a5,-572
    800023c8:	000de117          	auipc	sp,0xde
    800023cc:	c3810113          	add	sp,sp,-968 # 800e0000 <begin_signature>
    800023d0:	6309                	lui	t1,0x2
    800023d2:	5c83031b          	addw	t1,t1,1480 # 25c8 <_tbss_end+0x25c8>
    800023d6:	911a                	add	sp,sp,t1

00000000800023d8 <i00000002e9>:
    800023d8:	3626                	fld	fa2,104(sp)

00000000800023da <i00000002ea>:
    800023da:	f8aa                	sd	a0,112(sp)

00000000800023dc <i00000002eb>:
    800023dc:	228b86d3          	fsgnj.d	fa3,fs7,fs0

00000000800023e0 <i00000002ec>:
    800023e0:	fe1e                	sd	t2,312(sp)

00000000800023e2 <i00000002ed>:
    800023e2:	ecfe                	sd	t6,88(sp)
    800023e4:	482d                	li	a6,11
    800023e6:	4ea9                	li	t4,10
    800023e8:	000de117          	auipc	sp,0xde
    800023ec:	c1810113          	add	sp,sp,-1000 # 800e0000 <begin_signature>
    800023f0:	631d                	lui	t1,0x7
    800023f2:	2883031b          	addw	t1,t1,648 # 7288 <_tbss_end+0x7288>
    800023f6:	911a                	add	sp,sp,t1
    800023f8:	017aa933          	slt	s2,s5,s7
    800023fc:	0324b7b3          	mulhu	a5,s1,s2
    80002400:	d03924d3          	fcvt.s.lu	fs1,s2,rdn
    80002404:	22cd12d3          	fsgnjn.d	ft5,fs10,fa2
    80002408:	0294d4bb          	divuw	s1,s1,s1
    8000240c:	6294f64b          	fnmsub.d	fa2,fs1,fs1,fa2
    80002410:	4127dfbb          	sraw	t6,a5,s2

0000000080002414 <b00000002ee>:
    80002414:	00000033          	add	zero,zero,zero
    80002418:	050e9463          	bne	t4,a6,80002460 <i00000002f4>
    8000241c:	00000033          	add	zero,zero,zero
    80002420:	35813403          	ld	s0,856(sp)
    80002424:	ca2d2493          	slti	s1,s10,-862
    80002428:	27a2                	fld	fa5,8(sp)
    8000242a:	0327e933          	rem	s2,a5,s2
    8000242e:	00995433          	srl	s0,s2,s1
    80002432:	032907b3          	mul	a5,s2,s2
    80002436:	0ff0000f          	fence
    8000243a:	4ea9                	li	t4,10

000000008000243c <i00000002ee>:
    8000243c:	714d                	add	sp,sp,-336

000000008000243e <i00000002ef>:
    8000243e:	0121352f          	amoadd.d	a0,s2,(sp)
    80002442:	000de117          	auipc	sp,0xde
    80002446:	bbe10113          	add	sp,sp,-1090 # 800e0000 <begin_signature>
    8000244a:	632d                	lui	t1,0xb
    8000244c:	1183031b          	addw	t1,t1,280 # b118 <_tbss_end+0xb118>
    80002450:	911a                	add	sp,sp,t1

0000000080002452 <i00000002f0>:
    80002452:	fcbe                	sd	a5,120(sp)

0000000080002454 <i00000002f1>:
    80002454:	00495813          	srl	a6,s2,0x4

0000000080002458 <i00000002f2>:
    80002458:	a3b28fd3          	fle.d	t6,ft5,fs11

000000008000245c <i00000002f3>:
    8000245c:	d02b4653          	fcvt.s.l	fa2,s6,rmm

0000000080002460 <i00000002f4>:
    80002460:	97213423          	sd	s2,-1688(sp)

0000000080002464 <i00000002f5>:
    80002464:	fdea                	sd	s10,248(sp)

0000000080002466 <i00000002f6>:
    80002466:	08013a2f          	amoswap.d	s4,zero,(sp)

000000008000246a <i00000002f7>:
    8000246a:	d3ad78cf          	fnmadd.d	fa7,fs10,fs10,fs10

000000008000246e <i00000002f8>:
    8000246e:	0000100f          	fence.i
    80002472:	49a9                	li	s3,10
    80002474:	4ea9                	li	t4,10
    80002476:	000de117          	auipc	sp,0xde
    8000247a:	b8a10113          	add	sp,sp,-1142 # 800e0000 <begin_signature>
    8000247e:	6311                	lui	t1,0x4
    80002480:	9783031b          	addw	t1,t1,-1672 # 3978 <_tbss_end+0x3978>
    80002484:	911a                	add	sp,sp,t1
    80002486:	c23d7953          	fcvt.lu.d	s2,fs10
    8000248a:	670a                	ld	a4,128(sp)
    8000248c:	18dc                	add	a5,sp,116
    8000248e:	09b1242f          	amoswap.w	s0,s11,(sp)
    80002492:	a826                	fsd	fs1,16(sp)
    80002494:	00bdd79b          	srlw	a5,s11,0xb
    80002498:	4097d93b          	sraw	s2,a5,s1

000000008000249c <b00000002f9>:
    8000249c:	00000033          	add	zero,zero,zero
    800024a0:	033e9e63          	bne	t4,s3,800024dc <i00000002ff>
    800024a4:	00000033          	add	zero,zero,zero
    800024a8:	00f4acb3          	slt	s9,s1,a5
    800024ac:	0000100f          	fence.i
    800024b0:	0ff0000f          	fence
    800024b4:	03691c13          	sll	s8,s2,0x36
    800024b8:	c030c953          	fcvt.lu.s	s2,ft1,rmm
    800024bc:	089127af          	amoswap.w	a5,s1,(sp)
    800024c0:	02f7d93b          	divuw	s2,a5,a5
    800024c4:	4ea9                	li	t4,10

00000000800024c6 <i00000002f9>:
    800024c6:	d23ff653          	fcvt.d.lu	fa2,t6

00000000800024ca <i00000002fa>:
    800024ca:	0325773b          	remuw	a4,a0,s2

00000000800024ce <i00000002fb>:
    800024ce:	07ad                	add	a5,a5,11 # f11dd2c3 <_end+0x710ea9c2>

00000000800024d0 <i00000002fc>:
    800024d0:	40a1352f          	amoor.d	a0,a0,(sp)

00000000800024d4 <i00000002fd>:
    800024d4:	1a0e74c3          	fmadd.d	fs1,ft8,ft0,ft3

00000000800024d8 <i00000002fe>:
    800024d8:	01eb5cbb          	srlw	s9,s6,t5

00000000800024dc <i00000002ff>:
    800024dc:	0020d073          	fsrmi	zero,1

00000000800024e0 <i0000000300>:
    800024e0:	d2150453          	fcvt.d.wu	fs0,a0

00000000800024e4 <i0000000301>:
    800024e4:	6169                	add	sp,sp,208

00000000800024e6 <i0000000302>:
    800024e6:	0000100f          	fence.i

00000000800024ea <i0000000303>:
    800024ea:	ecba                	sd	a4,88(sp)
    800024ec:	000de117          	auipc	sp,0xde
    800024f0:	b1410113          	add	sp,sp,-1260 # 800e0000 <begin_signature>
    800024f4:	6311                	lui	t1,0x4
    800024f6:	f083031b          	addw	t1,t1,-248 # 3f08 <_tbss_end+0x3f08>
    800024fa:	911a                	add	sp,sp,t1

00000000800024fc <i0000000304>:
    800024fc:	e09e                	sd	t2,64(sp)
    800024fe:	49b1                	li	s3,12
    80002500:	0e85                	add	t4,t4,1
    80002502:	6cea                	ld	s9,152(sp)
    80002504:	a432                	fsd	fa2,8(sp)
    80002506:	0000100f          	fence.i
    8000250a:	02039d33          	mulh	s10,t2,zero
    8000250e:	0141                	add	sp,sp,16
    80002510:	0124843b          	addw	s0,s1,s2
    80002514:	0ff0000f          	fence

0000000080002518 <b0000000305>:
    80002518:	00000033          	add	zero,zero,zero
    8000251c:	fd3ec2e3          	blt	t4,s3,800024e0 <i0000000300>
    80002520:	00000033          	add	zero,zero,zero
    80002524:	5cf6                	lw	s9,124(sp)
    80002526:	40c7dc1b          	sraw	s8,a5,0xc
    8000252a:	d23ffc53          	fcvt.d.lu	fs8,t6
    8000252e:	d7e7c793          	xor	a5,a5,-642
    80002532:	612d                	add	sp,sp,224
    80002534:	9fa1                	addw	a5,a5,s0
    80002536:	0ff0000f          	fence
    8000253a:	4ea9                	li	t4,10

000000008000253c <i0000000305>:
    8000253c:	7145                	add	sp,sp,-464

000000008000253e <i0000000306>:
    8000253e:	0ff0000f          	fence

0000000080002542 <i0000000307>:
    80002542:	e0ffd0ef          	jal	80000350 <func1>

0000000080002546 <i0000000308>:
    80002546:	8d5d                	or	a0,a0,a5

0000000080002548 <i0000000309>:
    80002548:	a1c6a9d3          	feq.s	s3,fa3,ft8

000000008000254c <i000000030a>:
    8000254c:	9cb6                	add	s9,s9,a3

000000008000254e <i000000030b>:
    8000254e:	0000100f          	fence.i

0000000080002552 <i000000030c>:
    80002552:	c2d6                	sw	s5,68(sp)

0000000080002554 <i000000030d>:
    80002554:	008f55bb          	srlw	a1,t5,s0

0000000080002558 <i000000030e>:
    80002558:	01cb7433          	and	s0,s6,t3

000000008000255c <i000000030f>:
    8000255c:	00e4193b          	sllw	s2,s0,a4

0000000080002560 <i0000000310>:
    80002560:	06b2                	sll	a3,a3,0xc
    80002562:	4831                	li	a6,12
    80002564:	0e85                	add	t4,t4,1
    80002566:	376d                	addw	a4,a4,-5
    80002568:	9f3d                	addw	a4,a4,a5
    8000256a:	8f01                	sub	a4,a4,s0
    8000256c:	7135                	add	sp,sp,-160
    8000256e:	036f8e33          	mul	t3,t6,s6
    80002572:	3405                	addw	s0,s0,-31
    80002574:	d03bb453          	fcvt.s.lu	fs0,s7,rup

0000000080002578 <b0000000311>:
    80002578:	00000033          	add	zero,zero,zero
    8000257c:	fd0ecbe3          	blt	t4,a6,80002552 <i000000030c>
    80002580:	00000033          	add	zero,zero,zero
    80002584:	035be8b3          	rem	a7,s7,s5
    80002588:	9839                	and	s0,s0,-18
    8000258a:	d03939d3          	fcvt.s.lu	fs3,s2,rup
    8000258e:	b02e                	fsd	fa1,32(sp)
    80002590:	c8de                	sw	s7,80(sp)
    80002592:	c03d17d3          	fcvt.lu.s	a5,fs10,rtz
    80002596:	0ae0                	add	s0,sp,348
    80002598:	4ea9                	li	t4,10

000000008000259a <i0000000311>:
    8000259a:	c44a                	sw	s2,8(sp)

000000008000259c <i0000000312>:
    8000259c:	9f9d                	subw	a5,a5,a5

000000008000259e <i0000000313>:
    8000259e:	252d                	addw	a0,a0,11 # 700b <_tbss_end+0x700b>

00000000800025a0 <i0000000314>:
    800025a0:	845d                	sra	s0,s0,0x17

00000000800025a2 <i0000000315>:
    800025a2:	a2d3a553          	feq.d	a0,ft7,fa3

00000000800025a6 <i0000000316>:
    800025a6:	0ff0000f          	fence

00000000800025aa <i0000000317>:
    800025aa:	8f09                	sub	a4,a4,a0

00000000800025ac <i0000000318>:
    800025ac:	00f56033          	or	zero,a0,a5

00000000800025b0 <i0000000319>:
    800025b0:	217d84d3          	fsgnj.s	fs1,fs11,fs7

00000000800025b4 <i000000031a>:
    800025b4:	0000100f          	fence.i

00000000800025b8 <i000000031b>:
    800025b8:	d00cf2d3          	fcvt.s.w	ft5,s9
    800025bc:	4fb1                	li	t6,12
    800025be:	0e85                	add	t4,t4,1
    800025c0:	032968b3          	rem	a7,s2,s2
    800025c4:	c214f753          	fcvt.wu.d	a4,fs1
    800025c8:	a1210823          	sb	s2,-1520(sp)
    800025cc:	a2cd01d3          	fle.d	gp,fs10,fa2
    800025d0:	02f90b33          	mul	s6,s2,a5
    800025d4:	089131af          	amoswap.d	gp,s1,(sp)
    800025d8:	489d0d4f          	fnmadd.s	fs10,fs10,fs1,fs1,rne

00000000800025dc <b000000031c>:
    800025dc:	01fe8863          	beq	t4,t6,800025ec <b000000031c+0x10>
    800025e0:	00000f97          	auipc	t6,0x0
    800025e4:	fc6f8f93          	add	t6,t6,-58 # 800025a6 <i0000000316>
    800025e8:	000f8567          	jalr	a0,t6
    800025ec:	4ea9                	li	t4,10
    800025ee:	603128af          	amoand.w	a7,gp,(sp)
    800025f2:	e4a6                	sd	s1,72(sp)
    800025f4:	c2187453          	fcvt.wu.d	s0,fa6
    800025f8:	f20c0553          	fmv.d.x	fa0,s8
    800025fc:	0000100f          	fence.i
    80002600:	6111                	add	sp,sp,256
    80002602:	9926                	add	s2,s2,s1

0000000080002604 <i000000031c>:
    80002604:	00b1c6b3          	xor	a3,gp,a1

0000000080002608 <i000000031d>:
    80002608:	41212d2f          	amoor.w	s10,s2,(sp)

000000008000260c <i000000031e>:
    8000260c:	012557bb          	srlw	a5,a0,s2

0000000080002610 <i000000031f>:
    80002610:	0ff0000f          	fence

0000000080002614 <i0000000320>:
    80002614:	87fa                	mv	a5,t5

0000000080002616 <i0000000321>:
    80002616:	0020d073          	fsrmi	zero,1

000000008000261a <i0000000322>:
    8000261a:	4014f353          	fcvt.s.d	ft6,fs1

000000008000261e <i0000000323>:
    8000261e:	2702                	fld	fa4,0(sp)

0000000080002620 <i0000000324>:
    80002620:	e00d0553          	fmv.x.w	a0,fs10

0000000080002624 <i0000000325>:
    80002624:	0ff0000f          	fence

0000000080002628 <i0000000326>:
    80002628:	e2f7f2cf          	fnmadd.d	ft5,fa5,fa5,ft8

000000008000262c <i0000000327>:
    8000262c:	37cd                	addw	a5,a5,-13
    8000262e:	4825                	li	a6,9
    80002630:	4ea9                	li	t4,10
    80002632:	000de117          	auipc	sp,0xde
    80002636:	9ce10113          	add	sp,sp,-1586 # 800e0000 <begin_signature>
    8000263a:	6331                	lui	t1,0xc
    8000263c:	ec03031b          	addw	t1,t1,-320 # bec0 <_tbss_end+0xbec0>
    80002640:	911a                	add	sp,sp,t1
    80002642:	6a86                	ld	s5,64(sp)
    80002644:	3666                	fld	fa2,120(sp)
    80002646:	009121af          	amoadd.w	gp,s1,(sp)
    8000264a:	03395893          	srl	a7,s2,0x33
    8000264e:	1449                	add	s0,s0,-14
    80002650:	b4ba                	fsd	fa4,104(sp)
    80002652:	e20e83d3          	fmv.x.d	t2,ft9

0000000080002656 <b0000000328>:
    80002656:	00000033          	add	zero,zero,zero
    8000265a:	030eca63          	blt	t4,a6,8000268e <i000000032d>
    8000265e:	00000033          	add	zero,zero,zero
    80002662:	a7813903          	ld	s2,-1416(sp)
    80002666:	02f92fb3          	mulhsu	t6,s2,a5
    8000266a:	7101                	add	sp,sp,-512
    8000266c:	020057bb          	divuw	a5,zero,zero
    80002670:	01726433          	or	s0,tp,s7
    80002674:	0f8afb13          	and	s6,s5,248
    80002678:	02f47733          	remu	a4,s0,a5
    8000267c:	4ea9                	li	t4,10

000000008000267e <i0000000328>:
    8000267e:	10f2f853          	fmul.s	fa6,ft5,fa5

0000000080002682 <i0000000329>:
    80002682:	f43a3393          	sltiu	t2,s4,-189

0000000080002686 <i000000032a>:
    80002686:	83b9                	srl	a5,a5,0xe

0000000080002688 <i000000032b>:
    80002688:	da2a                	sw	a0,52(sp)

000000008000268a <i000000032c>:
    8000268a:	d1a484cf          	fnmadd.s	fs1,fs1,fs10,fs10,rne

000000008000268e <i000000032d>:
    8000268e:	413007b3          	neg	a5,s3

0000000080002692 <i000000032e>:
    80002692:	0000100f          	fence.i
    80002696:	000de117          	auipc	sp,0xde
    8000269a:	96a10113          	add	sp,sp,-1686 # 800e0000 <begin_signature>
    8000269e:	6335                	lui	t1,0xd
    800026a0:	8e03031b          	addw	t1,t1,-1824 # c8e0 <_tbss_end+0xc8e0>
    800026a4:	911a                	add	sp,sp,t1

00000000800026a6 <i000000032f>:
    800026a6:	d43e                	sw	a5,40(sp)

00000000800026a8 <i0000000330>:
    800026a8:	0008d513          	srl	a0,a7,0x0

00000000800026ac <i0000000331>:
    800026ac:	00e37233          	and	tp,t1,a4

00000000800026b0 <i0000000332>:
    800026b0:	c0a12f2f          	amominu.w	t5,a0,(sp)
    800026b4:	4fb1                	li	t6,12
    800026b6:	0e85                	add	t4,t4,1
    800026b8:	000de117          	auipc	sp,0xde
    800026bc:	94810113          	add	sp,sp,-1720 # 800e0000 <begin_signature>
    800026c0:	6329                	lui	t1,0xa
    800026c2:	e383031b          	addw	t1,t1,-456 # 9e38 <_tbss_end+0x9e38>
    800026c6:	911a                	add	sp,sp,t1
    800026c8:	000de117          	auipc	sp,0xde
    800026cc:	93810113          	add	sp,sp,-1736 # 800e0000 <begin_signature>
    800026d0:	6321                	lui	t1,0x8
    800026d2:	0e83031b          	addw	t1,t1,232 # 80e8 <_tbss_end+0x80e8>
    800026d6:	911a                	add	sp,sp,t1
    800026d8:	24e6                	fld	fs1,88(sp)
    800026da:	0000100f          	fence.i
    800026de:	580d06d3          	fsqrt.s	fa3,fs10,rne
    800026e2:	c091392f          	amominu.d	s2,s1,(sp)
    800026e6:	bdea                	fsd	fs10,248(sp)
    800026e8:	27113423          	sd	a7,616(sp)
    800026ec:	043e                	sll	s0,s0,0xf

00000000800026ee <b0000000333>:
    800026ee:	00000033          	add	zero,zero,zero
    800026f2:	f9fe9ee3          	bne	t4,t6,8000268e <i000000032d>
    800026f6:	00000033          	add	zero,zero,zero
    800026fa:	0000100f          	fence.i
    800026fe:	b42a                	fsd	fa0,40(sp)
    80002700:	bca6                	fsd	fs1,120(sp)
    80002702:	c0149c53          	fcvt.wu.s	s8,fs1,rtz
    80002706:	03b1e8bb          	remw	a7,gp,s11
    8000270a:	c224f453          	fcvt.l.d	s0,fs1
    8000270e:	8fbd                	xor	a5,a5,a5
    80002710:	4ea9                	li	t4,10
    80002712:	000de117          	auipc	sp,0xde
    80002716:	8ee10113          	add	sp,sp,-1810 # 800e0000 <begin_signature>
    8000271a:	6309                	lui	t1,0x2
    8000271c:	4403031b          	addw	t1,t1,1088 # 2440 <_tbss_end+0x2440>
    80002720:	911a                	add	sp,sp,t1

0000000080002722 <i0000000333>:
    80002722:	3626                	fld	fa2,104(sp)

0000000080002724 <i0000000334>:
    80002724:	f2078553          	fmv.d.x	fa0,a5

0000000080002728 <i0000000335>:
    80002728:	19c0cc53          	fdiv.s	fs8,ft1,ft8,rmm

000000008000272c <i0000000336>:
    8000272c:	a0f1292f          	amomax.w	s2,a5,(sp)
    80002730:	000de117          	auipc	sp,0xde
    80002734:	8d010113          	add	sp,sp,-1840 # 800e0000 <begin_signature>
    80002738:	6339                	lui	t1,0xe
    8000273a:	6583031b          	addw	t1,t1,1624 # e658 <_tbss_end+0xe658>
    8000273e:	911a                	add	sp,sp,t1

0000000080002740 <i0000000337>:
    80002740:	5402                	lw	s0,32(sp)

0000000080002742 <i0000000338>:
    80002742:	2171292f          	amoxor.w	s2,s7,(sp)

0000000080002746 <i0000000339>:
    80002746:	412128af          	amoor.w	a7,s2,(sp)

000000008000274a <i000000033a>:
    8000274a:	d22074d3          	fcvt.d.l	fs1,zero

000000008000274e <i000000033b>:
    8000274e:	9db1                	addw	a1,a1,a2

0000000080002750 <i000000033c>:
    80002750:	8611                	sra	a2,a2,0x4

0000000080002752 <i000000033d>:
    80002752:	9c2d                	addw	s0,s0,a1
    80002754:	48a9                	li	a7,10
    80002756:	000de117          	auipc	sp,0xde
    8000275a:	8aa10113          	add	sp,sp,-1878 # 800e0000 <begin_signature>
    8000275e:	6305                	lui	t1,0x1
    80002760:	6e03031b          	addw	t1,t1,1760 # 16e0 <_tbss_end+0x16e0>
    80002764:	911a                	add	sp,sp,t1
    80002766:	000de117          	auipc	sp,0xde
    8000276a:	89a10113          	add	sp,sp,-1894 # 800e0000 <begin_signature>
    8000276e:	6325                	lui	t1,0x9
    80002770:	0d03031b          	addw	t1,t1,208 # 90d0 <_tbss_end+0x90d0>
    80002774:	911a                	add	sp,sp,t1
    80002776:	5ef13423          	sd	a5,1512(sp)
    8000277a:	3cf13423          	sd	a5,968(sp)
    8000277e:	9a813c23          	sd	s0,-1608(sp)
    80002782:	acc6                	fsd	fa7,88(sp)
    80002784:	201304d3          	fsgnj.s	fs1,ft6,ft1
    80002788:	0001342f          	amoadd.d	s0,zero,(sp)
    8000278c:	01813daf          	amoadd.d	s11,s8,(sp)

0000000080002790 <b000000033e>:
    80002790:	011e8463          	beq	t4,a7,80002798 <b000000033e+0x8>
    80002794:	fb3ff56f          	jal	a0,80002746 <i0000000339>
    80002798:	4ea9                	li	t4,10
    8000279a:	01f9549b          	srlw	s1,s2,0x1f
    8000279e:	02f4743b          	remuw	s0,s0,a5
    800027a2:	d2397053          	fcvt.d.lu	ft0,s2
    800027a6:	c2067fd3          	fcvt.w.d	t6,fa2
    800027aa:	6a22                	ld	s4,8(sp)
    800027ac:	02845abb          	divuw	s5,s0,s0
    800027b0:	44e2                	lw	s1,24(sp)

00000000800027b2 <i000000033e>:
    800027b2:	03a67553          	fadd.d	fa0,fa2,fs10

00000000800027b6 <i000000033f>:
    800027b6:	2542                	fld	fa0,16(sp)

00000000800027b8 <i0000000340>:
    800027b8:	0a3c                	add	a5,sp,280

00000000800027ba <i0000000341>:
    800027ba:	2662                	fld	fa2,24(sp)

00000000800027bc <i0000000342>:
    800027bc:	0968                	add	a0,sp,156

00000000800027be <i0000000343>:
    800027be:	40d5d793          	sra	a5,a1,0xd

00000000800027c2 <i0000000344>:
    800027c2:	21a7871b          	addw	a4,a5,538

00000000800027c6 <i0000000345>:
    800027c6:	23611453          	fsgnjn.d	fs0,ft2,fs6

00000000800027ca <i0000000346>:
    800027ca:	e00e9e53          	fclass.s	t3,ft9

00000000800027ce <i0000000347>:
    800027ce:	019c                	add	a5,sp,192

00000000800027d0 <i0000000348>:
    800027d0:	5782                	lw	a5,32(sp)
    800027d2:	4ca5                	li	s9,9
    800027d4:	01ff9dbb          	sllw	s11,t6,t6
    800027d8:	d03714d3          	fcvt.s.lu	fs1,a4,rtz
    800027dc:	e43e                	sd	a5,8(sp)
    800027de:	9422                	add	s0,s0,s0
    800027e0:	0287d4b3          	divu	s1,a5,s0
    800027e4:	f20782d3          	fmv.d.x	ft5,a5
    800027e8:	e2028953          	fmv.x.d	s2,ft5

00000000800027ec <b0000000349>:
    800027ec:	00000033          	add	zero,zero,zero
    800027f0:	fddcd9e3          	bge	s9,t4,800027c2 <i0000000344>
    800027f4:	00000033          	add	zero,zero,zero
    800027f8:	0327fa3b          	remuw	s4,a5,s2
    800027fc:	40f12daf          	amoor.w	s11,a5,(sp)
    80002800:	a1be07d3          	fle.s	a5,ft8,fs11
    80002804:	bc26                	fsd	fs1,56(sp)
    80002806:	7c012c23          	sw	zero,2008(sp)
    8000280a:	02bc7fd3          	fadd.d	ft11,fs8,fa1
    8000280e:	5fcd                	li	t6,-13
    80002810:	4ea9                	li	t4,10

0000000080002812 <i0000000349>:
    80002812:	e00a17d3          	fclass.s	a5,fs4
    80002816:	000dd117          	auipc	sp,0xdd
    8000281a:	7ea10113          	add	sp,sp,2026 # 800e0000 <begin_signature>
    8000281e:	6311                	lui	t1,0x4
    80002820:	f483031b          	addw	t1,t1,-184 # 3f48 <_tbss_end+0x3f48>
    80002824:	911a                	add	sp,sp,t1

0000000080002826 <i000000034a>:
    80002826:	5592                	lw	a1,36(sp)

0000000080002828 <i000000034b>:
    80002828:	40095793          	sra	a5,s2,0x0

000000008000282c <i000000034c>:
    8000282c:	c14a                	sw	s2,128(sp)

000000008000282e <i000000034d>:
    8000282e:	c001252f          	amominu.w	a0,zero,(sp)

0000000080002832 <i000000034e>:
    80002832:	f716c513          	xor	a0,a3,-143

0000000080002836 <i000000034f>:
    80002836:	8e61                	and	a2,a2,s0

0000000080002838 <i0000000350>:
    80002838:	c23cf953          	fcvt.lu.d	s2,fs9

000000008000283c <i0000000351>:
    8000283c:	d227f953          	fcvt.d.l	fs2,a5

0000000080002840 <i0000000352>:
    80002840:	1a74                	add	a3,sp,316

0000000080002842 <i0000000353>:
    80002842:	07d6                	sll	a5,a5,0x15
    80002844:	4931                	li	s2,12
    80002846:	0e85                	add	t4,t4,1
    80002848:	8cd9                	or	s1,s1,a4
    8000284a:	02f45fbb          	divuw	t6,s0,a5
    8000284e:	254108a3          	sb	s4,593(sp)
    80002852:	4134de1b          	sraw	t3,s1,0x13
    80002856:	a5013483          	ld	s1,-1456(sp)
    8000285a:	02e2443b          	divw	s0,tp,a4
    8000285e:	f2040dd3          	fmv.d.x	fs11,s0

0000000080002862 <b0000000354>:
    80002862:	00000033          	add	zero,zero,zero
    80002866:	fdd956e3          	bge	s2,t4,80002832 <i000000034e>
    8000286a:	00000033          	add	zero,zero,zero
    8000286e:	77b6                	ld	a5,360(sp)
    80002870:	015ad99b          	srlw	s3,s5,0x15
    80002874:	4134dd1b          	sraw	s10,s1,0x13
    80002878:	0964                	add	s1,sp,156
    8000287a:	8361                	srl	a4,a4,0x18
    8000287c:	c0230453          	fcvt.l.s	s0,ft6,rne
    80002880:	293a0847          	fmsub.s	fa6,fs4,fs3,ft5,rne
    80002884:	4ea9                	li	t4,10

0000000080002886 <i0000000354>:
    80002886:	8926                	mv	s2,s1

0000000080002888 <i0000000355>:
    80002888:	a09d2953          	feq.s	s2,fs10,fs1

000000008000288c <i0000000356>:
    8000288c:	953e                	add	a0,a0,a5

000000008000288e <i0000000357>:
    8000288e:	1804                	add	s1,sp,48

0000000080002890 <i0000000358>:
    80002890:	994a                	add	s2,s2,s2

0000000080002892 <i0000000359>:
    80002892:	03651f13          	sll	t5,a0,0x36

0000000080002896 <i000000035a>:
    80002896:	7151                	add	sp,sp,-240

0000000080002898 <i000000035b>:
    80002898:	6f1d                	lui	t5,0x7

000000008000289a <i000000035c>:
    8000289a:	d23874d3          	fcvt.d.lu	fs1,a6

000000008000289e <i000000035d>:
    8000289e:	a0a6                	fsd	fs1,64(sp)

00000000800028a0 <i000000035e>:
    800028a0:	7177e793          	or	a5,a5,1815
    800028a4:	4b25                	li	s6,9
    800028a6:	4ea9                	li	t4,10
    800028a8:	000dd117          	auipc	sp,0xdd
    800028ac:	75810113          	add	sp,sp,1880 # 800e0000 <begin_signature>
    800028b0:	6339                	lui	t1,0xe
    800028b2:	5183031b          	addw	t1,t1,1304 # e518 <_tbss_end+0xe518>
    800028b6:	911a                	add	sp,sp,t1
    800028b8:	ce46                	sw	a7,28(sp)
    800028ba:	3d46                	fld	fs10,112(sp)
    800028bc:	0000100f          	fence.i
    800028c0:	d2297253          	fcvt.d.l	ft4,s2
    800028c4:	f83a                	sd	a4,48(sp)
    800028c6:	20f1392f          	amoxor.d	s2,a5,(sp)
    800028ca:	58048f53          	fsqrt.s	ft10,fs1,rne

00000000800028ce <b000000035f>:
    800028ce:	00000033          	add	zero,zero,zero
    800028d2:	036eca63          	blt	t4,s6,80002906 <i0000000364>
    800028d6:	00000033          	add	zero,zero,zero
    800028da:	5a0a7653          	fsqrt.d	fa2,fs4
    800028de:	f2038453          	fmv.d.x	fs0,t2
    800028e2:	47b2                	lw	a5,12(sp)
    800028e4:	00bd1c1b          	sllw	s8,s10,0xb
    800028e8:	75411883          	lh	a7,1876(sp)
    800028ec:	c0260453          	fcvt.l.s	s0,fa2,rne
    800028f0:	8131342f          	amomin.d	s0,s3,(sp)
    800028f4:	4ea9                	li	t4,10

00000000800028f6 <i000000035f>:
    800028f6:	2642                	fld	fa2,16(sp)

00000000800028f8 <i0000000360>:
    800028f8:	c0a123af          	amominu.w	t2,a0,(sp)

00000000800028fc <i0000000361>:
    800028fc:	1120                	add	s0,sp,168

00000000800028fe <i0000000362>:
    800028fe:	41165dbb          	sraw	s11,a2,a7

0000000080002902 <i0000000363>:
    80002902:	c23d79d3          	fcvt.lu.d	s3,fs10

0000000080002906 <i0000000364>:
    80002906:	404a8cb3          	sub	s9,s5,tp

000000008000290a <i0000000365>:
    8000290a:	00f7afb3          	slt	t6,a5,a5

000000008000290e <i0000000366>:
    8000290e:	00f55533          	srl	a0,a0,a5

0000000080002912 <i0000000367>:
    80002912:	0121252f          	amoadd.w	a0,s2,(sp)

0000000080002916 <i0000000368>:
    80002916:	d02a                	sw	a0,32(sp)

0000000080002918 <i0000000369>:
    80002918:	594d                	li	s2,-13
    8000291a:	4fa5                	li	t6,9
    8000291c:	4ea9                	li	t4,10
    8000291e:	000dd117          	auipc	sp,0xdd
    80002922:	6e210113          	add	sp,sp,1762 # 800e0000 <begin_signature>
    80002926:	6311                	lui	t1,0x4
    80002928:	0d03031b          	addw	t1,t1,208 # 40d0 <_tbss_end+0x40d0>
    8000292c:	911a                	add	sp,sp,t1
    8000292e:	0ff0000f          	fence
    80002932:	46c12783          	lw	a5,1132(sp)
    80002936:	0289793b          	remuw	s2,s2,s0
    8000293a:	8c9d                	sub	s1,s1,a5
    8000293c:	03ac49bb          	divw	s3,s8,s10
    80002940:	72615383          	lhu	t2,1830(sp)
    80002944:	033b1413          	sll	s0,s6,0x33

0000000080002948 <b000000036a>:
    80002948:	00000033          	add	zero,zero,zero
    8000294c:	03fec763          	blt	t4,t6,8000297a <i0000000370>
    80002950:	00000033          	add	zero,zero,zero
    80002954:	d03a2653          	fcvt.s.lu	fa2,s4,rdn
    80002958:	b1a6                	fsd	fs1,224(sp)
    8000295a:	0725                	add	a4,a4,9
    8000295c:	64a6                	ld	s1,72(sp)
    8000295e:	3686                	fld	fa3,96(sp)
    80002960:	2426                	fld	fs0,72(sp)
    80002962:	d83a                	sw	a4,48(sp)
    80002964:	4ea9                	li	t4,10

0000000080002966 <i000000036a>:
    80002966:	c2397cd3          	fcvt.lu.d	s9,fs2

000000008000296a <i000000036b>:
    8000296a:	5532                	lw	a0,44(sp)

000000008000296c <i000000036c>:
    8000296c:	e2098953          	fmv.x.d	s2,fs3

0000000080002970 <i000000036d>:
    80002970:	d22574d3          	fcvt.d.l	fs1,a0

0000000080002974 <i000000036e>:
    80002974:	127c                	add	a5,sp,300

0000000080002976 <i000000036f>:
    80002976:	e0d1292f          	amomaxu.w	s2,a3,(sp)

000000008000297a <i0000000370>:
    8000297a:	cc3a                	sw	a4,24(sp)

000000008000297c <i0000000371>:
    8000297c:	c236f253          	fcvt.lu.d	tp,fa3

0000000080002980 <i0000000372>:
    80002980:	e20007d3          	fmv.x.d	a5,ft0

0000000080002984 <i0000000373>:
    80002984:	d2387d53          	fcvt.d.lu	fs10,a6

0000000080002988 <i0000000374>:
    80002988:	4131252f          	amoor.w	a0,s3,(sp)
    8000298c:	4829                	li	a6,10
    8000298e:	032934b3          	mulhu	s1,s2,s2
    80002992:	0ff0000f          	fence
    80002996:	872d                	sra	a4,a4,0xb
    80002998:	37cd                	addw	a5,a5,-13
    8000299a:	c07133af          	amominu.d	t2,t2,(sp)
    8000299e:	0284d23b          	divuw	tp,s1,s0
    800029a2:	c0f138af          	amominu.d	a7,a5,(sp)

00000000800029a6 <b0000000375>:
    800029a6:	00000033          	add	zero,zero,zero
    800029aa:	fd0e98e3          	bne	t4,a6,8000297a <i0000000370>
    800029ae:	00000033          	add	zero,zero,zero
    800029b2:	02995433          	divu	s0,s2,s1
    800029b6:	c22677d3          	fcvt.l.d	a5,fa2
    800029ba:	01a62053          	fadd.s	ft0,fa2,fs10,rdn
    800029be:	0000100f          	fence.i
    800029c2:	01bff7b3          	and	a5,t6,s11
    800029c6:	c0f1222f          	amominu.w	tp,a5,(sp)
    800029ca:	2419                	addw	s0,s0,6
    800029cc:	4ea9                	li	t4,10

00000000800029ce <i0000000375>:
    800029ce:	0049df33          	srl	t5,s3,tp

00000000800029d2 <i0000000376>:
    800029d2:	60a1292f          	amoand.w	s2,a0,(sp)

00000000800029d6 <i0000000377>:
    800029d6:	54e2                	lw	s1,56(sp)

00000000800029d8 <i0000000378>:
    800029d8:	01fc                	add	a5,sp,204

00000000800029da <i0000000379>:
    800029da:	d222fed3          	fcvt.d.l	ft9,t0

00000000800029de <i000000037a>:
    800029de:	5516                	lw	a0,100(sp)

00000000800029e0 <i000000037b>:
    800029e0:	c121252f          	amominu.w	a0,s2,(sp)

00000000800029e4 <i000000037c>:
    800029e4:	96dfd0ef          	jal	80000350 <func1>
    800029e8:	000dd117          	auipc	sp,0xdd
    800029ec:	61810113          	add	sp,sp,1560 # 800e0000 <begin_signature>
    800029f0:	6325                	lui	t1,0x9
    800029f2:	9a83031b          	addw	t1,t1,-1624 # 89a8 <_tbss_end+0x89a8>
    800029f6:	911a                	add	sp,sp,t1

00000000800029f8 <i000000037d>:
    800029f8:	47d2                	lw	a5,20(sp)

00000000800029fa <i000000037e>:
    800029fa:	d875fc93          	and	s9,a1,-633

00000000800029fe <i000000037f>:
    800029fe:	a0a127af          	amomax.w	a5,a0,(sp)

0000000080002a02 <i0000000380>:
    80002a02:	c238fdd3          	fcvt.lu.d	s11,fa7
    80002a06:	4ba9                	li	s7,10
    80002a08:	f00e04d3          	fmv.w.x	fs1,t3
    80002a0c:	9f914703          	lbu	a4,-1543(sp)
    80002a10:	692a74cf          	fnmadd.s	fs1,fs4,fs2,fa3
    80002a14:	400fd23b          	sraw	tp,t6,zero
    80002a18:	d2297d53          	fcvt.d.l	fs10,s2
    80002a1c:	03aadfb3          	divu	t6,s5,s10
    80002a20:	70510403          	lb	s0,1797(sp)

0000000080002a24 <b0000000381>:
    80002a24:	00000033          	add	zero,zero,zero
    80002a28:	fb7e9ce3          	bne	t4,s7,800029e0 <i000000037b>
    80002a2c:	00000033          	add	zero,zero,zero
    80002a30:	e0088fd3          	fmv.x.w	t6,fa7
    80002a34:	e111242f          	amomaxu.w	s0,a7,(sp)
    80002a38:	24e2                	fld	fs1,24(sp)
    80002a3a:	042a                	sll	s0,s0,0xa
    80002a3c:	f2088653          	fmv.d.x	fa2,a7
    80002a40:	0127d933          	srl	s2,a5,s2
    80002a44:	010c4933          	xor	s2,s8,a6
    80002a48:	4ea9                	li	t4,10

0000000080002a4a <i0000000381>:
    80002a4a:	20c4a653          	fsgnjx.s	fa2,fs1,fa2

0000000080002a4e <i0000000382>:
    80002a4e:	e9016e03          	lwu	t3,-368(sp)

0000000080002a52 <i0000000383>:
    80002a52:	00cd0653          	fadd.s	fa2,fs10,fa2,rne

0000000080002a56 <i0000000384>:
    80002a56:	033be533          	rem	a0,s7,s3

0000000080002a5a <i0000000385>:
    80002a5a:	acb2                	fsd	fa2,88(sp)

0000000080002a5c <i0000000386>:
    80002a5c:	81b9                	srl	a1,a1,0xe

0000000080002a5e <i0000000387>:
    80002a5e:	d5413827          	fsd	fs4,-688(sp)

0000000080002a62 <i0000000388>:
    80002a62:	d2138653          	fcvt.d.wu	fa2,t2
    80002a66:	000dd117          	auipc	sp,0xdd
    80002a6a:	59a10113          	add	sp,sp,1434 # 800e0000 <begin_signature>
    80002a6e:	6321                	lui	t1,0x8
    80002a70:	7203031b          	addw	t1,t1,1824 # 8720 <_tbss_end+0x8720>
    80002a74:	911a                	add	sp,sp,t1

0000000080002a76 <i0000000389>:
    80002a76:	c0ae                	sw	a1,64(sp)

0000000080002a78 <i000000038a>:
    80002a78:	9d09                	subw	a0,a0,a0
    80002a7a:	000dd117          	auipc	sp,0xdd
    80002a7e:	58610113          	add	sp,sp,1414 # 800e0000 <begin_signature>
    80002a82:	6305                	lui	t1,0x1
    80002a84:	ab03031b          	addw	t1,t1,-1360 # ab0 <_tbss_end+0xab0>
    80002a88:	911a                	add	sp,sp,t1

0000000080002a8a <i000000038b>:
    80002a8a:	01015e03          	lhu	t3,16(sp)
    80002a8e:	4829                	li	a6,10
    80002a90:	000dd117          	auipc	sp,0xdd
    80002a94:	57010113          	add	sp,sp,1392 # 800e0000 <begin_signature>
    80002a98:	6315                	lui	t1,0x5
    80002a9a:	7a83031b          	addw	t1,t1,1960 # 57a8 <_tbss_end+0x57a8>
    80002a9e:	911a                	add	sp,sp,t1
    80002aa0:	000dd117          	auipc	sp,0xdd
    80002aa4:	56010113          	add	sp,sp,1376 # 800e0000 <begin_signature>
    80002aa8:	632d                	lui	t1,0xb
    80002aaa:	eb03031b          	addw	t1,t1,-336 # aeb0 <_tbss_end+0xaeb0>
    80002aae:	911a                	add	sp,sp,t1
    80002ab0:	000dd117          	auipc	sp,0xdd
    80002ab4:	55010113          	add	sp,sp,1360 # 800e0000 <begin_signature>
    80002ab8:	632d                	lui	t1,0xb
    80002aba:	3a03031b          	addw	t1,t1,928 # b3a0 <_tbss_end+0xb3a0>
    80002abe:	911a                	add	sp,sp,t1
    80002ac0:	d03944d3          	fcvt.s.lu	fs1,s2,rmm
    80002ac4:	214128af          	amoxor.w	a7,s4,(sp)
    80002ac8:	c23c7453          	fcvt.lu.d	s0,fs8
    80002acc:	89b12223          	sw	s11,-1916(sp)
    80002ad0:	67aa                	ld	a5,136(sp)
    80002ad2:	77a6                	ld	a5,104(sp)
    80002ad4:	1a4ff153          	fdiv.d	ft2,ft11,ft4

0000000080002ad8 <b000000038c>:
    80002ad8:	010e8463          	beq	t4,a6,80002ae0 <b000000038c+0x8>
    80002adc:	f81ff06f          	j	80002a5c <i0000000386>
    80002ae0:	4ea9                	li	t4,10
    80002ae2:	9c01                	subw	s0,s0,s0
    80002ae4:	6446                	ld	s0,80(sp)
    80002ae6:	4a9672c3          	fmadd.d	ft5,fa2,fs1,fs1
    80002aea:	95013903          	ld	s2,-1712(sp)
    80002aee:	135c                	add	a5,sp,420
    80002af0:	c0264953          	fcvt.l.s	s2,fa2,rmm
    80002af4:	51a13827          	fsd	fs10,1296(sp)
    80002af8:	000dd117          	auipc	sp,0xdd
    80002afc:	50810113          	add	sp,sp,1288 # 800e0000 <begin_signature>
    80002b00:	631d                	lui	t1,0x7
    80002b02:	2883031b          	addw	t1,t1,648 # 7288 <_tbss_end+0x7288>
    80002b06:	911a                	add	sp,sp,t1

0000000080002b08 <i000000038c>:
    80002b08:	b4012783          	lw	a5,-1216(sp)

0000000080002b0c <i000000038d>:
    80002b0c:	c0282853          	fcvt.l.s	a6,fa6,rdn

0000000080002b10 <i000000038e>:
    80002b10:	0921292f          	amoswap.w	s2,s2,(sp)

0000000080002b14 <i000000038f>:
    80002b14:	8419                	sra	s0,s0,0x6

0000000080002b16 <i0000000390>:
    80002b16:	b0a6                	fsd	fs1,96(sp)

0000000080002b18 <i0000000391>:
    80002b18:	c224f653          	fcvt.l.d	a2,fs1

0000000080002b1c <i0000000392>:
    80002b1c:	acb2                	fsd	fa2,88(sp)

0000000080002b1e <i0000000393>:
    80002b1e:	38d13423          	sd	a3,904(sp)

0000000080002b22 <i0000000394>:
    80002b22:	4592                	lw	a1,4(sp)

0000000080002b24 <i0000000395>:
    80002b24:	d22cff53          	fcvt.d.l	ft10,s9
    80002b28:	000dd117          	auipc	sp,0xdd
    80002b2c:	4d810113          	add	sp,sp,1240 # 800e0000 <begin_signature>
    80002b30:	6325                	lui	t1,0x9
    80002b32:	a483031b          	addw	t1,t1,-1464 # 8a48 <_tbss_end+0x8a48>
    80002b36:	911a                	add	sp,sp,t1

0000000080002b38 <i0000000396>:
    80002b38:	68a2                	ld	a7,8(sp)
    80002b3a:	4b31                	li	s6,12
    80002b3c:	0e85                	add	t4,t4,1
    80002b3e:	77c2                	ld	a5,48(sp)
    80002b40:	d2297453          	fcvt.d.l	fs0,s2
    80002b44:	031e7433          	remu	s0,t3,a7
    80002b48:	8fc1                	or	a5,a5,s0
    80002b4a:	020009bb          	mulw	s3,zero,zero
    80002b4e:	8123b4c7          	fmsub.s	fs1,ft7,fs2,fa6,rup
    80002b52:	2662                	fld	fa2,24(sp)

0000000080002b54 <b0000000397>:
    80002b54:	00000033          	add	zero,zero,zero
    80002b58:	fd6ec2e3          	blt	t4,s6,80002b1c <i0000000392>
    80002b5c:	00000033          	add	zero,zero,zero
    80002b60:	d02afa53          	fcvt.s.l	fs4,s5
    80002b64:	0041292f          	amoadd.w	s2,tp,(sp)
    80002b68:	40e1292f          	amoor.w	s2,a4,(sp)
    80002b6c:	418127af          	amoor.w	a5,s8,(sp)
    80002b70:	11a491d3          	fmul.s	ft3,fs1,fs10,rtz
    80002b74:	e20317d3          	fclass.d	a5,ft6
    80002b78:	fdca                	sd	s2,248(sp)
    80002b7a:	4ea9                	li	t4,10

0000000080002b7c <i0000000397>:
    80002b7c:	d231fc53          	fcvt.d.lu	fs8,gp

0000000080002b80 <i0000000398>:
    80002b80:	bb013f83          	ld	t6,-1104(sp)

0000000080002b84 <i0000000399>:
    80002b84:	8021                	srl	s0,s0,0x8

0000000080002b86 <i000000039a>:
    80002b86:	a13e                	fsd	fa5,128(sp)

0000000080002b88 <i000000039b>:
    80002b88:	c0222253          	fcvt.l.s	tp,ft4,rdn

0000000080002b8c <i000000039c>:
    80002b8c:	83f1                	srl	a5,a5,0x1c

0000000080002b8e <i000000039d>:
    80002b8e:	f00784d3          	fmv.w.x	fs1,a5

0000000080002b92 <i000000039e>:
    80002b92:	86a5                	sra	a3,a3,0x9

0000000080002b94 <i000000039f>:
    80002b94:	712d                	add	sp,sp,-288

0000000080002b96 <i00000003a0>:
    80002b96:	8c01                	sub	s0,s0,s0

0000000080002b98 <i00000003a1>:
    80002b98:	4192                	lw	gp,4(sp)
    80002b9a:	492d                	li	s2,11
    80002b9c:	0e85                	add	t4,t4,1
    80002b9e:	000dd117          	auipc	sp,0xdd
    80002ba2:	46210113          	add	sp,sp,1122 # 800e0000 <begin_signature>
    80002ba6:	6321                	lui	t1,0x8
    80002ba8:	2683031b          	addw	t1,t1,616 # 8268 <_tbss_end+0x8268>
    80002bac:	911a                	add	sp,sp,t1
    80002bae:	000dd117          	auipc	sp,0xdd
    80002bb2:	45210113          	add	sp,sp,1106 # 800e0000 <begin_signature>
    80002bb6:	6335                	lui	t1,0xd
    80002bb8:	eb83031b          	addw	t1,t1,-328 # ceb8 <_tbss_end+0xceb8>
    80002bbc:	911a                	add	sp,sp,t1
    80002bbe:	c2fe                	sw	t6,68(sp)
    80002bc0:	3e913c23          	sd	s1,1016(sp)
    80002bc4:	f902                	sd	zero,176(sp)
    80002bc6:	b3416e03          	lwu	t3,-1228(sp)
    80002bca:	613123af          	amoand.w	t2,s3,(sp)
    80002bce:	a0ae                	fsd	fa1,64(sp)
    80002bd0:	a136                	fsd	fa3,128(sp)

0000000080002bd2 <b00000003a2>:
    80002bd2:	00000033          	add	zero,zero,zero
    80002bd6:	fb2e8ce3          	beq	t4,s2,80002b8e <i000000039d>
    80002bda:	00000033          	add	zero,zero,zero
    80002bde:	40978dbb          	subw	s11,a5,s1
    80002be2:	d2078653          	fcvt.d.w	fa2,a5
    80002be6:	e09124af          	amomaxu.w	s1,s1,(sp)
    80002bea:	2662                	fld	fa2,24(sp)
    80002bec:	6835                	lui	a6,0xd
    80002bee:	4792                	lw	a5,4(sp)
    80002bf0:	02f434b3          	mulhu	s1,s0,a5
    80002bf4:	4ea9                	li	t4,10
    80002bf6:	4185                	li	gp,1
    80002bf8:	000eff17          	auipc	t5,0xef
    80002bfc:	403f2423          	sw	gp,1032(t5) # 800f2000 <tohost>
    80002c00:	0000100f          	fence.i
    80002c04:	00020fb7          	lui	t6,0x20
    80002c08:	000ddf17          	auipc	t5,0xdd
    80002c0c:	3f8f0f13          	add	t5,t5,1016 # 800e0000 <begin_signature>
    80002c10:	01efa023          	sw	t5,0(t6) # 20000 <_tbss_end+0x20000>
    80002c14:	000edf17          	auipc	t5,0xed
    80002c18:	3ecf0f13          	add	t5,t5,1004 # 800f0000 <end_signature>
    80002c1c:	01efa423          	sw	t5,8(t6)
    80002c20:	01efa623          	sw	t5,12(t6)
	...

Disassembly of section .tohost:

00000000800f2000 <tohost>:
	...

00000000800f2040 <fromhost>:
	...

00000000800f2050 <ecause_num>:
	...
