
work/bin/out_pg_excep4_00000.riscv:     file format elf64-littleriscv


Disassembly of section .text.init:

0000000080000000 <_start>:
    80000000:	000e0117          	auipc	sp,0xe0
    80000004:	00010113          	mv	sp,sp
    80000008:	6082                	ld	ra,0(sp)
    8000000a:	61a2                	ld	gp,8(sp)
    8000000c:	6242                	ld	tp,16(sp)
    8000000e:	62e2                	ld	t0,24(sp)
    80000010:	7302                	ld	t1,32(sp)
    80000012:	73a2                	ld	t2,40(sp)
    80000014:	7442                	ld	s0,48(sp)
    80000016:	74e2                	ld	s1,56(sp)
    80000018:	6506                	ld	a0,64(sp)
    8000001a:	65a6                	ld	a1,72(sp)
    8000001c:	6646                	ld	a2,80(sp)
    8000001e:	66e6                	ld	a3,88(sp)
    80000020:	7706                	ld	a4,96(sp)
    80000022:	77a6                	ld	a5,104(sp)
    80000024:	7846                	ld	a6,112(sp)
    80000026:	78e6                	ld	a7,120(sp)
    80000028:	690a                	ld	s2,128(sp)
    8000002a:	69aa                	ld	s3,136(sp)
    8000002c:	6a4a                	ld	s4,144(sp)
    8000002e:	6aea                	ld	s5,152(sp)
    80000030:	7b0a                	ld	s6,160(sp)
    80000032:	7baa                	ld	s7,168(sp)
    80000034:	7c4a                	ld	s8,176(sp)
    80000036:	7cea                	ld	s9,184(sp)
    80000038:	6d0e                	ld	s10,192(sp)
    8000003a:	6dae                	ld	s11,200(sp)
    8000003c:	6e4e                	ld	t3,208(sp)
    8000003e:	6eee                	ld	t4,216(sp)
    80000040:	7f0e                	ld	t5,224(sp)
    80000042:	7fae                	ld	t6,232(sp)
    80000044:	62f9                	lui	t0,0x1e
    80000046:	3002a073          	csrs	mstatus,t0
    8000004a:	4285                	li	t0,1
    8000004c:	02fe                	sll	t0,t0,0x1f
    8000004e:	0002d863          	bgez	t0,8000005e <_start+0x5e>
    80000052:	4505                	li	a0,1
    80000054:	000f2297          	auipc	t0,0xf2
    80000058:	faa2a623          	sw	a0,-84(t0) # 800f2000 <tohost>
    8000005c:	bfdd                	j	80000052 <_start+0x52>
    8000005e:	00000297          	auipc	t0,0x0
    80000062:	09228293          	add	t0,t0,146 # 800000f0 <_start+0xf0>
    80000066:	30529073          	csrw	mtvec,t0
    8000006a:	00301073          	fscsr	zero
    8000006e:	f2008053          	fmv.d.x	ft0,ra
    80000072:	f20080d3          	fmv.d.x	ft1,ra
    80000076:	f2010153          	fmv.d.x	ft2,sp
    8000007a:	f20181d3          	fmv.d.x	ft3,gp
    8000007e:	f2020253          	fmv.d.x	ft4,tp
    80000082:	f20282d3          	fmv.d.x	ft5,t0
    80000086:	f2030353          	fmv.d.x	ft6,t1
    8000008a:	f20383d3          	fmv.d.x	ft7,t2
    8000008e:	f2040453          	fmv.d.x	fs0,s0
    80000092:	f20484d3          	fmv.d.x	fs1,s1
    80000096:	f2050553          	fmv.d.x	fa0,a0
    8000009a:	f20585d3          	fmv.d.x	fa1,a1
    8000009e:	f2060653          	fmv.d.x	fa2,a2
    800000a2:	f20686d3          	fmv.d.x	fa3,a3
    800000a6:	f2070753          	fmv.d.x	fa4,a4
    800000aa:	f20787d3          	fmv.d.x	fa5,a5
    800000ae:	f2080853          	fmv.d.x	fa6,a6
    800000b2:	f20888d3          	fmv.d.x	fa7,a7
    800000b6:	f2090953          	fmv.d.x	fs2,s2
    800000ba:	f20989d3          	fmv.d.x	fs3,s3
    800000be:	f20a0a53          	fmv.d.x	fs4,s4
    800000c2:	f20a8ad3          	fmv.d.x	fs5,s5
    800000c6:	f20b0b53          	fmv.d.x	fs6,s6
    800000ca:	f20b8bd3          	fmv.d.x	fs7,s7
    800000ce:	f20c0c53          	fmv.d.x	fs8,s8
    800000d2:	f20c8cd3          	fmv.d.x	fs9,s9
    800000d6:	f20d0d53          	fmv.d.x	fs10,s10
    800000da:	f20d8dd3          	fmv.d.x	fs11,s11
    800000de:	f20e0e53          	fmv.d.x	ft8,t3
    800000e2:	f20e8ed3          	fmv.d.x	ft9,t4
    800000e6:	f20f0f53          	fmv.d.x	ft10,t5
    800000ea:	f20f8fd3          	fmv.d.x	ft11,t6
    800000ee:	0001                	nop
    800000f0:	00000297          	auipc	t0,0x0
    800000f4:	03428293          	add	t0,t0,52 # 80000124 <trap_entry>
    800000f8:	30529073          	csrw	mtvec,t0
    800000fc:	000f3217          	auipc	tp,0xf3
    80000100:	84420213          	add	tp,tp,-1980 # 800f2940 <_end+0x3f>
    80000104:	fc027213          	and	tp,tp,-64
    80000108:	f1402573          	csrr	a0,mhartid
    8000010c:	4585                	li	a1,1
    8000010e:	00b57063          	bgeu	a0,a1,8000010e <_start+0x10e>
    80000112:	01151613          	sll	a2,a0,0x11
    80000116:	9232                	add	tp,tp,a2
    80000118:	00150113          	add	sp,a0,1
    8000011c:	0146                	sll	sp,sp,0x11
    8000011e:	9112                	add	sp,sp,tp
    80000120:	2400006f          	j	80000360 <main>

0000000080000124 <trap_entry>:
    80000124:	716d                	add	sp,sp,-272
    80000126:	e406                	sd	ra,8(sp)
    80000128:	e80a                	sd	sp,16(sp)
    8000012a:	ec0e                	sd	gp,24(sp)
    8000012c:	f012                	sd	tp,32(sp)
    8000012e:	f416                	sd	t0,40(sp)
    80000130:	f81a                	sd	t1,48(sp)
    80000132:	fc1e                	sd	t2,56(sp)
    80000134:	e0a2                	sd	s0,64(sp)
    80000136:	e4a6                	sd	s1,72(sp)
    80000138:	e8aa                	sd	a0,80(sp)
    8000013a:	ecae                	sd	a1,88(sp)
    8000013c:	f0b2                	sd	a2,96(sp)
    8000013e:	f4b6                	sd	a3,104(sp)
    80000140:	f8ba                	sd	a4,112(sp)
    80000142:	fcbe                	sd	a5,120(sp)
    80000144:	e142                	sd	a6,128(sp)
    80000146:	e546                	sd	a7,136(sp)
    80000148:	e94a                	sd	s2,144(sp)
    8000014a:	ed4e                	sd	s3,152(sp)
    8000014c:	f152                	sd	s4,160(sp)
    8000014e:	f556                	sd	s5,168(sp)
    80000150:	f95a                	sd	s6,176(sp)
    80000152:	fd5e                	sd	s7,184(sp)
    80000154:	e1e2                	sd	s8,192(sp)
    80000156:	e5e6                	sd	s9,200(sp)
    80000158:	e9ea                	sd	s10,208(sp)
    8000015a:	edee                	sd	s11,216(sp)
    8000015c:	f1f2                	sd	t3,224(sp)
    8000015e:	f5f6                	sd	t4,232(sp)
    80000160:	f9fa                	sd	t5,240(sp)
    80000162:	fdfe                	sd	t6,248(sp)
    80000164:	34202573          	csrr	a0,mcause
    80000168:	341025f3          	csrr	a1,mepc
    8000016c:	0005d603          	lhu	a2,0(a1)
    80000170:	8a0d                	and	a2,a2,3
    80000172:	428d                	li	t0,3
    80000174:	00561563          	bne	a2,t0,8000017e <inst16>

0000000080000178 <inst32>:
    80000178:	0591                	add	a1,a1,4
    8000017a:	00000363          	beqz	zero,80000180 <inst16+0x2>

000000008000017e <inst16>:
    8000017e:	0589                	add	a1,a1,2
    80000180:	34159073          	csrw	mepc,a1
    80000184:	6289                	lui	t0,0x2
    80000186:	8002829b          	addw	t0,t0,-2048 # 1800 <_tbss_end+0x1800>
    8000018a:	3002a073          	csrs	mstatus,t0
    8000018e:	60a2                	ld	ra,8(sp)
    80000190:	6142                	ld	sp,16(sp)
    80000192:	61e2                	ld	gp,24(sp)
    80000194:	7202                	ld	tp,32(sp)
    80000196:	72a2                	ld	t0,40(sp)
    80000198:	7342                	ld	t1,48(sp)
    8000019a:	73e2                	ld	t2,56(sp)
    8000019c:	6406                	ld	s0,64(sp)
    8000019e:	64a6                	ld	s1,72(sp)
    800001a0:	6546                	ld	a0,80(sp)
    800001a2:	65e6                	ld	a1,88(sp)
    800001a4:	7606                	ld	a2,96(sp)
    800001a6:	76a6                	ld	a3,104(sp)
    800001a8:	7746                	ld	a4,112(sp)
    800001aa:	77e6                	ld	a5,120(sp)
    800001ac:	680a                	ld	a6,128(sp)
    800001ae:	68aa                	ld	a7,136(sp)
    800001b0:	694a                	ld	s2,144(sp)
    800001b2:	69ea                	ld	s3,152(sp)
    800001b4:	7a0a                	ld	s4,160(sp)
    800001b6:	7aaa                	ld	s5,168(sp)
    800001b8:	7b4a                	ld	s6,176(sp)
    800001ba:	7bea                	ld	s7,184(sp)
    800001bc:	6c0e                	ld	s8,192(sp)
    800001be:	6cae                	ld	s9,200(sp)
    800001c0:	6d4e                	ld	s10,208(sp)
    800001c2:	6dee                	ld	s11,216(sp)
    800001c4:	7e0e                	ld	t3,224(sp)
    800001c6:	7eae                	ld	t4,232(sp)
    800001c8:	7f4e                	ld	t5,240(sp)
    800001ca:	7fee                	ld	t6,248(sp)
    800001cc:	6151                	add	sp,sp,272
    800001ce:	30200073          	mret

Disassembly of section .text:

00000000800001e0 <custom_trap_handler_s>:
    800001e0:	7129                	add	sp,sp,-320
    800001e2:	e406                	sd	ra,8(sp)
    800001e4:	ec0e                	sd	gp,24(sp)
    800001e6:	f012                	sd	tp,32(sp)
    800001e8:	f416                	sd	t0,40(sp)
    800001ea:	f81a                	sd	t1,48(sp)
    800001ec:	fc1e                	sd	t2,56(sp)
    800001ee:	e0a2                	sd	s0,64(sp)
    800001f0:	e4a6                	sd	s1,72(sp)
    800001f2:	e8aa                	sd	a0,80(sp)
    800001f4:	ecae                	sd	a1,88(sp)
    800001f6:	f0b2                	sd	a2,96(sp)
    800001f8:	f4b6                	sd	a3,104(sp)
    800001fa:	f8ba                	sd	a4,112(sp)
    800001fc:	fcbe                	sd	a5,120(sp)
    800001fe:	e142                	sd	a6,128(sp)
    80000200:	e546                	sd	a7,136(sp)
    80000202:	e94a                	sd	s2,144(sp)
    80000204:	ed4e                	sd	s3,152(sp)
    80000206:	f152                	sd	s4,160(sp)
    80000208:	f556                	sd	s5,168(sp)
    8000020a:	f95a                	sd	s6,176(sp)
    8000020c:	fd5e                	sd	s7,184(sp)
    8000020e:	e1e2                	sd	s8,192(sp)
    80000210:	e5e6                	sd	s9,200(sp)
    80000212:	e9ea                	sd	s10,208(sp)
    80000214:	edee                	sd	s11,216(sp)
    80000216:	f1f2                	sd	t3,224(sp)
    80000218:	f5f6                	sd	t4,232(sp)
    8000021a:	f9fa                	sd	t5,240(sp)
    8000021c:	fdfe                	sd	t6,248(sp)
    8000021e:	10002573          	csrr	a0,sstatus
    80000222:	14102573          	csrr	a0,sepc
    80000226:	10502573          	csrr	a0,stvec
    8000022a:	14202573          	csrr	a0,scause
    8000022e:	4601                	li	a2,0
    80000230:	00c50763          	beq	a0,a2,8000023e <custom_trap_handler_s+0x5e>
    80000234:	4605                	li	a2,1
    80000236:	00c50463          	beq	a0,a2,8000023e <custom_trap_handler_s+0x5e>
    8000023a:	141025f3          	csrr	a1,sepc
    8000023e:	00059603          	lh	a2,0(a1)
    80000242:	8a0d                	and	a2,a2,3
    80000244:	428d                	li	t0,3
    80000246:	00561563          	bne	a2,t0,80000250 <inst16_s>

000000008000024a <inst32_s>:
    8000024a:	0591                	add	a1,a1,4
    8000024c:	00000363          	beqz	zero,80000252 <inst16_s+0x2>

0000000080000250 <inst16_s>:
    80000250:	0589                	add	a1,a1,2
    80000252:	14159073          	csrw	sepc,a1
    80000256:	60a2                	ld	ra,8(sp)
    80000258:	61e2                	ld	gp,24(sp)
    8000025a:	7202                	ld	tp,32(sp)
    8000025c:	72a2                	ld	t0,40(sp)
    8000025e:	7342                	ld	t1,48(sp)
    80000260:	73e2                	ld	t2,56(sp)
    80000262:	6406                	ld	s0,64(sp)
    80000264:	64a6                	ld	s1,72(sp)
    80000266:	6546                	ld	a0,80(sp)
    80000268:	65e6                	ld	a1,88(sp)
    8000026a:	7606                	ld	a2,96(sp)
    8000026c:	76a6                	ld	a3,104(sp)
    8000026e:	7746                	ld	a4,112(sp)
    80000270:	77e6                	ld	a5,120(sp)
    80000272:	680a                	ld	a6,128(sp)
    80000274:	68aa                	ld	a7,136(sp)
    80000276:	694a                	ld	s2,144(sp)
    80000278:	69ea                	ld	s3,152(sp)
    8000027a:	7a0a                	ld	s4,160(sp)
    8000027c:	7aaa                	ld	s5,168(sp)
    8000027e:	7b4a                	ld	s6,176(sp)
    80000280:	7bea                	ld	s7,184(sp)
    80000282:	6c0e                	ld	s8,192(sp)
    80000284:	6cae                	ld	s9,200(sp)
    80000286:	6d4e                	ld	s10,208(sp)
    80000288:	6dee                	ld	s11,216(sp)
    8000028a:	7e0e                	ld	t3,224(sp)
    8000028c:	7eae                	ld	t4,232(sp)
    8000028e:	7f4e                	ld	t5,240(sp)
    80000290:	7fee                	ld	t6,248(sp)
    80000292:	6131                	add	sp,sp,320
    80000294:	10200073          	sret

0000000080000298 <custom_trap_handler>:
    80000298:	7129                	add	sp,sp,-320
    8000029a:	e406                	sd	ra,8(sp)
    8000029c:	ec0e                	sd	gp,24(sp)
    8000029e:	f012                	sd	tp,32(sp)
    800002a0:	f416                	sd	t0,40(sp)
    800002a2:	f81a                	sd	t1,48(sp)
    800002a4:	fc1e                	sd	t2,56(sp)
    800002a6:	e0a2                	sd	s0,64(sp)
    800002a8:	e4a6                	sd	s1,72(sp)
    800002aa:	e8aa                	sd	a0,80(sp)
    800002ac:	ecae                	sd	a1,88(sp)
    800002ae:	f0b2                	sd	a2,96(sp)
    800002b0:	f4b6                	sd	a3,104(sp)
    800002b2:	f8ba                	sd	a4,112(sp)
    800002b4:	fcbe                	sd	a5,120(sp)
    800002b6:	e142                	sd	a6,128(sp)
    800002b8:	e546                	sd	a7,136(sp)
    800002ba:	e94a                	sd	s2,144(sp)
    800002bc:	ed4e                	sd	s3,152(sp)
    800002be:	f152                	sd	s4,160(sp)
    800002c0:	f556                	sd	s5,168(sp)
    800002c2:	f95a                	sd	s6,176(sp)
    800002c4:	fd5e                	sd	s7,184(sp)
    800002c6:	e1e2                	sd	s8,192(sp)
    800002c8:	e5e6                	sd	s9,200(sp)
    800002ca:	e9ea                	sd	s10,208(sp)
    800002cc:	edee                	sd	s11,216(sp)
    800002ce:	f1f2                	sd	t3,224(sp)
    800002d0:	f5f6                	sd	t4,232(sp)
    800002d2:	f9fa                	sd	t5,240(sp)
    800002d4:	fdfe                	sd	t6,248(sp)
    800002d6:	30002573          	csrr	a0,mstatus
    800002da:	34102573          	csrr	a0,mepc
    800002de:	30502573          	csrr	a0,mtvec
    800002e2:	34202573          	csrr	a0,mcause
    800002e6:	4601                	li	a2,0
    800002e8:	00c50763          	beq	a0,a2,800002f6 <custom_trap_handler+0x5e>
    800002ec:	4605                	li	a2,1
    800002ee:	00c50463          	beq	a0,a2,800002f6 <custom_trap_handler+0x5e>
    800002f2:	341025f3          	csrr	a1,mepc
    800002f6:	00059603          	lh	a2,0(a1)
    800002fa:	8a0d                	and	a2,a2,3
    800002fc:	428d                	li	t0,3
    800002fe:	00561563          	bne	a2,t0,80000308 <inst16>

0000000080000302 <inst32>:
    80000302:	0591                	add	a1,a1,4
    80000304:	00000363          	beqz	zero,8000030a <inst16+0x2>

0000000080000308 <inst16>:
    80000308:	0589                	add	a1,a1,2
    8000030a:	34159073          	csrw	mepc,a1
    8000030e:	60a2                	ld	ra,8(sp)
    80000310:	61e2                	ld	gp,24(sp)
    80000312:	7202                	ld	tp,32(sp)
    80000314:	72a2                	ld	t0,40(sp)
    80000316:	7342                	ld	t1,48(sp)
    80000318:	73e2                	ld	t2,56(sp)
    8000031a:	6406                	ld	s0,64(sp)
    8000031c:	64a6                	ld	s1,72(sp)
    8000031e:	6546                	ld	a0,80(sp)
    80000320:	65e6                	ld	a1,88(sp)
    80000322:	7606                	ld	a2,96(sp)
    80000324:	76a6                	ld	a3,104(sp)
    80000326:	7746                	ld	a4,112(sp)
    80000328:	77e6                	ld	a5,120(sp)
    8000032a:	680a                	ld	a6,128(sp)
    8000032c:	68aa                	ld	a7,136(sp)
    8000032e:	694a                	ld	s2,144(sp)
    80000330:	69ea                	ld	s3,152(sp)
    80000332:	7a0a                	ld	s4,160(sp)
    80000334:	7aaa                	ld	s5,168(sp)
    80000336:	7b4a                	ld	s6,176(sp)
    80000338:	7bea                	ld	s7,184(sp)
    8000033a:	6c0e                	ld	s8,192(sp)
    8000033c:	6cae                	ld	s9,200(sp)
    8000033e:	6d4e                	ld	s10,208(sp)
    80000340:	6dee                	ld	s11,216(sp)
    80000342:	7e0e                	ld	t3,224(sp)
    80000344:	7eae                	ld	t4,232(sp)
    80000346:	7f4e                	ld	t5,240(sp)
    80000348:	7fee                	ld	t6,248(sp)
    8000034a:	6131                	add	sp,sp,320
    8000034c:	30200073          	mret

0000000080000350 <func1>:
    80000350:	00000033          	add	zero,zero,zero
    80000354:	8082                	ret
    80000356:	00000013          	nop
    8000035a:	00000013          	nop
    8000035e:	0001                	nop

0000000080000360 <main>:
    80000360:	00000033          	add	zero,zero,zero
    80000364:	00000297          	auipc	t0,0x0
    80000368:	f3428293          	add	t0,t0,-204 # 80000298 <custom_trap_handler>
    8000036c:	30529073          	csrw	mtvec,t0
    80000370:	000e0117          	auipc	sp,0xe0
    80000374:	c9010113          	add	sp,sp,-880 # 800e0000 <begin_signature>
    80000378:	6331                	lui	t1,0xc
    8000037a:	cb83031b          	addw	t1,t1,-840 # bcb8 <_tbss_end+0xbcb8>
    8000037e:	911a                	add	sp,sp,t1

0000000080000380 <i0000000000>:
    80000380:	4ea9                	li	t4,10

0000000080000382 <i0000000001>:
    80000382:	032c6d3b          	remw	s10,s8,s2

0000000080000386 <i0000000002>:
    80000386:	0317d43b          	divuw	s0,a5,a7

000000008000038a <i0000000003>:
    8000038a:	199c                	add	a5,sp,240

000000008000038c <i0000000004>:
    8000038c:	0000100f          	fence.i

0000000080000390 <i0000000005>:
    80000390:	82b12023          	sw	a1,-2016(sp)

0000000080000394 <i0000000006>:
    80000394:	c239fc53          	fcvt.lu.d	s8,fs3

0000000080000398 <i0000000007>:
    80000398:	6c26                	ld	s8,72(sp)

000000008000039a <i0000000008>:
    8000039a:	5c65                	li	s8,-7

000000008000039c <i0000000009>:
    8000039c:	0ff0000f          	fence

00000000800003a0 <i000000000a>:
    800003a0:	8d89                	sub	a1,a1,a0

00000000800003a2 <i000000000b>:
    800003a2:	c02bb353          	fcvt.l.s	t1,fs7,rup

00000000800003a6 <i000000000c>:
    800003a6:	859a                	mv	a1,t1

00000000800003a8 <i000000000d>:
    800003a8:	7159                	add	sp,sp,-112
    800003aa:	4cb1                	li	s9,12
    800003ac:	0e85                	add	t4,t4,1
    800003ae:	b026                	fsd	fs1,32(sp)
    800003b0:	d2247bd3          	fcvt.d.l	fs7,s0
    800003b4:	d02c44d3          	fcvt.s.l	fs1,s8,rmm
    800003b8:	c2367d53          	fcvt.lu.d	s10,fa2
    800003bc:	81a12e2f          	amomin.w	t3,s10,(sp)
    800003c0:	0000100f          	fence.i
    800003c4:	7a013903          	ld	s2,1952(sp)

00000000800003c8 <b000000000e>:
    800003c8:	019e8863          	beq	t4,s9,800003d8 <b000000000e+0x10>
    800003cc:	00000c97          	auipc	s9,0x0
    800003d0:	fc8c8c93          	add	s9,s9,-56 # 80000394 <i0000000006>
    800003d4:	000c80e7          	jalr	s9
    800003d8:	4ea9                	li	t4,10
    800003da:	027bc93b          	divw	s2,s7,t2
    800003de:	d22770d3          	fcvt.d.l	ft1,a4
    800003e2:	da22                	sw	s0,52(sp)
    800003e4:	016dde3b          	srlw	t3,s11,s6
    800003e8:	818128af          	amomin.w	a7,s8,(sp)
    800003ec:	8c52                	mv	s8,s4
    800003ee:	07ba                	sll	a5,a5,0xe

00000000800003f0 <i000000000e>:
    800003f0:	8081262f          	amomin.w	a2,s0,(sp)

00000000800003f4 <i000000000f>:
    800003f4:	4012f2d3          	fcvt.s.d	ft5,ft5

00000000800003f8 <i0000000010>:
    800003f8:	5926                	lw	s2,104(sp)

00000000800003fa <i0000000011>:
    800003fa:	023ddc3b          	divuw	s8,s11,gp

00000000800003fe <i0000000012>:
    800003fe:	c23676d3          	fcvt.lu.d	a3,fa2

0000000080000402 <i0000000013>:
    80000402:	a4a6                	fsd	fs1,72(sp)

0000000080000404 <i0000000014>:
    80000404:	03b59293          	sll	t0,a1,0x3b

0000000080000408 <i0000000015>:
    80000408:	a0912e2f          	amomax.w	t3,s1,(sp)

000000008000040c <i0000000016>:
    8000040c:	7135                	add	sp,sp,-160

000000008000040e <i0000000017>:
    8000040e:	e6513c23          	sd	t0,-392(sp)

0000000080000412 <i0000000018>:
    80000412:	0198                	add	a4,sp,192

0000000080000414 <i0000000019>:
    80000414:	8d05                	sub	a0,a0,s1

0000000080000416 <i000000001a>:
    80000416:	52430db7          	lui	s11,0x52430
    8000041a:	4ca5                	li	s9,9
    8000041c:	4ea9                	li	t4,10
    8000041e:	000e0117          	auipc	sp,0xe0
    80000422:	be210113          	add	sp,sp,-1054 # 800e0000 <begin_signature>
    80000426:	6319                	lui	t1,0x6
    80000428:	f403031b          	addw	t1,t1,-192 # 5f40 <_tbss_end+0x5f40>
    8000042c:	911a                	add	sp,sp,t1
    8000042e:	09f1382f          	amoswap.d	a6,t6,(sp)
    80000432:	0000100f          	fence.i
    80000436:	0ff0000f          	fence
    8000043a:	f2080153          	fmv.d.x	ft2,a6
    8000043e:	9c1d                	subw	s0,s0,a5
    80000440:	e2068753          	fmv.x.d	a4,fa3
    80000444:	bd1c0f9b          	addw	t6,s8,-1071

0000000080000448 <b000000001b>:
    80000448:	00000033          	add	zero,zero,zero
    8000044c:	039ece63          	blt	t4,s9,80000488 <i0000000022>
    80000450:	00000033          	add	zero,zero,zero
    80000454:	1a2af7d3          	fdiv.d	fa5,fs5,ft2
    80000458:	8ffd                	and	a5,a5,a5
    8000045a:	030b01bb          	mulw	gp,s6,a6
    8000045e:	c6713c23          	sd	t2,-904(sp)
    80000462:	5b812c23          	sw	s8,1464(sp)
    80000466:	5752                	lw	a4,52(sp)
    80000468:	0bdc                	add	a5,sp,468
    8000046a:	4ea9                	li	t4,10

000000008000046c <i000000001b>:
    8000046c:	03ad59b3          	divu	s3,s10,s10

0000000080000470 <i000000001c>:
    80000470:	0341dd3b          	divuw	s10,gp,s4

0000000080000474 <i000000001d>:
    80000474:	c0293453          	fcvt.l.s	s0,fs2,rup

0000000080000478 <i000000001e>:
    80000478:	0000100f          	fence.i

000000008000047c <i000000001f>:
    8000047c:	d23874d3          	fcvt.d.lu	fs1,a6

0000000080000480 <i0000000020>:
    80000480:	c0911c23          	sh	s1,-1000(sp)

0000000080000484 <i0000000021>:
    80000484:	c0329b53          	fcvt.lu.s	s6,ft5,rtz

0000000080000488 <i0000000022>:
    80000488:	c02e7553          	fcvt.l.s	a0,ft8

000000008000048c <i0000000023>:
    8000048c:	9e813503          	ld	a0,-1560(sp)

0000000080000490 <i0000000024>:
    80000490:	6446                	ld	s0,80(sp)

0000000080000492 <i0000000025>:
    80000492:	408c553b          	sraw	a0,s8,s0

0000000080000496 <i0000000026>:
    80000496:	80d1322f          	amomin.d	tp,a3,(sp)

000000008000049a <i0000000027>:
    8000049a:	0921272f          	amoswap.w	a4,s2,(sp)
    8000049e:	b1513823          	sd	s5,-1264(sp)
    800004a2:	91da                	add	gp,gp,s6
    800004a4:	43a75013          	sra	zero,a4,0x3a
    800004a8:	7129                	add	sp,sp,-320
    800004aa:	d01c39d3          	fcvt.s.wu	fs3,s8,rup
    800004ae:	00ec31b3          	sltu	gp,s8,a4
    800004b2:	0381d93b          	divuw	s2,gp,s8

00000000800004b6 <b0000000028>:
    800004b6:	0420006f          	j	800004f8 <i000000002e>
    800004ba:	014acfb3          	xor	t6,s5,s4
    800004be:	d221fe53          	fcvt.d.l	ft8,gp
    800004c2:	03297c3b          	remuw	s8,s2,s2
    800004c6:	fcbe                	sd	a5,120(sp)
    800004c8:	0297c433          	div	s0,a5,s1
    800004cc:	e1012823          	sw	a6,-496(sp)
    800004d0:	2b0a                	fld	fs6,128(sp)

00000000800004d2 <i0000000028>:
    800004d2:	f3a52c13          	slti	s8,a0,-198

00000000800004d6 <i0000000029>:
    800004d6:	01842533          	slt	a0,s0,s8

00000000800004da <i000000002a>:
    800004da:	018c0433          	add	s0,s8,s8

00000000800004de <i000000002b>:
    800004de:	09e12d2f          	amoswap.w	s10,t5,(sp)

00000000800004e2 <i000000002c>:
    800004e2:	646a                	ld	s0,152(sp)

00000000800004e4 <i000000002d>:
    800004e4:	56327613          	and	a2,tp,1379
    800004e8:	000e0117          	auipc	sp,0xe0
    800004ec:	b1810113          	add	sp,sp,-1256 # 800e0000 <begin_signature>
    800004f0:	630d                	lui	t1,0x3
    800004f2:	7083031b          	addw	t1,t1,1800 # 3708 <_tbss_end+0x3708>
    800004f6:	911a                	add	sp,sp,t1

00000000800004f8 <i000000002e>:
    800004f8:	acca                	fsd	fs2,88(sp)

00000000800004fa <i000000002f>:
    800004fa:	c232                	sw	a2,4(sp)

00000000800004fc <i0000000030>:
    800004fc:	0000100f          	fence.i

0000000080000500 <i0000000031>:
    80000500:	00235073          	fsrmi	zero,6

0000000080000504 <i0000000032>:
    80000504:	f20d0e53          	fmv.d.x	ft8,s10

0000000080000508 <i0000000033>:
    80000508:	6f86                	ld	t6,64(sp)

000000008000050a <i0000000034>:
    8000050a:	0120                	add	s0,sp,136

000000008000050c <i0000000035>:
    8000050c:	a3c2a553          	feq.d	a0,ft5,ft8
    80000510:	4aad                	li	s5,11
    80000512:	4ea9                	li	t4,10
    80000514:	000e0117          	auipc	sp,0xe0
    80000518:	aec10113          	add	sp,sp,-1300 # 800e0000 <begin_signature>
    8000051c:	6309                	lui	t1,0x2
    8000051e:	3b03031b          	addw	t1,t1,944 # 23b0 <_tbss_end+0x23b0>
    80000522:	911a                	add	sp,sp,t1
    80000524:	3f6a                	fld	ft10,184(sp)
    80000526:	12e0                	add	s0,sp,364
    80000528:	0000100f          	fence.i
    8000052c:	c1b1342f          	amominu.d	s0,s11,(sp)
    80000530:	0000100f          	fence.i
    80000534:	bd016e03          	lwu	t3,-1072(sp)
    80000538:	6a013c23          	sd	zero,1720(sp)

000000008000053c <b0000000036>:
    8000053c:	00000033          	add	zero,zero,zero
    80000540:	05dad063          	bge	s5,t4,80000580 <i000000003b>
    80000544:	00000033          	add	zero,zero,zero
    80000548:	01713faf          	amoadd.d	t6,s7,(sp)
    8000054c:	f9d2                	sd	s4,240(sp)
    8000054e:	e20004d3          	fmv.x.d	s1,ft0
    80000552:	9c81                	subw	s1,s1,s0
    80000554:	c222f4d3          	fcvt.l.d	s1,ft5
    80000558:	d234f7d3          	fcvt.d.lu	fa5,s1
    8000055c:	acb2                	fsd	fa2,88(sp)
    8000055e:	4ea9                	li	t4,10

0000000080000560 <i0000000036>:
    80000560:	5c810fa3          	sb	s0,1503(sp)

0000000080000564 <i0000000037>:
    80000564:	0000100f          	fence.i

0000000080000568 <i0000000038>:
    80000568:	292e                	fld	fs2,200(sp)

000000008000056a <i0000000039>:
    8000056a:	a9a13823          	sd	s10,-1392(sp)
    8000056e:	000e0117          	auipc	sp,0xe0
    80000572:	a9210113          	add	sp,sp,-1390 # 800e0000 <begin_signature>
    80000576:	6305                	lui	t1,0x1
    80000578:	7783031b          	addw	t1,t1,1912 # 1778 <_tbss_end+0x1778>
    8000057c:	911a                	add	sp,sp,t1

000000008000057e <i000000003a>:
    8000057e:	a096                	fsd	ft5,64(sp)

0000000080000580 <i000000003b>:
    80000580:	d22271d3          	fcvt.d.l	ft3,tp

0000000080000584 <i000000003c>:
    80000584:	0ff0000f          	fence

0000000080000588 <i000000003d>:
    80000588:	d2247fd3          	fcvt.d.l	ft11,s0

000000008000058c <i000000003e>:
    8000058c:	d02c7e53          	fcvt.s.l	ft8,s8

0000000080000590 <i000000003f>:
    80000590:	0316ecb3          	rem	s9,a3,a7

0000000080000594 <i0000000040>:
    80000594:	03857d3b          	remuw	s10,a0,s8

0000000080000598 <i0000000041>:
    80000598:	e8b6                	sd	a3,80(sp)

000000008000059a <i0000000042>:
    8000059a:	f8ba                	sd	a4,112(sp)

000000008000059c <i0000000043>:
    8000059c:	1161                	add	sp,sp,-8
    8000059e:	e40e                	sd	gp,8(sp)
    800005a0:	4181                	li	gp,0
    800005a2:	00318023          	sb	gp,0(gp)
    800005a6:	61a2                	ld	gp,8(sp)
    800005a8:	0121                	add	sp,sp,8
    800005aa:	000e0117          	auipc	sp,0xe0
    800005ae:	a5610113          	add	sp,sp,-1450 # 800e0000 <begin_signature>
    800005b2:	6309                	lui	t1,0x2
    800005b4:	4d83031b          	addw	t1,t1,1240 # 24d8 <_tbss_end+0x24d8>
    800005b8:	911a                	add	sp,sp,t1
    800005ba:	241d                	addw	s0,s0,7
    800005bc:	96010403          	lb	s0,-1696(sp)
    800005c0:	03ac01b3          	mul	gp,s8,s10
    800005c4:	037e04b3          	mul	s1,t3,s7
    800005c8:	0000100f          	fence.i
    800005cc:	6c65                	lui	s8,0x19
    800005ce:	008d5d3b          	srlw	s10,s10,s0

00000000800005d2 <b0000000044>:
    800005d2:	0320006f          	j	80000604 <i000000004a>
    800005d6:	61813e2f          	amoand.d	t3,s8,(sp)
    800005da:	4462                	lw	s0,24(sp)
    800005dc:	9ca5                	addw	s1,s1,s1
    800005de:	01ce5d33          	srl	s10,t3,t3
    800005e2:	d03ca9d3          	fcvt.s.lu	fs3,s9,rdn
    800005e6:	c232fdd3          	fcvt.lu.d	s11,ft5
    800005ea:	01d89d13          	sll	s10,a7,0x1d

00000000800005ee <i0000000044>:
    800005ee:	a13e                	fsd	fa5,128(sp)

00000000800005f0 <i0000000045>:
    800005f0:	c02d1953          	fcvt.l.s	s2,fs10,rtz

00000000800005f4 <i0000000046>:
    800005f4:	0000100f          	fence.i

00000000800005f8 <i0000000047>:
    800005f8:	031d5a3b          	divuw	s4,s10,a7

00000000800005fc <i0000000048>:
    800005fc:	c2847f43          	fmadd.d	ft10,fs0,fs0,fs8

0000000080000600 <i0000000049>:
    80000600:	73416c03          	lwu	s8,1844(sp)

0000000080000604 <i000000004a>:
    80000604:	5c713023          	sd	t2,1472(sp)

0000000080000608 <i000000004b>:
    80000608:	0ff0000f          	fence

000000008000060c <i000000004c>:
    8000060c:	d02c7153          	fcvt.s.l	ft2,s8

0000000080000610 <i000000004d>:
    80000610:	711d                	add	sp,sp,-96

0000000080000612 <i000000004e>:
    80000612:	3c2e                	fld	fs8,232(sp)

0000000080000614 <i000000004f>:
    80000614:	b348714f          	fnmadd.d	ft2,fa6,fs4,fs6

0000000080000618 <i0000000050>:
    80000618:	228e                	fld	ft5,192(sp)
    8000061a:	4ba5                	li	s7,9
    8000061c:	000e0117          	auipc	sp,0xe0
    80000620:	9e410113          	add	sp,sp,-1564 # 800e0000 <begin_signature>
    80000624:	631d                	lui	t1,0x7
    80000626:	1c83031b          	addw	t1,t1,456 # 71c8 <_tbss_end+0x71c8>
    8000062a:	911a                	add	sp,sp,t1
    8000062c:	5442                	lw	s0,48(sp)
    8000062e:	036751b3          	divu	gp,a4,s6
    80000632:	03f8ec3b          	remw	s8,a7,t6
    80000636:	1220                	add	s0,sp,296
    80000638:	65812223          	sw	s8,1604(sp)
    8000063c:	2a528e53          	fmin.d	ft8,ft5,ft5
    80000640:	03ad03b3          	mul	t2,s10,s10

0000000080000644 <b0000000051>:
    80000644:	00000033          	add	zero,zero,zero
    80000648:	fbdbdee3          	bge	s7,t4,80000604 <i000000004a>
    8000064c:	00000033          	add	zero,zero,zero
    80000650:	00700fbb          	addw	t6,zero,t2
    80000654:	33ce                	fld	ft7,240(sp)
    80000656:	c0e1342f          	amominu.d	s0,a4,(sp)
    8000065a:	2b5807d3          	fmin.d	fa5,fa6,fs5
    8000065e:	7f512823          	sw	s5,2032(sp)
    80000662:	e0029453          	fclass.s	s0,ft5
    80000666:	0000100f          	fence.i
    8000066a:	4ea9                	li	t4,10

000000008000066c <i0000000051>:
    8000066c:	00235073          	fsrmi	zero,6

0000000080000670 <i0000000052>:
    80000670:	217f9453          	fsgnjn.s	fs0,ft11,fs7

0000000080000674 <i0000000053>:
    80000674:	9c29                	addw	s0,s0,a0

0000000080000676 <i0000000054>:
    80000676:	01da5413          	srl	s0,s4,0x1d

000000008000067a <i0000000055>:
    8000067a:	6722                	ld	a4,8(sp)

000000008000067c <i0000000056>:
    8000067c:	31157e13          	and	t3,a0,785

0000000080000680 <i0000000057>:
    80000680:	85fd                	sra	a1,a1,0x1f

0000000080000682 <i0000000058>:
    80000682:	7f013503          	ld	a0,2032(sp)

0000000080000686 <i0000000059>:
    80000686:	6442                	ld	s0,16(sp)

0000000080000688 <i000000005a>:
    80000688:	2a5295d3          	fmax.d	fa1,ft5,ft5

000000008000068c <i000000005b>:
    8000068c:	030a3433          	mulhu	s0,s4,a6

0000000080000690 <i000000005c>:
    80000690:	c212                	sw	tp,4(sp)

0000000080000692 <i000000005d>:
    80000692:	40a12caf          	amoor.w	s9,a0,(sp)

0000000080000696 <i000000005e>:
    80000696:	1141                	add	sp,sp,-16
    80000698:	4aa5                	li	s5,9
    8000069a:	4ea9                	li	t4,10
    8000069c:	000e0117          	auipc	sp,0xe0
    800006a0:	96410113          	add	sp,sp,-1692 # 800e0000 <begin_signature>
    800006a4:	6315                	lui	t1,0x5
    800006a6:	5c03031b          	addw	t1,t1,1472 # 55c0 <_tbss_end+0x55c0>
    800006aa:	911a                	add	sp,sp,t1
    800006ac:	21313a2f          	amoxor.d	s4,s3,(sp)
    800006b0:	2d811003          	lh	zero,728(sp)
    800006b4:	0a3c                	add	a5,sp,280
    800006b6:	d422                	sw	s0,40(sp)
    800006b8:	78c12c03          	lw	s8,1932(sp)
    800006bc:	5472                	lw	s0,60(sp)
    800006be:	80cd                	srl	s1,s1,0x13

00000000800006c0 <b000000005f>:
    800006c0:	00000033          	add	zero,zero,zero
    800006c4:	055ec063          	blt	t4,s5,80000704 <i0000000065>
    800006c8:	00000033          	add	zero,zero,zero
    800006cc:	0000100f          	fence.i
    800006d0:	5c2d                	li	s8,-21
    800006d2:	0991342f          	amoswap.d	s0,s9,(sp)
    800006d6:	01a0                	add	s0,sp,200
    800006d8:	0398                	add	a4,sp,448
    800006da:	e0312c2f          	amomaxu.w	s8,gp,(sp)
    800006de:	8c41                	or	s0,s0,s0
    800006e0:	4ea9                	li	t4,10

00000000800006e2 <i000000005f>:
    800006e2:	8535                	sra	a0,a0,0xd

00000000800006e4 <i0000000060>:
    800006e4:	650a                	ld	a0,128(sp)

00000000800006e6 <i0000000061>:
    800006e6:	c2327753          	fcvt.lu.d	a4,ft4

00000000800006ea <i0000000062>:
    800006ea:	de813287          	fld	ft5,-536(sp)
    800006ee:	000e0117          	auipc	sp,0xe0
    800006f2:	91210113          	add	sp,sp,-1774 # 800e0000 <begin_signature>
    800006f6:	6309                	lui	t1,0x2
    800006f8:	a603031b          	addw	t1,t1,-1440 # 1a60 <_tbss_end+0x1a60>
    800006fc:	911a                	add	sp,sp,t1

00000000800006fe <i0000000063>:
    800006fe:	a1816283          	lwu	t0,-1512(sp)

0000000080000702 <i0000000064>:
    80000702:	3926                	fld	fs2,104(sp)

0000000080000704 <i0000000065>:
    80000704:	0462                	sll	s0,s0,0x18

0000000080000706 <i0000000066>:
    80000706:	0000100f          	fence.i

000000008000070a <i0000000067>:
    8000070a:	027f7433          	remu	s0,t5,t2

000000008000070e <i0000000068>:
    8000070e:	dc412787          	flw	fa5,-572(sp)

0000000080000712 <i0000000069>:
    80000712:	9d01                	subw	a0,a0,s0

0000000080000714 <i000000006a>:
    80000714:	0e815203          	lhu	tp,232(sp)

0000000080000718 <i000000006b>:
    80000718:	006c1413          	sll	s0,s8,0x6

000000008000071c <i000000006c>:
    8000071c:	c35ff0ef          	jal	80000350 <func1>
    80000720:	48a9                	li	a7,10
    80000722:	60012d2f          	amoand.w	s10,zero,(sp)
    80000726:	73311723          	sh	s3,1838(sp)
    8000072a:	b836                	fsd	fa3,48(sp)
    8000072c:	7131                	add	sp,sp,-192
    8000072e:	b03e                	fsd	fa5,32(sp)
    80000730:	848d                	sra	s1,s1,0x3
    80000732:	46013483          	ld	s1,1120(sp)

0000000080000736 <b000000006d>:
    80000736:	00000033          	add	zero,zero,zero
    8000073a:	051e8063          	beq	t4,a7,8000077a <i0000000075>
    8000073e:	00000033          	add	zero,zero,zero
    80000742:	8081242f          	amomin.w	s0,s0,(sp)
    80000746:	a1fda253          	feq.s	tp,fs11,ft11
    8000074a:	03696c33          	rem	s8,s2,s6
    8000074e:	f20d81d3          	fmv.d.x	ft3,s11
    80000752:	0367593b          	divuw	s2,a4,s6
    80000756:	045a                	sll	s0,s0,0x16
    80000758:	7d816d03          	lwu	s10,2008(sp)
    8000075c:	4ea9                	li	t4,10

000000008000075e <i000000006d>:
    8000075e:	64c16d03          	lwu	s10,1612(sp)

0000000080000762 <i000000006e>:
    80000762:	d0202e53          	fcvt.s.l	ft8,zero,rdn

0000000080000766 <i000000006f>:
    80000766:	02a56f3b          	remw	t5,a0,a0

000000008000076a <i0000000070>:
    8000076a:	7119                	add	sp,sp,-128

000000008000076c <i0000000071>:
    8000076c:	285916d3          	fmax.s	fa3,fs2,ft5

0000000080000770 <i0000000072>:
    80000770:	a9ca                	fsd	fs2,208(sp)

0000000080000772 <i0000000073>:
    80000772:	60e127af          	amoand.w	a5,a4,(sp)

0000000080000776 <i0000000074>:
    80000776:	0000100f          	fence.i

000000008000077a <i0000000075>:
    8000077a:	c034f253          	fcvt.lu.s	tp,fs1

000000008000077e <i0000000076>:
    8000077e:	c21ff453          	fcvt.wu.d	s0,ft11

0000000080000782 <i0000000077>:
    80000782:	60c13c2f          	amoand.d	s8,a2,(sp)

0000000080000786 <i0000000078>:
    80000786:	9c25                	addw	s0,s0,s1

0000000080000788 <i0000000079>:
    80000788:	02cc8533          	mul	a0,s9,a2
    8000078c:	4d2d                	li	s10,11
    8000078e:	0e85                	add	t4,t4,1
    80000790:	000e0117          	auipc	sp,0xe0
    80000794:	87010113          	add	sp,sp,-1936 # 800e0000 <begin_signature>
    80000798:	6305                	lui	t1,0x1
    8000079a:	aa03031b          	addw	t1,t1,-1376 # aa0 <_tbss_end+0xaa0>
    8000079e:	911a                	add	sp,sp,t1
    800007a0:	7726                	ld	a4,104(sp)
    800007a2:	d03428d3          	fcvt.s.lu	fa7,s0,rdn
    800007a6:	4ac6                	lw	s5,80(sp)
    800007a8:	02ec6c33          	rem	s8,s8,a4
    800007ac:	5732                	lw	a4,44(sp)
    800007ae:	03845abb          	divuw	s5,s0,s8
    800007b2:	e5ba                	sd	a4,200(sp)

00000000800007b4 <b000000007a>:
    800007b4:	00000033          	add	zero,zero,zero
    800007b8:	fbae8fe3          	beq	t4,s10,80000776 <i0000000074>
    800007bc:	00000033          	add	zero,zero,zero
    800007c0:	29ce31cb          	fnmsub.s	ft3,ft8,ft8,ft5,rup
    800007c4:	34114b03          	lbu	s6,833(sp)
    800007c8:	00bc5493          	srl	s1,s8,0xb
    800007cc:	a8a2                	fsd	fs0,80(sp)
    800007ce:	0000100f          	fence.i
    800007d2:	c1413e2f          	amominu.d	t3,s4,(sp)
    800007d6:	e2068853          	fmv.x.d	a6,fa3
    800007da:	4ea9                	li	t4,10

00000000800007dc <i000000007a>:
    800007dc:	8161                	srl	a0,a0,0x18

00000000800007de <i000000007b>:
    800007de:	4412                	lw	s0,4(sp)

00000000800007e0 <i000000007c>:
    800007e0:	13fc                	add	a5,sp,492

00000000800007e2 <i000000007d>:
    800007e2:	8081352f          	amomin.d	a0,s0,(sp)

00000000800007e6 <i000000007e>:
    800007e6:	a822                	fsd	fs0,16(sp)

00000000800007e8 <i000000007f>:
    800007e8:	0ff0000f          	fence

00000000800007ec <i0000000080>:
    800007ec:	0ff0000f          	fence

00000000800007f0 <i0000000081>:
    800007f0:	e0a1352f          	amomaxu.d	a0,a0,(sp)

00000000800007f4 <i0000000082>:
    800007f4:	03856433          	rem	s0,a0,s8

00000000800007f8 <i0000000083>:
    800007f8:	d03532d3          	fcvt.s.lu	ft5,a0,rup

00000000800007fc <i0000000084>:
    800007fc:	0ff0000f          	fence

0000000080000800 <i0000000085>:
    80000800:	0ff0000f          	fence

0000000080000804 <i0000000086>:
    80000804:	82013423          	sd	zero,-2008(sp)
    80000808:	48a5                	li	a7,9
    8000080a:	000df117          	auipc	sp,0xdf
    8000080e:	7f610113          	add	sp,sp,2038 # 800e0000 <begin_signature>
    80000812:	631d                	lui	t1,0x7
    80000814:	da03031b          	addw	t1,t1,-608 # 6da0 <_tbss_end+0x6da0>
    80000818:	911a                	add	sp,sp,t1
    8000081a:	11dc                	add	a5,sp,228
    8000081c:	4412                	lw	s0,4(sp)
    8000081e:	20f1342f          	amoxor.d	s0,a5,(sp)
    80000822:	e20f8853          	fmv.x.d	a6,ft11
    80000826:	bc3a                	fsd	fa4,56(sp)
    80000828:	a2713023          	sd	t2,-1504(sp)
    8000082c:	036ded3b          	remw	s10,s11,s6

0000000080000830 <b0000000087>:
    80000830:	00000033          	add	zero,zero,zero
    80000834:	fd1ec0e3          	blt	t4,a7,800007f4 <i0000000082>
    80000838:	00000033          	add	zero,zero,zero
    8000083c:	028c51b3          	divu	gp,s8,s0
    80000840:	c02b9c53          	fcvt.l.s	s8,fs7,rtz
    80000844:	231fa253          	fsgnjx.d	ft4,ft11,fa7
    80000848:	9f85                	subw	a5,a5,s1
    8000084a:	21a127af          	amoxor.w	a5,s10,(sp)
    8000084e:	41f12c2f          	amoor.w	s8,t6,(sp)
    80000852:	007ad413          	srl	s0,s5,0x7
    80000856:	4ea9                	li	t4,10
    80000858:	000df117          	auipc	sp,0xdf
    8000085c:	7a810113          	add	sp,sp,1960 # 800e0000 <begin_signature>
    80000860:	6305                	lui	t1,0x1
    80000862:	4e83031b          	addw	t1,t1,1256 # 14e8 <_tbss_end+0x14e8>
    80000866:	911a                	add	sp,sp,t1

0000000080000868 <i0000000087>:
    80000868:	650e                	ld	a0,192(sp)

000000008000086a <i0000000088>:
    8000086a:	d1c16503          	lwu	a0,-740(sp)

000000008000086e <i0000000089>:
    8000086e:	7522                	ld	a0,40(sp)

0000000080000870 <i000000008a>:
    80000870:	0000100f          	fence.i

0000000080000874 <i000000008b>:
    80000874:	55a6                	lw	a1,104(sp)

0000000080000876 <i000000008c>:
    80000876:	80812faf          	amomin.w	t6,s0,(sp)

000000008000087a <i000000008d>:
    8000087a:	8c09                	sub	s0,s0,a0

000000008000087c <i000000008e>:
    8000087c:	2626                	fld	fa2,72(sp)

000000008000087e <i000000008f>:
    8000087e:	79012423          	sw	a6,1928(sp)

0000000080000882 <i0000000090>:
    80000882:	95c12c03          	lw	s8,-1700(sp)

0000000080000886 <i0000000091>:
    80000886:	4008dd3b          	sraw	s10,a7,zero

000000008000088a <i0000000092>:
    8000088a:	8081252f          	amomin.w	a0,s0,(sp)

000000008000088e <i0000000093>:
    8000088e:	b0be                	fsd	fa5,96(sp)
    80000890:	4ab1                	li	s5,12
    80000892:	0e85                	add	t4,t4,1
    80000894:	000df117          	auipc	sp,0xdf
    80000898:	76c10113          	add	sp,sp,1900 # 800e0000 <begin_signature>
    8000089c:	6331                	lui	t1,0xc
    8000089e:	2283031b          	addw	t1,t1,552 # c228 <_tbss_end+0xc228>
    800008a2:	911a                	add	sp,sp,t1
    800008a4:	d0024453          	fcvt.s.w	fs0,tp,rmm
    800008a8:	8e8104a3          	sb	s0,-1815(sp)
    800008ac:	3aea                	fld	fs5,184(sp)
    800008ae:	9cb9                	addw	s1,s1,a4
    800008b0:	3602                	fld	fa2,32(sp)
    800008b2:	dee12423          	sw	a4,-536(sp)
    800008b6:	54b0041b          	addw	s0,zero,1355

00000000800008ba <b0000000094>:
    800008ba:	015e8863          	beq	t4,s5,800008ca <b0000000094+0x10>
    800008be:	00000a97          	auipc	s5,0x0
    800008c2:	fc0a8a93          	add	s5,s5,-64 # 8000087e <i000000008f>
    800008c6:	000a8567          	jalr	a0,s5
    800008ca:	4ea9                	li	t4,10
    800008cc:	62611703          	lh	a4,1574(sp)
    800008d0:	9d740d1b          	addw	s10,s0,-1577
    800008d4:	028c5d3b          	divuw	s10,s8,s0
    800008d8:	0308da3b          	divuw	s4,a7,a6
    800008dc:	02845d3b          	divuw	s10,s0,s0
    800008e0:	4181382f          	amoor.d	a6,s8,(sp)
    800008e4:	50e11d23          	sh	a4,1306(sp)

00000000800008e8 <i0000000094>:
    800008e8:	0ff0000f          	fence

00000000800008ec <i0000000095>:
    800008ec:	83a9                	srl	a5,a5,0xa

00000000800008ee <i0000000096>:
    800008ee:	c0291553          	fcvt.l.s	a0,fs2,rtz

00000000800008f2 <i0000000097>:
    800008f2:	0ff0000f          	fence
    800008f6:	000df117          	auipc	sp,0xdf
    800008fa:	70a10113          	add	sp,sp,1802 # 800e0000 <begin_signature>
    800008fe:	631d                	lui	t1,0x7
    80000900:	2361                	addw	t1,t1,24 # 7018 <_tbss_end+0x7018>
    80000902:	911a                	add	sp,sp,t1

0000000080000904 <i0000000098>:
    80000904:	2d012403          	lw	s0,720(sp)

0000000080000908 <i0000000099>:
    80000908:	d02a3953          	fcvt.s.l	fs2,s4,rup

000000008000090c <i000000009a>:
    8000090c:	c031222f          	amominu.w	tp,gp,(sp)

0000000080000910 <i000000009b>:
    80000910:	c0270c53          	fcvt.l.s	s8,fa4,rne

0000000080000914 <i000000009c>:
    80000914:	7105                	add	sp,sp,-480

0000000080000916 <i000000009d>:
    80000916:	a1812d2f          	amomax.w	s10,s8,(sp)

000000008000091a <i000000009e>:
    8000091a:	a3df9c53          	flt.d	s8,ft11,ft9

000000008000091e <i000000009f>:
    8000091e:	a1ba                	fsd	fa4,192(sp)

0000000080000920 <i00000000a0>:
    80000920:	2bce7943          	fmadd.d	fs2,ft8,ft8,ft5
    80000924:	4c2d                	li	s8,11
    80000926:	4ea9                	li	t4,10
    80000928:	000df117          	auipc	sp,0xdf
    8000092c:	6d810113          	add	sp,sp,1752 # 800e0000 <begin_signature>
    80000930:	6315                	lui	t1,0x5
    80000932:	d483031b          	addw	t1,t1,-696 # 4d48 <_tbss_end+0x4d48>
    80000936:	911a                	add	sp,sp,t1
    80000938:	c102                	sw	zero,128(sp)
    8000093a:	e8419547          	fmsub.s	fa0,ft3,ft4,ft9,rtz
    8000093e:	7131                	add	sp,sp,-192
    80000940:	93297143          	fmadd.d	ft2,fs2,fs2,fs2
    80000944:	a596                	fsd	ft5,200(sp)
    80000946:	6782                	ld	a5,0(sp)
    80000948:	8d5e                	mv	s10,s7

000000008000094a <b00000000a1>:
    8000094a:	00000033          	add	zero,zero,zero
    8000094e:	038e9e63          	bne	t4,s8,8000098a <i00000000a8>
    80000952:	00000033          	add	zero,zero,zero
    80000956:	10590fcf          	fnmadd.s	ft11,fs2,ft5,ft2,rne
    8000095a:	61113a2f          	amoand.d	s4,a7,(sp)
    8000095e:	0ff0000f          	fence
    80000962:	dc3a                	sw	a4,56(sp)
    80000964:	b83e                	fsd	fa5,48(sp)
    80000966:	2731                	addw	a4,a4,12
    80000968:	2c46                	fld	fs8,80(sp)
    8000096a:	4ea9                	li	t4,10

000000008000096c <i00000000a1>:
    8000096c:	c0171f53          	fcvt.wu.s	t5,fa4,rtz

0000000080000970 <i00000000a2>:
    80000970:	1161                	add	sp,sp,-8
    80000972:	e432                	sd	a2,8(sp)
    80000974:	00116603          	lwu	a2,1(sp)
    80000978:	6622                	ld	a2,8(sp)
    8000097a:	0121                	add	sp,sp,8

000000008000097c <i00000000a3>:
    8000097c:	c02e1453          	fcvt.l.s	s0,ft8,rtz

0000000080000980 <i00000000a4>:
    80000980:	bcba                	fsd	fa4,120(sp)

0000000080000982 <i00000000a5>:
    80000982:	f822                	sd	s0,48(sp)

0000000080000984 <i00000000a6>:
    80000984:	e8aa                	sd	a0,80(sp)

0000000080000986 <i00000000a7>:
    80000986:	cc016603          	lwu	a2,-832(sp)

000000008000098a <i00000000a8>:
    8000098a:	c22afdd3          	fcvt.l.d	s11,fs5

000000008000098e <i00000000a9>:
    8000098e:	02327b53          	fadd.d	fs6,ft4,ft3

0000000080000992 <i00000000aa>:
    80000992:	0081302f          	amoadd.d	zero,s0,(sp)

0000000080000996 <i00000000ab>:
    80000996:	03841433          	mulh	s0,s0,s8

000000008000099a <i00000000ac>:
    8000099a:	fdde                	sd	s7,248(sp)

000000008000099c <i00000000ad>:
    8000099c:	8e22                	mv	t3,s0

000000008000099e <i00000000ae>:
    8000099e:	02786d3b          	remw	s10,a6,t2
    800009a2:	4da5                	li	s11,9
    800009a4:	4ea9                	li	t4,10
    800009a6:	000df117          	auipc	sp,0xdf
    800009aa:	65a10113          	add	sp,sp,1626 # 800e0000 <begin_signature>
    800009ae:	6309                	lui	t1,0x2
    800009b0:	b983031b          	addw	t1,t1,-1128 # 1b98 <_tbss_end+0x1b98>
    800009b4:	911a                	add	sp,sp,t1
    800009b6:	000df117          	auipc	sp,0xdf
    800009ba:	64a10113          	add	sp,sp,1610 # 800e0000 <begin_signature>
    800009be:	6315                	lui	t1,0x5
    800009c0:	6503031b          	addw	t1,t1,1616 # 5650 <_tbss_end+0x5650>
    800009c4:	911a                	add	sp,sp,t1
    800009c6:	028d7bbb          	remuw	s7,s10,s0
    800009ca:	6436                	ld	s0,328(sp)
    800009cc:	2762                	fld	fa4,24(sp)
    800009ce:	4011fe53          	fcvt.s.d	ft8,ft3
    800009d2:	2068a4d3          	fsgnjx.s	fs1,fa7,ft6
    800009d6:	23c90953          	fsgnj.d	fs2,fs2,ft8
    800009da:	0353fd3b          	remuw	s10,t2,s5

00000000800009de <b00000000af>:
    800009de:	00000033          	add	zero,zero,zero
    800009e2:	05bec163          	blt	t4,s11,80000a24 <i00000000b4>
    800009e6:	00000033          	add	zero,zero,zero
    800009ea:	e0812c2f          	amomaxu.w	s8,s0,(sp)
    800009ee:	03844c33          	div	s8,s0,s8
    800009f2:	c234fd53          	fcvt.lu.d	s10,fs1
    800009f6:	142e                	sll	s0,s0,0x2b
    800009f8:	d83e                	sw	a5,48(sp)
    800009fa:	7da11923          	sh	s10,2002(sp)
    800009fe:	0ff0000f          	fence
    80000a02:	4ea9                	li	t4,10
    80000a04:	000df117          	auipc	sp,0xdf
    80000a08:	5fc10113          	add	sp,sp,1532 # 800e0000 <begin_signature>
    80000a0c:	6315                	lui	t1,0x5
    80000a0e:	3783031b          	addw	t1,t1,888 # 5378 <_tbss_end+0x5378>
    80000a12:	911a                	add	sp,sp,t1

0000000080000a14 <i00000000af>:
    80000a14:	f822                	sd	s0,48(sp)

0000000080000a16 <i00000000b0>:
    80000a16:	c00e3453          	fcvt.w.s	s0,ft8,rup

0000000080000a1a <i00000000b1>:
    80000a1a:	d22bf953          	fcvt.d.l	fs2,s7

0000000080000a1e <i00000000b2>:
    80000a1e:	c0a6                	sw	s1,64(sp)

0000000080000a20 <i00000000b3>:
    80000a20:	c0b131af          	amominu.d	gp,a1,(sp)

0000000080000a24 <i00000000b4>:
    80000a24:	20013caf          	amoxor.d	s9,zero,(sp)

0000000080000a28 <i00000000b5>:
    80000a28:	03c2eb3b          	remw	s6,t0,t3
    80000a2c:	000df117          	auipc	sp,0xdf
    80000a30:	5d410113          	add	sp,sp,1492 # 800e0000 <begin_signature>
    80000a34:	6335                	lui	t1,0xd
    80000a36:	de83031b          	addw	t1,t1,-536 # cde8 <_tbss_end+0xcde8>
    80000a3a:	911a                	add	sp,sp,t1

0000000080000a3c <i00000000b6>:
    80000a3c:	b822                	fsd	fs0,48(sp)

0000000080000a3e <i00000000b7>:
    80000a3e:	c0361c53          	fcvt.lu.s	s8,fa2,rtz
    80000a42:	000df117          	auipc	sp,0xdf
    80000a46:	5be10113          	add	sp,sp,1470 # 800e0000 <begin_signature>
    80000a4a:	6331                	lui	t1,0xc
    80000a4c:	bd83031b          	addw	t1,t1,-1064 # bbd8 <_tbss_end+0xbbd8>
    80000a50:	911a                	add	sp,sp,t1

0000000080000a52 <i00000000b8>:
    80000a52:	7dd10503          	lb	a0,2013(sp)

0000000080000a56 <i00000000b9>:
    80000a56:	7506                	ld	a0,96(sp)

0000000080000a58 <i00000000ba>:
    80000a58:	0452                	sll	s0,s0,0x14

0000000080000a5a <i00000000bb>:
    80000a5a:	60a138af          	amoand.d	a7,a0,(sp)
    80000a5e:	4d31                	li	s10,12
    80000a60:	4ea9                	li	t4,10
    80000a62:	e5a2                	sd	s0,200(sp)
    80000a64:	d00772d3          	fcvt.s.w	ft5,a4
    80000a68:	63114c03          	lbu	s8,1585(sp)
    80000a6c:	03194e33          	div	t3,s2,a7
    80000a70:	9fa1                	addw	a5,a5,s0
    80000a72:	e00488d3          	fmv.x.w	a7,fs1
    80000a76:	7115                	add	sp,sp,-224

0000000080000a78 <b00000000bc>:
    80000a78:	00000033          	add	zero,zero,zero
    80000a7c:	05aec363          	blt	t4,s10,80000ac2 <i00000000c1>
    80000a80:	00000033          	add	zero,zero,zero
    80000a84:	2a813783          	ld	a5,680(sp)
    80000a88:	0000100f          	fence.i
    80000a8c:	0030123b          	sllw	tp,zero,gp
    80000a90:	c232fe53          	fcvt.lu.d	t3,ft5
    80000a94:	d0247e53          	fcvt.s.l	ft8,s0
    80000a98:	03c19493          	sll	s1,gp,0x3c
    80000a9c:	0818                	add	a4,sp,16
    80000a9e:	4ea9                	li	t4,10

0000000080000aa0 <i00000000bc>:
    80000aa0:	0000100f          	fence.i

0000000080000aa4 <i00000000bd>:
    80000aa4:	1141                	add	sp,sp,-16
    80000aa6:	e41e                	sd	t2,8(sp)
    80000aa8:	e832                	sd	a2,16(sp)
    80000aaa:	838a                	mv	t2,sp
    80000aac:	00c3a1a3          	sw	a2,3(t2)
    80000ab0:	63a2                	ld	t2,8(sp)
    80000ab2:	6642                	ld	a2,16(sp)
    80000ab4:	0141                	add	sp,sp,16

0000000080000ab6 <i00000000be>:
    80000ab6:	61812c2f          	amoand.w	s8,s8,(sp)

0000000080000aba <i00000000bf>:
    80000aba:	02e1bdb3          	mulhu	s11,gp,a4

0000000080000abe <i00000000c0>:
    80000abe:	02b20bb3          	mul	s7,tp,a1

0000000080000ac2 <i00000000c1>:
    80000ac2:	d9013183          	ld	gp,-624(sp)

0000000080000ac6 <i00000000c2>:
    80000ac6:	a181342f          	amomax.d	s0,s8,(sp)

0000000080000aca <i00000000c3>:
    80000aca:	23a80bd3          	fsgnj.d	fs7,fa6,fs10

0000000080000ace <i00000000c4>:
    80000ace:	fce11c03          	lh	s8,-50(sp)

0000000080000ad2 <i00000000c5>:
    80000ad2:	ec36                	sd	a3,24(sp)

0000000080000ad4 <i00000000c6>:
    80000ad4:	23013203          	ld	tp,560(sp)

0000000080000ad8 <i00000000c7>:
    80000ad8:	133cf2d3          	fmul.d	ft5,fs9,fs3

0000000080000adc <i00000000c8>:
    80000adc:	3706                	fld	fa4,96(sp)

0000000080000ade <i00000000c9>:
    80000ade:	098134af          	amoswap.d	s1,s8,(sp)
    80000ae2:	038c643b          	remw	s0,s8,s8
    80000ae6:	ac013483          	ld	s1,-1344(sp)
    80000aea:	8319                	srl	a4,a4,0x6
    80000aec:	02749db3          	mulh	s11,s1,t2
    80000af0:	f43a                	sd	a4,40(sp)
    80000af2:	d03c22d3          	fcvt.s.lu	ft5,s8,rdn
    80000af6:	8729                	sra	a4,a4,0xa

0000000080000af8 <b00000000ca>:
    80000af8:	00000b97          	auipc	s7,0x0
    80000afc:	050b8b93          	add	s7,s7,80 # 80000b48 <i00000000d2>
    80000b00:	000b8067          	jr	s7
    80000b04:	6702                	ld	a4,0(sp)
    80000b06:	0ff0000f          	fence
    80000b0a:	d00a3ed3          	fcvt.s.w	ft9,s4,rup
    80000b0e:	07d6                	sll	a5,a5,0x15
    80000b10:	02e8ec3b          	remw	s8,a7,a4
    80000b14:	0ff0000f          	fence
    80000b18:	3962                	fld	fs2,56(sp)

0000000080000b1a <i00000000ca>:
    80000b1a:	02498c33          	mul	s8,s3,tp

0000000080000b1e <i00000000cb>:
    80000b1e:	0988                	add	a0,sp,208

0000000080000b20 <i00000000cc>:
    80000b20:	c181242f          	amominu.w	s0,s8,(sp)

0000000080000b24 <i00000000cd>:
    80000b24:	f20c0953          	fmv.d.x	fs2,s8

0000000080000b28 <i00000000ce>:
    80000b28:	011d9dbb          	sllw	s11,s11,a7
    80000b2c:	000df117          	auipc	sp,0xdf
    80000b30:	4d410113          	add	sp,sp,1236 # 800e0000 <begin_signature>
    80000b34:	630d                	lui	t1,0x3
    80000b36:	9583031b          	addw	t1,t1,-1704 # 2958 <_tbss_end+0x2958>
    80000b3a:	911a                	add	sp,sp,t1

0000000080000b3c <i00000000cf>:
    80000b3c:	acc16403          	lwu	s0,-1332(sp)

0000000080000b40 <i00000000d0>:
    80000b40:	0b1277d3          	fsub.d	fa5,ft4,fa7

0000000080000b44 <i00000000d1>:
    80000b44:	0295d9b3          	divu	s3,a1,s1

0000000080000b48 <i00000000d2>:
    80000b48:	1161                	add	sp,sp,-8
    80000b4a:	e412                	sd	tp,8(sp)
    80000b4c:	4201                	li	tp,0
    80000b4e:	00026203          	lwu	tp,0(tp) # 0 <_tbss_end>
    80000b52:	6222                	ld	tp,8(sp)
    80000b54:	0121                	add	sp,sp,8

0000000080000b56 <i00000000d3>:
    80000b56:	fc64061b          	addw	a2,s0,-58

0000000080000b5a <i00000000d4>:
    80000b5a:	08a13d2f          	amoswap.d	s10,a0,(sp)

0000000080000b5e <i00000000d5>:
    80000b5e:	02847f3b          	remuw	t5,s0,s0

0000000080000b62 <i00000000d6>:
    80000b62:	e2089553          	fclass.d	a0,fa7

0000000080000b66 <i00000000d7>:
    80000b66:	d2247a53          	fcvt.d.l	fs4,s0
    80000b6a:	4b31                	li	s6,12
    80000b6c:	0e85                	add	t4,t4,1
    80000b6e:	8cc1                	or	s1,s1,s0
    80000b70:	9a31849b          	addw	s1,gp,-1629
    80000b74:	14c5                	add	s1,s1,-15
    80000b76:	e20994d3          	fclass.d	s1,fs3
    80000b7a:	015cd41b          	srlw	s0,s9,0x15
    80000b7e:	0ff0000f          	fence
    80000b82:	a2813c03          	ld	s8,-1496(sp)

0000000080000b86 <b00000000d8>:
    80000b86:	016e8863          	beq	t4,s6,80000b96 <b00000000d8+0x10>
    80000b8a:	00000b17          	auipc	s6,0x0
    80000b8e:	fbeb0b13          	add	s6,s6,-66 # 80000b48 <i00000000d2>
    80000b92:	000b0567          	jalr	a0,s6
    80000b96:	4ea9                	li	t4,10
    80000b98:	f20c0953          	fmv.d.x	fs2,s8
    80000b9c:	8f013903          	ld	s2,-1808(sp)
    80000ba0:	c03694d3          	fcvt.lu.s	s1,fa3,rtz
    80000ba4:	03ac0e33          	mul	t3,s8,s10
    80000ba8:	0000100f          	fence.i
    80000bac:	e081342f          	amomaxu.d	s0,s0,(sp)
    80000bb0:	c223fdd3          	fcvt.l.d	s11,ft7

0000000080000bb4 <i00000000d8>:
    80000bb4:	e20c8653          	fmv.x.d	a2,fs9

0000000080000bb8 <i00000000d9>:
    80000bb8:	78ce                	ld	a7,240(sp)

0000000080000bba <i00000000da>:
    80000bba:	0521                	add	a0,a0,8

0000000080000bbc <i00000000db>:
    80000bbc:	0000100f          	fence.i

0000000080000bc0 <i00000000dc>:
    80000bc0:	9c19                	subw	s0,s0,a4

0000000080000bc2 <i00000000dd>:
    80000bc2:	37a6                	fld	fa5,104(sp)
    80000bc4:	000df117          	auipc	sp,0xdf
    80000bc8:	43c10113          	add	sp,sp,1084 # 800e0000 <begin_signature>
    80000bcc:	6329                	lui	t1,0xa
    80000bce:	bd03031b          	addw	t1,t1,-1072 # 9bd0 <_tbss_end+0x9bd0>
    80000bd2:	911a                	add	sp,sp,t1

0000000080000bd4 <i00000000de>:
    80000bd4:	e82a                	sd	a0,16(sp)

0000000080000bd6 <i00000000df>:
    80000bd6:	f4a2                	sd	s0,104(sp)

0000000080000bd8 <i00000000e0>:
    80000bd8:	02a4553b          	divuw	a0,s0,a0
    80000bdc:	000df117          	auipc	sp,0xdf
    80000be0:	42410113          	add	sp,sp,1060 # 800e0000 <begin_signature>
    80000be4:	6331                	lui	t1,0xc
    80000be6:	e403031b          	addw	t1,t1,-448 # be40 <_tbss_end+0xbe40>
    80000bea:	911a                	add	sp,sp,t1

0000000080000bec <i00000000e1>:
    80000bec:	8e214f83          	lbu	t6,-1822(sp)

0000000080000bf0 <i00000000e2>:
    80000bf0:	d02a                	sw	a0,32(sp)

0000000080000bf2 <i00000000e3>:
    80000bf2:	75213c23          	sd	s2,1880(sp)

0000000080000bf6 <i00000000e4>:
    80000bf6:	07ea                	sll	a5,a5,0x1a
    80000bf8:	4db1                	li	s11,12
    80000bfa:	0e85                	add	t4,t4,1
    80000bfc:	d03a9253          	fcvt.s.lu	ft4,s5,rtz
    80000c00:	0000100f          	fence.i
    80000c04:	28013487          	fld	fs1,640(sp)
    80000c08:	2786                	fld	fa5,64(sp)
    80000c0a:	03ac4c33          	div	s8,s8,s10
    80000c0e:	087c                	add	a5,sp,28
    80000c10:	8c81                	sub	s1,s1,s0

0000000080000c12 <b00000000e5>:
    80000c12:	01be8863          	beq	t4,s11,80000c22 <b00000000e5+0x10>
    80000c16:	00000d97          	auipc	s11,0x0
    80000c1a:	facd8d93          	add	s11,s11,-84 # 80000bc2 <i00000000dd>
    80000c1e:	000d8067          	jr	s11
    80000c22:	4ea9                	li	t4,10
    80000c24:	1441                	add	s0,s0,-16
    80000c26:	0ff0000f          	fence
    80000c2a:	f2813c03          	ld	s8,-216(sp)
    80000c2e:	03c1e43b          	remw	s0,gp,t3
    80000c32:	03741493          	sll	s1,s0,0x37
    80000c36:	8fc5                	or	a5,a5,s1
    80000c38:	a0312d2f          	amomax.w	s10,gp,(sp)

0000000080000c3c <i00000000e5>:
    80000c3c:	8e0d                	sub	a2,a2,a1

0000000080000c3e <i00000000e6>:
    80000c3e:	75410883          	lb	a7,1876(sp)

0000000080000c42 <i00000000e7>:
    80000c42:	20fe2153          	fsgnjx.s	ft2,ft8,fa5

0000000080000c46 <i00000000e8>:
    80000c46:	14c9                	add	s1,s1,-14

0000000080000c48 <i00000000e9>:
    80000c48:	40a1332f          	amoor.d	t1,a0,(sp)

0000000080000c4c <i00000000ea>:
    80000c4c:	2af90953          	fmin.d	fs2,fs2,fa5

0000000080000c50 <i00000000eb>:
    80000c50:	11e8                	add	a0,sp,236

0000000080000c52 <i00000000ec>:
    80000c52:	29013183          	ld	gp,656(sp)

0000000080000c56 <i00000000ed>:
    80000c56:	a121342f          	amomax.d	s0,s2,(sp)

0000000080000c5a <i00000000ee>:
    80000c5a:	1ad47e53          	fdiv.d	ft8,fs0,fa3

0000000080000c5e <i00000000ef>:
    80000c5e:	d02632d3          	fcvt.s.l	ft5,a2,rup

0000000080000c62 <i00000000f0>:
    80000c62:	c01036d3          	fcvt.wu.s	a3,ft0,rup

0000000080000c66 <i00000000f1>:
    80000c66:	f20404d3          	fmv.d.x	fs1,s0
    80000c6a:	4d01                	li	s10,0
    80000c6c:	000df117          	auipc	sp,0xdf
    80000c70:	39410113          	add	sp,sp,916 # 800e0000 <begin_signature>
    80000c74:	6335                	lui	t1,0xd
    80000c76:	0e03031b          	addw	t1,t1,224 # d0e0 <_tbss_end+0xd0e0>
    80000c7a:	911a                	add	sp,sp,t1
    80000c7c:	35813383          	ld	t2,856(sp)
    80000c80:	51812a23          	sw	s8,1300(sp)
    80000c84:	01f12c2f          	amoadd.w	s8,t6,(sp)
    80000c88:	0d211403          	lh	s0,210(sp)
    80000c8c:	0127103b          	sllw	zero,a4,s2
    80000c90:	0ff0000f          	fence
    80000c94:	6111                	add	sp,sp,256

0000000080000c96 <b00000000f2>:
    80000c96:	00000033          	add	zero,zero,zero
    80000c9a:	03ae8c63          	beq	t4,s10,80000cd2 <i00000000fa>
    80000c9e:	00000033          	add	zero,zero,zero
    80000ca2:	144d                	add	s0,s0,-13
    80000ca4:	029dc9b3          	div	s3,s11,s1
    80000ca8:	34e6                	fld	fs1,120(sp)
    80000caa:	4090043b          	negw	s0,s1
    80000cae:	da3e                	sw	a5,52(sp)
    80000cb0:	a4ba                	fsd	fa4,72(sp)
    80000cb2:	c0372453          	fcvt.lu.s	s0,fa4,rdn
    80000cb6:	4ea9                	li	t4,10

0000000080000cb8 <i00000000f2>:
    80000cb8:	41cb5913          	sra	s2,s6,0x1c

0000000080000cbc <i00000000f3>:
    80000cbc:	03aa853b          	mulw	a0,s5,s10

0000000080000cc0 <i00000000f4>:
    80000cc0:	d03c0d53          	fcvt.s.lu	fs10,s8,rne

0000000080000cc4 <i00000000f5>:
    80000cc4:	9422                	add	s0,s0,s0

0000000080000cc6 <i00000000f6>:
    80000cc6:	03694433          	div	s0,s2,s6

0000000080000cca <i00000000f7>:
    80000cca:	02ac463b          	divw	a2,s8,a0

0000000080000cce <i00000000f8>:
    80000cce:	18c0                	add	s0,sp,116

0000000080000cd0 <i00000000f9>:
    80000cd0:	8155                	srl	a0,a0,0x15

0000000080000cd2 <i00000000fa>:
    80000cd2:	0ff0000f          	fence

0000000080000cd6 <i00000000fb>:
    80000cd6:	2586                	fld	fa1,64(sp)

0000000080000cd8 <i00000000fc>:
    80000cd8:	0ff0000f          	fence

0000000080000cdc <i00000000fd>:
    80000cdc:	0ff0000f          	fence

0000000080000ce0 <i00000000fe>:
    80000ce0:	f0e15203          	lhu	tp,-242(sp)
    80000ce4:	4fb1                	li	t6,12
    80000ce6:	0e85                	add	t4,t4,1
    80000ce8:	912e24c3          	fmadd.s	fs1,ft8,fs2,fs2,rdn
    80000cec:	e872                	sd	t3,16(sp)
    80000cee:	715d                	add	sp,sp,-80
    80000cf0:	93c2f4cb          	fnmsub.d	fs1,ft5,ft8,fs2
    80000cf4:	87bd                	sra	a5,a5,0xf
    80000cf6:	d626                	sw	s1,44(sp)
    80000cf8:	cbfb849b          	addw	s1,s7,-833

0000000080000cfc <b00000000ff>:
    80000cfc:	00000033          	add	zero,zero,zero
    80000d00:	fdfe97e3          	bne	t4,t6,80000cce <i00000000f8>
    80000d04:	00000033          	add	zero,zero,zero
    80000d08:	8f3d                	xor	a4,a4,a5
    80000d0a:	c0294953          	fcvt.l.s	s2,fs2,rmm
    80000d0e:	c2237c53          	fcvt.l.d	s8,ft6
    80000d12:	038d64bb          	remw	s1,s10,s8
    80000d16:	0462f717          	auipc	a4,0x462f
    80000d1a:	0bbe091b          	addw	s2,t3,187
    80000d1e:	0ff0000f          	fence
    80000d22:	4ea9                	li	t4,10

0000000080000d24 <i00000000ff>:
    80000d24:	e2cff0ef          	jal	80000350 <func1>

0000000080000d28 <i0000000100>:
    80000d28:	09813c2f          	amoswap.d	s8,s8,(sp)

0000000080000d2c <i0000000101>:
    80000d2c:	0ff0000f          	fence

0000000080000d30 <i0000000102>:
    80000d30:	00a5559b          	srlw	a1,a0,0xa

0000000080000d34 <i0000000103>:
    80000d34:	8288f2cb          	fnmsub.d	ft5,fa7,fs0,fa6

0000000080000d38 <i0000000104>:
    80000d38:	00ac13b3          	sll	t2,s8,a0
    80000d3c:	000df117          	auipc	sp,0xdf
    80000d40:	2c410113          	add	sp,sp,708 # 800e0000 <begin_signature>
    80000d44:	6309                	lui	t1,0x2
    80000d46:	2383031b          	addw	t1,t1,568 # 2238 <_tbss_end+0x2238>
    80000d4a:	911a                	add	sp,sp,t1

0000000080000d4c <i0000000105>:
    80000d4c:	b432                	fsd	fa2,40(sp)

0000000080000d4e <i0000000106>:
    80000d4e:	d22572d3          	fcvt.d.l	ft5,a0

0000000080000d52 <i0000000107>:
    80000d52:	7443c467          	.insn	4, 0x7443c467

0000000080000d56 <i0000000108>:
    80000d56:	4292                	lw	t0,4(sp)

0000000080000d58 <i0000000109>:
    80000d58:	d20c0753          	fcvt.d.w	fa4,s8

0000000080000d5c <i000000010a>:
    80000d5c:	2722                	fld	fa4,8(sp)

0000000080000d5e <i000000010b>:
    80000d5e:	715d                	add	sp,sp,-80

0000000080000d60 <i000000010c>:
    80000d60:	ca16                	sw	t0,20(sp)

0000000080000d62 <i000000010d>:
    80000d62:	ac4a                	fsd	fs2,24(sp)
    80000d64:	0000100f          	fence.i
    80000d68:	03ad7a3b          	remuw	s4,s10,s10
    80000d6c:	0b20                	add	s0,sp,408
    80000d6e:	4422                	lw	s0,8(sp)
    80000d70:	a2528d53          	fle.d	s10,ft5,ft5
    80000d74:	c1813423          	sd	s8,-1016(sp)
    80000d78:	7426                	ld	s0,104(sp)

0000000080000d7a <b000000010e>:
    80000d7a:	0300056f          	jal	a0,80000daa <i0000000115>
    80000d7e:	8045                	srl	s0,s0,0x11
    80000d80:	a4c16b03          	lwu	s6,-1460(sp)
    80000d84:	2173a2d3          	fsgnjx.s	ft5,ft7,fs7
    80000d88:	a132                	fsd	fa2,128(sp)
    80000d8a:	1224                	add	s1,sp,296
    80000d8c:	9c21                	addw	s0,s0,s0
    80000d8e:	0084543b          	srlw	s0,s0,s0

0000000080000d92 <i000000010e>:
    80000d92:	a2590653          	fle.d	a2,fs2,ft5

0000000080000d96 <i000000010f>:
    80000d96:	03ac                	add	a1,sp,456

0000000080000d98 <i0000000110>:
    80000d98:	401e7cd3          	fcvt.s.d	fs9,ft8

0000000080000d9c <i0000000111>:
    80000d9c:	0881342f          	amoswap.d	s0,s0,(sp)

0000000080000da0 <i0000000112>:
    80000da0:	f0c11c03          	lh	s8,-244(sp)

0000000080000da4 <i0000000113>:
    80000da4:	612d                	add	sp,sp,224

0000000080000da6 <i0000000114>:
    80000da6:	008c543b          	srlw	s0,s8,s0

0000000080000daa <i0000000115>:
    80000daa:	da22                	sw	s0,52(sp)

0000000080000dac <i0000000116>:
    80000dac:	0ff0000f          	fence

0000000080000db0 <i0000000117>:
    80000db0:	7129                	add	sp,sp,-320

0000000080000db2 <i0000000118>:
    80000db2:	345d                	addw	s0,s0,-9

0000000080000db4 <i0000000119>:
    80000db4:	08a13baf          	amoswap.d	s7,a0,(sp)

0000000080000db8 <i000000011a>:
    80000db8:	00d8149b          	sllw	s1,a6,0xd
    80000dbc:	4b81                	li	s7,0
    80000dbe:	000df117          	auipc	sp,0xdf
    80000dc2:	24210113          	add	sp,sp,578 # 800e0000 <begin_signature>
    80000dc6:	6331                	lui	t1,0xc
    80000dc8:	9a83031b          	addw	t1,t1,-1624 # b9a8 <_tbss_end+0xb9a8>
    80000dcc:	911a                	add	sp,sp,t1
    80000dce:	8422                	mv	s0,s0
    80000dd0:	028c47bb          	divw	a5,s8,s0
    80000dd4:	d039a5d3          	fcvt.s.lu	fa1,s3,rdn
    80000dd8:	f4ba                	sd	a4,104(sp)
    80000dda:	8492                	mv	s1,tp
    80000ddc:	e022                	sd	s0,0(sp)
    80000dde:	0ff0000f          	fence

0000000080000de2 <b000000011b>:
    80000de2:	00000033          	add	zero,zero,zero
    80000de6:	057e8563          	beq	t4,s7,80000e30 <i0000000122>
    80000dea:	00000033          	add	zero,zero,zero
    80000dee:	6406                	ld	s0,64(sp)
    80000df0:	c1813c2f          	amominu.d	s8,s8,(sp)
    80000df4:	0151342f          	amoadd.d	s0,s5,(sp)
    80000df8:	edea                	sd	s10,216(sp)
    80000dfa:	0353c4bb          	divw	s1,t2,s5
    80000dfe:	9a810fa3          	sb	s0,-1601(sp)
    80000e02:	0000100f          	fence.i
    80000e06:	4ea9                	li	t4,10

0000000080000e08 <i000000011b>:
    80000e08:	8081252f          	amomin.w	a0,s0,(sp)

0000000080000e0c <i000000011c>:
    80000e0c:	0020d073          	fsrmi	zero,1

0000000080000e10 <i000000011d>:
    80000e10:	d2247ed3          	fcvt.d.l	ft9,s0

0000000080000e14 <i000000011e>:
    80000e14:	c022                	sw	s0,0(sp)
    80000e16:	000df117          	auipc	sp,0xdf
    80000e1a:	1ea10113          	add	sp,sp,490 # 800e0000 <begin_signature>
    80000e1e:	6309                	lui	t1,0x2
    80000e20:	9103031b          	addw	t1,t1,-1776 # 1910 <_tbss_end+0x1910>
    80000e24:	911a                	add	sp,sp,t1

0000000080000e26 <i000000011f>:
    80000e26:	c3b13823          	sd	s11,-976(sp)

0000000080000e2a <i0000000120>:
    80000e2a:	b8c16b83          	lwu	s7,-1140(sp)

0000000080000e2e <i0000000121>:
    80000e2e:	6161                	add	sp,sp,80

0000000080000e30 <i0000000122>:
    80000e30:	fde2                	sd	s8,248(sp)

0000000080000e32 <i0000000123>:
    80000e32:	011c579b          	srlw	a5,s8,0x11

0000000080000e36 <i0000000124>:
    80000e36:	d031be53          	fcvt.s.lu	ft8,gp,rup

0000000080000e3a <i0000000125>:
    80000e3a:	8c36                	mv	s8,a3

0000000080000e3c <i0000000126>:
    80000e3c:	d033ffd3          	fcvt.s.lu	ft11,t2

0000000080000e40 <i0000000127>:
    80000e40:	fdc16883          	lwu	a7,-36(sp)

0000000080000e44 <i0000000128>:
    80000e44:	0981342f          	amoswap.d	s0,s8,(sp)
    80000e48:	02e804b3          	mul	s1,a6,a4
    80000e4c:	027ae433          	rem	s0,s5,t2
    80000e50:	3719                	addw	a4,a4,-26 # ffffffff8462fcfc <_end+0xffffffff0453d3fb>
    80000e52:	5472                	lw	s0,60(sp)
    80000e54:	e001342f          	amomaxu.d	s0,zero,(sp)
    80000e58:	0041382f          	amoadd.d	a6,tp,(sp)
    80000e5c:	3b8e                	fld	fs7,224(sp)

0000000080000e5e <b0000000129>:
    80000e5e:	0360056f          	jal	a0,80000e94 <i0000000130>
    80000e62:	1101                	add	sp,sp,-32
    80000e64:	02479d33          	mulh	s10,a5,tp
    80000e68:	00445dbb          	srlw	s11,s0,tp
    80000e6c:	54a6                	lw	s1,104(sp)
    80000e6e:	d23e72d3          	fcvt.d.lu	ft5,t3
    80000e72:	44a2                	lw	s1,8(sp)
    80000e74:	6a67f243          	fmadd.d	ft4,fa5,ft6,fa3

0000000080000e78 <i0000000129>:
    80000e78:	d01439d3          	fcvt.s.wu	fs3,s0,rup

0000000080000e7c <i000000012a>:
    80000e7c:	03845cb3          	divu	s9,s0,s8

0000000080000e80 <i000000012b>:
    80000e80:	02857fbb          	remuw	t6,a0,s0

0000000080000e84 <i000000012c>:
    80000e84:	64cc6993          	or	s3,s8,1612

0000000080000e88 <i000000012d>:
    80000e88:	0000100f          	fence.i

0000000080000e8c <i000000012e>:
    80000e8c:	185922d3          	fdiv.s	ft5,fs2,ft5,rdn

0000000080000e90 <i000000012f>:
    80000e90:	0081372f          	amoadd.d	a4,s0,(sp)

0000000080000e94 <i0000000130>:
    80000e94:	03852233          	mulhsu	tp,a0,s8

0000000080000e98 <i0000000131>:
    80000e98:	eca2                	sd	s0,88(sp)

0000000080000e9a <i0000000132>:
    80000e9a:	8a011c03          	lh	s8,-1888(sp)

0000000080000e9e <i0000000133>:
    80000e9e:	20b1352f          	amoxor.d	a0,a1,(sp)

0000000080000ea2 <i0000000134>:
    80000ea2:	011121af          	amoadd.w	gp,a7,(sp)

0000000080000ea6 <i0000000135>:
    80000ea6:	0000100f          	fence.i
    80000eaa:	4ca9                	li	s9,10
    80000eac:	000df117          	auipc	sp,0xdf
    80000eb0:	15410113          	add	sp,sp,340 # 800e0000 <begin_signature>
    80000eb4:	6335                	lui	t1,0xd
    80000eb6:	7703031b          	addw	t1,t1,1904 # d770 <_tbss_end+0xd770>
    80000eba:	911a                	add	sp,sp,t1
    80000ebc:	d20708d3          	fcvt.d.w	fa7,a4
    80000ec0:	22a9ae53          	fsgnjx.d	ft8,fs3,fa0
    80000ec4:	a42e                	fsd	fa1,8(sp)
    80000ec6:	0030193b          	sllw	s2,zero,gp
    80000eca:	f03e                	sd	a5,32(sp)
    80000ecc:	e2089bd3          	fclass.d	s7,fa7
    80000ed0:	2b013023          	sd	a6,672(sp)

0000000080000ed4 <b0000000136>:
    80000ed4:	00000033          	add	zero,zero,zero
    80000ed8:	fd9e90e3          	bne	t4,s9,80000e98 <i0000000131>
    80000edc:	00000033          	add	zero,zero,zero
    80000ee0:	e5f11a23          	sh	t6,-428(sp)
    80000ee4:	0a80                	add	s0,sp,336
    80000ee6:	0ae0                	add	s0,sp,348
    80000ee8:	4043d393          	sra	t2,t2,0x4
    80000eec:	f00e02d3          	fmv.w.x	ft5,t3
    80000ef0:	0000100f          	fence.i
    80000ef4:	03ad0233          	mul	tp,s10,s10
    80000ef8:	4ea9                	li	t4,10
    80000efa:	000df117          	auipc	sp,0xdf
    80000efe:	10610113          	add	sp,sp,262 # 800e0000 <begin_signature>
    80000f02:	630d                	lui	t1,0x3
    80000f04:	ee83031b          	addw	t1,t1,-280 # 2ee8 <_tbss_end+0x2ee8>
    80000f08:	911a                	add	sp,sp,t1

0000000080000f0a <i0000000136>:
    80000f0a:	86014883          	lbu	a7,-1952(sp)

0000000080000f0e <i0000000137>:
    80000f0e:	0000100f          	fence.i

0000000080000f12 <i0000000138>:
    80000f12:	0384453b          	divw	a0,s0,s8

0000000080000f16 <i0000000139>:
    80000f16:	6742                	ld	a4,16(sp)
    80000f18:	000df117          	auipc	sp,0xdf
    80000f1c:	0e810113          	add	sp,sp,232 # 800e0000 <begin_signature>
    80000f20:	6309                	lui	t1,0x2
    80000f22:	2483031b          	addw	t1,t1,584 # 2248 <_tbss_end+0x2248>
    80000f26:	911a                	add	sp,sp,t1

0000000080000f28 <i000000013a>:
    80000f28:	4d92                	lw	s11,4(sp)

0000000080000f2a <i000000013b>:
    80000f2a:	68710803          	lb	a6,1671(sp)

0000000080000f2e <i000000013c>:
    80000f2e:	c23ff753          	fcvt.lu.d	a4,ft11

0000000080000f32 <i000000013d>:
    80000f32:	a1228453          	fle.s	s0,ft5,fs2

0000000080000f36 <i000000013e>:
    80000f36:	0000100f          	fence.i

0000000080000f3a <i000000013f>:
    80000f3a:	9002                	ebreak

0000000080000f3c <i0000000140>:
    80000f3c:	02ac1533          	mulh	a0,s8,a0

0000000080000f40 <i0000000141>:
    80000f40:	00215073          	fsrmi	zero,2

0000000080000f44 <i0000000142>:
    80000f44:	7baa                	ld	s7,168(sp)

0000000080000f46 <i0000000143>:
    80000f46:	01e9e633          	or	a2,s3,t5
    80000f4a:	000df117          	auipc	sp,0xdf
    80000f4e:	0b610113          	add	sp,sp,182 # 800e0000 <begin_signature>
    80000f52:	6331                	lui	t1,0xc
    80000f54:	cf03031b          	addw	t1,t1,-784 # bcf0 <_tbss_end+0xbcf0>
    80000f58:	911a                	add	sp,sp,t1

0000000080000f5a <i0000000144>:
    80000f5a:	c8a2                	sw	s0,80(sp)
    80000f5c:	4da9                	li	s11,10
    80000f5e:	4ea9                	li	t4,10
    80000f60:	000df117          	auipc	sp,0xdf
    80000f64:	0a010113          	add	sp,sp,160 # 800e0000 <begin_signature>
    80000f68:	6325                	lui	t1,0x9
    80000f6a:	4283031b          	addw	t1,t1,1064 # 9428 <_tbss_end+0x9428>
    80000f6e:	911a                	add	sp,sp,t1
    80000f70:	000df117          	auipc	sp,0xdf
    80000f74:	09010113          	add	sp,sp,144 # 800e0000 <begin_signature>
    80000f78:	6305                	lui	t1,0x1
    80000f7a:	0b03031b          	addw	t1,t1,176 # 10b0 <_tbss_end+0x10b0>
    80000f7e:	911a                	add	sp,sp,t1
    80000f80:	8f79                	and	a4,a4,a4
    80000f82:	01ad0c33          	add	s8,s10,s10
    80000f86:	d03a                	sw	a4,32(sp)
    80000f88:	c1816c03          	lwu	s8,-1000(sp)
    80000f8c:	8181372f          	amomin.d	a4,s8,(sp)
    80000f90:	7105                	add	sp,sp,-480
    80000f92:	c0383853          	fcvt.lu.s	a6,fa6,rup

0000000080000f96 <b0000000145>:
    80000f96:	00000033          	add	zero,zero,zero
    80000f9a:	05be9d63          	bne	t4,s11,80000ff4 <i000000014d>
    80000f9e:	00000033          	add	zero,zero,zero
    80000fa2:	d02735d3          	fcvt.s.l	fa1,a4,rup
    80000fa6:	610d                	add	sp,sp,160
    80000fa8:	013a4a33          	xor	s4,s4,s3
    80000fac:	0379b433          	mulhu	s0,s3,s7
    80000fb0:	c2297b53          	fcvt.l.d	s6,fs2
    80000fb4:	7766                	ld	a4,120(sp)
    80000fb6:	a2b81a53          	flt.d	s4,fa6,fa1
    80000fba:	4ea9                	li	t4,10
    80000fbc:	000df117          	auipc	sp,0xdf
    80000fc0:	04410113          	add	sp,sp,68 # 800e0000 <begin_signature>
    80000fc4:	6315                	lui	t1,0x5
    80000fc6:	d183031b          	addw	t1,t1,-744 # 4d18 <_tbss_end+0x4d18>
    80000fca:	911a                	add	sp,sp,t1

0000000080000fcc <i0000000145>:
    80000fcc:	d9816403          	lwu	s0,-616(sp)

0000000080000fd0 <i0000000146>:
    80000fd0:	94da                	add	s1,s1,s6

0000000080000fd2 <i0000000147>:
    80000fd2:	d23670d3          	fcvt.d.lu	ft1,a2

0000000080000fd6 <i0000000148>:
    80000fd6:	0140                	add	s0,sp,132

0000000080000fd8 <i0000000149>:
    80000fd8:	8d2d                	xor	a0,a0,a1
    80000fda:	000df117          	auipc	sp,0xdf
    80000fde:	02610113          	add	sp,sp,38 # 800e0000 <begin_signature>
    80000fe2:	631d                	lui	t1,0x7
    80000fe4:	e103031b          	addw	t1,t1,-496 # 6e10 <_tbss_end+0x6e10>
    80000fe8:	911a                	add	sp,sp,t1

0000000080000fea <i000000014a>:
    80000fea:	a0ae                	fsd	fa1,64(sp)

0000000080000fec <i000000014b>:
    80000fec:	c1813c2f          	amominu.d	s8,s8,(sp)

0000000080000ff0 <i000000014c>:
    80000ff0:	48d13c23          	sd	a3,1176(sp)

0000000080000ff4 <i000000014d>:
    80000ff4:	0000100f          	fence.i

0000000080000ff8 <i000000014e>:
    80000ff8:	8d61                	and	a0,a0,s0

0000000080000ffa <i000000014f>:
    80000ffa:	6671                	lui	a2,0x1c

0000000080000ffc <i0000000150>:
    80000ffc:	029e4e3b          	divw	t3,t3,s1

0000000080001000 <i0000000151>:
    80001000:	0084131b          	sllw	t1,s0,0x8
    80001004:	4fa9                	li	t6,10
    80001006:	000df117          	auipc	sp,0xdf
    8000100a:	ffa10113          	add	sp,sp,-6 # 800e0000 <begin_signature>
    8000100e:	6329                	lui	t1,0xa
    80001010:	7103031b          	addw	t1,t1,1808 # a710 <_tbss_end+0xa710>
    80001014:	911a                	add	sp,sp,t1
    80001016:	d02c3cd3          	fcvt.s.l	fs9,s8,rup
    8000101a:	c23d74d3          	fcvt.lu.d	s1,fs10
    8000101e:	d0381953          	fcvt.s.lu	fs2,a6,rtz
    80001022:	5479                	li	s0,-2
    80001024:	021c                	add	a5,sp,256
    80001026:	44a2                	lw	s1,8(sp)
    80001028:	40845abb          	sraw	s5,s0,s0

000000008000102c <b0000000152>:
    8000102c:	01fe8463          	beq	t4,t6,80001034 <b0000000152+0x8>
    80001030:	fc5ff06f          	j	80000ff4 <i000000014d>
    80001034:	4ea9                	li	t4,10
    80001036:	01a40b33          	add	s6,s0,s10
    8000103a:	27a9                	addw	a5,a5,10
    8000103c:	1a10f5d3          	fdiv.d	fa1,ft1,ft1
    80001040:	724e                	ld	tp,240(sp)
    80001042:	c046                	sw	a7,0(sp)
    80001044:	41813daf          	amoor.d	s11,s8,(sp)
    80001048:	34ae                	fld	fs1,232(sp)

000000008000104a <i0000000152>:
    8000104a:	d622                	sw	s0,44(sp)

000000008000104c <i0000000153>:
    8000104c:	c03b2053          	fcvt.lu.s	zero,fs6,rdn

0000000080001050 <i0000000154>:
    80001050:	d0242e53          	fcvt.s.l	ft8,s0,rdn

0000000080001054 <i0000000155>:
    80001054:	0020d073          	fsrmi	zero,1

0000000080001058 <i0000000156>:
    80001058:	a1ce25d3          	feq.s	a1,ft8,ft8

000000008000105c <i0000000157>:
    8000105c:	4020551b          	sraw	a0,zero,0x2

0000000080001060 <i0000000158>:
    80001060:	0ff0000f          	fence

0000000080001064 <i0000000159>:
    80001064:	c232ffd3          	fcvt.lu.d	t6,ft5

0000000080001068 <i000000015a>:
    80001068:	019132af          	amoadd.d	t0,s9,(sp)

000000008000106c <i000000015b>:
    8000106c:	7101                	add	sp,sp,-512

000000008000106e <i000000015c>:
    8000106e:	40157953          	fcvt.s.d	fs2,fa0

0000000080001072 <i000000015d>:
    80001072:	cca11e23          	sh	a0,-804(sp)

0000000080001076 <i000000015e>:
    80001076:	ca013c83          	ld	s9,-864(sp)

000000008000107a <i000000015f>:
    8000107a:	ca36                	sw	a3,20(sp)
    8000107c:	4829                	li	a6,10
    8000107e:	8ca1                	xor	s1,s1,s0
    80001080:	a15124af          	amomax.w	s1,s5,(sp)
    80001084:	01a1342f          	amoadd.d	s0,s10,(sp)
    80001088:	0ff0000f          	fence
    8000108c:	0ff0000f          	fence
    80001090:	41dbdb13          	sra	s6,s7,0x1d
    80001094:	020c1793          	sll	a5,s8,0x20

0000000080001098 <b0000000160>:
    80001098:	010e8863          	beq	t4,a6,800010a8 <b0000000160+0x10>
    8000109c:	00000817          	auipc	a6,0x0
    800010a0:	fc480813          	add	a6,a6,-60 # 80001060 <i0000000158>
    800010a4:	00080567          	jalr	a0,a6
    800010a8:	4ea9                	li	t4,10
    800010aa:	b43a                	fsd	fa4,40(sp)
    800010ac:	9bf9                	and	a5,a5,-2
    800010ae:	33a3facf          	fnmadd.d	fs5,ft7,fs10,ft6
    800010b2:	9bd9                	and	a5,a5,-10
    800010b4:	e20e0753          	fmv.x.d	a4,ft8
    800010b8:	01845a3b          	srlw	s4,s0,s8
    800010bc:	c23efdd3          	fcvt.lu.d	s11,ft9

00000000800010c0 <i0000000160>:
    800010c0:	db0affc7          	fmsub.d	ft11,fs5,fa6,fs11

00000000800010c4 <i0000000161>:
    800010c4:	8d7d                	and	a0,a0,a5

00000000800010c6 <i0000000162>:
    800010c6:	1141                	add	sp,sp,-16
    800010c8:	e42e                	sd	a1,8(sp)
    800010ca:	e83a                	sd	a4,16(sp)
    800010cc:	00000597          	auipc	a1,0x0
    800010d0:	00858593          	add	a1,a1,8 # 800010d4 <i0000000162+0xe>
    800010d4:	00000767          	jalr	a4,zero # 0 <_tbss_end>
    800010d8:	65a2                	ld	a1,8(sp)
    800010da:	6742                	ld	a4,16(sp)
    800010dc:	0141                	add	sp,sp,16

00000000800010de <i0000000163>:
    800010de:	00d86433          	or	s0,a6,a3

00000000800010e2 <i0000000164>:
    800010e2:	41e5d3b3          	sra	t2,a1,t5

00000000800010e6 <i0000000165>:
    800010e6:	4aa1d517          	auipc	a0,0x4aa1d

00000000800010ea <i0000000166>:
    800010ea:	e18129af          	amomaxu.w	s3,s8,(sp)

00000000800010ee <i0000000167>:
    800010ee:	4482                	lw	s1,0(sp)

00000000800010f0 <i0000000168>:
    800010f0:	e08122af          	amomaxu.w	t0,s0,(sp)

00000000800010f4 <i0000000169>:
    800010f4:	f8e15c83          	lhu	s9,-114(sp)

00000000800010f8 <i000000016a>:
    800010f8:	c20972d3          	fcvt.w.d	t0,fs2

00000000800010fc <i000000016b>:
    800010fc:	05de                	sll	a1,a1,0x17

00000000800010fe <i000000016c>:
    800010fe:	02f7fc3b          	remuw	s8,a5,a5

0000000080001102 <i000000016d>:
    80001102:	22e6                	fld	ft5,88(sp)
    80001104:	03398c3b          	mulw	s8,s3,s3
    80001108:	e20488d3          	fmv.x.d	a7,fs1
    8000110c:	420e02d3          	fcvt.d.s	ft5,ft8
    80001110:	a05e1453          	flt.s	s0,ft8,ft5
    80001114:	0901242f          	amoswap.w	s0,a6,(sp)
    80001118:	3c42                	fld	fs8,48(sp)
    8000111a:	0000100f          	fence.i

000000008000111e <b000000016e>:
    8000111e:	0320006f          	j	80001150 <i0000000176>
    80001122:	0337fc33          	remu	s8,a5,s3
    80001126:	6161                	add	sp,sp,80
    80001128:	c232f9d3          	fcvt.lu.d	s3,ft5
    8000112c:	61a134af          	amoand.d	s1,s10,(sp)
    80001130:	3d813403          	ld	s0,984(sp)
    80001134:	028d723b          	remuw	tp,s10,s0
    80001138:	eca2                	sd	s0,88(sp)

000000008000113a <i000000016e>:
    8000113a:	32e2                	fld	ft5,56(sp)

000000008000113c <i000000016f>:
    8000113c:	057a                	sll	a0,a0,0x1e

000000008000113e <i0000000170>:
    8000113e:	038561bb          	remw	gp,a0,s8

0000000080001142 <i0000000171>:
    80001142:	4091352f          	amoor.d	a0,s1,(sp)

0000000080001146 <i0000000172>:
    80001146:	2509                	addw	a0,a0,2 # ffffffffcaa1e0e8 <_end+0xffffffff4a92b7e7>

0000000080001148 <i0000000173>:
    80001148:	6181202f          	amoand.w	zero,s8,(sp)

000000008000114c <i0000000174>:
    8000114c:	f82a                	sd	a0,48(sp)

000000008000114e <i0000000175>:
    8000114e:	0662                	sll	a2,a2,0x18

0000000080001150 <i0000000176>:
    80001150:	6c26                	ld	s8,72(sp)

0000000080001152 <i0000000177>:
    80001152:	b022                	fsd	fs0,32(sp)

0000000080001154 <i0000000178>:
    80001154:	9c15                	subw	s0,s0,a3

0000000080001156 <i0000000179>:
    80001156:	ec2a                	sd	a0,24(sp)

0000000080001158 <i000000017a>:
    80001158:	91ce00c3          	fmadd.s	ft1,ft8,ft8,fs2,rne
    8000115c:	4d25                	li	s10,9
    8000115e:	4ea9                	li	t4,10
    80001160:	8cc5                	or	s1,s1,s1
    80001162:	e32e7e43          	fmadd.d	ft8,ft8,fs2,ft8
    80001166:	00ec6433          	or	s0,s8,a4
    8000116a:	d22df953          	fcvt.d.l	fs2,s11
    8000116e:	7129                	add	sp,sp,-320
    80001170:	c03294d3          	fcvt.lu.s	s1,ft5,rtz
    80001174:	c23977d3          	fcvt.lu.d	a5,fs2

0000000080001178 <b000000017b>:
    80001178:	00000033          	add	zero,zero,zero
    8000117c:	03dd5b63          	bge	s10,t4,800011b2 <i0000000182>
    80001180:	00000033          	add	zero,zero,zero
    80001184:	0238b3b3          	mulhu	t2,a7,gp
    80001188:	285903c3          	fmadd.s	ft7,fs2,ft5,ft5,rne
    8000118c:	bb810483          	lb	s1,-1096(sp)
    80001190:	6bee                	ld	s7,216(sp)
    80001192:	03692733          	mulhsu	a4,s2,s6
    80001196:	0079591b          	srlw	s2,s2,0x7
    8000119a:	3c410383          	lb	t2,964(sp)
    8000119e:	4ea9                	li	t4,10

00000000800011a0 <i000000017b>:
    800011a0:	9ae2                	add	s5,s5,s8

00000000800011a2 <i000000017c>:
    800011a2:	41380c3b          	subw	s8,a6,s3

00000000800011a6 <i000000017d>:
    800011a6:	ceca                	sw	s2,92(sp)

00000000800011a8 <i000000017e>:
    800011a8:	346a                	fld	fs0,184(sp)

00000000800011aa <i000000017f>:
    800011aa:	ca4a                	sw	s2,20(sp)

00000000800011ac <i0000000180>:
    800011ac:	7426                	ld	s0,104(sp)

00000000800011ae <i0000000181>:
    800011ae:	0020d073          	fsrmi	zero,1

00000000800011b2 <i0000000182>:
    800011b2:	d02b9953          	fcvt.s.l	fs2,s7,rtz

00000000800011b6 <i0000000183>:
    800011b6:	6539                	lui	a0,0xe

00000000800011b8 <i0000000184>:
    800011b8:	9c09                	subw	s0,s0,a0

00000000800011ba <i0000000185>:
    800011ba:	3745                	addw	a4,a4,-15

00000000800011bc <i0000000186>:
    800011bc:	8cb9                	xor	s1,s1,a4
    800011be:	000df117          	auipc	sp,0xdf
    800011c2:	e4210113          	add	sp,sp,-446 # 800e0000 <begin_signature>
    800011c6:	6329                	lui	t1,0xa
    800011c8:	b483031b          	addw	t1,t1,-1208 # 9b48 <_tbss_end+0x9b48>
    800011cc:	911a                	add	sp,sp,t1

00000000800011ce <i0000000187>:
    800011ce:	d7813c03          	ld	s8,-648(sp)

00000000800011d2 <i0000000188>:
    800011d2:	0000100f          	fence.i
    800011d6:	4bb1                	li	s7,12
    800011d8:	0e85                	add	t4,t4,1
    800011da:	0ff0000f          	fence
    800011de:	03ac4433          	div	s0,s8,s10
    800011e2:	a0312c2f          	amomax.w	s8,gp,(sp)
    800011e6:	608137af          	amoand.d	a5,s0,(sp)
    800011ea:	01016f83          	lwu	t6,16(sp)
    800011ee:	c0016403          	lwu	s0,-1024(sp)
    800011f2:	6169                	add	sp,sp,208

00000000800011f4 <b0000000189>:
    800011f4:	017e8463          	beq	t4,s7,800011fc <b0000000189+0x8>
    800011f8:	fc1ff56f          	jal	a0,800011b8 <i0000000184>
    800011fc:	4ea9                	li	t4,10
    800011fe:	5c22                	lw	s8,40(sp)
    80001200:	020d8c3b          	mulw	s8,s11,zero
    80001204:	1080                	add	s0,sp,96
    80001206:	09812a2f          	amoswap.w	s4,s8,(sp)
    8000120a:	0931372f          	amoswap.d	a4,s3,(sp)
    8000120e:	f03e                	sd	a5,32(sp)
    80001210:	114312d3          	fmul.s	ft5,ft6,fs4,rtz

0000000080001214 <i0000000189>:
    80001214:	0052b953          	fadd.s	fs2,ft5,ft5,rup

0000000080001218 <i000000018a>:
    80001218:	8b72051b          	addw	a0,tp,-1865 # fffffffffffff8b7 <_end+0xffffffff7ff0cfb6>

000000008000121c <i000000018b>:
    8000121c:	03844c3b          	divw	s8,s0,s8

0000000080001220 <i000000018c>:
    80001220:	c02622d3          	fcvt.l.s	t0,fa2,rdn

0000000080001224 <i000000018d>:
    80001224:	d23672d3          	fcvt.d.lu	ft5,a2

0000000080001228 <i000000018e>:
    80001228:	40eb853b          	subw	a0,s7,a4

000000008000122c <i000000018f>:
    8000122c:	2792                	fld	fa5,256(sp)

000000008000122e <i0000000190>:
    8000122e:	e0a1242f          	amomaxu.w	s0,a0,(sp)

0000000080001232 <i0000000191>:
    80001232:	c0294453          	fcvt.l.s	s0,fs2,rmm

0000000080001236 <i0000000192>:
    80001236:	e042                	sd	a6,0(sp)

0000000080001238 <i0000000193>:
    80001238:	0000100f          	fence.i

000000008000123c <i0000000194>:
    8000123c:	4085043b          	subw	s0,a0,s0

0000000080001240 <i0000000195>:
    80001240:	21413c2f          	amoxor.d	s8,s4,(sp)
    80001244:	4db1                	li	s11,12
    80001246:	0e85                	add	t4,t4,1
    80001248:	000df117          	auipc	sp,0xdf
    8000124c:	db810113          	add	sp,sp,-584 # 800e0000 <begin_signature>
    80001250:	6311                	lui	t1,0x4
    80001252:	aa03031b          	addw	t1,t1,-1376 # 3aa0 <_tbss_end+0x3aa0>
    80001256:	911a                	add	sp,sp,t1
    80001258:	41285913          	sra	s2,a6,0x12
    8000125c:	4406                	lw	s0,64(sp)
    8000125e:	616d                	add	sp,sp,240
    80001260:	711d                	add	sp,sp,-96
    80001262:	c02144d3          	fcvt.l.s	s1,ft2,rmm
    80001266:	03ad64bb          	remw	s1,s10,s10
    8000126a:	4012f8d3          	fcvt.s.d	fa7,ft5

000000008000126e <b0000000196>:
    8000126e:	01be8863          	beq	t4,s11,8000127e <b0000000196+0x10>
    80001272:	00000d97          	auipc	s11,0x0
    80001276:	fb6d8d93          	add	s11,s11,-74 # 80001228 <i000000018e>
    8000127a:	000d80e7          	jalr	s11
    8000127e:	4ea9                	li	t4,10
    80001280:	e0e13c2f          	amomaxu.d	s8,a4,(sp)
    80001284:	e20e0453          	fmv.x.d	s0,ft8
    80001288:	a0812c2f          	amomax.w	s8,s0,(sp)
    8000128c:	03ad7c3b          	remuw	s8,s10,s10
    80001290:	029a523b          	divuw	tp,s4,s1
    80001294:	76c14483          	lbu	s1,1900(sp)
    80001298:	c222f053          	fcvt.l.d	zero,ft5

000000008000129c <i0000000196>:
    8000129c:	5532                	lw	a0,44(sp)

000000008000129e <i0000000197>:
    8000129e:	edb2                	sd	a2,216(sp)

00000000800012a0 <i0000000198>:
    800012a0:	024d9a33          	mulh	s4,s11,tp

00000000800012a4 <i0000000199>:
    800012a4:	0304c43b          	divw	s0,s1,a6

00000000800012a8 <i000000019a>:
    800012a8:	028c5933          	divu	s2,s8,s0

00000000800012ac <i000000019b>:
    800012ac:	8e49                	or	a2,a2,a0

00000000800012ae <i000000019c>:
    800012ae:	d039cdd3          	fcvt.s.lu	fs11,s3,rmm

00000000800012b2 <i000000019d>:
    800012b2:	c20e7f53          	fcvt.w.d	t5,ft8

00000000800012b6 <i000000019e>:
    800012b6:	ecba                	sd	a4,88(sp)

00000000800012b8 <i000000019f>:
    800012b8:	1141                	add	sp,sp,-16
    800012ba:	e42e                	sd	a1,8(sp)
    800012bc:	e83a                	sd	a4,16(sp)
    800012be:	00000717          	auipc	a4,0x0
    800012c2:	01470713          	add	a4,a4,20 # 800012d2 <i000000019f+0x1a>
    800012c6:	00000597          	auipc	a1,0x0
    800012ca:	00858593          	add	a1,a1,8 # 800012ce <i000000019f+0x16>
    800012ce:	00270067          	jr	2(a4)
    800012d2:	0001                	nop
    800012d4:	0001                	nop
    800012d6:	65a2                	ld	a1,8(sp)
    800012d8:	6742                	ld	a4,16(sp)
    800012da:	0121                	add	sp,sp,8

00000000800012dc <i00000001a0>:
    800012dc:	9e09                	subw	a2,a2,a0

00000000800012de <i00000001a1>:
    800012de:	12247ed3          	fmul.d	ft9,fs0,ft2

00000000800012e2 <i00000001a2>:
    800012e2:	3966                	fld	fs2,120(sp)

00000000800012e4 <i00000001a3>:
    800012e4:	b91712cb          	fnmsub.s	ft5,fa4,fa7,fs7,rtz
    800012e8:	4dad                	li	s11,11
    800012ea:	0e85                	add	t4,t4,1
    800012ec:	d03e7253          	fcvt.s.lu	ft4,t3
    800012f0:	ac72                	fsd	ft8,24(sp)
    800012f2:	01b8                	add	a4,sp,200
    800012f4:	21fda2d3          	fsgnjx.s	ft5,fs11,ft11
    800012f8:	42038653          	fcvt.d.s	fa2,ft7
    800012fc:	9b013c03          	ld	s8,-1616(sp)
    80001300:	9829                	and	s0,s0,-22

0000000080001302 <b00000001a4>:
    80001302:	00000033          	add	zero,zero,zero
    80001306:	fbbe84e3          	beq	t4,s11,800012ae <i000000019c>
    8000130a:	00000033          	add	zero,zero,zero
    8000130e:	0000100f          	fence.i
    80001312:	08312d2f          	amoswap.w	s10,gp,(sp)
    80001316:	1709                	add	a4,a4,-30
    80001318:	00c4                	add	s1,sp,68
    8000131a:	038c51bb          	divuw	gp,s8,s8
    8000131e:	48011f23          	sh	zero,1182(sp)
    80001322:	8c7d                	and	s0,s0,a5
    80001324:	4ea9                	li	t4,10

0000000080001326 <i00000001a4>:
    80001326:	00a55393          	srl	t2,a0,0xa

000000008000132a <i00000001a5>:
    8000132a:	6729                	lui	a4,0xa

000000008000132c <i00000001a6>:
    8000132c:	d2327953          	fcvt.d.lu	fs2,tp

0000000080001330 <i00000001a7>:
    80001330:	c2297e53          	fcvt.l.d	t3,fs2

0000000080001334 <i00000001a8>:
    80001334:	09112c2f          	amoswap.w	s8,a7,(sp)

0000000080001338 <i00000001a9>:
    80001338:	c231f7d3          	fcvt.lu.d	a5,ft3

000000008000133c <i00000001aa>:
    8000133c:	8011                	srl	s0,s0,0x4

000000008000133e <i00000001ab>:
    8000133e:	c031252f          	amominu.w	a0,gp,(sp)

0000000080001342 <i00000001ac>:
    80001342:	298d8e53          	fmin.s	ft8,fs11,fs8

0000000080001346 <i00000001ad>:
    80001346:	e596                	sd	t0,200(sp)

0000000080001348 <i00000001ae>:
    80001348:	9d09                	subw	a0,a0,a0

000000008000134a <i00000001af>:
    8000134a:	93c2f94f          	fnmadd.d	fs2,ft5,ft8,fs2

000000008000134e <i00000001b0>:
    8000134e:	03846bbb          	remw	s7,s0,s8
    80001352:	4b31                	li	s6,12
    80001354:	0e85                	add	t4,t4,1
    80001356:	028c3c33          	mulhu	s8,s8,s0
    8000135a:	0ff0000f          	fence
    8000135e:	8f9d                	sub	a5,a5,a5
    80001360:	37c6                	fld	fa5,112(sp)
    80001362:	038779b3          	remu	s3,a4,s8
    80001366:	7746                	ld	a4,112(sp)
    80001368:	e2030053          	fmv.x.d	zero,ft6

000000008000136c <b00000001b1>:
    8000136c:	016e8463          	beq	t4,s6,80001374 <b00000001b1+0x8>
    80001370:	fcdff06f          	j	8000133c <i00000001aa>
    80001374:	4ea9                	li	t4,10
    80001376:	23c29953          	fsgnjn.d	fs2,ft5,ft8
    8000137a:	63a5                	lui	t2,0x9
    8000137c:	ac2e                	fsd	fa1,24(sp)
    8000137e:	a1b1342f          	amomax.d	s0,s11,(sp)
    80001382:	9422                	add	s0,s0,s0
    80001384:	67e6                	ld	a5,88(sp)
    80001386:	94a2                	add	s1,s1,s0

0000000080001388 <i00000001b1>:
    80001388:	818125af          	amomin.w	a1,s8,(sp)

000000008000138c <i00000001b2>:
    8000138c:	a0a12c2f          	amomax.w	s8,a0,(sp)

0000000080001390 <i00000001b3>:
    80001390:	c03e4c53          	fcvt.lu.s	s8,ft8,rmm

0000000080001394 <i00000001b4>:
    80001394:	d0353753          	fcvt.s.lu	fa4,a0,rup

0000000080001398 <i00000001b5>:
    80001398:	5a86                	lw	s5,96(sp)

000000008000139a <i00000001b6>:
    8000139a:	292e0953          	fmin.s	fs2,ft8,fs2

000000008000139e <i00000001b7>:
    8000139e:	c0812e2f          	amominu.w	t3,s0,(sp)

00000000800013a2 <i00000001b8>:
    800013a2:	0033f733          	and	a4,t2,gp

00000000800013a6 <i00000001b9>:
    800013a6:	2081272f          	amoxor.w	a4,s0,(sp)

00000000800013aa <i00000001ba>:
    800013aa:	409c5c13          	sra	s8,s8,0x9

00000000800013ae <i00000001bb>:
    800013ae:	dca2                	sw	s0,120(sp)

00000000800013b0 <i00000001bc>:
    800013b0:	418121af          	amoor.w	gp,s8,(sp)

00000000800013b4 <i00000001bd>:
    800013b4:	0ff0000f          	fence
    800013b8:	4b81                	li	s7,0
    800013ba:	02e404bb          	mulw	s1,s0,a4
    800013be:	61813c2f          	amoand.d	s8,s8,(sp)
    800013c2:	030b7e3b          	remuw	t3,s6,a6
    800013c6:	419a8db3          	sub	s11,s5,s9
    800013ca:	423af94f          	fnmadd.d	fs2,fs5,ft3,fs0
    800013ce:	18bc                	add	a5,sp,120
    800013d0:	038764bb          	remw	s1,a4,s8

00000000800013d4 <b00000001be>:
    800013d4:	00000033          	add	zero,zero,zero
    800013d8:	fd7e85e3          	beq	t4,s7,800013a2 <i00000001b8>
    800013dc:	00000033          	add	zero,zero,zero
    800013e0:	c02c34d3          	fcvt.l.s	s1,fs8,rup
    800013e4:	b24c3493          	sltiu	s1,s8,-1244
    800013e8:	ea813483          	ld	s1,-344(sp)
    800013ec:	f2038ed3          	fmv.d.x	ft9,t2
    800013f0:	0415                	add	s0,s0,5
    800013f2:	7135                	add	sp,sp,-160
    800013f4:	7115                	add	sp,sp,-224
    800013f6:	4ea9                	li	t4,10

00000000800013f8 <i00000001be>:
    800013f8:	4018f9d3          	fcvt.s.d	fs3,fa7

00000000800013fc <i00000001bf>:
    800013fc:	c2077453          	fcvt.w.d	s0,fa4

0000000080001400 <i00000001c0>:
    80001400:	403128af          	amoor.w	a7,gp,(sp)

0000000080001404 <i00000001c1>:
    80001404:	c1813daf          	amominu.d	s11,s8,(sp)

0000000080001408 <i00000001c2>:
    80001408:	8c813703          	ld	a4,-1848(sp)

000000008000140c <i00000001c3>:
    8000140c:	03c6f53b          	remuw	a0,a3,t3

0000000080001410 <i00000001c4>:
    80001410:	c6313023          	sd	gp,-928(sp)

0000000080001414 <i00000001c5>:
    80001414:	29c90bd3          	fmin.s	fs7,fs2,ft8

0000000080001418 <i00000001c6>:
    80001418:	e2090553          	fmv.x.d	a0,fs2

000000008000141c <i00000001c7>:
    8000141c:	975c0413          	add	s0,s8,-1675 # 18975 <_tbss_end+0x18975>

0000000080001420 <i00000001c8>:
    80001420:	d2150f53          	fcvt.d.wu	ft10,a0

0000000080001424 <i00000001c9>:
    80001424:	0000100f          	fence.i
    80001428:	000df117          	auipc	sp,0xdf
    8000142c:	bd810113          	add	sp,sp,-1064 # 800e0000 <begin_signature>
    80001430:	6329                	lui	t1,0xa
    80001432:	6683031b          	addw	t1,t1,1640 # a668 <_tbss_end+0xa668>
    80001436:	911a                	add	sp,sp,t1

0000000080001438 <i00000001ca>:
    80001438:	ac36                	fsd	fa3,24(sp)
    8000143a:	4da5                	li	s11,9
    8000143c:	000df117          	auipc	sp,0xdf
    80001440:	bc410113          	add	sp,sp,-1084 # 800e0000 <begin_signature>
    80001444:	6335                	lui	t1,0xd
    80001446:	2103031b          	addw	t1,t1,528 # d210 <_tbss_end+0xd210>
    8000144a:	911a                	add	sp,sp,t1
    8000144c:	c2397453          	fcvt.lu.d	s0,fs2
    80001450:	c091342f          	amominu.d	s0,s1,(sp)
    80001454:	fca6                	sd	s1,120(sp)
    80001456:	7101                	add	sp,sp,-512
    80001458:	40e12c2f          	amoor.w	s8,a4,(sp)
    8000145c:	93ce79c7          	fmsub.d	fs3,ft8,ft8,fs2
    80001460:	230a2053          	fsgnjx.d	ft0,fs4,fa6

0000000080001464 <b00000001cb>:
    80001464:	00000033          	add	zero,zero,zero
    80001468:	fbbec8e3          	blt	t4,s11,80001418 <i00000001c6>
    8000146c:	00000033          	add	zero,zero,zero
    80001470:	b3213827          	fsd	fs2,-1232(sp)
    80001474:	34ad                	addw	s1,s1,-21
    80001476:	c03acd53          	fcvt.lu.s	s10,fs5,rmm
    8000147a:	612d                	add	sp,sp,224
    8000147c:	b1c16903          	lwu	s2,-1252(sp)
    80001480:	0000100f          	fence.i
    80001484:	e20e01d3          	fmv.x.d	gp,ft8
    80001488:	4ea9                	li	t4,10

000000008000148a <i00000001cb>:
    8000148a:	81e12c2f          	amomin.w	s8,t5,(sp)

000000008000148e <i00000001cc>:
    8000148e:	18e8                	add	a0,sp,124

0000000080001490 <i00000001cd>:
    80001490:	e5e11c03          	lh	s8,-418(sp)

0000000080001494 <i00000001ce>:
    80001494:	d23cf153          	fcvt.d.lu	ft2,s9

0000000080001498 <i00000001cf>:
    80001498:	01851533          	sll	a0,a0,s8

000000008000149c <i00000001d0>:
    8000149c:	0635                	add	a2,a2,13 # 1c00d <_tbss_end+0x1c00d>

000000008000149e <i00000001d1>:
    8000149e:	bcba                	fsd	fa4,120(sp)

00000000800014a0 <i00000001d2>:
    800014a0:	c0320e53          	fcvt.lu.s	t3,ft4,rne

00000000800014a4 <i00000001d3>:
    800014a4:	40f752bb          	sraw	t0,a4,a5

00000000800014a8 <i00000001d4>:
    800014a8:	088122af          	amoswap.w	t0,s0,(sp)

00000000800014ac <i00000001d5>:
    800014ac:	9c29                	addw	s0,s0,a0

00000000800014ae <i00000001d6>:
    800014ae:	ce46                	sw	a7,28(sp)

00000000800014b0 <i00000001d7>:
    800014b0:	7175                	add	sp,sp,-144
    800014b2:	000df117          	auipc	sp,0xdf
    800014b6:	b4e10113          	add	sp,sp,-1202 # 800e0000 <begin_signature>
    800014ba:	6339                	lui	t1,0xe
    800014bc:	2361                	addw	t1,t1,24 # e018 <_tbss_end+0xe018>
    800014be:	911a                	add	sp,sp,t1
    800014c0:	83015403          	lhu	s0,-2000(sp)
    800014c4:	00ec6db3          	or	s11,s8,a4
    800014c8:	b42a                	fsd	fa0,40(sp)
    800014ca:	0343a433          	mulhsu	s0,t2,s4
    800014ce:	0ff0000f          	fence
    800014d2:	2071342f          	amoxor.d	s0,t2,(sp)
    800014d6:	3406                	fld	fs0,96(sp)

00000000800014d8 <b00000001d8>:
    800014d8:	00000997          	auipc	s3,0x0
    800014dc:	03298993          	add	s3,s3,50 # 8000150a <i00000001dd>
    800014e0:	00098067          	jr	s3
    800014e4:	00871493          	sll	s1,a4,0x8
    800014e8:	678a                	ld	a5,128(sp)
    800014ea:	125978d3          	fmul.d	fa7,fs2,ft5
    800014ee:	348d                	addw	s1,s1,-29
    800014f0:	1280                	add	s0,sp,352
    800014f2:	d9816403          	lwu	s0,-616(sp)
    800014f6:	02e777b3          	remu	a5,a4,a4

00000000800014fa <i00000001d8>:
    800014fa:	02e8603b          	remw	zero,a6,a4

00000000800014fe <i00000001d9>:
    800014fe:	c2217053          	fcvt.l.d	zero,ft2

0000000080001502 <i00000001da>:
    80001502:	8fe2                	mv	t6,s8

0000000080001504 <i00000001db>:
    80001504:	bd72                	fsd	ft8,184(sp)

0000000080001506 <i00000001dc>:
    80001506:	60812d2f          	amoand.w	s10,s0,(sp)

000000008000150a <i00000001dd>:
    8000150a:	c2277553          	fcvt.l.d	a0,fa4

000000008000150e <i00000001de>:
    8000150e:	c02e2c53          	fcvt.l.s	s8,ft8,rdn

0000000080001512 <i00000001df>:
    80001512:	e0090a53          	fmv.x.w	s4,fs2

0000000080001516 <i00000001e0>:
    80001516:	e3bfe0ef          	jal	80000350 <func1>

000000008000151a <i00000001e1>:
    8000151a:	0ae8                	add	a0,sp,348

000000008000151c <i00000001e2>:
    8000151c:	03c5fc3b          	remuw	s8,a1,t3

0000000080001520 <i00000001e3>:
    80001520:	ca7e                	sw	t6,20(sp)

0000000080001522 <i00000001e4>:
    80001522:	c00e4c53          	fcvt.w.s	s8,ft8,rmm

0000000080001526 <i00000001e5>:
    80001526:	0385453b          	divw	a0,a0,s8
    8000152a:	4e31                	li	t3,12
    8000152c:	0e85                	add	t4,t4,1
    8000152e:	2486                	fld	fs1,64(sp)
    80001530:	22e2                	fld	ft5,24(sp)
    80001532:	008714b3          	sll	s1,a4,s0
    80001536:	c0357253          	fcvt.lu.s	tp,fa0
    8000153a:	028c3433          	mulhu	s0,s8,s0
    8000153e:	9c3d                	addw	s0,s0,a5
    80001540:	7115                	add	sp,sp,-224

0000000080001542 <b00000001e6>:
    80001542:	01ce8863          	beq	t4,t3,80001552 <b00000001e6+0x10>
    80001546:	00000e17          	auipc	t3,0x0
    8000154a:	fc8e0e13          	add	t3,t3,-56 # 8000150e <i00000001de>
    8000154e:	000e00e7          	jalr	t3
    80001552:	4ea9                	li	t4,10
    80001554:	3562                	fld	fa0,56(sp)
    80001556:	105e25d3          	fmul.s	fa1,ft8,ft5,rdn
    8000155a:	715d                	add	sp,sp,-80
    8000155c:	0377843b          	mulw	s0,a5,s7
    80001560:	836d                	srl	a4,a4,0x1b
    80001562:	01a25233          	srl	tp,tp,s10
    80001566:	7115                	add	sp,sp,-224

0000000080001568 <i00000001e6>:
    80001568:	d03c2d53          	fcvt.s.lu	fs10,s8,rdn

000000008000156c <i00000001e7>:
    8000156c:	e1813383          	ld	t2,-488(sp)

0000000080001570 <i00000001e8>:
    80001570:	23c902d3          	fsgnj.d	ft5,fs2,ft8

0000000080001574 <i00000001e9>:
    80001574:	8141                	srl	a0,a0,0x10

0000000080001576 <i00000001ea>:
    80001576:	4c42                	lw	s8,16(sp)

0000000080001578 <i00000001eb>:
    80001578:	4153d6b3          	sra	a3,t2,s5

000000008000157c <i00000001ec>:
    8000157c:	32c2                	fld	ft5,48(sp)

000000008000157e <i00000001ed>:
    8000157e:	00fc1413          	sll	s0,s8,0xf

0000000080001582 <i00000001ee>:
    80001582:	cd011983          	lh	s3,-816(sp)

0000000080001586 <i00000001ef>:
    80001586:	a12a                	fsd	fa0,128(sp)

0000000080001588 <i00000001f0>:
    80001588:	3a533317          	auipc	t1,0x3a533

000000008000158c <i00000001f1>:
    8000158c:	0325e9bb          	remw	s3,a1,s2

0000000080001590 <i00000001f2>:
    80001590:	19ad1253          	fdiv.s	ft4,fs10,fs10,rtz
    80001594:	4829                	li	a6,10
    80001596:	210c2553          	fsgnjx.s	fa0,fs8,fa6
    8000159a:	12effe53          	fmul.d	ft8,ft11,fa4
    8000159e:	3ce14b03          	lbu	s6,974(sp)
    800015a2:	b826                	fsd	fs1,48(sp)
    800015a4:	04c2                	sll	s1,s1,0x10
    800015a6:	02840c3b          	mulw	s8,s0,s0
    800015aa:	ce1e                	sw	t2,28(sp)

00000000800015ac <b00000001f3>:
    800015ac:	010e8863          	beq	t4,a6,800015bc <b00000001f3+0x10>
    800015b0:	00000817          	auipc	a6,0x0
    800015b4:	fcc80813          	add	a6,a6,-52 # 8000157c <i00000001ec>
    800015b8:	00080067          	jr	a6
    800015bc:	4ea9                	li	t4,10
    800015be:	c20bf9d3          	fcvt.w.d	s3,fs7
    800015c2:	8c41                	or	s0,s0,s0
    800015c4:	0284743b          	remuw	s0,s0,s0
    800015c8:	d031a753          	fcvt.s.lu	fa4,gp,rdn
    800015cc:	f8ba                	sd	a4,112(sp)
    800015ce:	c4816403          	lwu	s0,-952(sp)
    800015d2:	e5e2                	sd	s8,200(sp)

00000000800015d4 <i00000001f3>:
    800015d4:	008128af          	amoadd.w	a7,s0,(sp)

00000000800015d8 <i00000001f4>:
    800015d8:	031642b3          	div	t0,a2,a7

00000000800015dc <i00000001f5>:
    800015dc:	2141352f          	amoxor.d	a0,s4,(sp)

00000000800015e0 <i00000001f6>:
    800015e0:	4512                	lw	a0,4(sp)

00000000800015e2 <i00000001f7>:
    800015e2:	8ea5                	xor	a3,a3,s1

00000000800015e4 <i00000001f8>:
    800015e4:	f2080e53          	fmv.d.x	ft8,a6

00000000800015e8 <i00000001f9>:
    800015e8:	29c91453          	fmax.s	fs0,fs2,ft8

00000000800015ec <i00000001fa>:
    800015ec:	1378f3cf          	fnmadd.d	ft7,fa7,fs7,ft2

00000000800015f0 <i00000001fb>:
    800015f0:	a0a13f2f          	amomax.d	t5,a0,(sp)

00000000800015f4 <i00000001fc>:
    800015f4:	e20d0453          	fmv.x.d	s0,fs10

00000000800015f8 <i00000001fd>:
    800015f8:	d59fe0ef          	jal	80000350 <func1>

00000000800015fc <i00000001fe>:
    800015fc:	25c2                	fld	fa1,16(sp)

00000000800015fe <i00000001ff>:
    800015fe:	e20d83d3          	fmv.x.d	t2,fs11

0000000080001602 <i0000000200>:
    80001602:	207103a3          	sb	t2,519(sp)
    80001606:	4e31                	li	t3,12
    80001608:	0e85                	add	t4,t4,1
    8000160a:	000df117          	auipc	sp,0xdf
    8000160e:	9f610113          	add	sp,sp,-1546 # 800e0000 <begin_signature>
    80001612:	631d                	lui	t1,0x7
    80001614:	7783031b          	addw	t1,t1,1912 # 7778 <_tbss_end+0x7778>
    80001618:	911a                	add	sp,sp,t1
    8000161a:	418134af          	amoor.d	s1,s8,(sp)
    8000161e:	c22e73d3          	fcvt.l.d	t2,ft8
    80001622:	cee107a3          	sb	a4,-785(sp)
    80001626:	018728b3          	slt	a7,a4,s8
    8000162a:	1064                	add	s1,sp,44
    8000162c:	d22df953          	fcvt.d.l	fs2,s11
    80001630:	40e7543b          	sraw	s0,a4,a4

0000000080001634 <b0000000201>:
    80001634:	01ce8863          	beq	t4,t3,80001644 <b0000000201+0x10>
    80001638:	00000e17          	auipc	t3,0x0
    8000163c:	fb0e0e13          	add	t3,t3,-80 # 800015e8 <i00000001f9>
    80001640:	000e0067          	jr	t3
    80001644:	4ea9                	li	t4,10
    80001646:	d231ff53          	fcvt.d.lu	ft10,gp
    8000164a:	0081222f          	amoadd.w	tp,s0,(sp)
    8000164e:	0000100f          	fence.i
    80001652:	e0059b53          	fclass.s	s6,fa1
    80001656:	9c19                	subw	s0,s0,a4
    80001658:	bb016c03          	lwu	s8,-1104(sp)
    8000165c:	4081372f          	amoor.d	a4,s0,(sp)

0000000080001660 <i0000000201>:
    80001660:	070a                	sll	a4,a4,0x2

0000000080001662 <i0000000202>:
    80001662:	aab6f5c7          	fmsub.d	fa1,fa3,fa1,fs5

0000000080001666 <i0000000203>:
    80001666:	8c35                	xor	s0,s0,a3

0000000080001668 <i0000000204>:
    80001668:	6181342f          	amoand.d	s0,s8,(sp)
    8000166c:	000df117          	auipc	sp,0xdf
    80001670:	99410113          	add	sp,sp,-1644 # 800e0000 <begin_signature>
    80001674:	631d                	lui	t1,0x7
    80001676:	0d03031b          	addw	t1,t1,208 # 70d0 <_tbss_end+0x70d0>
    8000167a:	911a                	add	sp,sp,t1

000000008000167c <i0000000205>:
    8000167c:	5532                	lw	a0,44(sp)

000000008000167e <i0000000206>:
    8000167e:	02a51633          	mulh	a2,a0,a0

0000000080001682 <i0000000207>:
    80001682:	0021d073          	fsrmi	zero,3

0000000080001686 <i0000000208>:
    80001686:	5802f2d3          	fsqrt.s	ft5,ft5

000000008000168a <i0000000209>:
    8000168a:	be813503          	ld	a0,-1048(sp)

000000008000168e <i000000020a>:
    8000168e:	f0e2                	sd	s8,96(sp)

0000000080001690 <i000000020b>:
    80001690:	03bbe53b          	remw	a0,s7,s11

0000000080001694 <i000000020c>:
    80001694:	d8013f83          	ld	t6,-640(sp)
    80001698:	000df117          	auipc	sp,0xdf
    8000169c:	96810113          	add	sp,sp,-1688 # 800e0000 <begin_signature>
    800016a0:	6331                	lui	t1,0xc
    800016a2:	ec83031b          	addw	t1,t1,-312 # bec8 <_tbss_end+0xbec8>
    800016a6:	911a                	add	sp,sp,t1

00000000800016a8 <i000000020d>:
    800016a8:	22e6                	fld	ft5,88(sp)

00000000800016aa <i000000020e>:
    800016aa:	4542                	lw	a0,16(sp)
    800016ac:	4e25                	li	t3,9
    800016ae:	000df117          	auipc	sp,0xdf
    800016b2:	95210113          	add	sp,sp,-1710 # 800e0000 <begin_signature>
    800016b6:	631d                	lui	t1,0x7
    800016b8:	1103031b          	addw	t1,t1,272 # 7110 <_tbss_end+0x7110>
    800016bc:	911a                	add	sp,sp,t1
    800016be:	000df117          	auipc	sp,0xdf
    800016c2:	94210113          	add	sp,sp,-1726 # 800e0000 <begin_signature>
    800016c6:	6305                	lui	t1,0x1
    800016c8:	a403031b          	addw	t1,t1,-1472 # a40 <_tbss_end+0xa40>
    800016cc:	911a                	add	sp,sp,t1
    800016ce:	60813c2f          	amoand.d	s8,s0,(sp)
    800016d2:	e922                	sd	s0,144(sp)
    800016d4:	2e07c217          	auipc	tp,0x2e07c
    800016d8:	407b04bb          	subw	s1,s6,t2
    800016dc:	014c549b          	srlw	s1,s8,0x14
    800016e0:	0329e433          	rem	s0,s3,s2
    800016e4:	c0392c53          	fcvt.lu.s	s8,fs2,rdn

00000000800016e8 <b000000020f>:
    800016e8:	00000033          	add	zero,zero,zero
    800016ec:	f9cecde3          	blt	t4,t3,80001686 <i0000000208>
    800016f0:	00000033          	add	zero,zero,zero
    800016f4:	84ba                	mv	s1,a4
    800016f6:	20529e53          	fneg.s	ft8,ft5
    800016fa:	0881382f          	amoswap.d	a6,s0,(sp)
    800016fe:	98573c13          	sltiu	s8,a4,-1659
    80001702:	2906                	fld	fs2,64(sp)
    80001704:	403c0f93          	add	t6,s8,1027
    80001708:	6d672c13          	slti	s8,a4,1750
    8000170c:	4ea9                	li	t4,10

000000008000170e <i000000020f>:
    8000170e:	87f9                	sra	a5,a5,0x1e

0000000080001710 <i0000000210>:
    80001710:	1bc2f953          	fdiv.d	fs2,ft5,ft8

0000000080001714 <i0000000211>:
    80001714:	0379653b          	remw	a0,s2,s7

0000000080001718 <i0000000212>:
    80001718:	92e2                	add	t0,t0,s8

000000008000171a <i0000000213>:
    8000171a:	028c4a33          	div	s4,s8,s0

000000008000171e <i0000000214>:
    8000171e:	92812823          	sw	s0,-1744(sp)

0000000080001722 <i0000000215>:
    80001722:	e001242f          	amomaxu.w	s0,zero,(sp)

0000000080001726 <i0000000216>:
    80001726:	2766                	fld	fa4,88(sp)
    80001728:	000df117          	auipc	sp,0xdf
    8000172c:	8d810113          	add	sp,sp,-1832 # 800e0000 <begin_signature>
    80001730:	632d                	lui	t1,0xb
    80001732:	7b03031b          	addw	t1,t1,1968 # b7b0 <_tbss_end+0xb7b0>
    80001736:	911a                	add	sp,sp,t1

0000000080001738 <i0000000217>:
    80001738:	66c2                	ld	a3,16(sp)

000000008000173a <i0000000218>:
    8000173a:	c2257c53          	fcvt.l.d	s8,fa0

000000008000173e <i0000000219>:
    8000173e:	5452                	lw	s0,52(sp)

0000000080001740 <i000000021a>:
    80001740:	7f816403          	lwu	s0,2040(sp)

0000000080001744 <i000000021b>:
    80001744:	6165                	add	sp,sp,112
    80001746:	000df117          	auipc	sp,0xdf
    8000174a:	8ba10113          	add	sp,sp,-1862 # 800e0000 <begin_signature>
    8000174e:	6311                	lui	t1,0x4
    80001750:	3341                	addw	t1,t1,-16 # 3ff0 <_tbss_end+0x3ff0>
    80001752:	911a                	add	sp,sp,t1
    80001754:	7121                	add	sp,sp,-448
    80001756:	2746                	fld	fa4,80(sp)
    80001758:	00901733          	sll	a4,zero,s1
    8000175c:	64a6                	ld	s1,72(sp)
    8000175e:	f2070353          	fmv.d.x	ft6,a4
    80001762:	cafd4193          	xor	gp,s10,-849
    80001766:	03a73733          	mulhu	a4,a4,s10

000000008000176a <b000000021c>:
    8000176a:	0340056f          	jal	a0,8000179e <i0000000223>
    8000176e:	419b573b          	sraw	a4,s6,s9
    80001772:	0144571b          	srlw	a4,s0,0x14
    80001776:	b42e                	fsd	fa1,40(sp)
    80001778:	32487e4f          	fnmadd.d	ft8,fa6,ft4,ft6
    8000177c:	41085213          	sra	tp,a6,0x10
    80001780:	9f1d                	subw	a4,a4,a5
    80001782:	b4813703          	ld	a4,-1208(sp)

0000000080001786 <i000000021c>:
    80001786:	03855433          	divu	s0,a0,s8

000000008000178a <i000000021d>:
    8000178a:	0ab10403          	lb	s0,171(sp)

000000008000178e <i000000021e>:
    8000178e:	0000100f          	fence.i

0000000080001792 <i000000021f>:
    80001792:	0ff0000f          	fence

0000000080001796 <i0000000220>:
    80001796:	f00a8953          	fmv.w.x	fs2,s5

000000008000179a <i0000000221>:
    8000179a:	117c                	add	a5,sp,172

000000008000179c <i0000000222>:
    8000179c:	7115                	add	sp,sp,-224

000000008000179e <i0000000223>:
    8000179e:	f17a                	sd	t5,160(sp)

00000000800017a0 <i0000000224>:
    800017a0:	b1ca                	fsd	fs2,224(sp)

00000000800017a2 <i0000000225>:
    800017a2:	61f12caf          	amoand.w	s9,t6,(sp)

00000000800017a6 <i0000000226>:
    800017a6:	0ff0000f          	fence

00000000800017aa <i0000000227>:
    800017aa:	7109                	add	sp,sp,-384

00000000800017ac <i0000000228>:
    800017ac:	e04123af          	amomaxu.w	t2,tp,(sp)
    800017b0:	000df117          	auipc	sp,0xdf
    800017b4:	85010113          	add	sp,sp,-1968 # 800e0000 <begin_signature>
    800017b8:	6339                	lui	t1,0xe
    800017ba:	e783031b          	addw	t1,t1,-392 # de78 <_tbss_end+0xde78>
    800017be:	911a                	add	sp,sp,t1
    800017c0:	422d5493          	sra	s1,s10,0x22
    800017c4:	6486                	ld	s1,64(sp)
    800017c6:	417dd79b          	sraw	a5,s11,0x17
    800017ca:	edf11b23          	sh	t6,-298(sp)
    800017ce:	1180                	add	s0,sp,224
    800017d0:	9c39                	addw	s0,s0,a4
    800017d2:	d233f2d3          	fcvt.d.lu	ft5,t2

00000000800017d6 <b0000000229>:
    800017d6:	00000897          	auipc	a7,0x0
    800017da:	04c88893          	add	a7,a7,76 # 80001822 <i0000000231>
    800017de:	000880e7          	jalr	a7
    800017e2:	608124af          	amoand.w	s1,s0,(sp)
    800017e6:	02ec423b          	divw	tp,s8,a4
    800017ea:	a1311823          	sh	s3,-1520(sp)
    800017ee:	9f3d                	addw	a4,a4,a5
    800017f0:	035b583b          	divuw	a6,s6,s5
    800017f4:	0000100f          	fence.i
    800017f8:	7dea                	ld	s11,184(sp)

00000000800017fa <i0000000229>:
    800017fa:	0307f2bb          	remuw	t0,a5,a6

00000000800017fe <i000000022a>:
    800017fe:	c2217c53          	fcvt.l.d	s8,ft2

0000000080001802 <i000000022b>:
    80001802:	0bc0                	add	s0,sp,468

0000000080001804 <i000000022c>:
    80001804:	02ac2cb3          	mulhsu	s9,s8,a0

0000000080001808 <i000000022d>:
    80001808:	23378653          	fsgnj.d	fa2,fa5,fs3

000000008000180c <i000000022e>:
    8000180c:	b40e                	fsd	ft3,40(sp)

000000008000180e <i000000022f>:
    8000180e:	612d                	add	sp,sp,224
    80001810:	000de117          	auipc	sp,0xde
    80001814:	7f010113          	add	sp,sp,2032 # 800e0000 <begin_signature>
    80001818:	631d                	lui	t1,0x7
    8000181a:	6083031b          	addw	t1,t1,1544 # 7608 <_tbss_end+0x7608>
    8000181e:	911a                	add	sp,sp,t1

0000000080001820 <i0000000230>:
    80001820:	f43a                	sd	a4,40(sp)

0000000080001822 <i0000000231>:
    80001822:	47b2                	lw	a5,12(sp)

0000000080001824 <i0000000232>:
    80001824:	432f5613          	sra	a2,t5,0x32
    80001828:	000de117          	auipc	sp,0xde
    8000182c:	7d810113          	add	sp,sp,2008 # 800e0000 <begin_signature>
    80001830:	6305                	lui	t1,0x1
    80001832:	a283031b          	addw	t1,t1,-1496 # a28 <_tbss_end+0xa28>
    80001836:	911a                	add	sp,sp,t1

0000000080001838 <i0000000233>:
    80001838:	9f813023          	sd	s8,-1568(sp)

000000008000183c <i0000000234>:
    8000183c:	d22f7e53          	fcvt.d.l	ft8,t5

0000000080001840 <i0000000235>:
    80001840:	02c4bd33          	mulhu	s10,s1,a2
    80001844:	4db1                	li	s11,12
    80001846:	0e85                	add	t4,t4,1
    80001848:	a156                	fsd	fs5,128(sp)
    8000184a:	40ec5e33          	sra	t3,s8,a4
    8000184e:	638a                	ld	t2,128(sp)
    80001850:	89c16403          	lwu	s0,-1892(sp)
    80001854:	031a2833          	mulhsu	a6,s4,a7
    80001858:	17b5                	add	a5,a5,-19
    8000185a:	5ee12e23          	sw	a4,1532(sp)

000000008000185e <b0000000236>:
    8000185e:	01be8863          	beq	t4,s11,8000186e <b0000000236+0x10>
    80001862:	00000d97          	auipc	s11,0x0
    80001866:	fbed8d93          	add	s11,s11,-66 # 80001820 <i0000000230>
    8000186a:	000d8567          	jalr	a0,s11
    8000186e:	4ea9                	li	t4,10
    80001870:	7101                	add	sp,sp,-512
    80001872:	d1b0b94f          	fnmadd.s	fs2,ft1,fs11,fs10,rup
    80001876:	c08137af          	amominu.d	a5,s0,(sp)
    8000187a:	20312e2f          	amoxor.w	t3,gp,(sp)
    8000187e:	037cd4bb          	divuw	s1,s9,s7
    80001882:	0ff0000f          	fence
    80001886:	1d415703          	lhu	a4,468(sp)

000000008000188a <i0000000236>:
    8000188a:	01188533          	add	a0,a7,a7

000000008000188e <i0000000237>:
    8000188e:	d62a                	sw	a0,44(sp)

0000000080001890 <i0000000238>:
    80001890:	1918                	add	a4,sp,176
    80001892:	000de117          	auipc	sp,0xde
    80001896:	76e10113          	add	sp,sp,1902 # 800e0000 <begin_signature>
    8000189a:	6315                	lui	t1,0x5
    8000189c:	b783031b          	addw	t1,t1,-1160 # 4b78 <_tbss_end+0x4b78>
    800018a0:	911a                	add	sp,sp,t1

00000000800018a2 <i0000000239>:
    800018a2:	2a710403          	lb	s0,679(sp)

00000000800018a6 <i000000023a>:
    800018a6:	c4813503          	ld	a0,-952(sp)

00000000800018aa <i000000023b>:
    800018aa:	c2011c03          	lh	s8,-992(sp)

00000000800018ae <i000000023c>:
    800018ae:	00c18433          	add	s0,gp,a2

00000000800018b2 <i000000023d>:
    800018b2:	d23cf4d3          	fcvt.d.lu	fs1,s9

00000000800018b6 <i000000023e>:
    800018b6:	23c29e53          	fsgnjn.d	ft8,ft5,ft8

00000000800018ba <i000000023f>:
    800018ba:	c01ac4d3          	fcvt.wu.s	s1,fs5,rmm

00000000800018be <i0000000240>:
    800018be:	0d05a193          	slti	gp,a1,208

00000000800018c2 <i0000000241>:
    800018c2:	612d                	add	sp,sp,224

00000000800018c4 <i0000000242>:
    800018c4:	01855833          	srl	a6,a0,s8
    800018c8:	4da9                	li	s11,10
    800018ca:	000de117          	auipc	sp,0xde
    800018ce:	73610113          	add	sp,sp,1846 # 800e0000 <begin_signature>
    800018d2:	6321                	lui	t1,0x8
    800018d4:	7403031b          	addw	t1,t1,1856 # 8740 <_tbss_end+0x8740>
    800018d8:	911a                	add	sp,sp,t1
    800018da:	45913423          	sd	s9,1096(sp)
    800018de:	c234f453          	fcvt.lu.d	s0,fs1
    800018e2:	c0298cd3          	fcvt.l.s	s9,fs3,rne
    800018e6:	74a6                	ld	s1,104(sp)
    800018e8:	9c05                	subw	s0,s0,s1
    800018ea:	c02e03d3          	fcvt.l.s	t2,ft8,rne
    800018ee:	8cbd                	xor	s1,s1,a5

00000000800018f0 <b0000000243>:
    800018f0:	01be8863          	beq	t4,s11,80001900 <b0000000243+0x10>
    800018f4:	00000d97          	auipc	s11,0x0
    800018f8:	fb6d8d93          	add	s11,s11,-74 # 800018aa <i000000023b>
    800018fc:	000d80e7          	jalr	s11
    80001900:	4ea9                	li	t4,10
    80001902:	8369                	srl	a4,a4,0x1a
    80001904:	8fa5                	xor	a5,a5,s1
    80001906:	0a5e72d3          	fsub.d	ft5,ft8,ft5
    8000190a:	02ec47b3          	div	a5,s8,a4
    8000190e:	78e2                	ld	a7,56(sp)
    80001910:	0858                	add	a4,sp,20
    80001912:	8c9d                	sub	s1,s1,a5

0000000080001914 <i0000000243>:
    80001914:	f2048953          	fmv.d.x	fs2,s1

0000000080001918 <i0000000244>:
    80001918:	8161352f          	amomin.d	a0,s6,(sp)

000000008000191c <i0000000245>:
    8000191c:	00651313          	sll	t1,a0,0x6

0000000080001920 <i0000000246>:
    80001920:	3455                	addw	s0,s0,-11

0000000080001922 <i0000000247>:
    80001922:	0000100f          	fence.i

0000000080001926 <i0000000248>:
    80001926:	033d5e13          	srl	t3,s10,0x33

000000008000192a <i0000000249>:
    8000192a:	0ff0000f          	fence

000000008000192e <i000000024a>:
    8000192e:	028507b3          	mul	a5,a0,s0

0000000080001932 <i000000024b>:
    80001932:	0195151b          	sllw	a0,a0,0x19

0000000080001936 <i000000024c>:
    80001936:	0285743b          	remuw	s0,a0,s0

000000008000193a <i000000024d>:
    8000193a:	5562                	lw	a0,56(sp)

000000008000193c <i000000024e>:
    8000193c:	a0a139af          	amomax.d	s3,a0,(sp)

0000000080001940 <i000000024f>:
    80001940:	a11fe0ef          	jal	80000350 <func1>

0000000080001944 <i0000000250>:
    80001944:	8579                	sra	a0,a0,0x1e
    80001946:	4ca9                	li	s9,10
    80001948:	10811123          	sh	s0,258(sp)
    8000194c:	2415                	addw	s0,s0,5
    8000194e:	03f8d433          	divu	s0,a7,t6
    80001952:	22810ca3          	sb	s0,569(sp)
    80001956:	c2017453          	fcvt.w.d	s0,ft2
    8000195a:	b8be                	fsd	fa5,112(sp)
    8000195c:	e13a                	sd	a4,128(sp)

000000008000195e <b0000000251>:
    8000195e:	019e8463          	beq	t4,s9,80001966 <b0000000251+0x8>
    80001962:	fc9ff56f          	jal	a0,8000192a <i0000000249>
    80001966:	4ea9                	li	t4,10
    80001968:	77c6                	ld	a5,112(sp)
    8000196a:	e426                	sd	s1,8(sp)
    8000196c:	045a                	sll	s0,s0,0x16
    8000196e:	614d                	add	sp,sp,176
    80001970:	6c66                	ld	s8,88(sp)
    80001972:	8041342f          	amomin.d	s0,tp,(sp)
    80001976:	7e813703          	ld	a4,2024(sp)

000000008000197a <i0000000251>:
    8000197a:	7e813023          	sd	s0,2016(sp)

000000008000197e <i0000000252>:
    8000197e:	d025c2d3          	fcvt.s.l	ft5,a1,rmm

0000000080001982 <i0000000253>:
    80001982:	a171222f          	amomax.w	tp,s7,(sp)

0000000080001986 <i0000000254>:
    80001986:	01a6e513          	or	a0,a3,26

000000008000198a <i0000000255>:
    8000198a:	c1813287          	fld	ft5,-1000(sp)

000000008000198e <i0000000256>:
    8000198e:	7c016183          	lwu	gp,1984(sp)

0000000080001992 <i0000000257>:
    80001992:	b4e06393          	or	t2,zero,-1202

0000000080001996 <i0000000258>:
    80001996:	c236f653          	fcvt.lu.d	a2,fa3
    8000199a:	000de117          	auipc	sp,0xde
    8000199e:	66610113          	add	sp,sp,1638 # 800e0000 <begin_signature>
    800019a2:	6309                	lui	t1,0x2
    800019a4:	6a03031b          	addw	t1,t1,1696 # 26a0 <_tbss_end+0x26a0>
    800019a8:	911a                	add	sp,sp,t1

00000000800019aa <i0000000259>:
    800019aa:	c0913023          	sd	s1,-1024(sp)

00000000800019ae <i000000025a>:
    800019ae:	0000100f          	fence.i

00000000800019b2 <i000000025b>:
    800019b2:	0148c4b3          	xor	s1,a7,s4

00000000800019b6 <i000000025c>:
    800019b6:	8c69                	and	s0,s0,a0

00000000800019b8 <i000000025d>:
    800019b8:	0041352f          	amoadd.d	a0,tp,(sp)
    800019bc:	4a25                	li	s4,9
    800019be:	4de6                	lw	s11,88(sp)
    800019c0:	34e2                	fld	fs1,56(sp)
    800019c2:	0279c8b3          	div	a7,s3,t2
    800019c6:	22a0a2d3          	fsgnjx.d	ft5,ft1,fa0
    800019ca:	a9416203          	lwu	tp,-1388(sp)
    800019ce:	039a97b3          	mulh	a5,s5,s9
    800019d2:	e1c12b2f          	amomaxu.w	s6,t3,(sp)

00000000800019d6 <b000000025e>:
    800019d6:	00000033          	add	zero,zero,zero
    800019da:	fb4ecee3          	blt	t4,s4,80001996 <i0000000258>
    800019de:	00000033          	add	zero,zero,zero
    800019e2:	018458bb          	srlw	a7,s0,s8
    800019e6:	7129                	add	sp,sp,-320
    800019e8:	7a4e3993          	sltiu	s3,t3,1956
    800019ec:	1b40                	add	s0,sp,436
    800019ee:	12a0                	add	s0,sp,360
    800019f0:	704a44b7          	lui	s1,0x704a4
    800019f4:	4492                	lw	s1,4(sp)
    800019f6:	4ea9                	li	t4,10

00000000800019f8 <i000000025e>:
    800019f8:	0000100f          	fence.i

00000000800019fc <i000000025f>:
    800019fc:	698482c7          	fmsub.s	ft5,fs1,fs8,fa3,rne

0000000080001a00 <i0000000260>:
    80001a00:	0326553b          	divuw	a0,a2,s2

0000000080001a04 <i0000000261>:
    80001a04:	64e15803          	lhu	a6,1614(sp)

0000000080001a08 <i0000000262>:
    80001a08:	02455413          	srl	s0,a0,0x24

0000000080001a0c <i0000000263>:
    80001a0c:	00851793          	sll	a5,a0,0x8

0000000080001a10 <i0000000264>:
    80001a10:	e8ba                	sd	a4,80(sp)

0000000080001a12 <i0000000265>:
    80001a12:	09c8                	add	a0,sp,212

0000000080001a14 <i0000000266>:
    80001a14:	3495                	addw	s1,s1,-27 # 704a3fe5 <_tbss_end+0x704a3fe5>

0000000080001a16 <i0000000267>:
    80001a16:	418138af          	amoor.d	a7,s8,(sp)

0000000080001a1a <i0000000268>:
    80001a1a:	285e1553          	fmax.s	fa0,ft8,ft5

0000000080001a1e <i0000000269>:
    80001a1e:	e20e14d3          	fclass.d	s1,ft8

0000000080001a22 <i000000026a>:
    80001a22:	03f6e53b          	remw	a0,a3,t6
    80001a26:	4b81                	li	s7,0
    80001a28:	4dea0497          	auipc	s1,0x4dea0
    80001a2c:	c19134af          	amominu.d	s1,s9,(sp)
    80001a30:	c43e                	sw	a5,8(sp)
    80001a32:	c43a                	sw	a4,8(sp)
    80001a34:	c02dbc53          	fcvt.l.s	s8,fs11,rup
    80001a38:	0000100f          	fence.i
    80001a3c:	000df9b3          	and	s3,s11,zero

0000000080001a40 <b000000026b>:
    80001a40:	00000033          	add	zero,zero,zero
    80001a44:	057e8463          	beq	t4,s7,80001a8c <i0000000271>
    80001a48:	00000033          	add	zero,zero,zero
    80001a4c:	08e13daf          	amoswap.d	s11,a4,(sp)
    80001a50:	e1c12c2f          	amomaxu.w	s8,t3,(sp)
    80001a54:	023e4433          	div	s0,t3,gp
    80001a58:	80812c2f          	amomin.w	s8,s0,(sp)
    80001a5c:	03cfd93b          	divuw	s2,t6,t3
    80001a60:	408c5433          	sra	s0,s8,s0
    80001a64:	c692                	sw	tp,76(sp)
    80001a66:	4ea9                	li	t4,10

0000000080001a68 <i000000026b>:
    80001a68:	03985c33          	divu	s8,a6,s9

0000000080001a6c <i000000026c>:
    80001a6c:	02843c33          	mulhu	s8,s0,s0
    80001a70:	000de117          	auipc	sp,0xde
    80001a74:	59010113          	add	sp,sp,1424 # 800e0000 <begin_signature>
    80001a78:	631d                	lui	t1,0x7
    80001a7a:	bb83031b          	addw	t1,t1,-1096 # 6bb8 <_tbss_end+0x6bb8>
    80001a7e:	911a                	add	sp,sp,t1

0000000080001a80 <i000000026d>:
    80001a80:	1d3101a3          	sb	s3,451(sp)

0000000080001a84 <i000000026e>:
    80001a84:	5c62                	lw	s8,56(sp)

0000000080001a86 <i000000026f>:
    80001a86:	8f75                	and	a4,a4,a3

0000000080001a88 <i0000000270>:
    80001a88:	70813c03          	ld	s8,1800(sp)

0000000080001a8c <i0000000271>:
    80001a8c:	0a5e7e53          	fsub.d	ft8,ft8,ft5

0000000080001a90 <i0000000272>:
    80001a90:	0961382f          	amoswap.d	a6,s6,(sp)

0000000080001a94 <i0000000273>:
    80001a94:	e3ce72cb          	fnmsub.d	ft5,ft8,ft8,ft8

0000000080001a98 <i0000000274>:
    80001a98:	fc414003          	lbu	zero,-60(sp)

0000000080001a9c <i0000000275>:
    80001a9c:	6181352f          	amoand.d	a0,s8,(sp)

0000000080001aa0 <i0000000276>:
    80001aa0:	0970                	add	a2,sp,156

0000000080001aa2 <i0000000277>:
    80001aa2:	c02fb9d3          	fcvt.l.s	s3,ft11,rup
    80001aa6:	4a81                	li	s5,0
    80001aa8:	03af84b3          	mul	s1,t6,s10
    80001aac:	00c4521b          	srlw	tp,s0,0xc
    80001ab0:	0000100f          	fence.i
    80001ab4:	c03dce53          	fcvt.lu.s	t3,fs11,rmm
    80001ab8:	7135                	add	sp,sp,-160
    80001aba:	c0c12403          	lw	s0,-1012(sp)
    80001abe:	03f97d33          	remu	s10,s2,t6

0000000080001ac2 <b0000000278>:
    80001ac2:	00000033          	add	zero,zero,zero
    80001ac6:	055e8163          	beq	t4,s5,80001b08 <i000000027e>
    80001aca:	00000033          	add	zero,zero,zero
    80001ace:	c222fdd3          	fcvt.l.d	s11,ft5
    80001ad2:	1a00                	add	s0,sp,304
    80001ad4:	34c9                	addw	s1,s1,-14 # ffffffffcdea1a1a <_end+0xffffffff4ddaf119>
    80001ad6:	22042e53          	fsgnjx.d	ft8,fs0,ft0
    80001ada:	0143939b          	sllw	t2,t2,0x14
    80001ade:	c23a                	sw	a4,4(sp)
    80001ae0:	02ec643b          	remw	s0,s8,a4
    80001ae4:	4ea9                	li	t4,10
    80001ae6:	000de117          	auipc	sp,0xde
    80001aea:	51a10113          	add	sp,sp,1306 # 800e0000 <begin_signature>
    80001aee:	6325                	lui	t1,0x9
    80001af0:	6283031b          	addw	t1,t1,1576 # 9628 <_tbss_end+0x9628>
    80001af4:	911a                	add	sp,sp,t1

0000000080001af6 <i0000000278>:
    80001af6:	86013903          	ld	s2,-1952(sp)

0000000080001afa <i0000000279>:
    80001afa:	06e2                	sll	a3,a3,0x18

0000000080001afc <i000000027a>:
    80001afc:	c03b2d53          	fcvt.lu.s	s10,fs6,rdn

0000000080001b00 <i000000027b>:
    80001b00:	e2028c53          	fmv.x.d	s8,ft5

0000000080001b04 <i000000027c>:
    80001b04:	0aa4                	add	s1,sp,344

0000000080001b06 <i000000027d>:
    80001b06:	7175                	add	sp,sp,-144

0000000080001b08 <i000000027e>:
    80001b08:	66813c23          	sd	s0,1656(sp)

0000000080001b0c <i000000027f>:
    80001b0c:	8e21                	xor	a2,a2,s0

0000000080001b0e <i0000000280>:
    80001b0e:	f0068853          	fmv.w.x	fa6,a3

0000000080001b12 <i0000000281>:
    80001b12:	19c94153          	fdiv.s	ft2,fs2,ft8,rmm

0000000080001b16 <i0000000282>:
    80001b16:	d22c72d3          	fcvt.d.l	ft5,s8

0000000080001b1a <i0000000283>:
    80001b1a:	02f76433          	rem	s0,a4,a5

0000000080001b1e <i0000000284>:
    80001b1e:	833fe0ef          	jal	80000350 <func1>

0000000080001b22 <i0000000285>:
    80001b22:	e2048c53          	fmv.x.d	s8,fs1
    80001b26:	4ca5                	li	s9,9
    80001b28:	5c910783          	lb	a5,1481(sp)
    80001b2c:	d03b4853          	fcvt.s.lu	fa6,s6,rmm
    80001b30:	0ff0000f          	fence
    80001b34:	00d89413          	sll	s0,a7,0xd
    80001b38:	27013483          	ld	s1,624(sp)
    80001b3c:	810a                	mv	sp,sp
    80001b3e:	d83e                	sw	a5,48(sp)

0000000080001b40 <b0000000286>:
    80001b40:	00000033          	add	zero,zero,zero
    80001b44:	fd9ec2e3          	blt	t4,s9,80001b08 <i000000027e>
    80001b48:	00000033          	add	zero,zero,zero
    80001b4c:	0071c833          	xor	a6,gp,t2
    80001b50:	02e44c3b          	divw	s8,s0,a4
    80001b54:	02843db3          	mulhu	s11,s0,s0
    80001b58:	01293b33          	sltu	s6,s2,s2
    80001b5c:	40e40e33          	sub	t3,s0,a4
    80001b60:	e20904d3          	fmv.x.d	s1,fs2
    80001b64:	a46a                	fsd	fs10,8(sp)
    80001b66:	4ea9                	li	t4,10

0000000080001b68 <i0000000286>:
    80001b68:	9c21                	addw	s0,s0,s0

0000000080001b6a <i0000000287>:
    80001b6a:	3542                	fld	fa0,48(sp)

0000000080001b6c <i0000000288>:
    80001b6c:	41a1252f          	amoor.w	a0,s10,(sp)

0000000080001b70 <i0000000289>:
    80001b70:	a34981d3          	fle.d	gp,fs3,fs4

0000000080001b74 <i000000028a>:
    80001b74:	c0319e53          	fcvt.lu.s	t3,ft3,rtz

0000000080001b78 <i000000028b>:
    80001b78:	c23978d3          	fcvt.lu.d	a7,fs2

0000000080001b7c <i000000028c>:
    80001b7c:	0452                	sll	s0,s0,0x14

0000000080001b7e <i000000028d>:
    80001b7e:	d23c7553          	fcvt.d.lu	fa0,s8

0000000080001b82 <i000000028e>:
    80001b82:	c22d7753          	fcvt.l.d	a4,fs10

0000000080001b86 <i000000028f>:
    80001b86:	393b6413          	or	s0,s6,915

0000000080001b8a <i0000000290>:
    80001b8a:	d0257553          	fcvt.s.l	fa0,a0

0000000080001b8e <i0000000291>:
    80001b8e:	28590ecf          	fnmadd.s	ft9,fs2,ft5,ft5,rne

0000000080001b92 <i0000000292>:
    80001b92:	0971242f          	amoswap.w	s0,s7,(sp)
    80001b96:	e1ba                	sd	a4,192(sp)
    80001b98:	c009fc53          	fcvt.w.s	s8,fs3
    80001b9c:	0084143b          	sllw	s0,s0,s0
    80001ba0:	f0e2                	sd	s8,96(sp)
    80001ba2:	039a7c33          	remu	s8,s4,s9
    80001ba6:	9f99                	subw	a5,a5,a4
    80001ba8:	038761bb          	remw	gp,a4,s8

0000000080001bac <b0000000293>:
    80001bac:	00000897          	auipc	a7,0x0
    80001bb0:	03488893          	add	a7,a7,52 # 80001be0 <i0000000298>
    80001bb4:	00088067          	jr	a7
    80001bb8:	6442                	ld	s0,16(sp)
    80001bba:	9bc5                	and	a5,a5,-15
    80001bbc:	c012fc53          	fcvt.wu.s	s8,ft5
    80001bc0:	384c091b          	addw	s2,s8,900
    80001bc4:	ff813823          	sd	s8,-16(sp)
    80001bc8:	7706                	ld	a4,96(sp)
    80001bca:	9c25                	addw	s0,s0,s1

0000000080001bcc <i0000000293>:
    80001bcc:	038c0bb3          	mul	s7,s8,s8

0000000080001bd0 <i0000000294>:
    80001bd0:	c22e7353          	fcvt.l.d	t1,ft8

0000000080001bd4 <i0000000295>:
    80001bd4:	0ff0000f          	fence

0000000080001bd8 <i0000000296>:
    80001bd8:	d0378fd3          	fcvt.s.lu	ft11,a5,rne

0000000080001bdc <i0000000297>:
    80001bdc:	0151252f          	amoadd.w	a0,s5,(sp)

0000000080001be0 <i0000000298>:
    80001be0:	1848                	add	a0,sp,52

0000000080001be2 <i0000000299>:
    80001be2:	710d                	add	sp,sp,-352

0000000080001be4 <i000000029a>:
    80001be4:	0081342f          	amoadd.d	s0,s0,(sp)

0000000080001be8 <i000000029b>:
    80001be8:	f68fe0ef          	jal	80000350 <func1>

0000000080001bec <i000000029c>:
    80001bec:	cc72                	sw	t3,24(sp)

0000000080001bee <i000000029d>:
    80001bee:	c2307553          	fcvt.lu.d	a0,ft0

0000000080001bf2 <i000000029e>:
    80001bf2:	cf013503          	ld	a0,-784(sp)

0000000080001bf6 <i000000029f>:
    80001bf6:	3f813d83          	ld	s11,1016(sp)

0000000080001bfa <i00000002a0>:
    80001bfa:	418c501b          	sraw	zero,s8,0x18
    80001bfe:	4c25                	li	s8,9
    80001c00:	4ea9                	li	t4,10
    80001c02:	c03277d3          	fcvt.lu.s	a5,ft4
    80001c06:	023a5fbb          	divuw	t6,s4,gp
    80001c0a:	bdb11423          	sh	s11,-1080(sp)
    80001c0e:	b4a6                	fsd	fs1,104(sp)
    80001c10:	ea813c23          	sd	s0,-328(sp)
    80001c14:	d03a1553          	fcvt.s.lu	fa0,s4,rtz
    80001c18:	83b5                	srl	a5,a5,0xd

0000000080001c1a <b00000002a1>:
    80001c1a:	00000033          	add	zero,zero,zero
    80001c1e:	05dc5563          	bge	s8,t4,80001c68 <i00000002a8>
    80001c22:	00000033          	add	zero,zero,zero
    80001c26:	02f7e4bb          	remw	s1,a5,a5
    80001c2a:	d0270e53          	fcvt.s.l	ft8,a4,rne
    80001c2e:	4078d413          	sra	s0,a7,0x7
    80001c32:	c0309753          	fcvt.lu.s	a4,ft1,rtz
    80001c36:	33f12a23          	sw	t6,820(sp)
    80001c3a:	a1f12aaf          	amomax.w	s5,t6,(sp)
    80001c3e:	02eb5713          	srl	a4,s6,0x2e
    80001c42:	4ea9                	li	t4,10

0000000080001c44 <i00000002a1>:
    80001c44:	0160583b          	srlw	a6,zero,s6

0000000080001c48 <i00000002a2>:
    80001c48:	9e35                	addw	a2,a2,a3
    80001c4a:	000de117          	auipc	sp,0xde
    80001c4e:	3b610113          	add	sp,sp,950 # 800e0000 <begin_signature>
    80001c52:	6305                	lui	t1,0x1
    80001c54:	8303031b          	addw	t1,t1,-2000 # 830 <_tbss_end+0x830>
    80001c58:	911a                	add	sp,sp,t1

0000000080001c5a <i00000002a3>:
    80001c5a:	2d46                	fld	fs10,80(sp)

0000000080001c5c <i00000002a4>:
    80001c5c:	f862                	sd	s8,48(sp)

0000000080001c5e <i00000002a5>:
    80001c5e:	038c18b3          	mulh	a7,s8,s8

0000000080001c62 <i00000002a6>:
    80001c62:	89ae                	mv	s3,a1

0000000080001c64 <i00000002a7>:
    80001c64:	42048e53          	fcvt.d.s	ft8,fs1

0000000080001c68 <i00000002a8>:
    80001c68:	d2357953          	fcvt.d.lu	fs2,a0

0000000080001c6c <i00000002a9>:
    80001c6c:	5a097e53          	fsqrt.d	ft8,fs2

0000000080001c70 <i00000002aa>:
    80001c70:	d6a2                	sw	s0,108(sp)

0000000080001c72 <i00000002ab>:
    80001c72:	00c8                	add	a0,sp,68

0000000080001c74 <i00000002ac>:
    80001c74:	2bbd9e53          	fmax.d	ft8,fs11,fs11

0000000080001c78 <i00000002ad>:
    80001c78:	d02c0f53          	fcvt.s.l	ft10,s8,rne
    80001c7c:	4ca9                	li	s9,10
    80001c7e:	4ea9                	li	t4,10
    80001c80:	000de117          	auipc	sp,0xde
    80001c84:	38010113          	add	sp,sp,896 # 800e0000 <begin_signature>
    80001c88:	6325                	lui	t1,0x9
    80001c8a:	4203031b          	addw	t1,t1,1056 # 9420 <_tbss_end+0x9420>
    80001c8e:	911a                	add	sp,sp,t1
    80001c90:	c022ae53          	fcvt.l.s	t3,ft5,rdn
    80001c94:	fa713c23          	sd	t2,-72(sp)
    80001c98:	925e7943          	fmadd.d	fs2,ft8,ft5,fs2
    80001c9c:	37d5                	addw	a5,a5,-11
    80001c9e:	ffea                	sd	s10,504(sp)
    80001ca0:	48c2                	lw	a7,16(sp)
    80001ca2:	d862                	sw	s8,48(sp)

0000000080001ca4 <b00000002ae>:
    80001ca4:	00000033          	add	zero,zero,zero
    80001ca8:	039e9c63          	bne	t4,s9,80001ce0 <i00000002b3>
    80001cac:	00000033          	add	zero,zero,zero
    80001cb0:	abc16b83          	lwu	s7,-1348(sp)
    80001cb4:	c232f453          	fcvt.lu.d	s0,ft5
    80001cb8:	1c016403          	lwu	s0,448(sp)
    80001cbc:	014bc9b3          	xor	s3,s7,s4
    80001cc0:	40870d3b          	subw	s10,a4,s0
    80001cc4:	e20804d3          	fmv.x.d	s1,fa6
    80001cc8:	5a0e7953          	fsqrt.d	fs2,ft8
    80001ccc:	4ea9                	li	t4,10

0000000080001cce <i00000002ae>:
    80001cce:	8431                	sra	s0,s0,0xc

0000000080001cd0 <i00000002af>:
    80001cd0:	02856c3b          	remw	s8,a0,s0

0000000080001cd4 <i00000002b0>:
    80001cd4:	e9813503          	ld	a0,-360(sp)

0000000080001cd8 <i00000002b1>:
    80001cd8:	02ac7b3b          	remuw	s6,s8,a0

0000000080001cdc <i00000002b2>:
    80001cdc:	cbc16503          	lwu	a0,-836(sp)

0000000080001ce0 <i00000002b3>:
    80001ce0:	0166d53b          	srlw	a0,a3,s6

0000000080001ce4 <i00000002b4>:
    80001ce4:	f82a                	sd	a0,48(sp)

0000000080001ce6 <i00000002b5>:
    80001ce6:	030e793b          	remuw	s2,t3,a6

0000000080001cea <i00000002b6>:
    80001cea:	acda4c13          	xor	s8,s4,-1331
    80001cee:	000de117          	auipc	sp,0xde
    80001cf2:	31210113          	add	sp,sp,786 # 800e0000 <begin_signature>
    80001cf6:	631d                	lui	t1,0x7
    80001cf8:	d803031b          	addw	t1,t1,-640 # 6d80 <_tbss_end+0x6d80>
    80001cfc:	911a                	add	sp,sp,t1

0000000080001cfe <i00000002b7>:
    80001cfe:	5432                	lw	s0,44(sp)

0000000080001d00 <i00000002b8>:
    80001d00:	c005bcd3          	fcvt.w.s	s9,fa1,rup

0000000080001d04 <i00000002b9>:
    80001d04:	41255f13          	sra	t5,a0,0x12

0000000080001d08 <i00000002ba>:
    80001d08:	61612aaf          	amoand.w	s5,s6,(sp)
    80001d0c:	000de117          	auipc	sp,0xde
    80001d10:	2f410113          	add	sp,sp,756 # 800e0000 <begin_signature>
    80001d14:	6309                	lui	t1,0x2
    80001d16:	8603031b          	addw	t1,t1,-1952 # 1860 <_tbss_end+0x1860>
    80001d1a:	911a                	add	sp,sp,t1
    80001d1c:	37e2                	fld	fa5,56(sp)
    80001d1e:	e3c2f947          	fmsub.d	fs2,ft5,ft8,ft8
    80001d22:	9b03fe47          	fmsub.d	ft8,ft7,fa6,fs3
    80001d26:	614137af          	amoand.d	a5,s4,(sp)
    80001d2a:	40e754bb          	sraw	s1,a4,a4
    80001d2e:	6b174493          	xor	s1,a4,1713
    80001d32:	c0ba                	sw	a4,64(sp)

0000000080001d34 <b00000002bb>:
    80001d34:	00000c17          	auipc	s8,0x0
    80001d38:	03ec0c13          	add	s8,s8,62 # 80001d72 <i00000002c1>
    80001d3c:	000c0567          	jalr	a0,s8
    80001d40:	c031a4d3          	fcvt.lu.s	s1,ft3,rdn
    80001d44:	c012a453          	fcvt.wu.s	s0,ft5,rdn
    80001d48:	a5213027          	fsd	fs2,-1472(sp)
    80001d4c:	2f846f97          	auipc	t6,0x2f846
    80001d50:	262e                	fld	fa2,200(sp)
    80001d52:	e0813d2f          	amomaxu.d	s10,s0,(sp)
    80001d56:	183a3953          	fdiv.s	fs2,fs4,ft3,rup

0000000080001d5a <i00000002bb>:
    80001d5a:	28590253          	fmin.s	ft4,fs2,ft5

0000000080001d5e <i00000002bc>:
    80001d5e:	00a12f2f          	amoadd.w	t5,a0,(sp)

0000000080001d62 <i00000002bd>:
    80001d62:	a9810523          	sb	s8,-1398(sp)

0000000080001d66 <i00000002be>:
    80001d66:	2bc12d03          	lw	s10,700(sp)

0000000080001d6a <i00000002bf>:
    80001d6a:	41840633          	sub	a2,s0,s8

0000000080001d6e <i00000002c0>:
    80001d6e:	fc816403          	lwu	s0,-56(sp)

0000000080001d72 <i00000002c1>:
    80001d72:	21bf0c1b          	addw	s8,t5,539

0000000080001d76 <i00000002c2>:
    80001d76:	9f29                	addw	a4,a4,a0

0000000080001d78 <i00000002c3>:
    80001d78:	e20803d3          	fmv.x.d	t2,fa6

0000000080001d7c <i00000002c4>:
    80001d7c:	0ff0000f          	fence

0000000080001d80 <i00000002c5>:
    80001d80:	1b68                	add	a0,sp,444

0000000080001d82 <i00000002c6>:
    80001d82:	c081202f          	amominu.w	zero,s0,(sp)

0000000080001d86 <i00000002c7>:
    80001d86:	40055213          	sra	tp,a0,0x0

0000000080001d8a <i00000002c8>:
    80001d8a:	dc6fe0ef          	jal	80000350 <func1>
    80001d8e:	4aa5                	li	s5,9
    80001d90:	4ea9                	li	t4,10
    80001d92:	000de117          	auipc	sp,0xde
    80001d96:	26e10113          	add	sp,sp,622 # 800e0000 <begin_signature>
    80001d9a:	630d                	lui	t1,0x3
    80001d9c:	a283031b          	addw	t1,t1,-1496 # 2a28 <_tbss_end+0x2a28>
    80001da0:	911a                	add	sp,sp,t1
    80001da2:	0f311823          	sh	s3,240(sp)
    80001da6:	b836                	fsd	fa3,48(sp)
    80001da8:	c1312c2f          	amominu.w	s8,s3,(sp)
    80001dac:	024dbc33          	mulhu	s8,s11,tp
    80001db0:	03905c3b          	divuw	s8,zero,s9
    80001db4:	9b79                	and	a4,a4,-2
    80001db6:	3546                	fld	fa0,112(sp)

0000000080001db8 <b00000002c9>:
    80001db8:	00000033          	add	zero,zero,zero
    80001dbc:	035eca63          	blt	t4,s5,80001df0 <i00000002ce>
    80001dc0:	00000033          	add	zero,zero,zero
    80001dc4:	4422                	lw	s0,8(sp)
    80001dc6:	6a0a                	ld	s4,128(sp)
    80001dc8:	036188b3          	mul	a7,gp,s6
    80001dcc:	085294d3          	fsub.s	fs1,ft5,ft5,rtz
    80001dd0:	0249b733          	mulhu	a4,s3,tp
    80001dd4:	a18134af          	amomax.d	s1,s8,(sp)
    80001dd8:	7149                	add	sp,sp,-368
    80001dda:	4ea9                	li	t4,10

0000000080001ddc <i00000002c9>:
    80001ddc:	02ac1c33          	mulh	s8,s8,a0

0000000080001de0 <i00000002ca>:
    80001de0:	e4813503          	ld	a0,-440(sp)

0000000080001de4 <i00000002cb>:
    80001de4:	c022ba53          	fcvt.l.s	s4,ft5,rup

0000000080001de8 <i00000002cc>:
    80001de8:	03945c13          	srl	s8,s0,0x39

0000000080001dec <i00000002cd>:
    80001dec:	418c0c3b          	subw	s8,s8,s8

0000000080001df0 <i00000002ce>:
    80001df0:	d0273e53          	fcvt.s.l	ft8,a4,rup

0000000080001df4 <i00000002cf>:
    80001df4:	02a45533          	divu	a0,s0,a0

0000000080001df8 <i00000002d0>:
    80001df8:	d03c7953          	fcvt.s.lu	fs2,s8

0000000080001dfc <i00000002d1>:
    80001dfc:	02bab1b3          	mulhu	gp,s5,a1

0000000080001e00 <i00000002d2>:
    80001e00:	8081382f          	amomin.d	a6,s0,(sp)

0000000080001e04 <i00000002d3>:
    80001e04:	0034a4b3          	slt	s1,s1,gp

0000000080001e08 <i00000002d4>:
    80001e08:	1280fe53          	fmul.d	ft8,ft1,fs0

0000000080001e0c <i00000002d5>:
    80001e0c:	407b5abb          	sraw	s5,s6,t2
    80001e10:	000de117          	auipc	sp,0xde
    80001e14:	1f010113          	add	sp,sp,496 # 800e0000 <begin_signature>
    80001e18:	6315                	lui	t1,0x5
    80001e1a:	f883031b          	addw	t1,t1,-120 # 4f88 <_tbss_end+0x4f88>
    80001e1e:	911a                	add	sp,sp,t1
    80001e20:	000de117          	auipc	sp,0xde
    80001e24:	1e010113          	add	sp,sp,480 # 800e0000 <begin_signature>
    80001e28:	6329                	lui	t1,0xa
    80001e2a:	7d03031b          	addw	t1,t1,2000 # a7d0 <_tbss_end+0xa7d0>
    80001e2e:	911a                	add	sp,sp,t1
    80001e30:	78811c23          	sh	s0,1944(sp)
    80001e34:	e171342f          	amomaxu.d	s0,s7,(sp)
    80001e38:	714d                	add	sp,sp,-336
    80001e3a:	0000100f          	fence.i
    80001e3e:	87b1                	sra	a5,a5,0xc
    80001e40:	035a2db3          	mulhsu	s11,s4,s5
    80001e44:	01ad59bb          	srlw	s3,s10,s10

0000000080001e48 <b00000002d6>:
    80001e48:	00000c17          	auipc	s8,0x0
    80001e4c:	040c0c13          	add	s8,s8,64 # 80001e88 <i00000002de>
    80001e50:	000c0567          	jalr	a0,s8
    80001e54:	20713e2f          	amoxor.d	t3,t2,(sp)
    80001e58:	33c11703          	lh	a4,828(sp)
    80001e5c:	029b88b3          	mul	a7,s7,s1
    80001e60:	678e                	ld	a5,192(sp)
    80001e62:	7ba15703          	lhu	a4,1978(sp)
    80001e66:	40f124af          	amoor.w	s1,a5,(sp)
    80001e6a:	0ffa0e13          	add	t3,s4,255

0000000080001e6e <i00000002d6>:
    80001e6e:	81313c2f          	amomin.d	s8,s3,(sp)

0000000080001e72 <i00000002d7>:
    80001e72:	b43a                	fsd	fa4,40(sp)

0000000080001e74 <i00000002d8>:
    80001e74:	8c62                	mv	s8,s8

0000000080001e76 <i00000002d9>:
    80001e76:	c03b84d3          	fcvt.lu.s	s1,fs7,rne

0000000080001e7a <i00000002da>:
    80001e7a:	d0252953          	fcvt.s.l	fs2,a0,rdn

0000000080001e7e <i00000002db>:
    80001e7e:	0337f43b          	remuw	s0,a5,s3

0000000080001e82 <i00000002dc>:
    80001e82:	3402                	fld	fs0,32(sp)

0000000080001e84 <i00000002dd>:
    80001e84:	e20e0453          	fmv.x.d	s0,ft8

0000000080001e88 <i00000002de>:
    80001e88:	00fc9f93          	sll	t6,s9,0xf

0000000080001e8c <i00000002df>:
    80001e8c:	1322f6d3          	fmul.d	fa3,ft5,fs2

0000000080001e90 <i00000002e0>:
    80001e90:	01013c2f          	amoadd.d	s8,a6,(sp)

0000000080001e94 <i00000002e1>:
    80001e94:	5562                	lw	a0,56(sp)

0000000080001e96 <i00000002e2>:
    80001e96:	c02eb453          	fcvt.l.s	s0,ft9,rup

0000000080001e9a <i00000002e3>:
    80001e9a:	cb6fe0ef          	jal	80000350 <func1>
    80001e9e:	48ad                	li	a7,11
    80001ea0:	0e85                	add	t4,t4,1
    80001ea2:	000de117          	auipc	sp,0xde
    80001ea6:	15e10113          	add	sp,sp,350 # 800e0000 <begin_signature>
    80001eaa:	6331                	lui	t1,0xc
    80001eac:	e183031b          	addw	t1,t1,-488 # be18 <_tbss_end+0xbe18>
    80001eb0:	911a                	add	sp,sp,t1
    80001eb2:	119072d3          	fmul.s	ft5,ft0,fs9
    80001eb6:	587fd4b7          	lui	s1,0x587fd
    80001eba:	0ff0000f          	fence
    80001ebe:	75313823          	sd	s3,1872(sp)
    80001ec2:	f2098ad3          	fmv.d.x	fs5,s3
    80001ec6:	01800033          	add	zero,zero,s8
    80001eca:	c0e134af          	amominu.d	s1,a4,(sp)

0000000080001ece <b00000002e4>:
    80001ece:	00000033          	add	zero,zero,zero
    80001ed2:	fb1e88e3          	beq	t4,a7,80001e82 <i00000002dc>
    80001ed6:	00000033          	add	zero,zero,zero
    80001eda:	6145                	add	sp,sp,48
    80001edc:	84ad                	sra	s1,s1,0xb
    80001ede:	bd96                	fsd	ft5,248(sp)
    80001ee0:	c222f953          	fcvt.l.d	s2,ft5
    80001ee4:	0344ac33          	mulhsu	s8,s1,s4
    80001ee8:	64a6                	ld	s1,72(sp)
    80001eea:	03848a3b          	mulw	s4,s1,s8
    80001eee:	4ea9                	li	t4,10

0000000080001ef0 <i00000002e4>:
    80001ef0:	c0317353          	fcvt.lu.s	t1,ft2

0000000080001ef4 <i00000002e5>:
    80001ef4:	03fd4c33          	div	s8,s10,t6

0000000080001ef8 <i00000002e6>:
    80001ef8:	81ed                	srl	a1,a1,0x1b

0000000080001efa <i00000002e7>:
    80001efa:	c56fe0ef          	jal	80000350 <func1>

0000000080001efe <i00000002e8>:
    80001efe:	07412003          	lw	zero,116(sp)
    80001f02:	000de117          	auipc	sp,0xde
    80001f06:	0fe10113          	add	sp,sp,254 # 800e0000 <begin_signature>
    80001f0a:	6339                	lui	t1,0xe
    80001f0c:	6f83031b          	addw	t1,t1,1784 # e6f8 <_tbss_end+0xe6f8>
    80001f10:	911a                	add	sp,sp,t1

0000000080001f12 <i00000002e9>:
    80001f12:	6f013a87          	fld	fs5,1776(sp)

0000000080001f16 <i00000002ea>:
    80001f16:	c426                	sw	s1,8(sp)

0000000080001f18 <i00000002eb>:
    80001f18:	0000100f          	fence.i

0000000080001f1c <i00000002ec>:
    80001f1c:	c0388e53          	fcvt.lu.s	t3,fa7,rne

0000000080001f20 <i00000002ed>:
    80001f20:	f50e                	sd	gp,168(sp)

0000000080001f22 <i00000002ee>:
    80001f22:	8c21                	xor	s0,s0,s0

0000000080001f24 <i00000002ef>:
    80001f24:	d062                	sw	s8,32(sp)

0000000080001f26 <i00000002f0>:
    80001f26:	8331                	srl	a4,a4,0xc

0000000080001f28 <i00000002f1>:
    80001f28:	02796c3b          	remw	s8,s2,t2
    80001f2c:	4da9                	li	s11,10
    80001f2e:	000de117          	auipc	sp,0xde
    80001f32:	0d210113          	add	sp,sp,210 # 800e0000 <begin_signature>
    80001f36:	6319                	lui	t1,0x6
    80001f38:	3f03031b          	addw	t1,t1,1008 # 63f0 <_tbss_end+0x63f0>
    80001f3c:	911a                	add	sp,sp,t1
    80001f3e:	80f1282f          	amomin.w	a6,a5,(sp)
    80001f42:	6746                	ld	a4,80(sp)
    80001f44:	2722                	fld	fa4,8(sp)
    80001f46:	9122fdc7          	fmsub.s	fs11,ft5,fs2,fs2
    80001f4a:	0159d493          	srl	s1,s3,0x15
    80001f4e:	20e12aaf          	amoxor.w	s5,a4,(sp)
    80001f52:	008c7733          	and	a4,s8,s0

0000000080001f56 <b00000002f2>:
    80001f56:	01be8463          	beq	t4,s11,80001f5e <b00000002f2+0x8>
    80001f5a:	fc3ff06f          	j	80001f1c <i00000002ec>
    80001f5e:	4ea9                	li	t4,10
    80001f60:	02ec69bb          	remw	s3,s8,a4
    80001f64:	0881372f          	amoswap.d	a4,s0,(sp)
    80001f68:	033aee3b          	remw	t3,s5,s3
    80001f6c:	b891a943          	fmadd.s	fs2,ft3,fs1,fs7,rdn
    80001f70:	c024bfd3          	fcvt.l.s	t6,fs1,rup
    80001f74:	4174df93          	sra	t6,s1,0x17
    80001f78:	a036                	fsd	fa3,0(sp)

0000000080001f7a <i00000002f2>:
    80001f7a:	f20c0953          	fmv.d.x	fs2,s8

0000000080001f7e <i00000002f3>:
    80001f7e:	0844                	add	s1,sp,20
    80001f80:	000de117          	auipc	sp,0xde
    80001f84:	08010113          	add	sp,sp,128 # 800e0000 <begin_signature>
    80001f88:	632d                	lui	t1,0xb
    80001f8a:	ea03031b          	addw	t1,t1,-352 # aea0 <_tbss_end+0xaea0>
    80001f8e:	911a                	add	sp,sp,t1

0000000080001f90 <i00000002f4>:
    80001f90:	6742                	ld	a4,16(sp)

0000000080001f92 <i00000002f5>:
    80001f92:	c0412c2f          	amominu.w	s8,tp,(sp)
    80001f96:	000de117          	auipc	sp,0xde
    80001f9a:	06a10113          	add	sp,sp,106 # 800e0000 <begin_signature>
    80001f9e:	6329                	lui	t1,0xa
    80001fa0:	8783031b          	addw	t1,t1,-1928 # 9878 <_tbss_end+0x9878>
    80001fa4:	911a                	add	sp,sp,t1

0000000080001fa6 <i00000002f6>:
    80001fa6:	68c6                	ld	a7,80(sp)

0000000080001fa8 <i00000002f7>:
    80001fa8:	01405413          	srl	s0,zero,0x14

0000000080001fac <i00000002f8>:
    80001fac:	6141242f          	amoand.w	s0,s4,(sp)
    80001fb0:	000de117          	auipc	sp,0xde
    80001fb4:	05010113          	add	sp,sp,80 # 800e0000 <begin_signature>
    80001fb8:	630d                	lui	t1,0x3
    80001fba:	911a                	add	sp,sp,t1

0000000080001fbc <i00000002f9>:
    80001fbc:	e7aa                	sd	a0,456(sp)

0000000080001fbe <i00000002fa>:
    80001fbe:	018124af          	amoadd.w	s1,s8,(sp)

0000000080001fc2 <i00000002fb>:
    80001fc2:	7426                	ld	s0,104(sp)

0000000080001fc4 <i00000002fc>:
    80001fc4:	28bc0953          	fmin.s	fs2,fs8,fa1

0000000080001fc8 <i00000002fd>:
    80001fc8:	c032b553          	fcvt.lu.s	a0,ft5,rup

0000000080001fcc <i00000002fe>:
    80001fcc:	c0393653          	fcvt.lu.s	a2,fs2,rup
    80001fd0:	49b1                	li	s3,12
    80001fd2:	4ea9                	li	t4,10
    80001fd4:	000de117          	auipc	sp,0xde
    80001fd8:	02c10113          	add	sp,sp,44 # 800e0000 <begin_signature>
    80001fdc:	633d                	lui	t1,0xf
    80001fde:	0403031b          	addw	t1,t1,64 # f040 <_tbss_end+0xf040>
    80001fe2:	911a                	add	sp,sp,t1
    80001fe4:	019c                	add	a5,sp,192
    80001fe6:	e4c12403          	lw	s0,-436(sp)
    80001fea:	00846233          	or	tp,s0,s0
    80001fee:	01385c1b          	srlw	s8,a6,0x13
    80001ff2:	7a610b83          	lb	s7,1958(sp)
    80001ff6:	2812                	fld	fa6,256(sp)
    80001ff8:	ac3e                	fsd	fa5,24(sp)

0000000080001ffa <b00000002ff>:
    80001ffa:	00000033          	add	zero,zero,zero
    80001ffe:	033ec863          	blt	t4,s3,8000202e <i0000000304>
    80002002:	00000033          	add	zero,zero,zero
    80002006:	e13e                	sd	a5,128(sp)
    80002008:	00e124af          	amoadd.w	s1,a4,(sp)
    8000200c:	8471                	sra	s0,s0,0x1c
    8000200e:	03ab9ab3          	mulh	s5,s7,s10
    80002012:	616d                	add	sp,sp,240
    80002014:	6fdfe413          	or	s0,t6,1789
    80002018:	e041272f          	amomaxu.w	a4,tp,(sp)
    8000201c:	4ea9                	li	t4,10

000000008000201e <i00000002ff>:
    8000201e:	64c6                	ld	s1,80(sp)

0000000080002020 <i0000000300>:
    80002020:	d02a                	sw	a0,32(sp)

0000000080002022 <i0000000301>:
    80002022:	808133af          	amomin.d	t2,s0,(sp)

0000000080002026 <i0000000302>:
    80002026:	c2187553          	fcvt.wu.d	a0,fa6

000000008000202a <i0000000303>:
    8000202a:	a1613caf          	amomax.d	s9,s6,(sp)

000000008000202e <i0000000304>:
    8000202e:	8c01                	sub	s0,s0,s0

0000000080002030 <i0000000305>:
    80002030:	952a                	add	a0,a0,a0
    80002032:	000de117          	auipc	sp,0xde
    80002036:	fce10113          	add	sp,sp,-50 # 800e0000 <begin_signature>
    8000203a:	6315                	lui	t1,0x5
    8000203c:	9f83031b          	addw	t1,t1,-1544 # 49f8 <_tbss_end+0x49f8>
    80002040:	911a                	add	sp,sp,t1

0000000080002042 <i0000000306>:
    80002042:	2d813d83          	ld	s11,728(sp)

0000000080002046 <i0000000307>:
    80002046:	0000100f          	fence.i

000000008000204a <i0000000308>:
    8000204a:	2e66                	fld	ft8,88(sp)

000000008000204c <i0000000309>:
    8000204c:	a4812c03          	lw	s8,-1464(sp)

0000000080002050 <i000000030a>:
    80002050:	426cd413          	sra	s0,s9,0x26

0000000080002054 <i000000030b>:
    80002054:	bc26                	fsd	fs1,56(sp)
    80002056:	0040                	add	s0,sp,4
    80002058:	028c1433          	mulh	s0,s8,s0
    8000205c:	8f39                	xor	a4,a4,a4
    8000205e:	d226                	sw	s1,36(sp)
    80002060:	83e1                	srl	a5,a5,0x18
    80002062:	8001372f          	amomin.d	a4,zero,(sp)
    80002066:	b0016d83          	lwu	s11,-1280(sp)

000000008000206a <b000000030c>:
    8000206a:	00000817          	auipc	a6,0x0
    8000206e:	03e80813          	add	a6,a6,62 # 800020a8 <i0000000313>
    80002072:	00080567          	jalr	a0,a6
    80002076:	8085                	srl	s1,s1,0x1
    80002078:	0000100f          	fence.i
    8000207c:	5c96                	lw	s9,100(sp)
    8000207e:	7165                	add	sp,sp,-400
    80002080:	54e2                	lw	s1,56(sp)
    80002082:	27bd                	addw	a5,a5,15
    80002084:	f426                	sd	s1,40(sp)

0000000080002086 <i000000030c>:
    80002086:	540d                	li	s0,-29

0000000080002088 <i000000030d>:
    80002088:	4466                	lw	s0,88(sp)

000000008000208a <i000000030e>:
    8000208a:	d01e0e53          	fcvt.s.wu	ft8,t3,rne

000000008000208e <i000000030f>:
    8000208e:	3566                	fld	fa0,120(sp)

0000000080002090 <i0000000310>:
    80002090:	39b8fe43          	fmadd.s	ft8,fa7,fs11,ft7

0000000080002094 <i0000000311>:
    80002094:	6145                	add	sp,sp,48
    80002096:	000de117          	auipc	sp,0xde
    8000209a:	f6a10113          	add	sp,sp,-150 # 800e0000 <begin_signature>
    8000209e:	6309                	lui	t1,0x2
    800020a0:	0583031b          	addw	t1,t1,88 # 2058 <_tbss_end+0x2058>
    800020a4:	911a                	add	sp,sp,t1

00000000800020a6 <i0000000312>:
    800020a6:	3962                	fld	fs2,56(sp)

00000000800020a8 <i0000000313>:
    800020a8:	140e                	sll	s0,s0,0x23

00000000800020aa <i0000000314>:
    800020aa:	dea2                	sw	s0,124(sp)

00000000800020ac <i0000000315>:
    800020ac:	45a2                	lw	a1,8(sp)

00000000800020ae <i0000000316>:
    800020ae:	290a                	fld	fs2,128(sp)

00000000800020b0 <i0000000317>:
    800020b0:	0060                	add	s0,sp,12

00000000800020b2 <i0000000318>:
    800020b2:	61f1252f          	amoand.w	a0,t6,(sp)
    800020b6:	4d2d                	li	s10,11
    800020b8:	0e85                	add	t4,t4,1
    800020ba:	000de117          	auipc	sp,0xde
    800020be:	f4610113          	add	sp,sp,-186 # 800e0000 <begin_signature>
    800020c2:	6339                	lui	t1,0xe
    800020c4:	2103031b          	addw	t1,t1,528 # e210 <_tbss_end+0xe210>
    800020c8:	911a                	add	sp,sp,t1
    800020ca:	000de117          	auipc	sp,0xde
    800020ce:	f3610113          	add	sp,sp,-202 # 800e0000 <begin_signature>
    800020d2:	6331                	lui	t1,0xc
    800020d4:	f503031b          	addw	t1,t1,-176 # bf50 <_tbss_end+0xbf50>
    800020d8:	911a                	add	sp,sp,t1
    800020da:	000de117          	auipc	sp,0xde
    800020de:	f2610113          	add	sp,sp,-218 # 800e0000 <begin_signature>
    800020e2:	6339                	lui	t1,0xe
    800020e4:	2903031b          	addw	t1,t1,656 # e290 <_tbss_end+0xe290>
    800020e8:	911a                	add	sp,sp,t1
    800020ea:	000de117          	auipc	sp,0xde
    800020ee:	f1610113          	add	sp,sp,-234 # 800e0000 <begin_signature>
    800020f2:	6335                	lui	t1,0xd
    800020f4:	7603031b          	addw	t1,t1,1888 # d760 <_tbss_end+0xd760>
    800020f8:	911a                	add	sp,sp,t1
    800020fa:	0ff0000f          	fence
    800020fe:	a416                	fsd	ft5,8(sp)
    80002100:	b116                	fsd	ft5,160(sp)
    80002102:	02ac1213          	sll	tp,s8,0x2a
    80002106:	64a6                	ld	s1,72(sp)
    80002108:	0ff0000f          	fence
    8000210c:	080121af          	amoswap.w	gp,zero,(sp)

0000000080002110 <b0000000319>:
    80002110:	00000033          	add	zero,zero,zero
    80002114:	f9ae8be3          	beq	t4,s10,800020aa <i0000000314>
    80002118:	00000033          	add	zero,zero,zero
    8000211c:	091124af          	amoswap.w	s1,a7,(sp)
    80002120:	b0a6                	fsd	fs1,96(sp)
    80002122:	098123af          	amoswap.w	t2,s8,(sp)
    80002126:	610d                	add	sp,sp,160
    80002128:	40e1342f          	amoor.d	s0,a4,(sp)
    8000212c:	c8ee                	sw	s11,80(sp)
    8000212e:	e7c16403          	lwu	s0,-388(sp)
    80002132:	4ea9                	li	t4,10

0000000080002134 <i0000000319>:
    80002134:	40ea5a9b          	sraw	s5,s4,0xe

0000000080002138 <i000000031a>:
    80002138:	03f92233          	mulhsu	tp,s2,t6

000000008000213c <i000000031b>:
    8000213c:	1b88                	add	a0,sp,496

000000008000213e <i000000031c>:
    8000213e:	c82a                	sw	a0,16(sp)

0000000080002140 <i000000031d>:
    80002140:	02a47433          	remu	s0,s0,a0

0000000080002144 <i000000031e>:
    80002144:	0141                	add	sp,sp,16

0000000080002146 <i000000031f>:
    80002146:	9c29                	addw	s0,s0,a0

0000000080002148 <i0000000320>:
    80002148:	000b83bb          	addw	t2,s7,zero

000000008000214c <i0000000321>:
    8000214c:	0da5ed93          	or	s11,a1,218

0000000080002150 <i0000000322>:
    80002150:	208125af          	amoxor.w	a1,s0,(sp)

0000000080002154 <i0000000323>:
    80002154:	40812aaf          	amoor.w	s5,s0,(sp)

0000000080002158 <i0000000324>:
    80002158:	dac12287          	flw	ft5,-596(sp)

000000008000215c <i0000000325>:
    8000215c:	ca4c7a13          	and	s4,s8,-860
    80002160:	492d                	li	s2,11
    80002162:	4ea9                	li	t4,10
    80002164:	000de117          	auipc	sp,0xde
    80002168:	e9c10113          	add	sp,sp,-356 # 800e0000 <begin_signature>
    8000216c:	6315                	lui	t1,0x5
    8000216e:	5903031b          	addw	t1,t1,1424 # 5590 <_tbss_end+0x5590>
    80002172:	911a                	add	sp,sp,t1
    80002174:	c23e                	sw	a5,4(sp)
    80002176:	038404b3          	mul	s1,s0,s8
    8000217a:	018c003b          	addw	zero,s8,s8
    8000217e:	d0340cd3          	fcvt.s.lu	fs9,s0,rne
    80002182:	e4e15c03          	lhu	s8,-434(sp)
    80002186:	94ba                	add	s1,s1,a4
    80002188:	20440953          	fsgnj.s	fs2,fs0,ft4

000000008000218c <b0000000326>:
    8000218c:	00000033          	add	zero,zero,zero
    80002190:	032e9d63          	bne	t4,s2,800021ca <i000000032d>
    80002194:	00000033          	add	zero,zero,zero
    80002198:	02ec1c33          	mulh	s8,s8,a4
    8000219c:	d034f553          	fcvt.s.lu	fa0,s1
    800021a0:	08e12baf          	amoswap.w	s7,a4,(sp)
    800021a4:	bcae                	fsd	fa1,120(sp)
    800021a6:	0229de13          	srl	t3,s3,0x22
    800021aa:	0abff2d3          	fsub.d	ft5,ft11,fa1
    800021ae:	8f9d                	sub	a5,a5,a5
    800021b0:	4ea9                	li	t4,10

00000000800021b2 <i0000000326>:
    800021b2:	08dc12d3          	fsub.s	ft5,fs8,fa3,rtz

00000000800021b6 <i0000000327>:
    800021b6:	b4010f83          	lb	t6,-1216(sp)

00000000800021ba <i0000000328>:
    800021ba:	63311723          	sh	s3,1582(sp)

00000000800021be <i0000000329>:
    800021be:	859d                	sra	a1,a1,0x7

00000000800021c0 <i000000032a>:
    800021c0:	03360c33          	mul	s8,a2,s3

00000000800021c4 <i000000032b>:
    800021c4:	13cc                	add	a1,sp,484

00000000800021c6 <i000000032c>:
    800021c6:	411124af          	amoor.w	s1,a7,(sp)

00000000800021ca <i000000032d>:
    800021ca:	016a043b          	addw	s0,s4,s6

00000000800021ce <i000000032e>:
    800021ce:	47f2                	lw	a5,28(sp)

00000000800021d0 <i000000032f>:
    800021d0:	031fd533          	divu	a0,t6,a7

00000000800021d4 <i0000000330>:
    800021d4:	fcba                	sd	a4,120(sp)

00000000800021d6 <i0000000331>:
    800021d6:	03855533          	divu	a0,a0,s8

00000000800021da <i0000000332>:
    800021da:	7985851b          	addw	a0,a1,1944
    800021de:	ae811623          	sh	s0,-1300(sp)
    800021e2:	3785                	addw	a5,a5,-31
    800021e4:	1c24be13          	sltiu	t3,s1,450
    800021e8:	6b71                	lui	s6,0x1c
    800021ea:	0000100f          	fence.i
    800021ee:	a136                	fsd	fa3,128(sp)
    800021f0:	3606                	fld	fa2,96(sp)

00000000800021f2 <b0000000333>:
    800021f2:	00000c97          	auipc	s9,0x0
    800021f6:	03ac8c93          	add	s9,s9,58 # 8000222c <i000000033a>
    800021fa:	000c8067          	jr	s9
    800021fe:	8181242f          	amomin.w	s0,s8,(sp)
    80002202:	e18134af          	amomaxu.d	s1,s8,(sp)
    80002206:	a081342f          	amomax.d	s0,s0,(sp)
    8000220a:	d227f853          	fcvt.d.l	fa6,a5
    8000220e:	9c99                	subw	s1,s1,a4
    80002210:	0ff0000f          	fence
    80002214:	7c06                	ld	s8,96(sp)

0000000080002216 <i0000000333>:
    80002216:	02ffa533          	mulhsu	a0,t6,a5

000000008000221a <i0000000334>:
    8000221a:	7522                	ld	a0,40(sp)

000000008000221c <i0000000335>:
    8000221c:	58044b53          	fsqrt.s	fs6,fs0,rmm

0000000080002220 <i0000000336>:
    80002220:	028c7dbb          	remuw	s11,s8,s0

0000000080002224 <i0000000337>:
    80002224:	09c94e53          	fsub.s	ft8,fs2,ft8,rmm

0000000080002228 <i0000000338>:
    80002228:	12c0                	add	s0,sp,356

000000008000222a <i0000000339>:
    8000222a:	87f5                	sra	a5,a5,0x1d

000000008000222c <i000000033a>:
    8000222c:	c826                	sw	s1,16(sp)

000000008000222e <i000000033b>:
    8000222e:	0531                	add	a0,a0,12 # e00c <_tbss_end+0xe00c>

0000000080002230 <i000000033c>:
    80002230:	83a5                	srl	a5,a5,0x9

0000000080002232 <i000000033d>:
    80002232:	a1b1352f          	amomax.d	a0,s11,(sp)

0000000080002236 <i000000033e>:
    80002236:	005ae433          	or	s0,s5,t0

000000008000223a <i000000033f>:
    8000223a:	21b13c2f          	amoxor.d	s8,s11,(sp)
    8000223e:	4aad                	li	s5,11
    80002240:	4ea9                	li	t4,10
    80002242:	2bc29053          	fmax.d	ft0,ft5,ft8
    80002246:	8f05                	sub	a4,a4,s1
    80002248:	00700e3b          	addw	t3,zero,t2
    8000224c:	f3813383          	ld	t2,-200(sp)
    80002250:	54e2                	lw	s1,56(sp)
    80002252:	0104                	add	s1,sp,128
    80002254:	00f82c33          	slt	s8,a6,a5

0000000080002258 <b0000000340>:
    80002258:	00000033          	add	zero,zero,zero
    8000225c:	035e9f63          	bne	t4,s5,8000229a <i0000000348>
    80002260:	00000033          	add	zero,zero,zero
    80002264:	075a                	sll	a4,a4,0x16
    80002266:	8cc1                	or	s1,s1,s0
    80002268:	9f39                	addw	a4,a4,a4
    8000226a:	0084143b          	sllw	s0,s0,s0
    8000226e:	c1812faf          	amominu.w	t6,s8,(sp)
    80002272:	02ec773b          	remuw	a4,s8,a4
    80002276:	c03e33d3          	fcvt.lu.s	t2,ft8,rup
    8000227a:	4ea9                	li	t4,10

000000008000227c <i0000000340>:
    8000227c:	9839                	and	s0,s0,-18

000000008000227e <i0000000341>:
    8000227e:	02850c33          	mul	s8,a0,s0

0000000080002282 <i0000000342>:
    80002282:	df811a23          	sh	s8,-524(sp)

0000000080002286 <i0000000343>:
    80002286:	414f8533          	sub	a0,t6,s4

000000008000228a <i0000000344>:
    8000228a:	b6c12303          	lw	t1,-1172(sp)

000000008000228e <i0000000345>:
    8000228e:	0000100f          	fence.i

0000000080002292 <i0000000346>:
    80002292:	0196b053          	fadd.s	ft0,fa3,fs9,rup

0000000080002296 <i0000000347>:
    80002296:	20813baf          	amoxor.d	s7,s0,(sp)

000000008000229a <i0000000348>:
    8000229a:	0108951b          	sllw	a0,a7,0x10

000000008000229e <i0000000349>:
    8000229e:	0023d073          	fsrmi	zero,7

00000000800022a2 <i000000034a>:
    800022a2:	6c6e                	ld	s8,216(sp)

00000000800022a4 <i000000034b>:
    800022a4:	8cd5                	or	s1,s1,a3

00000000800022a6 <i000000034c>:
    800022a6:	0052c2d3          	fadd.s	ft5,ft5,ft5,rmm

00000000800022aa <i000000034d>:
    800022aa:	024258b3          	divu	a7,tp,tp
    800022ae:	4ab1                	li	s5,12
    800022b0:	0e85                	add	t4,t4,1
    800022b2:	092e02d3          	fsub.s	ft5,ft8,fs2,rne
    800022b6:	9c39                	addw	s0,s0,a4
    800022b8:	008704bb          	addw	s1,a4,s0
    800022bc:	0000100f          	fence.i
    800022c0:	01ba5893          	srl	a7,s4,0x1b
    800022c4:	7a203b13          	sltiu	s6,zero,1954
    800022c8:	8fc12383          	lw	t2,-1796(sp)

00000000800022cc <b000000034e>:
    800022cc:	00000033          	add	zero,zero,zero
    800022d0:	fd5e93e3          	bne	t4,s5,80002296 <i0000000347>
    800022d4:	00000033          	add	zero,zero,zero
    800022d8:	ac2a                	fsd	fa0,24(sp)
    800022da:	3606                	fld	fa2,96(sp)
    800022dc:	ad212a23          	sw	s2,-1324(sp)
    800022e0:	22b48e53          	fsgnj.d	ft8,fs1,fa1
    800022e4:	03fd6cbb          	remw	s9,s10,t6
    800022e8:	c0328253          	fcvt.lu.s	tp,ft5,rne
    800022ec:	c03284d3          	fcvt.lu.s	s1,ft5,rne
    800022f0:	4ea9                	li	t4,10

00000000800022f2 <i000000034e>:
    800022f2:	9c01                	subw	s0,s0,s0

00000000800022f4 <i000000034f>:
    800022f4:	6431                	lui	s0,0xc

00000000800022f6 <i0000000350>:
    800022f6:	0385643b          	remw	s0,a0,s8

00000000800022fa <i0000000351>:
    800022fa:	a4412503          	lw	a0,-1468(sp)

00000000800022fe <i0000000352>:
    800022fe:	1402                	sll	s0,s0,0x20

0000000080002300 <i0000000353>:
    80002300:	f462                	sd	s8,40(sp)

0000000080002302 <i0000000354>:
    80002302:	0000100f          	fence.i

0000000080002306 <i0000000355>:
    80002306:	0238e433          	rem	s0,a7,gp

000000008000230a <i0000000356>:
    8000230a:	8311                	srl	a4,a4,0x4

000000008000230c <i0000000357>:
    8000230c:	8529                	sra	a0,a0,0xa

000000008000230e <i0000000358>:
    8000230e:	dca2                	sw	s0,120(sp)
    80002310:	000de117          	auipc	sp,0xde
    80002314:	cf010113          	add	sp,sp,-784 # 800e0000 <begin_signature>
    80002318:	631d                	lui	t1,0x7
    8000231a:	7e03031b          	addw	t1,t1,2016 # 77e0 <_tbss_end+0x77e0>
    8000231e:	911a                	add	sp,sp,t1

0000000080002320 <i0000000359>:
    80002320:	5662                	lw	a2,56(sp)

0000000080002322 <i000000035a>:
    80002322:	5452                	lw	s0,52(sp)
    80002324:	4b29                	li	s6,10
    80002326:	000de117          	auipc	sp,0xde
    8000232a:	cda10113          	add	sp,sp,-806 # 800e0000 <begin_signature>
    8000232e:	6305                	lui	t1,0x1
    80002330:	6f83031b          	addw	t1,t1,1784 # 16f8 <_tbss_end+0x16f8>
    80002334:	911a                	add	sp,sp,t1
    80002336:	e43e                	sd	a5,8(sp)
    80002338:	67812f87          	flw	ft11,1656(sp)
    8000233c:	fe013383          	ld	t2,-32(sp)
    80002340:	03845733          	divu	a4,s0,s8
    80002344:	74ea                	ld	s1,184(sp)
    80002346:	616d                	add	sp,sp,240
    80002348:	007c1493          	sll	s1,s8,0x7

000000008000234c <b000000035b>:
    8000234c:	016e8863          	beq	t4,s6,8000235c <b000000035b+0x10>
    80002350:	00000b17          	auipc	s6,0x0
    80002354:	fbab0b13          	add	s6,s6,-70 # 8000230a <i0000000356>
    80002358:	000b0067          	jr	s6
    8000235c:	4ea9                	li	t4,10
    8000235e:	d03443d3          	fcvt.s.lu	ft7,s0,rmm
    80002362:	13a0                	add	s0,sp,488
    80002364:	c02e84d3          	fcvt.l.s	s1,ft9,rne
    80002368:	f026                	sd	s1,32(sp)
    8000236a:	028c1c33          	mulh	s8,s8,s0
    8000236e:	11297e53          	fmul.s	ft8,fs2,fs2
    80002372:	02977bb3          	remu	s7,a4,s1

0000000080002376 <i000000035b>:
    80002376:	02fa043b          	mulw	s0,s4,a5

000000008000237a <i000000035c>:
    8000237a:	02a52633          	mulhsu	a2,a0,a0

000000008000237e <i000000035d>:
    8000237e:	5ba5                	li	s7,-23

0000000080002380 <i000000035e>:
    80002380:	6c4e                	ld	s8,208(sp)

0000000080002382 <i000000035f>:
    80002382:	ef812223          	sw	s8,-284(sp)

0000000080002386 <i0000000360>:
    80002386:	8d41                	or	a0,a0,s0

0000000080002388 <i0000000361>:
    80002388:	8e05                	sub	a2,a2,s1

000000008000238a <i0000000362>:
    8000238a:	51fdf543          	fmadd.s	fa0,fs11,ft11,fa0

000000008000238e <i0000000363>:
    8000238e:	40a408bb          	subw	a7,s0,a0

0000000080002392 <i0000000364>:
    80002392:	58b6                	lw	a7,108(sp)

0000000080002394 <i0000000365>:
    80002394:	6c414d03          	lbu	s10,1732(sp)

0000000080002398 <i0000000366>:
    80002398:	96b6                	add	a3,a3,a3

000000008000239a <i0000000367>:
    8000239a:	003c1413          	sll	s0,s8,0x3
    8000239e:	4a31                	li	s4,12
    800023a0:	0e85                	add	t4,t4,1
    800023a2:	000de117          	auipc	sp,0xde
    800023a6:	c5e10113          	add	sp,sp,-930 # 800e0000 <begin_signature>
    800023aa:	6319                	lui	t1,0x6
    800023ac:	3103031b          	addw	t1,t1,784 # 6310 <_tbss_end+0x6310>
    800023b0:	911a                	add	sp,sp,t1
    800023b2:	000de117          	auipc	sp,0xde
    800023b6:	c4e10113          	add	sp,sp,-946 # 800e0000 <begin_signature>
    800023ba:	633d                	lui	t1,0xf
    800023bc:	9e03031b          	addw	t1,t1,-1568 # e9e0 <_tbss_end+0xe9e0>
    800023c0:	911a                	add	sp,sp,t1
    800023c2:	c2207453          	fcvt.l.d	s0,ft0
    800023c6:	a181372f          	amomax.d	a4,s8,(sp)
    800023ca:	e84e                	sd	s3,16(sp)
    800023cc:	d20407d3          	fcvt.d.w	fa5,s0
    800023d0:	64ce                	ld	s1,208(sp)
    800023d2:	0ff0000f          	fence
    800023d6:	03dcdc13          	srl	s8,s9,0x3d

00000000800023da <b0000000368>:
    800023da:	00000033          	add	zero,zero,zero
    800023de:	fb4e95e3          	bne	t4,s4,80002388 <i0000000361>
    800023e2:	00000033          	add	zero,zero,zero
    800023e6:	3462                	fld	fs0,56(sp)
    800023e8:	3e4a                	fld	ft8,176(sp)
    800023ea:	0881242f          	amoswap.w	s0,s0,(sp)
    800023ee:	85412a83          	lw	s5,-1964(sp)
    800023f2:	d43e                	sw	a5,40(sp)
    800023f4:	d22472d3          	fcvt.d.l	ft5,s0
    800023f8:	608138af          	amoand.d	a7,s0,(sp)
    800023fc:	4ea9                	li	t4,10

00000000800023fe <i0000000368>:
    800023fe:	8575                	sra	a0,a0,0x1d

0000000080002400 <i0000000369>:
    80002400:	9f01                	subw	a4,a4,s0

0000000080002402 <i000000036a>:
    80002402:	19dc                	add	a5,sp,244

0000000080002404 <i000000036b>:
    80002404:	02f6cdbb          	divw	s11,a3,a5

0000000080002408 <i000000036c>:
    80002408:	079a                	sll	a5,a5,0x6

000000008000240a <i000000036d>:
    8000240a:	02ac5c3b          	divuw	s8,s8,a0

000000008000240e <i000000036e>:
    8000240e:	02a5743b          	remuw	s0,a0,a0

0000000080002412 <i000000036f>:
    80002412:	01482b33          	slt	s6,a6,s4

0000000080002416 <i0000000370>:
    80002416:	20a1372f          	amoxor.d	a4,a0,(sp)

000000008000241a <i0000000371>:
    8000241a:	00e131af          	amoadd.d	gp,a4,(sp)

000000008000241e <i0000000372>:
    8000241e:	8c19                	sub	s0,s0,a4

0000000080002420 <i0000000373>:
    80002420:	0285653b          	remw	a0,a0,s0

0000000080002424 <i0000000374>:
    80002424:	032fc43b          	divw	s0,t6,s2
    80002428:	48ad                	li	a7,11
    8000242a:	4ea9                	li	t4,10
    8000242c:	030fcb33          	div	s6,t6,a6
    80002430:	183c                	add	a5,sp,56
    80002432:	84a9                	sra	s1,s1,0xa
    80002434:	08e4                	add	s1,sp,92
    80002436:	03acf9b3          	remu	s3,s9,s10
    8000243a:	d0074e53          	fcvt.s.w	ft8,a4,rmm
    8000243e:	0124101b          	sllw	zero,s0,0x12

0000000080002442 <b0000000375>:
    80002442:	00000033          	add	zero,zero,zero
    80002446:	031e9c63          	bne	t4,a7,8000247e <i000000037b>
    8000244a:	00000033          	add	zero,zero,zero
    8000244e:	5244e993          	or	s3,s1,1316
    80002452:	40f13aaf          	amoor.d	s5,a5,(sp)
    80002456:	7182                	ld	gp,32(sp)
    80002458:	03f3d43b          	divuw	s0,t2,t6
    8000245c:	e0e1372f          	amomaxu.d	a4,a4,(sp)
    80002460:	c0193053          	fcvt.wu.s	zero,fs2,rup
    80002464:	74a2                	ld	s1,40(sp)
    80002466:	4ea9                	li	t4,10

0000000080002468 <i0000000375>:
    80002468:	03551413          	sll	s0,a0,0x35

000000008000246c <i0000000376>:
    8000246c:	4182d41b          	sraw	s0,t0,0x18

0000000080002470 <i0000000377>:
    80002470:	028c743b          	remuw	s0,s8,s0

0000000080002474 <i0000000378>:
    80002474:	8f71                	and	a4,a4,a2

0000000080002476 <i0000000379>:
    80002476:	00020437          	lui	s0,0x20

000000008000247a <i000000037a>:
    8000247a:	033e1413          	sll	s0,t3,0x33

000000008000247e <i000000037b>:
    8000247e:	043a                	sll	s0,s0,0xe

0000000080002480 <i000000037c>:
    80002480:	8dc1                	or	a1,a1,s0

0000000080002482 <i000000037d>:
    80002482:	02a43033          	mulhu	zero,s0,a0

0000000080002486 <i000000037e>:
    80002486:	02ac6c3b          	remw	s8,s8,a0

000000008000248a <i000000037f>:
    8000248a:	00377db3          	and	s11,a4,gp

000000008000248e <i0000000380>:
    8000248e:	00840c33          	add	s8,s0,s0

0000000080002492 <i0000000381>:
    80002492:	28010223          	sb	zero,644(sp)
    80002496:	4da9                	li	s11,10
    80002498:	000de117          	auipc	sp,0xde
    8000249c:	b6810113          	add	sp,sp,-1176 # 800e0000 <begin_signature>
    800024a0:	6329                	lui	t1,0xa
    800024a2:	ce03031b          	addw	t1,t1,-800 # 9ce0 <_tbss_end+0x9ce0>
    800024a6:	911a                	add	sp,sp,t1
    800024a8:	d2377b53          	fcvt.d.lu	fs6,a4
    800024ac:	038c0ab3          	mul	s5,s8,s8
    800024b0:	063fc413          	xor	s0,t6,99
    800024b4:	02f18433          	mul	s0,gp,a5
    800024b8:	e12e294b          	fnmsub.s	fs2,ft8,fs2,ft8,rdn
    800024bc:	5762                	lw	a4,56(sp)
    800024be:	f122                	sd	s0,160(sp)

00000000800024c0 <b0000000382>:
    800024c0:	01be8863          	beq	t4,s11,800024d0 <b0000000382+0x10>
    800024c4:	00000d97          	auipc	s11,0x0
    800024c8:	fbcd8d93          	add	s11,s11,-68 # 80002480 <i000000037c>
    800024cc:	000d80e7          	jalr	s11
    800024d0:	4ea9                	li	t4,10
    800024d2:	e0e13b2f          	amomaxu.d	s6,a4,(sp)
    800024d6:	8c61                	and	s0,s0,s0
    800024d8:	b872                	fsd	ft8,48(sp)
    800024da:	a2c14f83          	lbu	t6,-1492(sp)
    800024de:	292912d3          	fmax.s	ft5,fs2,fs2
    800024e2:	61c13b2f          	amoand.d	s6,t3,(sp)
    800024e6:	0000100f          	fence.i

00000000800024ea <i0000000382>:
    800024ea:	8c157c93          	and	s9,a0,-1855

00000000800024ee <i0000000383>:
    800024ee:	00745513          	srl	a0,s0,0x7

00000000800024f2 <i0000000384>:
    800024f2:	6b611403          	lh	s0,1718(sp)

00000000800024f6 <i0000000385>:
    800024f6:	119188d3          	fmul.s	fa7,ft3,fs9,rne

00000000800024fa <i0000000386>:
    800024fa:	5802ce53          	fsqrt.s	ft8,ft5,rmm

00000000800024fe <i0000000387>:
    800024fe:	098100a3          	sb	s8,129(sp)

0000000080002502 <i0000000388>:
    80002502:	e8014183          	lbu	gp,-384(sp)

0000000080002506 <i0000000389>:
    80002506:	00b139af          	amoadd.d	s3,a1,(sp)

000000008000250a <i000000038a>:
    8000250a:	a00139af          	amomax.d	s3,zero,(sp)

000000008000250e <i000000038b>:
    8000250e:	08a131af          	amoswap.d	gp,a0,(sp)

0000000080002512 <i000000038c>:
    80002512:	012b1913          	sll	s2,s6,0x12

0000000080002516 <i000000038d>:
    80002516:	e0091cd3          	fclass.s	s9,fs2

000000008000251a <i000000038e>:
    8000251a:	28250cd3          	fmin.s	fs9,fa0,ft2
    8000251e:	4929                	li	s2,10
    80002520:	000de117          	auipc	sp,0xde
    80002524:	ae010113          	add	sp,sp,-1312 # 800e0000 <begin_signature>
    80002528:	6321                	lui	t1,0x8
    8000252a:	6783031b          	addw	t1,t1,1656 # 8678 <_tbss_end+0x8678>
    8000252e:	911a                	add	sp,sp,t1
    80002530:	f2048253          	fmv.d.x	ft4,s1
    80002534:	b99e                	fsd	ft7,240(sp)
    80002536:	d0371753          	fcvt.s.lu	fa4,a4,rtz
    8000253a:	777e                	ld	a4,504(sp)
    8000253c:	58092953          	fsqrt.s	fs2,fs2,rdn
    80002540:	d0277053          	fcvt.s.l	ft0,a4
    80002544:	6262                	ld	tp,24(sp)

0000000080002546 <b000000038f>:
    80002546:	012e8863          	beq	t4,s2,80002556 <b000000038f+0x10>
    8000254a:	00000917          	auipc	s2,0x0
    8000254e:	fb490913          	add	s2,s2,-76 # 800024fe <i0000000387>
    80002552:	00090067          	jr	s2
    80002556:	4ea9                	li	t4,10
    80002558:	66c74013          	xor	zero,a4,1644
    8000255c:	d43a                	sw	a4,40(sp)
    8000255e:	03f3c03b          	divw	zero,t2,t6
    80002562:	a0f1272f          	amomax.w	a4,a5,(sp)
    80002566:	dcc6                	sw	a7,120(sp)
    80002568:	4422                	lw	s0,8(sp)
    8000256a:	01701433          	sll	s0,zero,s7

000000008000256e <i000000038f>:
    8000256e:	3e812c23          	sw	s0,1016(sp)

0000000080002572 <i0000000390>:
    80002572:	00ac5033          	srl	zero,s8,a0

0000000080002576 <i0000000391>:
    80002576:	006dd033          	srl	zero,s11,t1

000000008000257a <i0000000392>:
    8000257a:	02a55c33          	divu	s8,a0,a0

000000008000257e <i0000000393>:
    8000257e:	26c93393          	sltiu	t2,s2,620

0000000080002582 <i0000000394>:
    80002582:	038c3433          	mulhu	s0,s8,s8

0000000080002586 <i0000000395>:
    80002586:	1cfe2993          	slti	s3,t3,463

000000008000258a <i0000000396>:
    8000258a:	c01d1553          	fcvt.wu.s	a0,fs10,rtz

000000008000258e <i0000000397>:
    8000258e:	580702d3          	fsqrt.s	ft5,fa4,rne

0000000080002592 <i0000000398>:
    80002592:	038434b3          	mulhu	s1,s0,s8

0000000080002596 <i0000000399>:
    80002596:	8e411d03          	lh	s10,-1820(sp)

000000008000259a <i000000039a>:
    8000259a:	01c05013          	srl	zero,zero,0x1c

000000008000259e <i000000039b>:
    8000259e:	00f5fc33          	and	s8,a1,a5
    800025a2:	4c25                	li	s8,9
    800025a4:	e0e1372f          	amomaxu.d	a4,a4,(sp)
    800025a8:	c126                	sw	s1,128(sp)
    800025aa:	107c                	add	a5,sp,44
    800025ac:	02e4d733          	divu	a4,s1,a4
    800025b0:	024914b3          	mulh	s1,s2,tp
    800025b4:	bd9a                	fsd	ft6,248(sp)
    800025b6:	4234de13          	sra	t3,s1,0x23

00000000800025ba <b000000039c>:
    800025ba:	00000033          	add	zero,zero,zero
    800025be:	fddc58e3          	bge	s8,t4,8000258e <i0000000397>
    800025c2:	00000033          	add	zero,zero,zero
    800025c6:	a1292753          	feq.s	a4,fs2,fs2
    800025ca:	20529953          	fneg.s	fs2,ft5
    800025ce:	d024bfd3          	fcvt.s.l	ft11,s1,rup
    800025d2:	0ff0000f          	fence
    800025d6:	0284723b          	remuw	tp,s0,s0
    800025da:	07c2                	sll	a5,a5,0x10
    800025dc:	44ad                	li	s1,11
    800025de:	4ea9                	li	t4,10

00000000800025e0 <i000000039c>:
    800025e0:	66448637          	lui	a2,0x66448

00000000800025e4 <i000000039d>:
    800025e4:	e0b1292f          	amomaxu.w	s2,a1,(sp)

00000000800025e8 <i000000039e>:
    800025e8:	410f06bb          	subw	a3,t5,a6

00000000800025ec <i000000039f>:
    800025ec:	9d31                	addw	a0,a0,a2

00000000800025ee <i00000003a0>:
    800025ee:	5506                	lw	a0,96(sp)

00000000800025f0 <i00000003a1>:
    800025f0:	02a51c33          	mulh	s8,a0,a0

00000000800025f4 <i00000003a2>:
    800025f4:	40f136af          	amoor.d	a3,a5,(sp)

00000000800025f8 <i00000003a3>:
    800025f8:	a1b1232f          	amomax.w	t1,s11,(sp)

00000000800025fc <i00000003a4>:
    800025fc:	cbce7413          	and	s0,t3,-836

0000000080002600 <i00000003a5>:
    80002600:	02e8                	add	a0,sp,332

0000000080002602 <i00000003a6>:
    80002602:	052e                	sll	a0,a0,0xb

0000000080002604 <i00000003a7>:
    80002604:	2101242f          	amoxor.w	s0,a6,(sp)

0000000080002608 <i00000003a8>:
    80002608:	e1113c2f          	amomaxu.d	s8,a7,(sp)
    8000260c:	4ab1                	li	s5,12
    8000260e:	0e85                	add	t4,t4,1
    80002610:	000de117          	auipc	sp,0xde
    80002614:	9f010113          	add	sp,sp,-1552 # 800e0000 <begin_signature>
    80002618:	6319                	lui	t1,0x6
    8000261a:	6103031b          	addw	t1,t1,1552 # 6610 <_tbss_end+0x6610>
    8000261e:	911a                	add	sp,sp,t1
    80002620:	030ccfbb          	divw	t6,s9,a6
    80002624:	62938d37          	lui	s10,0x62938
    80002628:	4059541b          	sraw	s0,s2,0x5
    8000262c:	4772                	lw	a4,28(sp)
    8000262e:	6109                	add	sp,sp,128
    80002630:	8ca1                	xor	s1,s1,s0
    80002632:	b5a2                	fsd	fs0,232(sp)

0000000080002634 <b00000003a9>:
    80002634:	00000033          	add	zero,zero,zero
    80002638:	fd5e90e3          	bne	t4,s5,800025f8 <i00000003a3>
    8000263c:	00000033          	add	zero,zero,zero
    80002640:	d0247b53          	fcvt.s.l	fs6,s0
    80002644:	d2277e53          	fcvt.d.l	ft8,a4
    80002648:	3d611403          	lh	s0,982(sp)
    8000264c:	e2029a53          	fclass.d	s4,ft5
    80002650:	4c72                	lw	s8,28(sp)
    80002652:	0000100f          	fence.i
    80002656:	c222fdd3          	fcvt.l.d	s11,ft5
    8000265a:	4ea9                	li	t4,10

000000008000265c <i00000003a9>:
    8000265c:	9ca9                	addw	s1,s1,a0

000000008000265e <i00000003aa>:
    8000265e:	6da10603          	lb	a2,1754(sp)
    80002662:	4185                	li	gp,1
    80002664:	000f0f17          	auipc	t5,0xf0
    80002668:	983f2e23          	sw	gp,-1636(t5) # 800f2000 <tohost>
    8000266c:	0000100f          	fence.i
    80002670:	00020fb7          	lui	t6,0x20
    80002674:	000def17          	auipc	t5,0xde
    80002678:	98cf0f13          	add	t5,t5,-1652 # 800e0000 <begin_signature>
    8000267c:	01efa023          	sw	t5,0(t6) # 20000 <_tbss_end+0x20000>
    80002680:	000eef17          	auipc	t5,0xee
    80002684:	980f0f13          	add	t5,t5,-1664 # 800f0000 <end_signature>
    80002688:	01efa423          	sw	t5,8(t6)
    8000268c:	01efa623          	sw	t5,12(t6)

Disassembly of section .tohost:

00000000800f2000 <tohost>:
	...

00000000800f2040 <fromhost>:
	...

00000000800f2050 <ecause_num>:
	...
