
work/bin/out_pg_excep_00000.riscv:     file format elf64-littleriscv


Disassembly of section .text.init:

0000000080000000 <_start>:
    80000000:	000e0117          	auipc	sp,0xe0
    80000004:	00010113          	mv	sp,sp
    80000008:	6082                	ld	ra,0(sp)
    8000000a:	61a2                	ld	gp,8(sp)
    8000000c:	6242                	ld	tp,16(sp)
    8000000e:	62e2                	ld	t0,24(sp)
    80000010:	7302                	ld	t1,32(sp)
    80000012:	73a2                	ld	t2,40(sp)
    80000014:	7442                	ld	s0,48(sp)
    80000016:	74e2                	ld	s1,56(sp)
    80000018:	6506                	ld	a0,64(sp)
    8000001a:	65a6                	ld	a1,72(sp)
    8000001c:	6646                	ld	a2,80(sp)
    8000001e:	66e6                	ld	a3,88(sp)
    80000020:	7706                	ld	a4,96(sp)
    80000022:	77a6                	ld	a5,104(sp)
    80000024:	7846                	ld	a6,112(sp)
    80000026:	78e6                	ld	a7,120(sp)
    80000028:	690a                	ld	s2,128(sp)
    8000002a:	69aa                	ld	s3,136(sp)
    8000002c:	6a4a                	ld	s4,144(sp)
    8000002e:	6aea                	ld	s5,152(sp)
    80000030:	7b0a                	ld	s6,160(sp)
    80000032:	7baa                	ld	s7,168(sp)
    80000034:	7c4a                	ld	s8,176(sp)
    80000036:	7cea                	ld	s9,184(sp)
    80000038:	6d0e                	ld	s10,192(sp)
    8000003a:	6dae                	ld	s11,200(sp)
    8000003c:	6e4e                	ld	t3,208(sp)
    8000003e:	6eee                	ld	t4,216(sp)
    80000040:	7f0e                	ld	t5,224(sp)
    80000042:	7fae                	ld	t6,232(sp)
    80000044:	62f9                	lui	t0,0x1e
    80000046:	3002a073          	csrs	mstatus,t0
    8000004a:	4285                	li	t0,1
    8000004c:	02fe                	sll	t0,t0,0x1f
    8000004e:	0002d863          	bgez	t0,8000005e <_start+0x5e>
    80000052:	4505                	li	a0,1
    80000054:	000f2297          	auipc	t0,0xf2
    80000058:	faa2a623          	sw	a0,-84(t0) # 800f2000 <tohost>
    8000005c:	bfdd                	j	80000052 <_start+0x52>
    8000005e:	00000297          	auipc	t0,0x0
    80000062:	09228293          	add	t0,t0,146 # 800000f0 <_start+0xf0>
    80000066:	30529073          	csrw	mtvec,t0
    8000006a:	00301073          	fscsr	zero
    8000006e:	f2008053          	fmv.d.x	ft0,ra
    80000072:	f20080d3          	fmv.d.x	ft1,ra
    80000076:	f2010153          	fmv.d.x	ft2,sp
    8000007a:	f20181d3          	fmv.d.x	ft3,gp
    8000007e:	f2020253          	fmv.d.x	ft4,tp
    80000082:	f20282d3          	fmv.d.x	ft5,t0
    80000086:	f2030353          	fmv.d.x	ft6,t1
    8000008a:	f20383d3          	fmv.d.x	ft7,t2
    8000008e:	f2040453          	fmv.d.x	fs0,s0
    80000092:	f20484d3          	fmv.d.x	fs1,s1
    80000096:	f2050553          	fmv.d.x	fa0,a0
    8000009a:	f20585d3          	fmv.d.x	fa1,a1
    8000009e:	f2060653          	fmv.d.x	fa2,a2
    800000a2:	f20686d3          	fmv.d.x	fa3,a3
    800000a6:	f2070753          	fmv.d.x	fa4,a4
    800000aa:	f20787d3          	fmv.d.x	fa5,a5
    800000ae:	f2080853          	fmv.d.x	fa6,a6
    800000b2:	f20888d3          	fmv.d.x	fa7,a7
    800000b6:	f2090953          	fmv.d.x	fs2,s2
    800000ba:	f20989d3          	fmv.d.x	fs3,s3
    800000be:	f20a0a53          	fmv.d.x	fs4,s4
    800000c2:	f20a8ad3          	fmv.d.x	fs5,s5
    800000c6:	f20b0b53          	fmv.d.x	fs6,s6
    800000ca:	f20b8bd3          	fmv.d.x	fs7,s7
    800000ce:	f20c0c53          	fmv.d.x	fs8,s8
    800000d2:	f20c8cd3          	fmv.d.x	fs9,s9
    800000d6:	f20d0d53          	fmv.d.x	fs10,s10
    800000da:	f20d8dd3          	fmv.d.x	fs11,s11
    800000de:	f20e0e53          	fmv.d.x	ft8,t3
    800000e2:	f20e8ed3          	fmv.d.x	ft9,t4
    800000e6:	f20f0f53          	fmv.d.x	ft10,t5
    800000ea:	f20f8fd3          	fmv.d.x	ft11,t6
    800000ee:	0001                	nop
    800000f0:	00000297          	auipc	t0,0x0
    800000f4:	03428293          	add	t0,t0,52 # 80000124 <trap_entry>
    800000f8:	30529073          	csrw	mtvec,t0
    800000fc:	000f3217          	auipc	tp,0xf3
    80000100:	84420213          	add	tp,tp,-1980 # 800f2940 <_end+0x3f>
    80000104:	fc027213          	and	tp,tp,-64
    80000108:	f1402573          	csrr	a0,mhartid
    8000010c:	4585                	li	a1,1
    8000010e:	00b57063          	bgeu	a0,a1,8000010e <_start+0x10e>
    80000112:	01151613          	sll	a2,a0,0x11
    80000116:	9232                	add	tp,tp,a2
    80000118:	00150113          	add	sp,a0,1
    8000011c:	0146                	sll	sp,sp,0x11
    8000011e:	9112                	add	sp,sp,tp
    80000120:	2400006f          	j	80000360 <main>

0000000080000124 <trap_entry>:
    80000124:	716d                	add	sp,sp,-272
    80000126:	e406                	sd	ra,8(sp)
    80000128:	e80a                	sd	sp,16(sp)
    8000012a:	ec0e                	sd	gp,24(sp)
    8000012c:	f012                	sd	tp,32(sp)
    8000012e:	f416                	sd	t0,40(sp)
    80000130:	f81a                	sd	t1,48(sp)
    80000132:	fc1e                	sd	t2,56(sp)
    80000134:	e0a2                	sd	s0,64(sp)
    80000136:	e4a6                	sd	s1,72(sp)
    80000138:	e8aa                	sd	a0,80(sp)
    8000013a:	ecae                	sd	a1,88(sp)
    8000013c:	f0b2                	sd	a2,96(sp)
    8000013e:	f4b6                	sd	a3,104(sp)
    80000140:	f8ba                	sd	a4,112(sp)
    80000142:	fcbe                	sd	a5,120(sp)
    80000144:	e142                	sd	a6,128(sp)
    80000146:	e546                	sd	a7,136(sp)
    80000148:	e94a                	sd	s2,144(sp)
    8000014a:	ed4e                	sd	s3,152(sp)
    8000014c:	f152                	sd	s4,160(sp)
    8000014e:	f556                	sd	s5,168(sp)
    80000150:	f95a                	sd	s6,176(sp)
    80000152:	fd5e                	sd	s7,184(sp)
    80000154:	e1e2                	sd	s8,192(sp)
    80000156:	e5e6                	sd	s9,200(sp)
    80000158:	e9ea                	sd	s10,208(sp)
    8000015a:	edee                	sd	s11,216(sp)
    8000015c:	f1f2                	sd	t3,224(sp)
    8000015e:	f5f6                	sd	t4,232(sp)
    80000160:	f9fa                	sd	t5,240(sp)
    80000162:	fdfe                	sd	t6,248(sp)
    80000164:	34202573          	csrr	a0,mcause
    80000168:	341025f3          	csrr	a1,mepc
    8000016c:	0005d603          	lhu	a2,0(a1)
    80000170:	8a0d                	and	a2,a2,3
    80000172:	428d                	li	t0,3
    80000174:	00561563          	bne	a2,t0,8000017e <inst16>

0000000080000178 <inst32>:
    80000178:	0591                	add	a1,a1,4
    8000017a:	00000363          	beqz	zero,80000180 <inst16+0x2>

000000008000017e <inst16>:
    8000017e:	0589                	add	a1,a1,2
    80000180:	34159073          	csrw	mepc,a1
    80000184:	6289                	lui	t0,0x2
    80000186:	8002829b          	addw	t0,t0,-2048 # 1800 <_tbss_end+0x1800>
    8000018a:	3002a073          	csrs	mstatus,t0
    8000018e:	60a2                	ld	ra,8(sp)
    80000190:	6142                	ld	sp,16(sp)
    80000192:	61e2                	ld	gp,24(sp)
    80000194:	7202                	ld	tp,32(sp)
    80000196:	72a2                	ld	t0,40(sp)
    80000198:	7342                	ld	t1,48(sp)
    8000019a:	73e2                	ld	t2,56(sp)
    8000019c:	6406                	ld	s0,64(sp)
    8000019e:	64a6                	ld	s1,72(sp)
    800001a0:	6546                	ld	a0,80(sp)
    800001a2:	65e6                	ld	a1,88(sp)
    800001a4:	7606                	ld	a2,96(sp)
    800001a6:	76a6                	ld	a3,104(sp)
    800001a8:	7746                	ld	a4,112(sp)
    800001aa:	77e6                	ld	a5,120(sp)
    800001ac:	680a                	ld	a6,128(sp)
    800001ae:	68aa                	ld	a7,136(sp)
    800001b0:	694a                	ld	s2,144(sp)
    800001b2:	69ea                	ld	s3,152(sp)
    800001b4:	7a0a                	ld	s4,160(sp)
    800001b6:	7aaa                	ld	s5,168(sp)
    800001b8:	7b4a                	ld	s6,176(sp)
    800001ba:	7bea                	ld	s7,184(sp)
    800001bc:	6c0e                	ld	s8,192(sp)
    800001be:	6cae                	ld	s9,200(sp)
    800001c0:	6d4e                	ld	s10,208(sp)
    800001c2:	6dee                	ld	s11,216(sp)
    800001c4:	7e0e                	ld	t3,224(sp)
    800001c6:	7eae                	ld	t4,232(sp)
    800001c8:	7f4e                	ld	t5,240(sp)
    800001ca:	7fee                	ld	t6,248(sp)
    800001cc:	6151                	add	sp,sp,272
    800001ce:	30200073          	mret

Disassembly of section .text:

00000000800001e0 <custom_trap_handler_s>:
    800001e0:	7129                	add	sp,sp,-320
    800001e2:	e406                	sd	ra,8(sp)
    800001e4:	ec0e                	sd	gp,24(sp)
    800001e6:	f012                	sd	tp,32(sp)
    800001e8:	f416                	sd	t0,40(sp)
    800001ea:	f81a                	sd	t1,48(sp)
    800001ec:	fc1e                	sd	t2,56(sp)
    800001ee:	e0a2                	sd	s0,64(sp)
    800001f0:	e4a6                	sd	s1,72(sp)
    800001f2:	e8aa                	sd	a0,80(sp)
    800001f4:	ecae                	sd	a1,88(sp)
    800001f6:	f0b2                	sd	a2,96(sp)
    800001f8:	f4b6                	sd	a3,104(sp)
    800001fa:	f8ba                	sd	a4,112(sp)
    800001fc:	fcbe                	sd	a5,120(sp)
    800001fe:	e142                	sd	a6,128(sp)
    80000200:	e546                	sd	a7,136(sp)
    80000202:	e94a                	sd	s2,144(sp)
    80000204:	ed4e                	sd	s3,152(sp)
    80000206:	f152                	sd	s4,160(sp)
    80000208:	f556                	sd	s5,168(sp)
    8000020a:	f95a                	sd	s6,176(sp)
    8000020c:	fd5e                	sd	s7,184(sp)
    8000020e:	e1e2                	sd	s8,192(sp)
    80000210:	e5e6                	sd	s9,200(sp)
    80000212:	e9ea                	sd	s10,208(sp)
    80000214:	edee                	sd	s11,216(sp)
    80000216:	f1f2                	sd	t3,224(sp)
    80000218:	f5f6                	sd	t4,232(sp)
    8000021a:	f9fa                	sd	t5,240(sp)
    8000021c:	fdfe                	sd	t6,248(sp)
    8000021e:	10002573          	csrr	a0,sstatus
    80000222:	14102573          	csrr	a0,sepc
    80000226:	10502573          	csrr	a0,stvec
    8000022a:	14202573          	csrr	a0,scause
    8000022e:	4601                	li	a2,0
    80000230:	00c50763          	beq	a0,a2,8000023e <custom_trap_handler_s+0x5e>
    80000234:	4605                	li	a2,1
    80000236:	00c50463          	beq	a0,a2,8000023e <custom_trap_handler_s+0x5e>
    8000023a:	141025f3          	csrr	a1,sepc
    8000023e:	00059603          	lh	a2,0(a1)
    80000242:	8a0d                	and	a2,a2,3
    80000244:	428d                	li	t0,3
    80000246:	00561563          	bne	a2,t0,80000250 <inst16_s>

000000008000024a <inst32_s>:
    8000024a:	0591                	add	a1,a1,4
    8000024c:	00000363          	beqz	zero,80000252 <inst16_s+0x2>

0000000080000250 <inst16_s>:
    80000250:	0589                	add	a1,a1,2
    80000252:	14159073          	csrw	sepc,a1
    80000256:	60a2                	ld	ra,8(sp)
    80000258:	61e2                	ld	gp,24(sp)
    8000025a:	7202                	ld	tp,32(sp)
    8000025c:	72a2                	ld	t0,40(sp)
    8000025e:	7342                	ld	t1,48(sp)
    80000260:	73e2                	ld	t2,56(sp)
    80000262:	6406                	ld	s0,64(sp)
    80000264:	64a6                	ld	s1,72(sp)
    80000266:	6546                	ld	a0,80(sp)
    80000268:	65e6                	ld	a1,88(sp)
    8000026a:	7606                	ld	a2,96(sp)
    8000026c:	76a6                	ld	a3,104(sp)
    8000026e:	7746                	ld	a4,112(sp)
    80000270:	77e6                	ld	a5,120(sp)
    80000272:	680a                	ld	a6,128(sp)
    80000274:	68aa                	ld	a7,136(sp)
    80000276:	694a                	ld	s2,144(sp)
    80000278:	69ea                	ld	s3,152(sp)
    8000027a:	7a0a                	ld	s4,160(sp)
    8000027c:	7aaa                	ld	s5,168(sp)
    8000027e:	7b4a                	ld	s6,176(sp)
    80000280:	7bea                	ld	s7,184(sp)
    80000282:	6c0e                	ld	s8,192(sp)
    80000284:	6cae                	ld	s9,200(sp)
    80000286:	6d4e                	ld	s10,208(sp)
    80000288:	6dee                	ld	s11,216(sp)
    8000028a:	7e0e                	ld	t3,224(sp)
    8000028c:	7eae                	ld	t4,232(sp)
    8000028e:	7f4e                	ld	t5,240(sp)
    80000290:	7fee                	ld	t6,248(sp)
    80000292:	6131                	add	sp,sp,320
    80000294:	10200073          	sret

0000000080000298 <custom_trap_handler>:
    80000298:	7129                	add	sp,sp,-320
    8000029a:	e406                	sd	ra,8(sp)
    8000029c:	ec0e                	sd	gp,24(sp)
    8000029e:	f012                	sd	tp,32(sp)
    800002a0:	f416                	sd	t0,40(sp)
    800002a2:	f81a                	sd	t1,48(sp)
    800002a4:	fc1e                	sd	t2,56(sp)
    800002a6:	e0a2                	sd	s0,64(sp)
    800002a8:	e4a6                	sd	s1,72(sp)
    800002aa:	e8aa                	sd	a0,80(sp)
    800002ac:	ecae                	sd	a1,88(sp)
    800002ae:	f0b2                	sd	a2,96(sp)
    800002b0:	f4b6                	sd	a3,104(sp)
    800002b2:	f8ba                	sd	a4,112(sp)
    800002b4:	fcbe                	sd	a5,120(sp)
    800002b6:	e142                	sd	a6,128(sp)
    800002b8:	e546                	sd	a7,136(sp)
    800002ba:	e94a                	sd	s2,144(sp)
    800002bc:	ed4e                	sd	s3,152(sp)
    800002be:	f152                	sd	s4,160(sp)
    800002c0:	f556                	sd	s5,168(sp)
    800002c2:	f95a                	sd	s6,176(sp)
    800002c4:	fd5e                	sd	s7,184(sp)
    800002c6:	e1e2                	sd	s8,192(sp)
    800002c8:	e5e6                	sd	s9,200(sp)
    800002ca:	e9ea                	sd	s10,208(sp)
    800002cc:	edee                	sd	s11,216(sp)
    800002ce:	f1f2                	sd	t3,224(sp)
    800002d0:	f5f6                	sd	t4,232(sp)
    800002d2:	f9fa                	sd	t5,240(sp)
    800002d4:	fdfe                	sd	t6,248(sp)
    800002d6:	30002573          	csrr	a0,mstatus
    800002da:	34102573          	csrr	a0,mepc
    800002de:	30502573          	csrr	a0,mtvec
    800002e2:	34202573          	csrr	a0,mcause
    800002e6:	4601                	li	a2,0
    800002e8:	00c50763          	beq	a0,a2,800002f6 <custom_trap_handler+0x5e>
    800002ec:	4605                	li	a2,1
    800002ee:	00c50463          	beq	a0,a2,800002f6 <custom_trap_handler+0x5e>
    800002f2:	341025f3          	csrr	a1,mepc
    800002f6:	00059603          	lh	a2,0(a1)
    800002fa:	8a0d                	and	a2,a2,3
    800002fc:	428d                	li	t0,3
    800002fe:	00561563          	bne	a2,t0,80000308 <inst16>

0000000080000302 <inst32>:
    80000302:	0591                	add	a1,a1,4
    80000304:	00000363          	beqz	zero,8000030a <inst16+0x2>

0000000080000308 <inst16>:
    80000308:	0589                	add	a1,a1,2
    8000030a:	34159073          	csrw	mepc,a1
    8000030e:	60a2                	ld	ra,8(sp)
    80000310:	61e2                	ld	gp,24(sp)
    80000312:	7202                	ld	tp,32(sp)
    80000314:	72a2                	ld	t0,40(sp)
    80000316:	7342                	ld	t1,48(sp)
    80000318:	73e2                	ld	t2,56(sp)
    8000031a:	6406                	ld	s0,64(sp)
    8000031c:	64a6                	ld	s1,72(sp)
    8000031e:	6546                	ld	a0,80(sp)
    80000320:	65e6                	ld	a1,88(sp)
    80000322:	7606                	ld	a2,96(sp)
    80000324:	76a6                	ld	a3,104(sp)
    80000326:	7746                	ld	a4,112(sp)
    80000328:	77e6                	ld	a5,120(sp)
    8000032a:	680a                	ld	a6,128(sp)
    8000032c:	68aa                	ld	a7,136(sp)
    8000032e:	694a                	ld	s2,144(sp)
    80000330:	69ea                	ld	s3,152(sp)
    80000332:	7a0a                	ld	s4,160(sp)
    80000334:	7aaa                	ld	s5,168(sp)
    80000336:	7b4a                	ld	s6,176(sp)
    80000338:	7bea                	ld	s7,184(sp)
    8000033a:	6c0e                	ld	s8,192(sp)
    8000033c:	6cae                	ld	s9,200(sp)
    8000033e:	6d4e                	ld	s10,208(sp)
    80000340:	6dee                	ld	s11,216(sp)
    80000342:	7e0e                	ld	t3,224(sp)
    80000344:	7eae                	ld	t4,232(sp)
    80000346:	7f4e                	ld	t5,240(sp)
    80000348:	7fee                	ld	t6,248(sp)
    8000034a:	6131                	add	sp,sp,320
    8000034c:	30200073          	mret

0000000080000350 <func1>:
    80000350:	00000033          	add	zero,zero,zero
    80000354:	8082                	ret
    80000356:	00000013          	nop
    8000035a:	00000013          	nop
    8000035e:	0001                	nop

0000000080000360 <main>:
    80000360:	00000033          	add	zero,zero,zero
    80000364:	00000297          	auipc	t0,0x0
    80000368:	f3428293          	add	t0,t0,-204 # 80000298 <custom_trap_handler>
    8000036c:	30529073          	csrw	mtvec,t0
    80000370:	000e0117          	auipc	sp,0xe0
    80000374:	c9010113          	add	sp,sp,-880 # 800e0000 <begin_signature>
    80000378:	631d                	lui	t1,0x7
    8000037a:	7903031b          	addw	t1,t1,1936 # 7790 <_tbss_end+0x7790>
    8000037e:	911a                	add	sp,sp,t1

0000000080000380 <i0000000000>:
    80000380:	4ea9                	li	t4,10

0000000080000382 <i0000000001>:
    80000382:	029193b3          	mulh	t2,gp,s1

0000000080000386 <i0000000002>:
    80000386:	65610603          	lb	a2,1622(sp)

000000008000038a <i0000000003>:
    8000038a:	f3412e03          	lw	t3,-204(sp)

000000008000038e <i0000000004>:
    8000038e:	03c60a3b          	mulw	s4,a2,t3

0000000080000392 <i0000000005>:
    80000392:	a0420fd3          	fle.s	t6,ft4,ft4

0000000080000396 <i0000000006>:
    80000396:	007e7433          	and	s0,t3,t2

000000008000039a <i0000000007>:
    8000039a:	93a13c23          	sd	s10,-1736(sp)

000000008000039e <i0000000008>:
    8000039e:	e1c12caf          	amomaxu.w	s9,t3,(sp)

00000000800003a2 <i0000000009>:
    800003a2:	0ff0000f          	fence

00000000800003a6 <i000000000a>:
    800003a6:	11f0                	add	a2,sp,236

00000000800003a8 <i000000000b>:
    800003a8:	a0b1262f          	amomax.w	a2,a1,(sp)

00000000800003ac <i000000000c>:
    800003ac:	00235073          	fsrmi	zero,6

00000000800003b0 <i000000000d>:
    800003b0:	c03283d3          	fcvt.lu.s	t2,ft5,rne

00000000800003b4 <i000000000e>:
    800003b4:	420a8353          	fcvt.d.s	ft6,fs5

00000000800003b8 <i000000000f>:
    800003b8:	bb614383          	lbu	t2,-1098(sp)

00000000800003bc <i0000000010>:
    800003bc:	0ff0000f          	fence

00000000800003c0 <i0000000011>:
    800003c0:	d02b9d53          	fcvt.s.l	fs10,s7,rtz

00000000800003c4 <i0000000012>:
    800003c4:	404137af          	amoor.d	a5,tp,(sp)

00000000800003c8 <i0000000013>:
    800003c8:	9c89                	subw	s1,s1,a0

00000000800003ca <i0000000014>:
    800003ca:	1161                	add	sp,sp,-8
    800003cc:	e432                	sd	a2,8(sp)
    800003ce:	4601                	li	a2,0
    800003d0:	6210                	ld	a2,0(a2)
    800003d2:	6622                	ld	a2,8(sp)
    800003d4:	0121                	add	sp,sp,8

00000000800003d6 <i0000000015>:
    800003d6:	028a073b          	mulw	a4,s4,s0
    800003da:	4db1                	li	s11,12
    800003dc:	0e85                	add	t4,t4,1
    800003de:	f20f80d3          	fmv.d.x	ft1,t6
    800003e2:	5ac6                	lw	s5,112(sp)
    800003e4:	d9210d03          	lb	s10,-622(sp)
    800003e8:	13a12227          	fsw	fs10,292(sp)
    800003ec:	bcb6                	fsd	fa3,120(sp)
    800003ee:	5b72                	lw	s6,60(sp)
    800003f0:	83bd                	srl	a5,a5,0xf

00000000800003f2 <b0000000016>:
    800003f2:	00000033          	add	zero,zero,zero
    800003f6:	fdbec3e3          	blt	t4,s11,800003bc <i0000000010>
    800003fa:	00000033          	add	zero,zero,zero
    800003fe:	f43e                	sd	a5,40(sp)
    80000400:	833d                	srl	a4,a4,0xf
    80000402:	00e79933          	sll	s2,a5,a4
    80000406:	b83e                	fsd	fa5,48(sp)
    80000408:	6161                	add	sp,sp,80
    8000040a:	d233f1d3          	fcvt.d.lu	ft3,t2
    8000040e:	04be                	sll	s1,s1,0xf
    80000410:	4ea9                	li	t4,10
    80000412:	000e0117          	auipc	sp,0xe0
    80000416:	bee10113          	add	sp,sp,-1042 # 800e0000 <begin_signature>
    8000041a:	6325                	lui	t1,0x9
    8000041c:	7b03031b          	addw	t1,t1,1968 # 97b0 <_tbss_end+0x97b0>
    80000420:	911a                	add	sp,sp,t1

0000000080000422 <i0000000016>:
    80000422:	7b411123          	sh	s4,1954(sp)

0000000080000426 <i0000000017>:
    80000426:	b7016683          	lwu	a3,-1168(sp)

000000008000042a <i0000000018>:
    8000042a:	f20d0b53          	fmv.d.x	fs6,s10

000000008000042e <i0000000019>:
    8000042e:	814134af          	amomin.d	s1,s4,(sp)
    80000432:	000e0117          	auipc	sp,0xe0
    80000436:	bce10113          	add	sp,sp,-1074 # 800e0000 <begin_signature>
    8000043a:	6339                	lui	t1,0xe
    8000043c:	4683031b          	addw	t1,t1,1128 # e468 <_tbss_end+0xe468>
    80000440:	911a                	add	sp,sp,t1

0000000080000442 <i000000001a>:
    80000442:	3e913423          	sd	s1,1000(sp)
    80000446:	000e0117          	auipc	sp,0xe0
    8000044a:	bba10113          	add	sp,sp,-1094 # 800e0000 <begin_signature>
    8000044e:	632d                	lui	t1,0xb
    80000450:	2403031b          	addw	t1,t1,576 # b240 <_tbss_end+0xb240>
    80000454:	911a                	add	sp,sp,t1

0000000080000456 <i000000001b>:
    80000456:	21c10483          	lb	s1,540(sp)

000000008000045a <i000000001c>:
    8000045a:	30c2                	fld	ft1,48(sp)

000000008000045c <i000000001d>:
    8000045c:	0296623b          	remw	tp,a2,s1

0000000080000460 <i000000001e>:
    80000460:	0379ea3b          	remw	s4,s3,s7

0000000080000464 <i000000001f>:
    80000464:	8cc5                	or	s1,s1,s1
    80000466:	000e0117          	auipc	sp,0xe0
    8000046a:	b9a10113          	add	sp,sp,-1126 # 800e0000 <begin_signature>
    8000046e:	6335                	lui	t1,0xd
    80000470:	e883031b          	addw	t1,t1,-376 # ce88 <_tbss_end+0xce88>
    80000474:	911a                	add	sp,sp,t1

0000000080000476 <i0000000020>:
    80000476:	efb14783          	lbu	a5,-261(sp)

000000008000047a <i0000000021>:
    8000047a:	01bc14d3          	fadd.s	fs1,fs8,fs11,rtz

000000008000047e <i0000000022>:
    8000047e:	3a236a37          	lui	s4,0x3a236

0000000080000482 <i0000000023>:
    80000482:	d22676d3          	fcvt.d.l	fa3,a2

0000000080000486 <i0000000024>:
    80000486:	00e134af          	amoadd.d	s1,a4,(sp)

000000008000048a <i0000000025>:
    8000048a:	c00ea353          	fcvt.w.s	t1,ft9,rdn

000000008000048e <i0000000026>:
    8000048e:	ca3a                	sw	a4,20(sp)
    80000490:	000e0117          	auipc	sp,0xe0
    80000494:	b7010113          	add	sp,sp,-1168 # 800e0000 <begin_signature>
    80000498:	6331                	lui	t1,0xc
    8000049a:	6e03031b          	addw	t1,t1,1760 # c6e0 <_tbss_end+0xc6e0>
    8000049e:	911a                	add	sp,sp,t1

00000000800004a0 <i0000000027>:
    800004a0:	f032                	sd	a2,32(sp)

00000000800004a2 <i0000000028>:
    800004a2:	61412a2f          	amoand.w	s4,s4,(sp)
    800004a6:	214134af          	amoxor.d	s1,s4,(sp)
    800004aa:	81f139af          	amomin.d	s3,t6,(sp)
    800004ae:	c22cfe53          	fcvt.l.d	t3,fs9
    800004b2:	7119                	add	sp,sp,-128
    800004b4:	0274e8b3          	rem	a7,s1,t2
    800004b8:	614d                	add	sp,sp,176
    800004ba:	0000100f          	fence.i

00000000800004be <b0000000029>:
    800004be:	00000817          	auipc	a6,0x0
    800004c2:	03a80813          	add	a6,a6,58 # 800004f8 <i000000002f>
    800004c6:	000800e7          	jalr	a6
    800004ca:	c1112c2f          	amominu.w	s8,a7,(sp)
    800004ce:	c021c253          	fcvt.l.s	tp,ft3,rmm
    800004d2:	218fac53          	fsgnjx.s	fs8,ft11,fs8
    800004d6:	9e5e                	add	t3,t3,s7
    800004d8:	d03e36d3          	fcvt.s.lu	fa3,t3,rup
    800004dc:	027a04bb          	mulw	s1,s4,t2
    800004e0:	d23affd3          	fcvt.d.lu	ft11,s5

00000000800004e4 <i0000000029>:
    800004e4:	9c31                	addw	s0,s0,a2

00000000800004e6 <i000000002a>:
    800004e6:	420287d3          	fcvt.d.s	fa5,ft5

00000000800004ea <i000000002b>:
    800004ea:	0ff0000f          	fence

00000000800004ee <i000000002c>:
    800004ee:	20fb2253          	fsgnjx.s	ft4,fs6,fa5

00000000800004f2 <i000000002d>:
    800004f2:	0bd0                	add	a2,sp,468

00000000800004f4 <i000000002e>:
    800004f4:	45414b03          	lbu	s6,1108(sp)

00000000800004f8 <i000000002f>:
    800004f8:	d0379dd3          	fcvt.s.lu	fs11,a5,rtz

00000000800004fc <i0000000030>:
    800004fc:	0ff0000f          	fence

0000000080000500 <i0000000031>:
    80000500:	e20984d3          	fmv.x.d	s1,fs3

0000000080000504 <i0000000032>:
    80000504:	3986                	fld	fs3,96(sp)

0000000080000506 <i0000000033>:
    80000506:	02b99633          	mulh	a2,s3,a1

000000008000050a <i0000000034>:
    8000050a:	13c57453          	fmul.d	fs0,fa0,ft8

000000008000050e <i0000000035>:
    8000050e:	e20c0ad3          	fmv.x.d	s5,fs8
    80000512:	000e0117          	auipc	sp,0xe0
    80000516:	aee10113          	add	sp,sp,-1298 # 800e0000 <begin_signature>
    8000051a:	6309                	lui	t1,0x2
    8000051c:	8803031b          	addw	t1,t1,-1920 # 1880 <_tbss_end+0x1880>
    80000520:	911a                	add	sp,sp,t1

0000000080000522 <i0000000036>:
    80000522:	a1ee                	fsd	fs11,192(sp)

0000000080000524 <i0000000037>:
    80000524:	0ff0000f          	fence

0000000080000528 <i0000000038>:
    80000528:	82e172c7          	fmsub.d	ft5,ft2,fa4,fa6

000000008000052c <i0000000039>:
    8000052c:	806137af          	amomin.d	a5,t1,(sp)

0000000080000530 <i000000003a>:
    80000530:	72e2                	ld	t0,56(sp)
    80000532:	000e0117          	auipc	sp,0xe0
    80000536:	ace10113          	add	sp,sp,-1330 # 800e0000 <begin_signature>
    8000053a:	6305                	lui	t1,0x1
    8000053c:	4483031b          	addw	t1,t1,1096 # 1448 <_tbss_end+0x1448>
    80000540:	911a                	add	sp,sp,t1

0000000080000542 <i000000003b>:
    80000542:	8e013983          	ld	s3,-1824(sp)
    80000546:	4b81                	li	s7,0
    80000548:	000e0117          	auipc	sp,0xe0
    8000054c:	ab810113          	add	sp,sp,-1352 # 800e0000 <begin_signature>
    80000550:	6325                	lui	t1,0x9
    80000552:	b703031b          	addw	t1,t1,-1168 # 8b70 <_tbss_end+0x8b70>
    80000556:	911a                	add	sp,sp,t1
    80000558:	c622                	sw	s0,12(sp)
    8000055a:	c0209fd3          	fcvt.l.s	t6,ft1,rtz
    8000055e:	0ff0000f          	fence
    80000562:	c6013b03          	ld	s6,-928(sp)
    80000566:	c181302f          	amominu.d	zero,s8,(sp)
    8000056a:	2441                	addw	s0,s0,16
    8000056c:	4068d71b          	sraw	a4,a7,0x6

0000000080000570 <b000000003c>:
    80000570:	00000033          	add	zero,zero,zero
    80000574:	f97e8be3          	beq	t4,s7,8000050a <i0000000034>
    80000578:	00000033          	add	zero,zero,zero
    8000057c:	e126                	sd	s1,128(sp)
    8000057e:	0248c1b3          	div	gp,a7,tp
    80000582:	a2913423          	sd	s1,-1496(sp)
    80000586:	13757ad3          	fmul.d	fs5,fa0,fs7
    8000058a:	aa713423          	sd	t2,-1368(sp)
    8000058e:	a812                	fsd	ft4,16(sp)
    80000590:	a9d6                	fsd	fs5,208(sp)
    80000592:	4ea9                	li	t4,10

0000000080000594 <i000000003c>:
    80000594:	dade                	sw	s7,116(sp)

0000000080000596 <i000000003d>:
    80000596:	92013d83          	ld	s11,-1760(sp)

000000008000059a <i000000003e>:
    8000059a:	034a7633          	remu	a2,s4,s4

000000008000059e <i000000003f>:
    8000059e:	a08e                	fsd	ft3,64(sp)

00000000800005a0 <i0000000040>:
    800005a0:	9f1d                	subw	a4,a4,a5

00000000800005a2 <i0000000041>:
    800005a2:	034637b3          	mulhu	a5,a2,s4

00000000800005a6 <i0000000042>:
    800005a6:	5a0d7dd3          	fsqrt.d	fs11,fs10

00000000800005aa <i0000000043>:
    800005aa:	0248793b          	remuw	s2,a6,tp

00000000800005ae <i0000000044>:
    800005ae:	c152                	sw	s4,128(sp)

00000000800005b0 <i0000000045>:
    800005b0:	20f1262f          	amoxor.w	a2,a5,(sp)

00000000800005b4 <i0000000046>:
    800005b4:	666a                	ld	a2,152(sp)

00000000800005b6 <i0000000047>:
    800005b6:	67b1                	lui	a5,0xc

00000000800005b8 <i0000000048>:
    800005b8:	863d                	sra	a2,a2,0xf

00000000800005ba <i0000000049>:
    800005ba:	0202a633          	mulhsu	a2,t0,zero

00000000800005be <i000000004a>:
    800005be:	4d964493          	xor	s1,a2,1241

00000000800005c2 <i000000004b>:
    800005c2:	86513823          	sd	t0,-1936(sp)

00000000800005c6 <i000000004c>:
    800005c6:	0ff0000f          	fence

00000000800005ca <i000000004d>:
    800005ca:	0297c33b          	divw	t1,a5,s1

00000000800005ce <i000000004e>:
    800005ce:	94be                	add	s1,s1,a5
    800005d0:	4c2d                	li	s8,11
    800005d2:	0e85                	add	t4,t4,1
    800005d4:	0000100f          	fence.i
    800005d8:	d03c9a53          	fcvt.s.lu	fs4,s9,rtz
    800005dc:	e00784d3          	fmv.x.w	s1,fa5
    800005e0:	7a22                	ld	s4,40(sp)
    800005e2:	3e813f83          	ld	t6,1000(sp)
    800005e6:	4732                	lw	a4,12(sp)
    800005e8:	0297c9bb          	divw	s3,a5,s1

00000000800005ec <b000000004f>:
    800005ec:	00000033          	add	zero,zero,zero
    800005f0:	fb8e89e3          	beq	t4,s8,800005a2 <i0000000041>
    800005f4:	00000033          	add	zero,zero,zero
    800005f8:	1918                	add	a4,sp,176
    800005fa:	9ca5                	addw	s1,s1,s1
    800005fc:	e152                	sd	s4,128(sp)
    800005fe:	033384bb          	mulw	s1,t2,s3
    80000602:	41a754bb          	sraw	s1,a4,s10
    80000606:	4010f2d3          	fcvt.s.d	ft5,ft1
    8000060a:	408124af          	amoor.w	s1,s0,(sp)
    8000060e:	4ea9                	li	t4,10
    80000610:	000e0117          	auipc	sp,0xe0
    80000614:	9f010113          	add	sp,sp,-1552 # 800e0000 <begin_signature>
    80000618:	6319                	lui	t1,0x6
    8000061a:	e883031b          	addw	t1,t1,-376 # 5e88 <_tbss_end+0x5e88>
    8000061e:	911a                	add	sp,sp,t1

0000000080000620 <i000000004f>:
    80000620:	662a                	ld	a2,136(sp)

0000000080000622 <i0000000050>:
    80000622:	f84a                	sd	s2,48(sp)

0000000080000624 <i0000000051>:
    80000624:	9747b613          	sltiu	a2,a5,-1676

0000000080000628 <i0000000052>:
    80000628:	6169                	add	sp,sp,208

000000008000062a <i0000000053>:
    8000062a:	e0c124af          	amomaxu.w	s1,a2,(sp)

000000008000062e <i0000000054>:
    8000062e:	19cc                	add	a1,sp,244

0000000080000630 <i0000000055>:
    80000630:	a091282f          	amomax.w	a6,s1,(sp)
    80000634:	000e0117          	auipc	sp,0xe0
    80000638:	9cc10113          	add	sp,sp,-1588 # 800e0000 <begin_signature>
    8000063c:	632d                	lui	t1,0xb
    8000063e:	2183031b          	addw	t1,t1,536 # b218 <_tbss_end+0xb218>
    80000642:	911a                	add	sp,sp,t1

0000000080000644 <i0000000056>:
    80000644:	5526                	lw	a0,104(sp)

0000000080000646 <i0000000057>:
    80000646:	52c16e03          	lwu	t3,1324(sp)

000000008000064a <i0000000058>:
    8000064a:	a05124af          	amomax.w	s1,t0,(sp)

000000008000064e <i0000000059>:
    8000064e:	e0c13a2f          	amomaxu.d	s4,a2,(sp)

0000000080000652 <i000000005a>:
    80000652:	04812003          	lw	zero,72(sp)
    80000656:	000e0117          	auipc	sp,0xe0
    8000065a:	9aa10113          	add	sp,sp,-1622 # 800e0000 <begin_signature>
    8000065e:	6309                	lui	t1,0x2
    80000660:	ce83031b          	addw	t1,t1,-792 # 1ce8 <_tbss_end+0x1ce8>
    80000664:	911a                	add	sp,sp,t1

0000000080000666 <i000000005b>:
    80000666:	737e                	ld	t1,504(sp)

0000000080000668 <i000000005c>:
    80000668:	7626                	ld	a2,104(sp)

000000008000066a <i000000005d>:
    8000066a:	7a1e                	ld	s4,480(sp)

000000008000066c <i000000005e>:
    8000066c:	02948633          	mul	a2,s1,s1

0000000080000670 <i000000005f>:
    80000670:	0094bd33          	sltu	s10,s1,s1
    80000674:	000e0117          	auipc	sp,0xe0
    80000678:	98c10113          	add	sp,sp,-1652 # 800e0000 <begin_signature>
    8000067c:	631d                	lui	t1,0x7
    8000067e:	1783031b          	addw	t1,t1,376 # 7178 <_tbss_end+0x7178>
    80000682:	911a                	add	sp,sp,t1

0000000080000684 <i0000000060>:
    80000684:	a256                	fsd	fs5,256(sp)

0000000080000686 <i0000000061>:
    80000686:	9c35f893          	and	a7,a1,-1597
    8000068a:	d024b253          	fcvt.s.l	ft4,s1,rup
    8000068e:	d02d7bd3          	fcvt.s.l	fs7,s10
    80000692:	020717b3          	mulh	a5,a4,zero
    80000696:	2bb6fc43          	fmadd.d	fs8,fa3,fs11,ft5
    8000069a:	20868c53          	fsgnj.s	fs8,fa3,fs0
    8000069e:	d6a6                	sw	s1,108(sp)
    800006a0:	9ca1                	addw	s1,s1,s0

00000000800006a2 <b0000000062>:
    800006a2:	00000917          	auipc	s2,0x0
    800006a6:	04c90913          	add	s2,s2,76 # 800006ee <i000000006d>
    800006aa:	00090067          	jr	s2
    800006ae:	03827ad3          	fadd.d	fs5,ft4,fs8
    800006b2:	5782                	lw	a5,32(sp)
    800006b4:	c0269a53          	fcvt.l.s	s4,fa3,rtz
    800006b8:	034a77bb          	remuw	a5,s4,s4
    800006bc:	0344fa3b          	remuw	s4,s1,s4
    800006c0:	03b8                	add	a4,sp,456
    800006c2:	54b2                	lw	s1,44(sp)

00000000800006c4 <i0000000062>:
    800006c4:	3b816d83          	lwu	s11,952(sp)

00000000800006c8 <i0000000063>:
    800006c8:	24412823          	sw	tp,592(sp)

00000000800006cc <i0000000064>:
    800006cc:	1050                	add	a2,sp,36

00000000800006ce <i0000000065>:
    800006ce:	02c61a33          	mulh	s4,a2,a2

00000000800006d2 <i0000000066>:
    800006d2:	f2060c53          	fmv.d.x	fs8,a2

00000000800006d6 <i0000000067>:
    800006d6:	40912baf          	amoor.w	s7,s1,(sp)

00000000800006da <i0000000068>:
    800006da:	77613823          	sd	s6,1904(sp)

00000000800006de <i0000000069>:
    800006de:	12a07e53          	fmul.d	ft8,ft0,fa0

00000000800006e2 <i000000006a>:
    800006e2:	f5aff693          	and	a3,t6,-166

00000000800006e6 <i000000006b>:
    800006e6:	0000100f          	fence.i

00000000800006ea <i000000006c>:
    800006ea:	8141302f          	amomin.d	zero,s4,(sp)

00000000800006ee <i000000006d>:
    800006ee:	de26                	sw	s1,60(sp)

00000000800006f0 <i000000006e>:
    800006f0:	04e2                	sll	s1,s1,0x18

00000000800006f2 <i000000006f>:
    800006f2:	1070                	add	a2,sp,44

00000000800006f4 <i0000000070>:
    800006f4:	00539233          	sll	tp,t2,t0

00000000800006f8 <i0000000071>:
    800006f8:	419a559b          	sraw	a1,s4,0x19

00000000800006fc <i0000000072>:
    800006fc:	0ff0000f          	fence

0000000080000700 <i0000000073>:
    80000700:	414a5e3b          	sraw	t3,s4,s4

0000000080000704 <i0000000074>:
    80000704:	a836                	fsd	fa3,16(sp)
    80000706:	4c31                	li	s8,12
    80000708:	0e85                	add	t4,t4,1
    8000070a:	000e0117          	auipc	sp,0xe0
    8000070e:	8f610113          	add	sp,sp,-1802 # 800e0000 <begin_signature>
    80000712:	6319                	lui	t1,0x6
    80000714:	4903031b          	addw	t1,t1,1168 # 6490 <_tbss_end+0x6490>
    80000718:	911a                	add	sp,sp,t1
    8000071a:	03044a3b          	divw	s4,s0,a6
    8000071e:	0000100f          	fence.i
    80000722:	6971                	lui	s2,0x1c
    80000724:	020cf23b          	remuw	tp,s9,zero
    80000728:	8735                	sra	a4,a4,0xd
    8000072a:	9c25                	addw	s0,s0,s1
    8000072c:	cc52                	sw	s4,24(sp)

000000008000072e <b0000000075>:
    8000072e:	00000033          	add	zero,zero,zero
    80000732:	fb8e9ee3          	bne	t4,s8,800006ee <i000000006d>
    80000736:	00000033          	add	zero,zero,zero
    8000073a:	0004d79b          	srlw	a5,s1,0x0
    8000073e:	a3deaad3          	feq.d	s5,ft9,ft9
    80000742:	214137af          	amoxor.d	a5,s4,(sp)
    80000746:	03f87a3b          	remuw	s4,a6,t6
    8000074a:	6b611403          	lh	s0,1718(sp)
    8000074e:	8f3d                	xor	a4,a4,a5
    80000750:	e0f131af          	amomaxu.d	gp,a5,(sp)
    80000754:	4ea9                	li	t4,10

0000000080000756 <i0000000075>:
    80000756:	4656                	lw	a2,84(sp)

0000000080000758 <i0000000076>:
    80000758:	40d184b3          	sub	s1,gp,a3

000000008000075c <i0000000077>:
    8000075c:	6111                	add	sp,sp,256

000000008000075e <i0000000078>:
    8000075e:	97412a03          	lw	s4,-1676(sp)

0000000080000762 <i0000000079>:
    80000762:	365d                	addw	a2,a2,-9

0000000080000764 <i000000007a>:
    80000764:	1264                	add	s1,sp,300

0000000080000766 <i000000007b>:
    80000766:	d03ca353          	fcvt.s.lu	ft6,s9,rdn

000000008000076a <i000000007c>:
    8000076a:	7622                	ld	a2,40(sp)

000000008000076c <i000000007d>:
    8000076c:	1bf8                	add	a4,sp,508

000000008000076e <i000000007e>:
    8000076e:	d21a0ad3          	fcvt.d.wu	fs5,s4

0000000080000772 <i000000007f>:
    80000772:	57435017          	auipc	zero,0x57435

0000000080000776 <i0000000080>:
    80000776:	10856993          	or	s3,a0,264
    8000077a:	000e0117          	auipc	sp,0xe0
    8000077e:	88610113          	add	sp,sp,-1914 # 800e0000 <begin_signature>
    80000782:	6329                	lui	t1,0xa
    80000784:	4283031b          	addw	t1,t1,1064 # a428 <_tbss_end+0xa428>
    80000788:	911a                	add	sp,sp,t1

000000008000078a <i0000000081>:
    8000078a:	c4d13023          	sd	a3,-960(sp)

000000008000078e <i0000000082>:
    8000078e:	61a1292f          	amoand.w	s2,s10,(sp)

0000000080000792 <i0000000083>:
    80000792:	221c14d3          	fsgnjn.d	fs1,fs8,ft1

0000000080000796 <i0000000084>:
    80000796:	a1412a2f          	amomax.w	s4,s4,(sp)

000000008000079a <i0000000085>:
    8000079a:	f1013603          	ld	a2,-240(sp)

000000008000079e <i0000000086>:
    8000079e:	9a15                	and	a2,a2,-27

00000000800007a0 <i0000000087>:
    800007a0:	43712827          	fsw	fs7,1072(sp)
    800007a4:	000e0117          	auipc	sp,0xe0
    800007a8:	85c10113          	add	sp,sp,-1956 # 800e0000 <begin_signature>
    800007ac:	6331                	lui	t1,0xc
    800007ae:	5903031b          	addw	t1,t1,1424 # c590 <_tbss_end+0xc590>
    800007b2:	911a                	add	sp,sp,t1
    800007b4:	000e0117          	auipc	sp,0xe0
    800007b8:	84c10113          	add	sp,sp,-1972 # 800e0000 <begin_signature>
    800007bc:	6309                	lui	t1,0x2
    800007be:	8f03031b          	addw	t1,t1,-1808 # 18f0 <_tbss_end+0x18f0>
    800007c2:	911a                	add	sp,sp,t1
    800007c4:	00211383          	lh	t2,2(sp)
    800007c8:	9c81                	subw	s1,s1,s0
    800007ca:	0ff0000f          	fence
    800007ce:	03478e33          	mul	t3,a5,s4
    800007d2:	c02487d3          	fcvt.l.s	a5,fs1,rne
    800007d6:	97d2                	add	a5,a5,s4
    800007d8:	d2088c53          	fcvt.d.w	fs8,a7

00000000800007dc <b0000000088>:
    800007dc:	00000b97          	auipc	s7,0x0
    800007e0:	032b8b93          	add	s7,s7,50 # 8000080e <i000000008e>
    800007e4:	000b8067          	jr	s7
    800007e8:	a4b6                	fsd	fa3,72(sp)
    800007ea:	da26                	sw	s1,52(sp)
    800007ec:	bc26                	fsd	fs1,56(sp)
    800007ee:	d02acfd3          	fcvt.s.l	ft11,s5,rmm
    800007f2:	b1015003          	lhu	zero,-1264(sp)
    800007f6:	d004a053          	fcvt.s.w	ft0,s1,rdn
    800007fa:	a262                	fsd	fs8,256(sp)

00000000800007fc <i0000000088>:
    800007fc:	0000100f          	fence.i

0000000080000800 <i0000000089>:
    80000800:	0ff0000f          	fence

0000000080000804 <i000000008a>:
    80000804:	25d10b03          	lb	s6,605(sp)

0000000080000808 <i000000008b>:
    80000808:	250e                	fld	fa0,192(sp)

000000008000080a <i000000008c>:
    8000080a:	a8c6                	fsd	fa7,80(sp)

000000008000080c <i000000008d>:
    8000080c:	ca2a                	sw	a0,20(sp)

000000008000080e <i000000008e>:
    8000080e:	4107d4bb          	sraw	s1,a5,a6

0000000080000812 <i000000008f>:
    80000812:	e091342f          	amomaxu.d	s0,s1,(sp)

0000000080000816 <i0000000090>:
    80000816:	bd26                	fsd	fs1,184(sp)

0000000080000818 <i0000000091>:
    80000818:	02626633          	rem	a2,tp,t1

000000008000081c <i0000000092>:
    8000081c:	032264b3          	rem	s1,tp,s2

0000000080000820 <i0000000093>:
    80000820:	0000100f          	fence.i

0000000080000824 <i0000000094>:
    80000824:	6169                	add	sp,sp,208

0000000080000826 <i0000000095>:
    80000826:	034a453b          	divw	a0,s4,s4

000000008000082a <i0000000096>:
    8000082a:	565c4613          	xor	a2,s8,1381
    8000082e:	000df117          	auipc	sp,0xdf
    80000832:	7d210113          	add	sp,sp,2002 # 800e0000 <begin_signature>
    80000836:	6309                	lui	t1,0x2
    80000838:	c703031b          	addw	t1,t1,-912 # 1c70 <_tbss_end+0x1c70>
    8000083c:	911a                	add	sp,sp,t1

000000008000083e <i0000000097>:
    8000083e:	f1a6                	sd	s1,224(sp)

0000000080000840 <i0000000098>:
    80000840:	0146543b          	srlw	s0,a2,s4

0000000080000844 <i0000000099>:
    80000844:	9002                	ebreak

0000000080000846 <i000000009a>:
    80000846:	3c0a                	fld	fs8,160(sp)

0000000080000848 <i000000009b>:
    80000848:	284f10d3          	fmax.s	ft1,ft10,ft4
    8000084c:	000df117          	auipc	sp,0xdf
    80000850:	7b410113          	add	sp,sp,1972 # 800e0000 <begin_signature>
    80000854:	630d                	lui	t1,0x3
    80000856:	2e03031b          	addw	t1,t1,736 # 32e0 <_tbss_end+0x32e0>
    8000085a:	911a                	add	sp,sp,t1
    8000085c:	c61e                	sw	t2,12(sp)
    8000085e:	7faa                	ld	t6,168(sp)
    80000860:	5a412c83          	lw	s9,1444(sp)
    80000864:	011c                	add	a5,sp,128
    80000866:	420c0953          	fcvt.d.s	fs2,fs8
    8000086a:	0000100f          	fence.i
    8000086e:	009a1793          	sll	a5,s4,0x9

0000000080000872 <b000000009c>:
    80000872:	00000997          	auipc	s3,0x0
    80000876:	04298993          	add	s3,s3,66 # 800008b4 <i00000000a2>
    8000087a:	000980e7          	jalr	s3
    8000087e:	8fe5                	and	a5,a5,s1
    80000880:	004b9abb          	sllw	s5,s7,tp
    80000884:	c9913c23          	sd	s9,-872(sp)
    80000888:	6b7d                	lui	s6,0x1f
    8000088a:	44d2                	lw	s1,20(sp)
    8000088c:	014a1bbb          	sllw	s7,s4,s4
    80000890:	9b61                	and	a4,a4,-8

0000000080000892 <i000000009c>:
    80000892:	17d5                	add	a5,a5,-11 # bff5 <_tbss_end+0xbff5>

0000000080000894 <i000000009d>:
    80000894:	e20b9a53          	fclass.d	s4,fs7

0000000080000898 <i000000009e>:
    80000898:	228e                	fld	ft5,192(sp)
    8000089a:	000df117          	auipc	sp,0xdf
    8000089e:	76610113          	add	sp,sp,1894 # 800e0000 <begin_signature>
    800008a2:	6329                	lui	t1,0xa
    800008a4:	2183031b          	addw	t1,t1,536 # a218 <_tbss_end+0xa218>
    800008a8:	911a                	add	sp,sp,t1

00000000800008aa <i000000009f>:
    800008aa:	96013c83          	ld	s9,-1696(sp)

00000000800008ae <i00000000a0>:
    800008ae:	00da519b          	srlw	gp,s4,0xd

00000000800008b2 <i00000000a1>:
    800008b2:	7155                	add	sp,sp,-208

00000000800008b4 <i00000000a2>:
    800008b4:	1161                	add	sp,sp,-8
    800008b6:	e43a                	sd	a4,8(sp)
    800008b8:	4701                	li	a4,0
    800008ba:	e318                	sd	a4,0(a4)
    800008bc:	6722                	ld	a4,8(sp)
    800008be:	0121                	add	sp,sp,8

00000000800008c0 <i00000000a3>:
    800008c0:	02f49f93          	sll	t6,s1,0x2f

00000000800008c4 <i00000000a4>:
    800008c4:	3c6e                	fld	fs8,248(sp)

00000000800008c6 <i00000000a5>:
    800008c6:	0ff0000f          	fence

00000000800008ca <i00000000a6>:
    800008ca:	2502                	fld	fa0,0(sp)

00000000800008cc <i00000000a7>:
    800008cc:	0ff0000f          	fence

00000000800008d0 <i00000000a8>:
    800008d0:	9d99                	subw	a1,a1,a4

00000000800008d2 <i00000000a9>:
    800008d2:	acb2                	fsd	fa2,88(sp)

00000000800008d4 <i00000000aa>:
    800008d4:	8c31                	xor	s0,s0,a2

00000000800008d6 <i00000000ab>:
    800008d6:	54412e23          	sw	tp,1372(sp)

00000000800008da <i00000000ac>:
    800008da:	6d42                	ld	s10,16(sp)

00000000800008dc <i00000000ad>:
    800008dc:	0000100f          	fence.i

00000000800008e0 <i00000000ae>:
    800008e0:	0000100f          	fence.i

00000000800008e4 <i00000000af>:
    800008e4:	8fd5                	or	a5,a5,a3
    800008e6:	4e2d                	li	t3,11
    800008e8:	0e85                	add	t4,t4,1
    800008ea:	000df117          	auipc	sp,0xdf
    800008ee:	71610113          	add	sp,sp,1814 # 800e0000 <begin_signature>
    800008f2:	6331                	lui	t1,0xc
    800008f4:	b203031b          	addw	t1,t1,-1248 # bb20 <_tbss_end+0xbb20>
    800008f8:	911a                	add	sp,sp,t1
    800008fa:	2702                	fld	fa4,0(sp)
    800008fc:	a1c6                	fsd	fa7,192(sp)
    800008fe:	d03b0453          	fcvt.s.lu	fs0,s6,rne
    80000902:	03415983          	lhu	s3,52(sp)
    80000906:	f1ea                	sd	s10,224(sp)
    80000908:	02389233          	mulh	tp,a7,gp
    8000090c:	f726                	sd	s1,424(sp)

000000008000090e <b00000000b0>:
    8000090e:	00000033          	add	zero,zero,zero
    80000912:	fbce8ae3          	beq	t4,t3,800008c6 <i00000000a5>
    80000916:	00000033          	add	zero,zero,zero
    8000091a:	d03a7953          	fcvt.s.lu	fs2,s4
    8000091e:	e00407d3          	fmv.x.w	a5,fs0
    80000922:	01193bb3          	sltu	s7,s2,a7
    80000926:	bc06                	fsd	ft1,56(sp)
    80000928:	217d24d3          	fsgnjx.s	fs1,fs10,fs7
    8000092c:	6149                	add	sp,sp,144
    8000092e:	031c                	add	a5,sp,384
    80000930:	4ea9                	li	t4,10

0000000080000932 <i00000000b0>:
    80000932:	91c16e03          	lwu	t3,-1764(sp)

0000000080000936 <i00000000b1>:
    80000936:	094124af          	amoswap.w	s1,s4,(sp)

000000008000093a <i00000000b2>:
    8000093a:	02ca0a3b          	mulw	s4,s4,a2

000000008000093e <i00000000b3>:
    8000093e:	a8be                	fsd	fa5,80(sp)

0000000080000940 <i00000000b4>:
    80000940:	0061292f          	amoadd.w	s2,t1,(sp)

0000000080000944 <i00000000b5>:
    80000944:	8f96                	mv	t6,t0

0000000080000946 <i00000000b6>:
    80000946:	a826                	fsd	fs1,16(sp)

0000000080000948 <i00000000b7>:
    80000948:	4c41                	li	s8,16

000000008000094a <i00000000b8>:
    8000094a:	34c1                	addw	s1,s1,-16

000000008000094c <i00000000b9>:
    8000094c:	0344f1b3          	remu	gp,s1,s4

0000000080000950 <i00000000ba>:
    80000950:	41245613          	sra	a2,s0,0x12

0000000080000954 <i00000000bb>:
    80000954:	020574bb          	remuw	s1,a0,zero

0000000080000958 <i00000000bc>:
    80000958:	418125af          	amoor.w	a1,s8,(sp)

000000008000095c <i00000000bd>:
    8000095c:	9c8d                	subw	s1,s1,a1

000000008000095e <i00000000be>:
    8000095e:	0ff0000f          	fence

0000000080000962 <i00000000bf>:
    80000962:	d02b8353          	fcvt.s.l	ft6,s7,rne

0000000080000966 <i00000000c0>:
    80000966:	d03a4353          	fcvt.s.lu	ft6,s4,rmm

000000008000096a <i00000000c1>:
    8000096a:	01798f33          	add	t5,s3,s7

000000008000096e <i00000000c2>:
    8000096e:	891d                	and	a0,a0,7

0000000080000970 <i00000000c3>:
    80000970:	1141                	add	sp,sp,-16
    80000972:	e42e                	sd	a1,8(sp)
    80000974:	e83e                	sd	a5,16(sp)
    80000976:	00000597          	auipc	a1,0x0
    8000097a:	00858593          	add	a1,a1,8 # 8000097e <i00000000c3+0xe>
    8000097e:	000007e7          	jalr	a5,zero # 0 <_tbss_end>
    80000982:	65a2                	ld	a1,8(sp)
    80000984:	67c2                	ld	a5,16(sp)
    80000986:	0141                	add	sp,sp,16
    80000988:	4fb1                	li	t6,12
    8000098a:	0e85                	add	t4,t4,1
    8000098c:	02fa743b          	remuw	s0,s4,a5
    80000990:	742e                	ld	s0,232(sp)
    80000992:	024254bb          	divuw	s1,tp,tp
    80000996:	c024b253          	fcvt.l.s	tp,fs1,rup
    8000099a:	d00934d3          	fcvt.s.w	fs1,s2,rup
    8000099e:	c024c7d3          	fcvt.l.s	a5,fs1,rmm
    800009a2:	21f00953          	fsgnj.s	fs2,ft0,ft11

00000000800009a6 <b00000000c4>:
    800009a6:	00000033          	add	zero,zero,zero
    800009aa:	fbdfd3e3          	bge	t6,t4,80000950 <i00000000ba>
    800009ae:	00000033          	add	zero,zero,zero
    800009b2:	0091202f          	amoadd.w	zero,s1,(sp)
    800009b6:	71f78893          	add	a7,a5,1823
    800009ba:	e2030253          	fmv.x.d	tp,ft6
    800009be:	d2347ad3          	fcvt.d.lu	fs5,s0
    800009c2:	03377c53          	fadd.d	fs8,fa4,fs3
    800009c6:	20268853          	fsgnj.s	fa6,fa3,ft2
    800009ca:	80f1282f          	amomin.w	a6,a5,(sp)
    800009ce:	4ea9                	li	t4,10

00000000800009d0 <i00000000c4>:
    800009d0:	c03acad3          	fcvt.lu.s	s5,fs5,rmm

00000000800009d4 <i00000000c5>:
    800009d4:	e20691d3          	fclass.d	gp,fa3

00000000800009d8 <i00000000c6>:
    800009d8:	0ff0000f          	fence

00000000800009dc <i00000000c7>:
    800009dc:	d03a3253          	fcvt.s.lu	ft4,s4,rup

00000000800009e0 <i00000000c8>:
    800009e0:	5a0dfc53          	fsqrt.d	fs8,fs11

00000000800009e4 <i00000000c9>:
    800009e4:	00ca54bb          	srlw	s1,s4,a2

00000000800009e8 <i00000000ca>:
    800009e8:	ced2                	sw	s4,92(sp)

00000000800009ea <i00000000cb>:
    800009ea:	0294c733          	div	a4,s1,s1

00000000800009ee <i00000000cc>:
    800009ee:	4486                	lw	s1,64(sp)

00000000800009f0 <i00000000cd>:
    800009f0:	4062d713          	sra	a4,t0,0x6

00000000800009f4 <i00000000ce>:
    800009f4:	3562                	fld	fa0,56(sp)

00000000800009f6 <i00000000cf>:
    800009f6:	60d1362f          	amoand.d	a2,a3,(sp)

00000000800009fa <i00000000d0>:
    800009fa:	e052                	sd	s4,0(sp)

00000000800009fc <i00000000d1>:
    800009fc:	6482                	ld	s1,0(sp)

00000000800009fe <i00000000d2>:
    800009fe:	60e4a893          	slti	a7,s1,1550

0000000080000a02 <i00000000d3>:
    80000a02:	00df951b          	sllw	a0,t6,0xd

0000000080000a06 <i00000000d4>:
    80000a06:	2a078253          	fmin.d	ft4,fa5,ft0

0000000080000a0a <i00000000d5>:
    80000a0a:	f2f13c23          	sd	a5,-200(sp)

0000000080000a0e <i00000000d6>:
    80000a0e:	5d26                	lw	s10,104(sp)
    80000a10:	000df117          	auipc	sp,0xdf
    80000a14:	5f010113          	add	sp,sp,1520 # 800e0000 <begin_signature>
    80000a18:	6319                	lui	t1,0x6
    80000a1a:	8383031b          	addw	t1,t1,-1992 # 5838 <_tbss_end+0x5838>
    80000a1e:	911a                	add	sp,sp,t1
    80000a20:	e1212c2f          	amomaxu.w	s8,s2,(sp)
    80000a24:	7c4a                	ld	s8,176(sp)
    80000a26:	d03dcad3          	fcvt.s.lu	fs5,s11,rmm
    80000a2a:	0ff0000f          	fence
    80000a2e:	8fc1                	or	a5,a5,s0
    80000a30:	5412                	lw	s0,36(sp)
    80000a32:	20eda753          	fsgnjx.s	fa4,fs11,fa4

0000000080000a36 <b00000000d7>:
    80000a36:	0300056f          	jal	a0,80000a66 <i00000000dd>
    80000a3a:	f2040c53          	fmv.d.x	fs8,s0
    80000a3e:	0732                	sll	a4,a4,0xc
    80000a40:	d23cfc53          	fcvt.d.lu	fs8,s9
    80000a44:	e00597d3          	fclass.s	a5,fa1
    80000a48:	02f7adb3          	mulhsu	s11,a5,a5
    80000a4c:	41d4dc13          	sra	s8,s1,0x1d
    80000a50:	54a2                	lw	s1,40(sp)

0000000080000a52 <i00000000d7>:
    80000a52:	20416603          	lwu	a2,516(sp)

0000000080000a56 <i00000000d8>:
    80000a56:	82612227          	fsw	ft6,-2012(sp)

0000000080000a5a <i00000000d9>:
    80000a5a:	0022d073          	fsrmi	zero,5

0000000080000a5e <i00000000da>:
    80000a5e:	67c6                	ld	a5,80(sp)

0000000080000a60 <i00000000db>:
    80000a60:	350d                	addw	a0,a0,-29

0000000080000a62 <i00000000dc>:
    80000a62:	00ca64b3          	or	s1,s4,a2

0000000080000a66 <i00000000dd>:
    80000a66:	d2267cd3          	fcvt.d.l	fs9,a2

0000000080000a6a <i00000000de>:
    80000a6a:	038a1993          	sll	s3,s4,0x38

0000000080000a6e <i00000000df>:
    80000a6e:	034654b3          	divu	s1,a2,s4

0000000080000a72 <i00000000e0>:
    80000a72:	e20c84d3          	fmv.x.d	s1,fs9

0000000080000a76 <i00000000e1>:
    80000a76:	81a6                	mv	gp,s1

0000000080000a78 <i00000000e2>:
    80000a78:	082c                	add	a1,sp,24

0000000080000a7a <i00000000e3>:
    80000a7a:	02ca7633          	remu	a2,s4,a2

0000000080000a7e <i00000000e4>:
    80000a7e:	40e7863b          	subw	a2,a5,a4

0000000080000a82 <i00000000e5>:
    80000a82:	3a86                	fld	fs5,96(sp)

0000000080000a84 <i00000000e6>:
    80000a84:	02c4c633          	div	a2,s1,a2

0000000080000a88 <i00000000e7>:
    80000a88:	0294d63b          	divuw	a2,s1,s1

0000000080000a8c <i00000000e8>:
    80000a8c:	0276f4bb          	remuw	s1,a3,t2

0000000080000a90 <i00000000e9>:
    80000a90:	d01a8ed3          	fcvt.s.wu	ft9,s5,rne

0000000080000a94 <i00000000ea>:
    80000a94:	607124af          	amoand.w	s1,t2,(sp)
    80000a98:	4da9                	li	s11,10
    80000a9a:	000df117          	auipc	sp,0xdf
    80000a9e:	56610113          	add	sp,sp,1382 # 800e0000 <begin_signature>
    80000aa2:	6315                	lui	t1,0x5
    80000aa4:	a583031b          	addw	t1,t1,-1448 # 4a58 <_tbss_end+0x4a58>
    80000aa8:	911a                	add	sp,sp,t1
    80000aaa:	226c0053          	fsgnj.d	ft0,fs8,ft6
    80000aae:	d02a3253          	fcvt.s.l	ft4,s4,rup
    80000ab2:	a1821d53          	flt.s	s10,ft4,fs8
    80000ab6:	c426                	sw	s1,8(sp)
    80000ab8:	c1c1222f          	amominu.w	tp,t3,(sp)
    80000abc:	0000100f          	fence.i
    80000ac0:	53313023          	sd	s3,1312(sp)

0000000080000ac4 <b00000000eb>:
    80000ac4:	01be8463          	beq	t4,s11,80000acc <b00000000eb+0x8>
    80000ac8:	fbbff56f          	jal	a0,80000a82 <i00000000e5>
    80000acc:	4ea9                	li	t4,10
    80000ace:	0ff0000f          	fence
    80000ad2:	e0031b53          	fclass.s	s6,ft6
    80000ad6:	0000100f          	fence.i
    80000ada:	53016983          	lwu	s3,1328(sp)
    80000ade:	3a812a03          	lw	s4,936(sp)
    80000ae2:	d226                	sw	s1,36(sp)
    80000ae4:	41ce5f9b          	sraw	t6,t3,0x1c

0000000080000ae8 <i00000000eb>:
    80000ae8:	27c2                	fld	fa5,16(sp)

0000000080000aea <i00000000ec>:
    80000aea:	11fc                	add	a5,sp,236

0000000080000aec <i00000000ed>:
    80000aec:	8c6d                	and	s0,s0,a1

0000000080000aee <i00000000ee>:
    80000aee:	e0031953          	fclass.s	s2,ft6

0000000080000af2 <i00000000ef>:
    80000af2:	c22e                	sw	a1,4(sp)

0000000080000af4 <i00000000f0>:
    80000af4:	22ac0653          	fsgnj.d	fa2,fs8,fa0

0000000080000af8 <i00000000f1>:
    80000af8:	00c1332f          	amoadd.d	t1,a2,(sp)
    80000afc:	000df117          	auipc	sp,0xdf
    80000b00:	50410113          	add	sp,sp,1284 # 800e0000 <begin_signature>
    80000b04:	631d                	lui	t1,0x7
    80000b06:	e703031b          	addw	t1,t1,-400 # 6e70 <_tbss_end+0x6e70>
    80000b0a:	911a                	add	sp,sp,t1

0000000080000b0c <i00000000f2>:
    80000b0c:	44e6                	lw	s1,88(sp)

0000000080000b0e <i00000000f3>:
    80000b0e:	bc410d23          	sb	tp,-1062(sp)

0000000080000b12 <i00000000f4>:
    80000b12:	20cb9dd3          	fsgnjn.s	fs11,fs7,fa2

0000000080000b16 <i00000000f5>:
    80000b16:	88816f83          	lwu	t6,-1912(sp)

0000000080000b1a <i00000000f6>:
    80000b1a:	84c1                	sra	s1,s1,0x10

0000000080000b1c <i00000000f7>:
    80000b1c:	94815c83          	lhu	s9,-1720(sp)

0000000080000b20 <i00000000f8>:
    80000b20:	3562                	fld	fa0,56(sp)

0000000080000b22 <i00000000f9>:
    80000b22:	0b58                	add	a4,sp,404

0000000080000b24 <i00000000fa>:
    80000b24:	810a                	mv	sp,sp

0000000080000b26 <i00000000fb>:
    80000b26:	c0c12daf          	amominu.w	s11,a2,(sp)

0000000080000b2a <i00000000fc>:
    80000b2a:	f20a0253          	fmv.d.x	ft4,s4

0000000080000b2e <i00000000fd>:
    80000b2e:	41975a3b          	sraw	s4,a4,s9
    80000b32:	4a2d                	li	s4,11
    80000b34:	4ea9                	li	t4,10
    80000b36:	000df117          	auipc	sp,0xdf
    80000b3a:	4ca10113          	add	sp,sp,1226 # 800e0000 <begin_signature>
    80000b3e:	630d                	lui	t1,0x3
    80000b40:	5303031b          	addw	t1,t1,1328 # 3530 <_tbss_end+0x3530>
    80000b44:	911a                	add	sp,sp,t1
    80000b46:	448d                	li	s1,3
    80000b48:	7165                	add	sp,sp,-400
    80000b4a:	03699733          	mulh	a4,s3,s6
    80000b4e:	03b22cb3          	mulhsu	s9,tp,s11
    80000b52:	c02844d3          	fcvt.l.s	s1,fa6,rmm
    80000b56:	6766                	ld	a4,88(sp)
    80000b58:	613134af          	amoand.d	s1,s3,(sp)

0000000080000b5c <b00000000fe>:
    80000b5c:	00000033          	add	zero,zero,zero
    80000b60:	054e9263          	bne	t4,s4,80000ba4 <i0000000109>
    80000b64:	00000033          	add	zero,zero,zero
    80000b68:	01d85d13          	srl	s10,a6,0x1d
    80000b6c:	44e2                	lw	s1,24(sp)
    80000b6e:	0297c233          	div	tp,a5,s1
    80000b72:	67d5                	lui	a5,0x15
    80000b74:	c02c1753          	fcvt.l.s	a4,fs8,rtz
    80000b78:	0000100f          	fence.i
    80000b7c:	8f19                	sub	a4,a4,a4
    80000b7e:	4ea9                	li	t4,10

0000000080000b80 <i00000000fe>:
    80000b80:	0aa277d3          	fsub.d	fa5,ft4,fa0

0000000080000b84 <i00000000ff>:
    80000b84:	0140                	add	s0,sp,132

0000000080000b86 <i0000000100>:
    80000b86:	fcaff0ef          	jal	80000350 <func1>

0000000080000b8a <i0000000101>:
    80000b8a:	218c0e53          	fmv.s	ft8,fs8

0000000080000b8e <i0000000102>:
    80000b8e:	9e813a03          	ld	s4,-1560(sp)

0000000080000b92 <i0000000103>:
    80000b92:	029a6533          	rem	a0,s4,s1

0000000080000b96 <i0000000104>:
    80000b96:	ecfe                	sd	t6,88(sp)

0000000080000b98 <i0000000105>:
    80000b98:	e0ae                	sd	a1,64(sp)

0000000080000b9a <i0000000106>:
    80000b9a:	20450453          	fsgnj.s	fs0,fa0,ft4

0000000080000b9e <i0000000107>:
    80000b9e:	4b76                	lw	s6,92(sp)

0000000080000ba0 <i0000000108>:
    80000ba0:	0020d073          	fsrmi	zero,1

0000000080000ba4 <i0000000109>:
    80000ba4:	b6012827          	fsw	ft0,-1168(sp)

0000000080000ba8 <i000000010a>:
    80000ba8:	c2357753          	fcvt.lu.d	a4,fa0

0000000080000bac <i000000010b>:
    80000bac:	d234fc53          	fcvt.d.lu	fs8,s1

0000000080000bb0 <i000000010c>:
    80000bb0:	a012                	fsd	ft4,0(sp)

0000000080000bb2 <i000000010d>:
    80000bb2:	7646                	ld	a2,112(sp)

0000000080000bb4 <i000000010e>:
    80000bb4:	e1f1222f          	amomaxu.w	tp,t6,(sp)

0000000080000bb8 <i000000010f>:
    80000bb8:	01ae1cb3          	sll	s9,t3,s10

0000000080000bbc <i0000000110>:
    80000bbc:	40c13b2f          	amoor.d	s6,a2,(sp)

0000000080000bc0 <i0000000111>:
    80000bc0:	c2207d53          	fcvt.l.d	s10,ft0

0000000080000bc4 <i0000000112>:
    80000bc4:	20592753          	fsgnjx.s	fa4,fs2,ft5
    80000bc8:	4a25                	li	s4,9
    80000bca:	4ea9                	li	t4,10
    80000bcc:	0000100f          	fence.i
    80000bd0:	015fd193          	srl	gp,t6,0x15
    80000bd4:	22a57643          	fmadd.d	fa2,fa0,fa0,ft4
    80000bd8:	04aa                	sll	s1,s1,0xa
    80000bda:	0297e4bb          	remw	s1,a5,s1
    80000bde:	f2078553          	fmv.d.x	fa0,a5
    80000be2:	23831553          	fsgnjn.d	fa0,ft6,fs8

0000000080000be6 <b0000000113>:
    80000be6:	00000033          	add	zero,zero,zero
    80000bea:	054ec663          	blt	t4,s4,80000c36 <i000000011a>
    80000bee:	00000033          	add	zero,zero,zero
    80000bf2:	c23374d3          	fcvt.lu.d	s1,ft6
    80000bf6:	02e7d4bb          	divuw	s1,a5,a4
    80000bfa:	d23c7253          	fcvt.d.lu	ft4,s8
    80000bfe:	fc3e                	sd	a5,56(sp)
    80000c00:	036e7fbb          	remuw	t6,t3,s6
    80000c04:	fd5e                	sd	s7,184(sp)
    80000c06:	c22374d3          	fcvt.l.d	s1,ft6
    80000c0a:	4ea9                	li	t4,10

0000000080000c0c <i0000000113>:
    80000c0c:	095134af          	amoswap.d	s1,s5,(sp)

0000000080000c10 <i0000000114>:
    80000c10:	02948e33          	mul	t3,s1,s1
    80000c14:	000df117          	auipc	sp,0xdf
    80000c18:	3ec10113          	add	sp,sp,1004 # 800e0000 <begin_signature>
    80000c1c:	630d                	lui	t1,0x3
    80000c1e:	4283031b          	addw	t1,t1,1064 # 3428 <_tbss_end+0x3428>
    80000c22:	911a                	add	sp,sp,t1

0000000080000c24 <i0000000115>:
    80000c24:	5a812483          	lw	s1,1448(sp)

0000000080000c28 <i0000000116>:
    80000c28:	0184                	add	s1,sp,192

0000000080000c2a <i0000000117>:
    80000c2a:	0023d073          	fsrmi	zero,7

0000000080000c2e <i0000000118>:
    80000c2e:	e0021a53          	fclass.s	s4,ft4

0000000080000c32 <i0000000119>:
    80000c32:	0000100f          	fence.i

0000000080000c36 <i000000011a>:
    80000c36:	65e42a13          	slti	s4,s0,1630

0000000080000c3a <i000000011b>:
    80000c3a:	c03bb653          	fcvt.lu.s	a2,fs7,rup

0000000080000c3e <i000000011c>:
    80000c3e:	09012e2f          	amoswap.w	t3,a6,(sp)

0000000080000c42 <i000000011d>:
    80000c42:	0ff0000f          	fence

0000000080000c46 <i000000011e>:
    80000c46:	9da1                	addw	a1,a1,s0

0000000080000c48 <i000000011f>:
    80000c48:	2aac0253          	fmin.d	ft4,fs8,fa0

0000000080000c4c <i0000000120>:
    80000c4c:	d004fc53          	fcvt.s.w	fs8,s1

0000000080000c50 <i0000000121>:
    80000c50:	0000100f          	fence.i

0000000080000c54 <i0000000122>:
    80000c54:	d02db7d3          	fcvt.s.l	fa5,s11,rup

0000000080000c58 <i0000000123>:
    80000c58:	0141                	add	sp,sp,16

0000000080000c5a <i0000000124>:
    80000c5a:	8cb5                	xor	s1,s1,a3

0000000080000c5c <i0000000125>:
    80000c5c:	02967633          	remu	a2,a2,s1

0000000080000c60 <i0000000126>:
    80000c60:	84b9                	sra	s1,s1,0xe
    80000c62:	4e25                	li	t3,9
    80000c64:	0294b7b3          	mulhu	a5,s1,s1
    80000c68:	1b04                	add	s1,sp,432
    80000c6a:	14ad                	add	s1,s1,-21
    80000c6c:	1409                	add	s0,s0,-30
    80000c6e:	d03a7553          	fcvt.s.lu	fa0,s4
    80000c72:	9cb9                	addw	s1,s1,a4
    80000c74:	95fa3a13          	sltiu	s4,s4,-1697

0000000080000c78 <b0000000127>:
    80000c78:	00000033          	add	zero,zero,zero
    80000c7c:	fbde5be3          	bge	t3,t4,80000c32 <i0000000119>
    80000c80:	00000033          	add	zero,zero,zero
    80000c84:	20878cd3          	fsgnj.s	fs9,fa5,fs0
    80000c88:	cf313c23          	sd	s3,-776(sp)
    80000c8c:	1402                	sll	s0,s0,0x20
    80000c8e:	6125                	add	sp,sp,96
    80000c90:	9b8d                	and	a5,a5,-29
    80000c92:	c0362a53          	fcvt.lu.s	s4,fa2,rdn
    80000c96:	0ff0000f          	fence
    80000c9a:	4ea9                	li	t4,10

0000000080000c9c <i0000000127>:
    80000c9c:	4a912823          	sw	s1,1200(sp)

0000000080000ca0 <i0000000128>:
    80000ca0:	9e85                	subw	a3,a3,s1

0000000080000ca2 <i0000000129>:
    80000ca2:	3546                	fld	fa0,112(sp)

0000000080000ca4 <i000000012a>:
    80000ca4:	029484bb          	mulw	s1,s1,s1

0000000080000ca8 <i000000012b>:
    80000ca8:	9c914a03          	lbu	s4,-1591(sp)
    80000cac:	000df117          	auipc	sp,0xdf
    80000cb0:	35410113          	add	sp,sp,852 # 800e0000 <begin_signature>
    80000cb4:	6319                	lui	t1,0x6
    80000cb6:	9783031b          	addw	t1,t1,-1672 # 5978 <_tbss_end+0x5978>
    80000cba:	911a                	add	sp,sp,t1

0000000080000cbc <i000000012c>:
    80000cbc:	5482                	lw	s1,32(sp)

0000000080000cbe <i000000012d>:
    80000cbe:	415128af          	amoor.w	a7,s5,(sp)

0000000080000cc2 <i000000012e>:
    80000cc2:	8ee9                	and	a3,a3,a0
    80000cc4:	000df117          	auipc	sp,0xdf
    80000cc8:	33c10113          	add	sp,sp,828 # 800e0000 <begin_signature>
    80000ccc:	6315                	lui	t1,0x5
    80000cce:	b203031b          	addw	t1,t1,-1248 # 4b20 <_tbss_end+0x4b20>
    80000cd2:	911a                	add	sp,sp,t1

0000000080000cd4 <i000000012f>:
    80000cd4:	dcc12483          	lw	s1,-564(sp)

0000000080000cd8 <i0000000130>:
    80000cd8:	8e45                	or	a2,a2,s1

0000000080000cda <i0000000131>:
    80000cda:	f9e2                	sd	s8,240(sp)

0000000080000cdc <i0000000132>:
    80000cdc:	a071a753          	feq.s	a4,ft3,ft7

0000000080000ce0 <i0000000133>:
    80000ce0:	c0351bd3          	fcvt.lu.s	s7,fa0,rtz

0000000080000ce4 <i0000000134>:
    80000ce4:	0294da33          	divu	s4,s1,s1

0000000080000ce8 <i0000000135>:
    80000ce8:	c035fb53          	fcvt.lu.s	s6,fa1

0000000080000cec <i0000000136>:
    80000cec:	01463633          	sltu	a2,a2,s4
    80000cf0:	000df117          	auipc	sp,0xdf
    80000cf4:	31010113          	add	sp,sp,784 # 800e0000 <begin_signature>
    80000cf8:	630d                	lui	t1,0x3
    80000cfa:	c083031b          	addw	t1,t1,-1016 # 2c08 <_tbss_end+0x2c08>
    80000cfe:	911a                	add	sp,sp,t1

0000000080000d00 <i0000000137>:
    80000d00:	07814603          	lbu	a2,120(sp)

0000000080000d04 <i0000000138>:
    80000d04:	034a2f33          	mulhsu	t5,s4,s4

0000000080000d08 <i0000000139>:
    80000d08:	e141262f          	amomaxu.w	a2,s4,(sp)
    80000d0c:	000df117          	auipc	sp,0xdf
    80000d10:	2f410113          	add	sp,sp,756 # 800e0000 <begin_signature>
    80000d14:	6329                	lui	t1,0xa
    80000d16:	3321                	addw	t1,t1,-24 # 9fe8 <_tbss_end+0x9fe8>
    80000d18:	911a                	add	sp,sp,t1
    80000d1a:	02976d3b          	remw	s10,a4,s1
    80000d1e:	c20ff7d3          	fcvt.w.d	a5,ft11
    80000d22:	a0e128af          	amomax.w	a7,a4,(sp)
    80000d26:	387286c3          	fmadd.s	fa3,ft5,ft7,ft7,rne
    80000d2a:	18d8                	add	a4,sp,116
    80000d2c:	0000100f          	fence.i
    80000d30:	0000100f          	fence.i

0000000080000d34 <b000000013a>:
    80000d34:	00000a17          	auipc	s4,0x0
    80000d38:	06aa0a13          	add	s4,s4,106 # 80000d9e <i0000000146>
    80000d3c:	000a0067          	jr	s4
    80000d40:	ca26                	sw	s1,20(sp)
    80000d42:	8926                	mv	s2,s1
    80000d44:	0094abb3          	slt	s7,s1,s1
    80000d48:	224c09d3          	fsgnj.d	fs3,fs8,ft4
    80000d4c:	44f13023          	sd	a5,1088(sp)
    80000d50:	0079971b          	sllw	a4,s3,0x7
    80000d54:	c1f124af          	amominu.w	s1,t6,(sp)

0000000080000d58 <i000000013a>:
    80000d58:	49415a03          	lhu	s4,1172(sp)

0000000080000d5c <i000000013b>:
    80000d5c:	a0913a2f          	amomax.d	s4,s1,(sp)

0000000080000d60 <i000000013c>:
    80000d60:	a17134af          	amomax.d	s1,s7,(sp)

0000000080000d64 <i000000013d>:
    80000d64:	9da6                	add	s11,s11,s1

0000000080000d66 <i000000013e>:
    80000d66:	64e6                	ld	s1,88(sp)

0000000080000d68 <i000000013f>:
    80000d68:	23827c4b          	fnmsub.d	fs8,ft4,fs8,ft4

0000000080000d6c <i0000000140>:
    80000d6c:	610d                	add	sp,sp,160

0000000080000d6e <i0000000141>:
    80000d6e:	c14124af          	amominu.w	s1,s4,(sp)

0000000080000d72 <i0000000142>:
    80000d72:	1685                	add	a3,a3,-31

0000000080000d74 <i0000000143>:
    80000d74:	20a52553          	fabs.s	fa0,fa0
    80000d78:	000df117          	auipc	sp,0xdf
    80000d7c:	28810113          	add	sp,sp,648 # 800e0000 <begin_signature>
    80000d80:	6339                	lui	t1,0xe
    80000d82:	2603031b          	addw	t1,t1,608 # e260 <_tbss_end+0xe260>
    80000d86:	911a                	add	sp,sp,t1

0000000080000d88 <i0000000144>:
    80000d88:	f926                	sd	s1,176(sp)
    80000d8a:	000df117          	auipc	sp,0xdf
    80000d8e:	27610113          	add	sp,sp,630 # 800e0000 <begin_signature>
    80000d92:	6319                	lui	t1,0x6
    80000d94:	1403031b          	addw	t1,t1,320 # 6140 <_tbss_end+0x6140>
    80000d98:	911a                	add	sp,sp,t1

0000000080000d9a <i0000000145>:
    80000d9a:	29412207          	flw	ft4,660(sp)

0000000080000d9e <i0000000146>:
    80000d9e:	6a26                	ld	s4,72(sp)

0000000080000da0 <i0000000147>:
    80000da0:	f996                	sd	t0,240(sp)

0000000080000da2 <i0000000148>:
    80000da2:	08c1362f          	amoswap.d	a2,a2,(sp)

0000000080000da6 <i0000000149>:
    80000da6:	d0511d23          	sh	t0,-742(sp)

0000000080000daa <i000000014a>:
    80000daa:	0294ca3b          	divw	s4,s1,s1

0000000080000dae <i000000014b>:
    80000dae:	0296663b          	remw	a2,a2,s1

0000000080000db2 <i000000014c>:
    80000db2:	02084a3b          	divw	s4,a6,zero

0000000080000db6 <i000000014d>:
    80000db6:	ab54b577          	.insn	4, 0xab54b577
    80000dba:	23cca1d3          	fsgnjx.d	ft3,fs9,ft8
    80000dbe:	0201ea3b          	remw	s4,gp,zero
    80000dc2:	0000100f          	fence.i
    80000dc6:	02f4ba33          	mulhu	s4,s1,a5
    80000dca:	67e2                	ld	a5,24(sp)
    80000dcc:	0ff0000f          	fence
    80000dd0:	c5813903          	ld	s2,-936(sp)

0000000080000dd4 <b000000014e>:
    80000dd4:	0460006f          	j	80000e1a <i0000000156>
    80000dd8:	53f14d83          	lbu	s11,1343(sp)
    80000ddc:	c0328a53          	fcvt.lu.s	s4,ft5,rne
    80000de0:	d0281653          	fcvt.s.l	fa2,a6,rtz
    80000de4:	7179                	add	sp,sp,-48
    80000de6:	0144c3b3          	xor	t2,s1,s4
    80000dea:	3b2b93b7          	lui	t2,0x3b2b9
    80000dee:	1425                	add	s0,s0,-23
    80000df0:	000df117          	auipc	sp,0xdf
    80000df4:	21010113          	add	sp,sp,528 # 800e0000 <begin_signature>
    80000df8:	6305                	lui	t1,0x1
    80000dfa:	c803031b          	addw	t1,t1,-896 # c80 <_tbss_end+0xc80>
    80000dfe:	911a                	add	sp,sp,t1

0000000080000e00 <i000000014e>:
    80000e00:	a26e                	fsd	fs11,256(sp)

0000000080000e02 <i000000014f>:
    80000e02:	ed66                	sd	s9,152(sp)

0000000080000e04 <i0000000150>:
    80000e04:	c0353ad3          	fcvt.lu.s	s5,fa0,rup

0000000080000e08 <i0000000151>:
    80000e08:	d2148553          	fcvt.d.wu	fa0,s1

0000000080000e0c <i0000000152>:
    80000e0c:	04e2                	sll	s1,s1,0x18

0000000080000e0e <i0000000153>:
    80000e0e:	00235073          	fsrmi	zero,6

0000000080000e12 <i0000000154>:
    80000e12:	d0319d53          	fcvt.s.lu	fs10,gp,rtz

0000000080000e16 <i0000000155>:
    80000e16:	00963333          	sltu	t1,a2,s1

0000000080000e1a <i0000000156>:
    80000e1a:	a0c12aaf          	amomax.w	s5,a2,(sp)

0000000080000e1e <i0000000157>:
    80000e1e:	fd413823          	sd	s4,-48(sp)

0000000080000e22 <i0000000158>:
    80000e22:	25bd                	addw	a1,a1,15

0000000080000e24 <i0000000159>:
    80000e24:	c1413a2f          	amominu.d	s4,s4,(sp)

0000000080000e28 <i000000015a>:
    80000e28:	03a292b3          	mulh	t0,t0,s10

0000000080000e2c <i000000015b>:
    80000e2c:	0000100f          	fence.i

0000000080000e30 <i000000015c>:
    80000e30:	09913e2f          	amoswap.d	t3,s9,(sp)

0000000080000e34 <i000000015d>:
    80000e34:	1a78                	add	a4,sp,316

0000000080000e36 <i000000015e>:
    80000e36:	0294c633          	div	a2,s1,s1

0000000080000e3a <i000000015f>:
    80000e3a:	28421d53          	fmax.s	fs10,ft4,ft4

0000000080000e3e <i0000000160>:
    80000e3e:	1121                	add	sp,sp,-24
    80000e40:	e42e                	sd	a1,8(sp)
    80000e42:	e80e                	sd	gp,16(sp)
    80000e44:	ec32                	sd	a2,24(sp)
    80000e46:	00000197          	auipc	gp,0x0
    80000e4a:	01418193          	add	gp,gp,20 # 80000e5a <i0000000160+0x1c>
    80000e4e:	00000597          	auipc	a1,0x0
    80000e52:	00858593          	add	a1,a1,8 # 80000e56 <i0000000160+0x18>
    80000e56:	00218667          	jalr	a2,2(gp)
    80000e5a:	0001                	nop
    80000e5c:	0001                	nop
    80000e5e:	65a2                	ld	a1,8(sp)
    80000e60:	61c2                	ld	gp,16(sp)
    80000e62:	6662                	ld	a2,24(sp)
    80000e64:	0161                	add	sp,sp,24

0000000080000e66 <i0000000161>:
    80000e66:	1661                	add	a2,a2,-8

0000000080000e68 <i0000000162>:
    80000e68:	0000100f          	fence.i
    80000e6c:	4ca9                	li	s9,10
    80000e6e:	000df117          	auipc	sp,0xdf
    80000e72:	19210113          	add	sp,sp,402 # 800e0000 <begin_signature>
    80000e76:	6339                	lui	t1,0xe
    80000e78:	b003031b          	addw	t1,t1,-1280 # db00 <_tbss_end+0xdb00>
    80000e7c:	911a                	add	sp,sp,t1
    80000e7e:	e0f134af          	amomaxu.d	s1,a5,(sp)
    80000e82:	eeb7c793          	xor	a5,a5,-277
    80000e86:	e03124af          	amomaxu.w	s1,gp,(sp)
    80000e8a:	6422                	ld	s0,8(sp)
    80000e8c:	800a6893          	or	a7,s4,-2048
    80000e90:	409a54b3          	sra	s1,s4,s1
    80000e94:	a0c18953          	fle.s	s2,ft3,fa2

0000000080000e98 <b0000000163>:
    80000e98:	019e8863          	beq	t4,s9,80000ea8 <b0000000163+0x10>
    80000e9c:	00000c97          	auipc	s9,0x0
    80000ea0:	f7ec8c93          	add	s9,s9,-130 # 80000e1a <i0000000156>
    80000ea4:	000c8067          	jr	s9
    80000ea8:	4ea9                	li	t4,10
    80000eaa:	eca2                	sd	s0,88(sp)
    80000eac:	0ff0000f          	fence
    80000eb0:	209124af          	amoxor.w	s1,s1,(sp)
    80000eb4:	0818                	add	a4,sp,16
    80000eb6:	e1a13a2f          	amomaxu.d	s4,s10,(sp)
    80000eba:	00fa17bb          	sllw	a5,s4,a5
    80000ebe:	30013783          	ld	a5,768(sp)

0000000080000ec2 <i0000000163>:
    80000ec2:	432ada13          	sra	s4,s5,0x32

0000000080000ec6 <i0000000164>:
    80000ec6:	eea11d03          	lh	s10,-278(sp)

0000000080000eca <i0000000165>:
    80000eca:	4a22                	lw	s4,8(sp)

0000000080000ecc <i0000000166>:
    80000ecc:	014a63b3          	or	t2,s4,s4

0000000080000ed0 <i0000000167>:
    80000ed0:	01d4d913          	srl	s2,s1,0x1d

0000000080000ed4 <i0000000168>:
    80000ed4:	02964b3b          	divw	s6,a2,s1

0000000080000ed8 <i0000000169>:
    80000ed8:	c02c1a53          	fcvt.l.s	s4,fs8,rtz

0000000080000edc <i000000016a>:
    80000edc:	e1513caf          	amomaxu.d	s9,s5,(sp)

0000000080000ee0 <i000000016b>:
    80000ee0:	5f52                	lw	t5,52(sp)

0000000080000ee2 <i000000016c>:
    80000ee2:	c6eff0ef          	jal	80000350 <func1>

0000000080000ee6 <i000000016d>:
    80000ee6:	c55ab613          	sltiu	a2,s5,-939
    80000eea:	000df117          	auipc	sp,0xdf
    80000eee:	11610113          	add	sp,sp,278 # 800e0000 <begin_signature>
    80000ef2:	6329                	lui	t1,0xa
    80000ef4:	7603031b          	addw	t1,t1,1888 # a760 <_tbss_end+0xa760>
    80000ef8:	911a                	add	sp,sp,t1

0000000080000efa <i000000016e>:
    80000efa:	82c15703          	lhu	a4,-2004(sp)

0000000080000efe <i000000016f>:
    80000efe:	c03f36d3          	fcvt.lu.s	a3,ft10,rup

0000000080000f02 <i0000000170>:
    80000f02:	4929                	li	s2,10

0000000080000f04 <i0000000171>:
    80000f04:	02ca41b3          	div	gp,s4,a2

0000000080000f08 <i0000000172>:
    80000f08:	014679b3          	and	s3,a2,s4

0000000080000f0c <i0000000173>:
    80000f0c:	7139                	add	sp,sp,-64

0000000080000f0e <i0000000174>:
    80000f0e:	0930                	add	a2,sp,152

0000000080000f10 <i0000000175>:
    80000f10:	0352a933          	mulhsu	s2,t0,s5

0000000080000f14 <i0000000176>:
    80000f14:	02c4863b          	mulw	a2,s1,a2
    80000f18:	4e2d                	li	t3,11
    80000f1a:	0e85                	add	t4,t4,1
    80000f1c:	000df117          	auipc	sp,0xdf
    80000f20:	0e410113          	add	sp,sp,228 # 800e0000 <begin_signature>
    80000f24:	6321                	lui	t1,0x8
    80000f26:	f083031b          	addw	t1,t1,-248 # 7f08 <_tbss_end+0x7f08>
    80000f2a:	911a                	add	sp,sp,t1
    80000f2c:	de012507          	flw	fa0,-544(sp)
    80000f30:	acaa                	fsd	fa0,88(sp)
    80000f32:	8cc5                	or	s1,s1,s1
    80000f34:	8ce12e23          	sw	a4,-1828(sp)
    80000f38:	97ce                	add	a5,a5,s3
    80000f3a:	a4412483          	lw	s1,-1468(sp)
    80000f3e:	f2088c53          	fmv.d.x	fs8,a7

0000000080000f42 <b0000000177>:
    80000f42:	00000033          	add	zero,zero,zero
    80000f46:	fbce8fe3          	beq	t4,t3,80000f04 <i0000000171>
    80000f4a:	00000033          	add	zero,zero,zero
    80000f4e:	04812003          	lw	zero,72(sp)
    80000f52:	09a12a2f          	amoswap.w	s4,s10,(sp)
    80000f56:	c0264053          	fcvt.l.s	zero,fa2,rmm
    80000f5a:	c225fad3          	fcvt.l.d	s5,fa1
    80000f5e:	8cc1                	or	s1,s1,s0
    80000f60:	d237f5d3          	fcvt.d.lu	fa1,a5
    80000f64:	cc3e                	sw	a5,24(sp)
    80000f66:	4ea9                	li	t4,10
    80000f68:	000df117          	auipc	sp,0xdf
    80000f6c:	09810113          	add	sp,sp,152 # 800e0000 <begin_signature>
    80000f70:	6311                	lui	t1,0x4
    80000f72:	3c03031b          	addw	t1,t1,960 # 43c0 <_tbss_end+0x43c0>
    80000f76:	911a                	add	sp,sp,t1

0000000080000f78 <i0000000177>:
    80000f78:	668a                	ld	a3,128(sp)

0000000080000f7a <i0000000178>:
    80000f7a:	f0060c53          	fmv.w.x	fs8,a2

0000000080000f7e <i0000000179>:
    80000f7e:	0aa271d3          	fsub.d	ft3,ft4,fa0

0000000080000f82 <i000000017a>:
    80000f82:	1785                	add	a5,a5,-31 # 14fe1 <_tbss_end+0x14fe1>

0000000080000f84 <i000000017b>:
    80000f84:	00c1362f          	amoadd.d	a2,a2,(sp)

0000000080000f88 <i000000017c>:
    80000f88:	d0348053          	fcvt.s.lu	ft0,s1,rne

0000000080000f8c <i000000017d>:
    80000f8c:	10421253          	fmul.s	ft4,ft4,ft4,rtz

0000000080000f90 <i000000017e>:
    80000f90:	c0224053          	fcvt.l.s	zero,ft4,rmm

0000000080000f94 <i000000017f>:
    80000f94:	e4a6                	sd	s1,72(sp)

0000000080000f96 <i0000000180>:
    80000f96:	c0c13a2f          	amominu.d	s4,a2,(sp)

0000000080000f9a <i0000000181>:
    80000f9a:	c032                	sw	a2,0(sp)

0000000080000f9c <i0000000182>:
    80000f9c:	4131262f          	amoor.w	a2,s3,(sp)

0000000080000fa0 <i0000000183>:
    80000fa0:	13412a23          	sw	s4,308(sp)

0000000080000fa4 <i0000000184>:
    80000fa4:	d22a74d3          	fcvt.d.l	fs1,s4

0000000080000fa8 <i0000000185>:
    80000fa8:	026f71bb          	remuw	gp,t5,t1

0000000080000fac <i0000000186>:
    80000fac:	13857c53          	fmul.d	fs8,fa0,fs8

0000000080000fb0 <i0000000187>:
    80000fb0:	c03c26d3          	fcvt.lu.s	a3,fs8,rdn

0000000080000fb4 <i0000000188>:
    80000fb4:	033fc433          	div	s0,t6,s3

0000000080000fb8 <i0000000189>:
    80000fb8:	e00794d3          	fclass.s	s1,fa5
    80000fbc:	49a5                	li	s3,9
    80000fbe:	4ea9                	li	t4,10
    80000fc0:	000df117          	auipc	sp,0xdf
    80000fc4:	04010113          	add	sp,sp,64 # 800e0000 <begin_signature>
    80000fc8:	631d                	lui	t1,0x7
    80000fca:	3d83031b          	addw	t1,t1,984 # 73d8 <_tbss_end+0x73d8>
    80000fce:	911a                	add	sp,sp,t1
    80000fd0:	000df117          	auipc	sp,0xdf
    80000fd4:	03010113          	add	sp,sp,48 # 800e0000 <begin_signature>
    80000fd8:	6309                	lui	t1,0x2
    80000fda:	7883031b          	addw	t1,t1,1928 # 2788 <_tbss_end+0x2788>
    80000fde:	911a                	add	sp,sp,t1
    80000fe0:	f1013783          	ld	a5,-240(sp)
    80000fe4:	c0312e2f          	amominu.w	t3,gp,(sp)
    80000fe8:	e2713423          	sd	t2,-472(sp)
    80000fec:	d01e0553          	fcvt.s.wu	fa0,t3,rne
    80000ff0:	00a79d9b          	sllw	s11,a5,0xa
    80000ff4:	d6be                	sw	a5,108(sp)
    80000ff6:	c0f123af          	amominu.w	t2,a5,(sp)

0000000080000ffa <b000000018a>:
    80000ffa:	00000033          	add	zero,zero,zero
    80000ffe:	03d9df63          	bge	s3,t4,8000103c <i0000000193>
    80001002:	00000033          	add	zero,zero,zero
    80001006:	0141                	add	sp,sp,16
    80001008:	b4c2                	fsd	fa6,104(sp)
    8000100a:	036bea3b          	remw	s4,s7,s6
    8000100e:	0297da3b          	divuw	s4,a5,s1
    80001012:	d02a0c53          	fcvt.s.l	fs8,s4,rne
    80001016:	0b18                	add	a4,sp,400
    80001018:	01a75893          	srl	a7,a4,0x1a
    8000101c:	4ea9                	li	t4,10

000000008000101e <i000000018a>:
    8000101e:	c00f7453          	fcvt.w.s	s0,ft10

0000000080001022 <i000000018b>:
    80001022:	41fc5593          	sra	a1,s8,0x1f

0000000080001026 <i000000018c>:
    80001026:	963a                	add	a2,a2,a4

0000000080001028 <i000000018d>:
    80001028:	6121                	add	sp,sp,64

000000008000102a <i000000018e>:
    8000102a:	0e014483          	lbu	s1,224(sp)

000000008000102e <i000000018f>:
    8000102e:	01aa1a1b          	sllw	s4,s4,0x1a

0000000080001032 <i0000000190>:
    80001032:	a0812483          	lw	s1,-1528(sp)

0000000080001036 <i0000000191>:
    80001036:	11e4                	add	s1,sp,236

0000000080001038 <i0000000192>:
    80001038:	c03c1653          	fcvt.lu.s	a2,fs8,rtz

000000008000103c <i0000000193>:
    8000103c:	c0362a53          	fcvt.lu.s	s4,fa2,rdn

0000000080001040 <i0000000194>:
    80001040:	6105                	add	sp,sp,32

0000000080001042 <i0000000195>:
    80001042:	2c02                	fld	fs8,0(sp)

0000000080001044 <i0000000196>:
    80001044:	41c1232f          	amoor.w	t1,t3,(sp)

0000000080001048 <i0000000197>:
    80001048:	08a24453          	fsub.s	fs0,ft4,fa0,rmm

000000008000104c <i0000000198>:
    8000104c:	41535b13          	sra	s6,t1,0x15

0000000080001050 <i0000000199>:
    80001050:	82d5                	srl	a3,a3,0x15

0000000080001052 <i000000019a>:
    80001052:	0c412487          	flw	fs1,196(sp)

0000000080001056 <i000000019b>:
    80001056:	0ff0000f          	fence

000000008000105a <i000000019c>:
    8000105a:	00205073          	fsrmi	zero,0

000000008000105e <i000000019d>:
    8000105e:	f416                	sd	t0,40(sp)
    80001060:	4ca5                	li	s9,9
    80001062:	1e6f87b7          	lui	a5,0x1e6f8
    80001066:	80b9                	srl	s1,s1,0xe
    80001068:	40745a13          	sra	s4,s0,0x7
    8000106c:	a7513823          	sd	s5,-1424(sp)
    80001070:	39b7849b          	addw	s1,a5,923 # 1e6f839b <_tbss_end+0x1e6f839b>
    80001074:	9c99                	subw	s1,s1,a4
    80001076:	4e32                	lw	t3,12(sp)

0000000080001078 <b000000019e>:
    80001078:	00000033          	add	zero,zero,zero
    8000107c:	fd9ec8e3          	blt	t4,s9,8000104c <i0000000198>
    80001080:	00000033          	add	zero,zero,zero
    80001084:	07ee                	sll	a5,a5,0x1b
    80001086:	024c67b3          	rem	a5,s8,tp
    8000108a:	03cd7b3b          	remuw	s6,s10,t3
    8000108e:	83815d83          	lhu	s11,-1992(sp)
    80001092:	94de                	add	s1,s1,s7
    80001094:	e9f2                	sd	t3,208(sp)
    80001096:	01989193          	sll	gp,a7,0x19
    8000109a:	4ea9                	li	t4,10

000000008000109c <i000000019e>:
    8000109c:	80d1352f          	amomin.d	a0,a3,(sp)

00000000800010a0 <i000000019f>:
    800010a0:	0344d83b          	divuw	a6,s1,s4

00000000800010a4 <i00000001a0>:
    800010a4:	08913daf          	amoswap.d	s11,s1,(sp)

00000000800010a8 <i00000001a1>:
    800010a8:	2091362f          	amoxor.d	a2,s1,(sp)

00000000800010ac <i00000001a2>:
    800010ac:	6bda019b          	addw	gp,s4,1725

00000000800010b0 <i00000001a3>:
    800010b0:	02f4                	add	a3,sp,332

00000000800010b2 <i00000001a4>:
    800010b2:	d034b753          	fcvt.s.lu	fa4,s1,rup

00000000800010b6 <i00000001a5>:
    800010b6:	c1764f93          	xor	t6,a2,-1001

00000000800010ba <i00000001a6>:
    800010ba:	402fdc1b          	sraw	s8,t6,0x2

00000000800010be <i00000001a7>:
    800010be:	b02a                	fsd	fa0,32(sp)

00000000800010c0 <i00000001a8>:
    800010c0:	10416483          	lwu	s1,260(sp)

00000000800010c4 <i00000001a9>:
    800010c4:	c0350253          	fcvt.lu.s	tp,fa0,rne

00000000800010c8 <i00000001aa>:
    800010c8:	d2277253          	fcvt.d.l	ft4,a4

00000000800010cc <i00000001ab>:
    800010cc:	02966a3b          	remw	s4,a2,s1

00000000800010d0 <i00000001ac>:
    800010d0:	0ff0000f          	fence

00000000800010d4 <i00000001ad>:
    800010d4:	0021d073          	fsrmi	zero,3

00000000800010d8 <i00000001ae>:
    800010d8:	64e6                	ld	s1,88(sp)

00000000800010da <i00000001af>:
    800010da:	a1b134af          	amomax.d	s1,s11,(sp)

00000000800010de <i00000001b0>:
    800010de:	02551db3          	mulh	s11,a0,t0

00000000800010e2 <i00000001b1>:
    800010e2:	0ff0000f          	fence
    800010e6:	000df117          	auipc	sp,0xdf
    800010ea:	f1a10113          	add	sp,sp,-230 # 800e0000 <begin_signature>
    800010ee:	6329                	lui	t1,0xa
    800010f0:	9b83031b          	addw	t1,t1,-1608 # 99b8 <_tbss_end+0x99b8>
    800010f4:	911a                	add	sp,sp,t1
    800010f6:	014711bb          	sllw	gp,a4,s4
    800010fa:	0297cd3b          	divw	s10,a5,s1
    800010fe:	6262                	ld	tp,24(sp)
    80001100:	eda2                	sd	s0,216(sp)
    80001102:	08013003          	ld	zero,128(sp)
    80001106:	0297c7bb          	divw	a5,a5,s1
    8000110a:	a2451a53          	flt.d	s4,fa0,ft4

000000008000110e <b00000001b2>:
    8000110e:	02c0006f          	j	8000113a <i00000001b7>
    80001112:	c0a6                	sw	s1,64(sp)
    80001114:	6141242f          	amoand.w	s0,s4,(sp)
    80001118:	83e1                	srl	a5,a5,0x18
    8000111a:	036b7a33          	remu	s4,s6,s6
    8000111e:	8cdd                	or	s1,s1,a5
    80001120:	e0912faf          	amomaxu.w	t6,s1,(sp)
    80001124:	c63e                	sw	a5,12(sp)

0000000080001126 <i00000001b2>:
    80001126:	0000100f          	fence.i

000000008000112a <i00000001b3>:
    8000112a:	02d47533          	remu	a0,s0,a3

000000008000112e <i00000001b4>:
    8000112e:	a2422a53          	feq.d	s4,ft4,ft4

0000000080001132 <i00000001b5>:
    80001132:	21312caf          	amoxor.w	s9,s3,(sp)

0000000080001136 <i00000001b6>:
    80001136:	0ff0000f          	fence

000000008000113a <i00000001b7>:
    8000113a:	c03c17d3          	fcvt.lu.s	a5,fs8,rtz

000000008000113e <i00000001b8>:
    8000113e:	24813783          	ld	a5,584(sp)

0000000080001142 <i00000001b9>:
    80001142:	50c11a03          	lh	s4,1292(sp)

0000000080001146 <i00000001ba>:
    80001146:	f4013983          	ld	s3,-192(sp)

000000008000114a <i00000001bb>:
    8000114a:	e832                	sd	a2,16(sp)

000000008000114c <i00000001bc>:
    8000114c:	17c14803          	lbu	a6,380(sp)

0000000080001150 <i00000001bd>:
    80001150:	969109a3          	sb	s1,-1677(sp)

0000000080001154 <i00000001be>:
    80001154:	00ca4d33          	xor	s10,s4,a2

0000000080001158 <i00000001bf>:
    80001158:	ec32                	sd	a2,24(sp)

000000008000115a <i00000001c0>:
    8000115a:	9a3a                	add	s4,s4,a4

000000008000115c <i00000001c1>:
    8000115c:	f00400d3          	fmv.w.x	ft1,s0

0000000080001160 <i00000001c2>:
    80001160:	d2190253          	fcvt.d.wu	ft4,s2

0000000080001164 <i00000001c3>:
    80001164:	05636613          	or	a2,t1,86

0000000080001168 <i00000001c4>:
    80001168:	48016a83          	lwu	s5,1152(sp)
    8000116c:	000df117          	auipc	sp,0xdf
    80001170:	e9410113          	add	sp,sp,-364 # 800e0000 <begin_signature>
    80001174:	6335                	lui	t1,0xd
    80001176:	f703031b          	addw	t1,t1,-144 # cf70 <_tbss_end+0xcf70>
    8000117a:	911a                	add	sp,sp,t1
    8000117c:	000df117          	auipc	sp,0xdf
    80001180:	e8410113          	add	sp,sp,-380 # 800e0000 <begin_signature>
    80001184:	633d                	lui	t1,0xf
    80001186:	ac03031b          	addw	t1,t1,-1344 # eac0 <_tbss_end+0xeac0>
    8000118a:	911a                	add	sp,sp,t1
    8000118c:	000df117          	auipc	sp,0xdf
    80001190:	e7410113          	add	sp,sp,-396 # 800e0000 <begin_signature>
    80001194:	633d                	lui	t1,0xf
    80001196:	3203031b          	addw	t1,t1,800 # f320 <_tbss_end+0xf320>
    8000119a:	911a                	add	sp,sp,t1
    8000119c:	aea80d93          	add	s11,a6,-1302
    800011a0:	4f211483          	lh	s1,1266(sp)
    800011a4:	6ba5                	lui	s7,0x9
    800011a6:	776e                	ld	a4,248(sp)
    800011a8:	224c1bd3          	fsgnjn.d	fs7,fs8,ft4
    800011ac:	20f13a2f          	amoxor.d	s4,a5,(sp)
    800011b0:	5a72                	lw	s4,60(sp)

00000000800011b2 <b00000001c5>:
    800011b2:	0300006f          	j	800011e2 <i00000001cd>
    800011b6:	01e79e1b          	sllw	t3,a5,0x1e
    800011ba:	c1a133af          	amominu.d	t2,s10,(sp)
    800011be:	f53a                	sd	a4,168(sp)
    800011c0:	4732                	lw	a4,12(sp)
    800011c2:	6161                	add	sp,sp,80
    800011c4:	29ca11d3          	fmax.s	ft3,fs4,ft8
    800011c8:	0878                	add	a4,sp,28

00000000800011ca <i00000001c5>:
    800011ca:	b572                	fsd	ft8,168(sp)

00000000800011cc <i00000001c6>:
    800011cc:	5252                	lw	tp,52(sp)

00000000800011ce <i00000001c7>:
    800011ce:	d22872d3          	fcvt.d.l	ft5,a6

00000000800011d2 <i00000001c8>:
    800011d2:	a3820fd3          	fle.d	t6,ft4,fs8

00000000800011d6 <i00000001c9>:
    800011d6:	e8b2                	sd	a2,80(sp)

00000000800011d8 <i00000001ca>:
    800011d8:	c01c24d3          	fcvt.wu.s	s1,fs8,rdn

00000000800011dc <i00000001cb>:
    800011dc:	21a13a2f          	amoxor.d	s4,s10,(sp)

00000000800011e0 <i00000001cc>:
    800011e0:	dcb2                	sw	a2,120(sp)

00000000800011e2 <i00000001cd>:
    800011e2:	e2020653          	fmv.x.d	a2,ft4

00000000800011e6 <i00000001ce>:
    800011e6:	0110                	add	a2,sp,128

00000000800011e8 <i00000001cf>:
    800011e8:	b6c12d83          	lw	s11,-1172(sp)

00000000800011ec <i00000001d0>:
    800011ec:	0ff0000f          	fence

00000000800011f0 <i00000001d1>:
    800011f0:	4602                	lw	a2,0(sp)

00000000800011f2 <i00000001d2>:
    800011f2:	0294e4bb          	remw	s1,s1,s1

00000000800011f6 <i00000001d3>:
    800011f6:	d0294553          	fcvt.s.l	fa0,s2,rmm

00000000800011fa <i00000001d4>:
    800011fa:	0000100f          	fence.i

00000000800011fe <i00000001d5>:
    800011fe:	21412a2f          	amoxor.w	s4,s4,(sp)

0000000080001202 <i00000001d6>:
    80001202:	0000100f          	fence.i

0000000080001206 <i00000001d7>:
    80001206:	2161202f          	amoxor.w	zero,s6,(sp)
    8000120a:	49ad                	li	s3,11
    8000120c:	4ea9                	li	t4,10
    8000120e:	000df117          	auipc	sp,0xdf
    80001212:	df210113          	add	sp,sp,-526 # 800e0000 <begin_signature>
    80001216:	6309                	lui	t1,0x2
    80001218:	9d03031b          	addw	t1,t1,-1584 # 19d0 <_tbss_end+0x19d0>
    8000121c:	911a                	add	sp,sp,t1
    8000121e:	000df117          	auipc	sp,0xdf
    80001222:	de210113          	add	sp,sp,-542 # 800e0000 <begin_signature>
    80001226:	631d                	lui	t1,0x7
    80001228:	7e03031b          	addw	t1,t1,2016 # 77e0 <_tbss_end+0x77e0>
    8000122c:	911a                	add	sp,sp,t1
    8000122e:	87be                	mv	a5,a5
    80001230:	36fca4b7          	lui	s1,0x36fca
    80001234:	0347bbb3          	mulhu	s7,a5,s4
    80001238:	4d013a03          	ld	s4,1232(sp)
    8000123c:	0000100f          	fence.i
    80001240:	d20785d3          	fcvt.d.w	fa1,a5
    80001244:	38d10a83          	lb	s5,909(sp)

0000000080001248 <b00000001d8>:
    80001248:	00000033          	add	zero,zero,zero
    8000124c:	053e9163          	bne	t4,s3,8000128e <i00000001de>
    80001250:	00000033          	add	zero,zero,zero
    80001254:	50451bcf          	fnmadd.s	fs7,fa0,ft4,fa0,rtz
    80001258:	6121                	add	sp,sp,64
    8000125a:	87f5                	sra	a5,a5,0x1d
    8000125c:	d23ff253          	fcvt.d.lu	ft4,t6
    80001260:	711d                	add	sp,sp,-96
    80001262:	00f78d33          	add	s10,a5,a5
    80001266:	ccbe                	sw	a5,88(sp)
    80001268:	4ea9                	li	t4,10

000000008000126a <i00000001d8>:
    8000126a:	4106de3b          	sraw	t3,a3,a6
    8000126e:	000df117          	auipc	sp,0xdf
    80001272:	d9210113          	add	sp,sp,-622 # 800e0000 <begin_signature>
    80001276:	6321                	lui	t1,0x8
    80001278:	4683031b          	addw	t1,t1,1128 # 8468 <_tbss_end+0x8468>
    8000127c:	911a                	add	sp,sp,t1

000000008000127e <i00000001d9>:
    8000127e:	6462                	ld	s0,24(sp)

0000000080001280 <i00000001da>:
    80001280:	a012                	fsd	ft4,0(sp)

0000000080001282 <i00000001db>:
    80001282:	c02c16d3          	fcvt.l.s	a3,fs8,rtz

0000000080001286 <i00000001dc>:
    80001286:	00000a3b          	addw	s4,zero,zero

000000008000128a <i00000001dd>:
    8000128a:	41d65a1b          	sraw	s4,a2,0x1d

000000008000128e <i00000001de>:
    8000128e:	d222f253          	fcvt.d.l	ft4,t0
    80001292:	000df117          	auipc	sp,0xdf
    80001296:	d6e10113          	add	sp,sp,-658 # 800e0000 <begin_signature>
    8000129a:	6319                	lui	t1,0x6
    8000129c:	e683031b          	addw	t1,t1,-408 # 5e68 <_tbss_end+0x5e68>
    800012a0:	911a                	add	sp,sp,t1

00000000800012a2 <i00000001df>:
    800012a2:	fcc10223          	sb	a2,-60(sp)

00000000800012a6 <i00000001e0>:
    800012a6:	01253633          	sltu	a2,a0,s2

00000000800012aa <i00000001e1>:
    800012aa:	03465933          	divu	s2,a2,s4

00000000800012ae <i00000001e2>:
    800012ae:	c03e84d3          	fcvt.lu.s	s1,ft9,rne

00000000800012b2 <i00000001e3>:
    800012b2:	0ff0000f          	fence

00000000800012b6 <i00000001e4>:
    800012b6:	1141                	add	sp,sp,-16
    800012b8:	e426                	sd	s1,8(sp)
    800012ba:	e81e                	sd	t2,16(sp)
    800012bc:	848a                	mv	s1,sp
    800012be:	4385                	li	t2,1
    800012c0:	027484b3          	mul	s1,s1,t2
    800012c4:	0014a383          	lw	t2,1(s1) # 36fca001 <_tbss_end+0x36fca001>
    800012c8:	027484b3          	mul	s1,s1,t2
    800012cc:	64a2                	ld	s1,8(sp)
    800012ce:	63c2                	ld	t2,16(sp)
    800012d0:	0141                	add	sp,sp,16

00000000800012d2 <i00000001e5>:
    800012d2:	a01e97d3          	flt.s	a5,ft9,ft1

00000000800012d6 <i00000001e6>:
    800012d6:	e0c1392f          	amomaxu.d	s2,a2,(sp)

00000000800012da <i00000001e7>:
    800012da:	5806                	lw	a6,96(sp)

00000000800012dc <i00000001e8>:
    800012dc:	03b3d4bb          	divuw	s1,t2,s11

00000000800012e0 <i00000001e9>:
    800012e0:	003bc8b3          	xor	a7,s7,gp

00000000800012e4 <i00000001ea>:
    800012e4:	03ef043b          	mulw	s0,t5,t5

00000000800012e8 <i00000001eb>:
    800012e8:	d22372d3          	fcvt.d.l	ft5,t1
    800012ec:	49a9                	li	s3,10
    800012ee:	9f81                	subw	a5,a5,s0
    800012f0:	0181322f          	amoadd.d	tp,s8,(sp)
    800012f4:	8f25                	xor	a4,a4,s1
    800012f6:	087127af          	amoswap.w	a5,t2,(sp)
    800012fa:	037fd7b3          	divu	a5,t6,s7
    800012fe:	8952                	mv	s2,s4
    80001300:	c0be                	sw	a5,64(sp)

0000000080001302 <b00000001ec>:
    80001302:	00000033          	add	zero,zero,zero
    80001306:	033e8963          	beq	t4,s3,80001338 <i00000001f1>
    8000130a:	00000033          	add	zero,zero,zero
    8000130e:	030df7bb          	remuw	a5,s11,a6
    80001312:	d22276d3          	fcvt.d.l	fa3,tp
    80001316:	c22c7cd3          	fcvt.l.d	s9,fs8
    8000131a:	01b127af          	amoadd.w	a5,s11,(sp)
    8000131e:	0347fa3b          	remuw	s4,a5,s4
    80001322:	616d                	add	sp,sp,240
    80001324:	0ff0000f          	fence
    80001328:	4ea9                	li	t4,10

000000008000132a <i00000001ec>:
    8000132a:	64bd                	lui	s1,0xf

000000008000132c <i00000001ed>:
    8000132c:	d0389bd3          	fcvt.s.lu	fs7,a7,rtz

0000000080001330 <i00000001ee>:
    80001330:	c446                	sw	a7,8(sp)

0000000080001332 <i00000001ef>:
    80001332:	028f12b3          	mulh	t0,t5,s0

0000000080001336 <i00000001f0>:
    80001336:	06ca                	sll	a3,a3,0x12

0000000080001338 <i00000001f1>:
    80001338:	0111272f          	amoadd.w	a4,a7,(sp)
    8000133c:	000df117          	auipc	sp,0xdf
    80001340:	cc410113          	add	sp,sp,-828 # 800e0000 <begin_signature>
    80001344:	6321                	lui	t1,0x8
    80001346:	1d03031b          	addw	t1,t1,464 # 81d0 <_tbss_end+0x81d0>
    8000134a:	911a                	add	sp,sp,t1

000000008000134c <i00000001f2>:
    8000134c:	6f016903          	lwu	s2,1776(sp)
    80001350:	000df117          	auipc	sp,0xdf
    80001354:	cb010113          	add	sp,sp,-848 # 800e0000 <begin_signature>
    80001358:	6331                	lui	t1,0xc
    8000135a:	5683031b          	addw	t1,t1,1384 # c568 <_tbss_end+0xc568>
    8000135e:	911a                	add	sp,sp,t1

0000000080001360 <i00000001f3>:
    80001360:	d426                	sw	s1,40(sp)

0000000080001362 <i00000001f4>:
    80001362:	662d                	lui	a2,0xb

0000000080001364 <i00000001f5>:
    80001364:	6a12                	ld	s4,256(sp)

0000000080001366 <i00000001f6>:
    80001366:	35012483          	lw	s1,848(sp)

000000008000136a <i00000001f7>:
    8000136a:	02b57333          	remu	t1,a0,a1

000000008000136e <i00000001f8>:
    8000136e:	42050553          	fcvt.d.s	fa0,fa0

0000000080001372 <i00000001f9>:
    80001372:	4a96                	lw	s5,68(sp)

0000000080001374 <i00000001fa>:
    80001374:	02c6753b          	remuw	a0,a2,a2

0000000080001378 <i00000001fb>:
    80001378:	0000100f          	fence.i

000000008000137c <i00000001fc>:
    8000137c:	9e05                	subw	a2,a2,s1

000000008000137e <i00000001fd>:
    8000137e:	18e60653          	fdiv.s	fa2,fa2,fa4,rne

0000000080001382 <i00000001fe>:
    80001382:	7161                	add	sp,sp,-432
    80001384:	000df117          	auipc	sp,0xdf
    80001388:	c7c10113          	add	sp,sp,-900 # 800e0000 <begin_signature>
    8000138c:	6315                	lui	t1,0x5
    8000138e:	0a03031b          	addw	t1,t1,160 # 50a0 <_tbss_end+0x50a0>
    80001392:	911a                	add	sp,sp,t1
    80001394:	23ea                	fld	ft7,152(sp)
    80001396:	f0be                	sd	a5,96(sp)
    80001398:	d02a01d3          	fcvt.s.l	ft3,s4,rne
    8000139c:	034a003b          	mulw	zero,s4,s4
    800013a0:	0ff0000f          	fence
    800013a4:	0000100f          	fence.i
    800013a8:	3766                	fld	fa4,120(sp)

00000000800013aa <b00000001ff>:
    800013aa:	00000b97          	auipc	s7,0x0
    800013ae:	04ab8b93          	add	s7,s7,74 # 800013f4 <i000000020a>
    800013b2:	000b80e7          	jalr	s7
    800013b6:	3402                	fld	fs0,32(sp)
    800013b8:	94be                	add	s1,s1,a5
    800013ba:	03b25733          	divu	a4,tp,s11
    800013be:	a892                	fsd	ft4,80(sp)
    800013c0:	a8816c03          	lwu	s8,-1400(sp)
    800013c4:	2c2e                	fld	fs8,200(sp)
    800013c6:	c0357253          	fcvt.lu.s	tp,fa0

00000000800013ca <i00000001ff>:
    800013ca:	c141362f          	amominu.d	a2,s4,(sp)

00000000800013ce <i0000000200>:
    800013ce:	d2257c53          	fcvt.d.l	fs8,a0

00000000800013d2 <i0000000201>:
    800013d2:	034a6a33          	rem	s4,s4,s4

00000000800013d6 <i0000000202>:
    800013d6:	0000100f          	fence.i

00000000800013da <i0000000203>:
    800013da:	0000100f          	fence.i

00000000800013de <i0000000204>:
    800013de:	00c6549b          	srlw	s1,a2,0xc

00000000800013e2 <i0000000205>:
    800013e2:	c0379f53          	fcvt.lu.s	t5,fa5,rtz

00000000800013e6 <i0000000206>:
    800013e6:	dc32                	sw	a2,56(sp)

00000000800013e8 <i0000000207>:
    800013e8:	0ff0000f          	fence

00000000800013ec <i0000000208>:
    800013ec:	02c4f6bb          	remuw	a3,s1,a2

00000000800013f0 <i0000000209>:
    800013f0:	3399b613          	sltiu	a2,s3,825

00000000800013f4 <i000000020a>:
    800013f4:	6fe13823          	sd	t5,1776(sp)

00000000800013f8 <i000000020b>:
    800013f8:	02c66a3b          	remw	s4,a2,a2

00000000800013fc <i000000020c>:
    800013fc:	a4f2                	fsd	ft8,72(sp)

00000000800013fe <i000000020d>:
    800013fe:	0020d073          	fsrmi	zero,1

0000000080001402 <i000000020e>:
    80001402:	c0352353          	fcvt.lu.s	t1,fa0,rdn

0000000080001406 <i000000020f>:
    80001406:	1641                	add	a2,a2,-16 # aff0 <_tbss_end+0xaff0>

0000000080001408 <i0000000210>:
    80001408:	4f013483          	ld	s1,1264(sp)

000000008000140c <i0000000211>:
    8000140c:	029a7633          	remu	a2,s4,s1

0000000080001410 <i0000000212>:
    80001410:	ce114d03          	lbu	s10,-799(sp)
    80001414:	4c31                	li	s8,12
    80001416:	0e85                	add	t4,t4,1
    80001418:	000df117          	auipc	sp,0xdf
    8000141c:	be810113          	add	sp,sp,-1048 # 800e0000 <begin_signature>
    80001420:	6309                	lui	t1,0x2
    80001422:	7b83031b          	addw	t1,t1,1976 # 27b8 <_tbss_end+0x27b8>
    80001426:	911a                	add	sp,sp,t1
    80001428:	0141                	add	sp,sp,16
    8000142a:	e0c12483          	lw	s1,-500(sp)
    8000142e:	024bdb33          	divu	s6,s7,tp
    80001432:	02077a3b          	remuw	s4,a4,zero
    80001436:	61f9                	lui	gp,0x1e
    80001438:	b03e                	fsd	fa5,32(sp)
    8000143a:	c19124af          	amominu.w	s1,s9,(sp)

000000008000143e <b0000000213>:
    8000143e:	018e8463          	beq	t4,s8,80001446 <b0000000213+0x8>
    80001442:	fabff06f          	j	800013ec <i0000000208>
    80001446:	4ea9                	li	t4,10
    80001448:	61413caf          	amoand.d	s9,s4,(sp)
    8000144c:	0097d7b3          	srl	a5,a5,s1
    80001450:	2b339c53          	fmax.d	fs8,ft7,fs3
    80001454:	715d                	add	sp,sp,-80
    80001456:	d038c153          	fcvt.s.lu	ft2,a7,rmm
    8000145a:	0000100f          	fence.i
    8000145e:	a1413baf          	amomax.d	s7,s4,(sp)

0000000080001462 <i0000000213>:
    80001462:	52016a03          	lwu	s4,1312(sp)

0000000080001466 <i0000000214>:
    80001466:	69ae                	ld	s3,200(sp)

0000000080001468 <i0000000215>:
    80001468:	b89a                	fsd	ft6,112(sp)
    8000146a:	000df117          	auipc	sp,0xdf
    8000146e:	b9610113          	add	sp,sp,-1130 # 800e0000 <begin_signature>
    80001472:	630d                	lui	t1,0x3
    80001474:	2e03031b          	addw	t1,t1,736 # 32e0 <_tbss_end+0x32e0>
    80001478:	911a                	add	sp,sp,t1

000000008000147a <i0000000216>:
    8000147a:	34e6                	fld	fs1,120(sp)

000000008000147c <i0000000217>:
    8000147c:	205121af          	amoxor.w	gp,t0,(sp)

0000000080001480 <i0000000218>:
    80001480:	029a24b3          	mulhsu	s1,s4,s1

0000000080001484 <i0000000219>:
    80001484:	bb815583          	lhu	a1,-1096(sp)

0000000080001488 <i000000021a>:
    80001488:	0044969b          	sllw	a3,s1,0x4

000000008000148c <i000000021b>:
    8000148c:	54a2                	lw	s1,40(sp)

000000008000148e <i000000021c>:
    8000148e:	2b448c53          	fmin.d	fs8,fs1,fs4

0000000080001492 <i000000021d>:
    80001492:	52a27dcf          	fnmadd.d	fs11,ft4,fa0,fa0

0000000080001496 <i000000021e>:
    80001496:	03464d33          	div	s10,a2,s4

000000008000149a <i000000021f>:
    8000149a:	5cc16883          	lwu	a7,1484(sp)

000000008000149e <i0000000220>:
    8000149e:	4b210e03          	lb	t3,1202(sp)

00000000800014a2 <i0000000221>:
    800014a2:	82013023          	sd	zero,-2016(sp)

00000000800014a6 <i0000000222>:
    800014a6:	0462d337          	lui	t1,0x462d

00000000800014aa <i0000000223>:
    800014aa:	0a44                	add	s1,sp,276

00000000800014ac <i0000000224>:
    800014ac:	28ac1853          	fmax.s	fa6,fs8,fa0

00000000800014b0 <i0000000225>:
    800014b0:	a3b724d3          	feq.d	s1,fa4,fs11
    800014b4:	4931                	li	s2,12
    800014b6:	0e85                	add	t4,t4,1
    800014b8:	000df117          	auipc	sp,0xdf
    800014bc:	b4810113          	add	sp,sp,-1208 # 800e0000 <begin_signature>
    800014c0:	6319                	lui	t1,0x6
    800014c2:	a383031b          	addw	t1,t1,-1480 # 5a38 <_tbss_end+0x5a38>
    800014c6:	911a                	add	sp,sp,t1
    800014c8:	d02488d3          	fcvt.s.l	fa7,s1,rne
    800014cc:	4397da93          	sra	s5,a5,0x39
    800014d0:	c2217ad3          	fcvt.l.d	s5,ft2
    800014d4:	096127af          	amoswap.w	a5,s6,(sp)
    800014d8:	c402                	sw	zero,8(sp)
    800014da:	018bc4b3          	xor	s1,s7,s8
    800014de:	c0ac7743          	fmadd.s	fa4,fs8,fa0,fs8

00000000800014e2 <b0000000226>:
    800014e2:	012e8463          	beq	t4,s2,800014ea <b0000000226+0x8>
    800014e6:	f9fff06f          	j	80001484 <i0000000219>
    800014ea:	4ea9                	li	t4,10
    800014ec:	02788b3b          	mulw	s6,a7,t2
    800014f0:	c23274d3          	fcvt.lu.d	s1,ft4
    800014f4:	20a24fcb          	fnmsub.s	ft11,ft4,fa0,ft4,rmm
    800014f8:	dc6a                	sw	s10,56(sp)
    800014fa:	096124af          	amoswap.w	s1,s6,(sp)
    800014fe:	094138af          	amoswap.d	a7,s4,(sp)
    80001502:	0ff0000f          	fence

0000000080001506 <i0000000226>:
    80001506:	f842                	sd	a6,48(sp)

0000000080001508 <i0000000227>:
    80001508:	40cb5293          	sra	t0,s6,0xc

000000008000150c <i0000000228>:
    8000150c:	01f129af          	amoadd.w	s3,t6,(sp)

0000000080001510 <i0000000229>:
    80001510:	d0382dd3          	fcvt.s.lu	fs11,a6,rdn

0000000080001514 <i000000022a>:
    80001514:	c0227653          	fcvt.l.s	a2,ft4

0000000080001518 <i000000022b>:
    80001518:	6121                	add	sp,sp,64

000000008000151a <i000000022c>:
    8000151a:	0ff0000f          	fence

000000008000151e <i000000022d>:
    8000151e:	c03f2453          	fcvt.lu.s	s0,ft10,rdn

0000000080001522 <i000000022e>:
    80001522:	c22af253          	fcvt.l.d	tp,fs5

0000000080001526 <i000000022f>:
    80001526:	a1e2                	fsd	fs8,192(sp)

0000000080001528 <i0000000230>:
    80001528:	f2098253          	fmv.d.x	ft4,s3

000000008000152c <i0000000231>:
    8000152c:	9c85                	subw	s1,s1,s1

000000008000152e <i0000000232>:
    8000152e:	7141                	add	sp,sp,-496

0000000080001530 <i0000000233>:
    80001530:	1161                	add	sp,sp,-8
    80001532:	e402                	sd	zero,8(sp)
    80001534:	000121a3          	sw	zero,3(sp)
    80001538:	00813003          	ld	zero,8(sp)
    8000153c:	0121                	add	sp,sp,8
    8000153e:	000df117          	auipc	sp,0xdf
    80001542:	ac210113          	add	sp,sp,-1342 # 800e0000 <begin_signature>
    80001546:	6339                	lui	t1,0xe
    80001548:	4403031b          	addw	t1,t1,1088 # e440 <_tbss_end+0xe440>
    8000154c:	911a                	add	sp,sp,t1

000000008000154e <i0000000234>:
    8000154e:	12412f87          	flw	ft11,292(sp)

0000000080001552 <i0000000235>:
    80001552:	036caa33          	mulhsu	s4,s9,s6

0000000080001556 <i0000000236>:
    80001556:	cc2e                	sw	a1,24(sp)

0000000080001558 <i0000000237>:
    80001558:	04d63a13          	sltiu	s4,a2,77

000000008000155c <i0000000238>:
    8000155c:	c43e                	sw	a5,8(sp)

000000008000155e <i0000000239>:
    8000155e:	6742                	ld	a4,16(sp)
    80001560:	4d2d                	li	s10,11
    80001562:	4ea9                	li	t4,10
    80001564:	57c2                	lw	a5,48(sp)
    80001566:	020c4ab3          	div	s5,s8,zero
    8000156a:	d227f8d3          	fcvt.d.l	fa7,a5
    8000156e:	c602                	sw	zero,12(sp)
    80001570:	a5416883          	lwu	a7,-1452(sp)
    80001574:	0347c73b          	divw	a4,a5,s4
    80001578:	d23a7dd3          	fcvt.d.lu	fs11,s4

000000008000157c <b000000023a>:
    8000157c:	00000033          	add	zero,zero,zero
    80001580:	05ae9063          	bne	t4,s10,800015c0 <i0000000244>
    80001584:	00000033          	add	zero,zero,zero
    80001588:	40f134af          	amoor.d	s1,a5,(sp)
    8000158c:	c00c2c53          	fcvt.w.s	s8,fs8,rdn
    80001590:	e20f8853          	fmv.x.d	a6,ft11
    80001594:	f03a                	sd	a4,32(sp)
    80001596:	9fb9                	addw	a5,a5,a4
    80001598:	1b24                	add	s1,sp,440
    8000159a:	80913a2f          	amomin.d	s4,s1,(sp)
    8000159e:	4ea9                	li	t4,10

00000000800015a0 <i000000023a>:
    800015a0:	c0c13b2f          	amominu.d	s6,a2,(sp)

00000000800015a4 <i000000023b>:
    800015a4:	1040                	add	s0,sp,36

00000000800015a6 <i000000023c>:
    800015a6:	2542                	fld	fa0,16(sp)

00000000800015a8 <i000000023d>:
    800015a8:	8225                	srl	a2,a2,0x9

00000000800015aa <i000000023e>:
    800015aa:	b43e                	fsd	fa5,40(sp)

00000000800015ac <i000000023f>:
    800015ac:	0344efb3          	rem	t6,s1,s4

00000000800015b0 <i0000000240>:
    800015b0:	e20e84d3          	fmv.x.d	s1,ft9

00000000800015b4 <i0000000241>:
    800015b4:	cd52c993          	xor	s3,t0,-811

00000000800015b8 <i0000000242>:
    800015b8:	02ca7c33          	remu	s8,s4,a2

00000000800015bc <i0000000243>:
    800015bc:	0ff0000f          	fence

00000000800015c0 <i0000000244>:
    800015c0:	d0361653          	fcvt.s.lu	fa2,a2,rtz

00000000800015c4 <i0000000245>:
    800015c4:	4656                	lw	a2,84(sp)
    800015c6:	000df117          	auipc	sp,0xdf
    800015ca:	a3a10113          	add	sp,sp,-1478 # 800e0000 <begin_signature>
    800015ce:	6339                	lui	t1,0xe
    800015d0:	4783031b          	addw	t1,t1,1144 # e478 <_tbss_end+0xe478>
    800015d4:	911a                	add	sp,sp,t1

00000000800015d6 <i0000000246>:
    800015d6:	44813383          	ld	t2,1096(sp)

00000000800015da <i0000000247>:
    800015da:	02966a3b          	remw	s4,a2,s1

00000000800015de <i0000000248>:
    800015de:	2626                	fld	fa2,72(sp)

00000000800015e0 <i0000000249>:
    800015e0:	02f04433          	div	s0,zero,a5

00000000800015e4 <i000000024a>:
    800015e4:	03546cbb          	remw	s9,s0,s5

00000000800015e8 <i000000024b>:
    800015e8:	cee4ae13          	slti	t3,s1,-786

00000000800015ec <i000000024c>:
    800015ec:	01e8                	add	a0,sp,204
    800015ee:	000df117          	auipc	sp,0xdf
    800015f2:	a1210113          	add	sp,sp,-1518 # 800e0000 <begin_signature>
    800015f6:	630d                	lui	t1,0x3
    800015f8:	6003031b          	addw	t1,t1,1536 # 3600 <_tbss_end+0x3600>
    800015fc:	911a                	add	sp,sp,t1
    800015fe:	008a27b3          	slt	a5,s4,s0
    80001602:	04412e87          	flw	ft9,68(sp)
    80001606:	b0ae                	fsd	fa1,96(sp)
    80001608:	d03a75d3          	fcvt.s.lu	fa1,s4
    8000160c:	e2c12203          	lw	tp,-468(sp)
    80001610:	7125                	add	sp,sp,-416
    80001612:	a3e11783          	lh	a5,-1474(sp)

0000000080001616 <b000000024d>:
    80001616:	00000997          	auipc	s3,0x0
    8000161a:	04a98993          	add	s3,s3,74 # 80001660 <i0000000259>
    8000161e:	00098067          	jr	s3
    80001622:	614d                	add	sp,sp,176
    80001624:	5422                	lw	s0,40(sp)
    80001626:	5d813b03          	ld	s6,1496(sp)
    8000162a:	c032aa53          	fcvt.lu.s	s4,ft5,rdn
    8000162e:	420206d3          	fcvt.d.s	fa3,ft4
    80001632:	0301a233          	mulhsu	tp,gp,a6
    80001636:	7125                	add	sp,sp,-416

0000000080001638 <i000000024d>:
    80001638:	7f38dab7          	lui	s5,0x7f38d

000000008000163c <i000000024e>:
    8000163c:	00225073          	fsrmi	zero,4

0000000080001640 <i000000024f>:
    80001640:	a0ac0a53          	fle.s	s4,fs8,fa0

0000000080001644 <i0000000250>:
    80001644:	dd66                	sw	s9,184(sp)

0000000080001646 <i0000000251>:
    80001646:	b142                	fsd	fa6,160(sp)

0000000080001648 <i0000000252>:
    80001648:	a1e1262f          	amomax.w	a2,t5,(sp)

000000008000164c <i0000000253>:
    8000164c:	c0320dd3          	fcvt.lu.s	s11,ft4,rne

0000000080001650 <i0000000254>:
    80001650:	8259                	srl	a2,a2,0x16

0000000080001652 <i0000000255>:
    80001652:	e5e13023          	sd	t5,-448(sp)

0000000080001656 <i0000000256>:
    80001656:	0000100f          	fence.i

000000008000165a <i0000000257>:
    8000165a:	0000100f          	fence.i

000000008000165e <i0000000258>:
    8000165e:	b836                	fsd	fa3,48(sp)

0000000080001660 <i0000000259>:
    80001660:	1b44                	add	s1,sp,436

0000000080001662 <i000000025a>:
    80001662:	334a                	fld	ft6,176(sp)

0000000080001664 <i000000025b>:
    80001664:	0000100f          	fence.i

0000000080001668 <i000000025c>:
    80001668:	51012223          	sw	a6,1284(sp)

000000008000166c <i000000025d>:
    8000166c:	7111                	add	sp,sp,-256

000000008000166e <i000000025e>:
    8000166e:	25013c07          	fld	fs8,592(sp)

0000000080001672 <i000000025f>:
    80001672:	9622                	add	a2,a2,s0

0000000080001674 <i0000000260>:
    80001674:	44b2                	lw	s1,12(sp)
    80001676:	4e31                	li	t3,12
    80001678:	0e85                	add	t4,t4,1
    8000167a:	000df117          	auipc	sp,0xdf
    8000167e:	98610113          	add	sp,sp,-1658 # 800e0000 <begin_signature>
    80001682:	631d                	lui	t1,0x7
    80001684:	f083031b          	addw	t1,t1,-248 # 6f08 <_tbss_end+0x6f08>
    80001688:	911a                	add	sp,sp,t1
    8000168a:	03e19c93          	sll	s9,gp,0x3e
    8000168e:	580c93d3          	fsqrt.s	ft7,fs9,rtz
    80001692:	8081242f          	amomin.w	s0,s0,(sp)
    80001696:	028a5833          	divu	a6,s4,s0
    8000169a:	4904089b          	addw	a7,s0,1168
    8000169e:	65a11b83          	lh	s7,1626(sp)
    800016a2:	0294d3bb          	divuw	t2,s1,s1

00000000800016a6 <b0000000261>:
    800016a6:	01ce8463          	beq	t4,t3,800016ae <b0000000261+0x8>
    800016aa:	fb7ff56f          	jal	a0,80001660 <i0000000259>
    800016ae:	4ea9                	li	t4,10
    800016b0:	02848b33          	mul	s6,s1,s0
    800016b4:	d0397c53          	fcvt.s.lu	fs8,s2
    800016b8:	f0a6                	sd	s1,96(sp)
    800016ba:	00b05d93          	srl	s11,zero,0xb
    800016be:	02f8b4b3          	mulhu	s1,a7,a5
    800016c2:	034a6a3b          	remw	s4,s4,s4
    800016c6:	03ca5a13          	srl	s4,s4,0x3c

00000000800016ca <i0000000261>:
    800016ca:	d034b553          	fcvt.s.lu	fa0,s1,rup

00000000800016ce <i0000000262>:
    800016ce:	4c913423          	sd	s1,1224(sp)

00000000800016d2 <i0000000263>:
    800016d2:	46012583          	lw	a1,1120(sp)

00000000800016d6 <i0000000264>:
    800016d6:	00c4883b          	addw	a6,s1,a2

00000000800016da <i0000000265>:
    800016da:	a141252f          	amomax.w	a0,s4,(sp)

00000000800016de <i0000000266>:
    800016de:	02c67933          	remu	s2,a2,a2

00000000800016e2 <i0000000267>:
    800016e2:	0294cf3b          	divw	t5,s1,s1

00000000800016e6 <i0000000268>:
    800016e6:	c02677d3          	fcvt.l.s	a5,fa2

00000000800016ea <i0000000269>:
    800016ea:	9632                	add	a2,a2,a2
    800016ec:	000df117          	auipc	sp,0xdf
    800016f0:	91410113          	add	sp,sp,-1772 # 800e0000 <begin_signature>
    800016f4:	6339                	lui	t1,0xe
    800016f6:	5c03031b          	addw	t1,t1,1472 # e5c0 <_tbss_end+0xe5c0>
    800016fa:	911a                	add	sp,sp,t1

00000000800016fc <i000000026a>:
    800016fc:	f5114503          	lbu	a0,-175(sp)

0000000080001700 <i000000026b>:
    80001700:	40912c2f          	amoor.w	s8,s1,(sp)

0000000080001704 <i000000026c>:
    80001704:	0ff0000f          	fence

0000000080001708 <i000000026d>:
    80001708:	7115                	add	sp,sp,-224

000000008000170a <i000000026e>:
    8000170a:	9a26                	add	s4,s4,s1

000000008000170c <i000000026f>:
    8000170c:	018575d3          	fadd.s	fa1,fa0,fs8

0000000080001710 <i0000000270>:
    80001710:	01971613          	sll	a2,a4,0x19

0000000080001714 <i0000000271>:
    80001714:	2bb01853          	fmax.d	fa6,ft0,fs11

0000000080001718 <i0000000272>:
    80001718:	03ee54bb          	divuw	s1,t3,t5

000000008000171c <i0000000273>:
    8000171c:	20f134af          	amoxor.d	s1,a5,(sp)
    80001720:	4fb1                	li	t6,12
    80001722:	0e85                	add	t4,t4,1
    80001724:	200a2553          	fsgnjx.s	fa0,fs4,ft0
    80001728:	028483bb          	mulw	t2,s1,s0
    8000172c:	40013caf          	amoor.d	s9,zero,(sp)
    80001730:	f20a0c53          	fmv.d.x	fs8,s4
    80001734:	02a57253          	fadd.d	ft4,fa0,fa0
    80001738:	409127af          	amoor.w	a5,s1,(sp)
    8000173c:	c0253dd3          	fcvt.l.s	s11,fa0,rup

0000000080001740 <b0000000274>:
    80001740:	00000033          	add	zero,zero,zero
    80001744:	fdfe94e3          	bne	t4,t6,8000170c <i000000026f>
    80001748:	00000033          	add	zero,zero,zero
    8000174c:	f6013a03          	ld	s4,-160(sp)
    80001750:	1741                	add	a4,a4,-16
    80001752:	8c3d                	xor	s0,s0,a5
    80001754:	2ead5937          	lui	s2,0x2ead5
    80001758:	ec52                	sd	s4,24(sp)
    8000175a:	e08137af          	amomaxu.d	a5,s0,(sp)
    8000175e:	f00a01d3          	fmv.w.x	ft3,s4
    80001762:	4ea9                	li	t4,10

0000000080001764 <i0000000274>:
    80001764:	7125                	add	sp,sp,-416
    80001766:	000df117          	auipc	sp,0xdf
    8000176a:	89a10113          	add	sp,sp,-1894 # 800e0000 <begin_signature>
    8000176e:	6315                	lui	t1,0x5
    80001770:	dd83031b          	addw	t1,t1,-552 # 4dd8 <_tbss_end+0x4dd8>
    80001774:	911a                	add	sp,sp,t1

0000000080001776 <i0000000275>:
    80001776:	77b10b83          	lb	s7,1915(sp)

000000008000177a <i0000000276>:
    8000177a:	0971262f          	amoswap.w	a2,s7,(sp)

000000008000177e <i0000000277>:
    8000177e:	c1815483          	lhu	s1,-1000(sp)

0000000080001782 <i0000000278>:
    80001782:	9b32                	add	s6,s6,a2

0000000080001784 <i0000000279>:
    80001784:	0636                	sll	a2,a2,0xd

0000000080001786 <i000000027a>:
    80001786:	03c5e63b          	remw	a2,a1,t3

000000008000178a <i000000027b>:
    8000178a:	94b2                	add	s1,s1,a2

000000008000178c <i000000027c>:
    8000178c:	94e6                	add	s1,s1,s9

000000008000178e <i000000027d>:
    8000178e:	405fd813          	sra	a6,t6,0x5

0000000080001792 <i000000027e>:
    80001792:	a7362893          	slti	a7,a2,-1421

0000000080001796 <i000000027f>:
    80001796:	bbc12107          	flw	ft2,-1092(sp)

000000008000179a <i0000000280>:
    8000179a:	a14124af          	amomax.w	s1,s4,(sp)

000000008000179e <i0000000281>:
    8000179e:	c21ff4d3          	fcvt.wu.d	s1,ft11

00000000800017a2 <i0000000282>:
    800017a2:	6786                	ld	a5,64(sp)

00000000800017a4 <i0000000283>:
    800017a4:	aa913423          	sd	s1,-1368(sp)

00000000800017a8 <i0000000284>:
    800017a8:	6145                	add	sp,sp,48

00000000800017aa <i0000000285>:
    800017aa:	034a1633          	mulh	a2,s4,s4

00000000800017ae <i0000000286>:
    800017ae:	0294c4b3          	div	s1,s1,s1
    800017b2:	4da9                	li	s11,10
    800017b4:	e0f134af          	amomaxu.d	s1,a5,(sp)
    800017b8:	81413c2f          	amomin.d	s8,s4,(sp)
    800017bc:	66013023          	sd	zero,1632(sp)
    800017c0:	9c3d                	addw	s0,s0,a5
    800017c2:	40848fb3          	sub	t6,s1,s0
    800017c6:	0706                	sll	a4,a4,0x1
    800017c8:	012e18bb          	sllw	a7,t3,s2

00000000800017cc <b0000000287>:
    800017cc:	00000033          	add	zero,zero,zero
    800017d0:	05be8c63          	beq	t4,s11,80001828 <i0000000292>
    800017d4:	00000033          	add	zero,zero,zero
    800017d8:	0ff0000f          	fence
    800017dc:	30813783          	ld	a5,776(sp)
    800017e0:	adb6                	fsd	fa3,216(sp)
    800017e2:	a12a                	fsd	fa0,128(sp)
    800017e4:	f2078cd3          	fmv.d.x	fs9,a5
    800017e8:	094137af          	amoswap.d	a5,s4,(sp)
    800017ec:	21f137af          	amoxor.d	a5,t6,(sp)
    800017f0:	4ea9                	li	t4,10
    800017f2:	000df117          	auipc	sp,0xdf
    800017f6:	80e10113          	add	sp,sp,-2034 # 800e0000 <begin_signature>
    800017fa:	633d                	lui	t1,0xf
    800017fc:	3903031b          	addw	t1,t1,912 # f390 <_tbss_end+0xf390>
    80001800:	911a                	add	sp,sp,t1

0000000080001802 <i0000000287>:
    80001802:	f9c16a03          	lwu	s4,-100(sp)

0000000080001806 <i0000000288>:
    80001806:	0ff0000f          	fence

000000008000180a <i0000000289>:
    8000180a:	b47fe0ef          	jal	80000350 <func1>

000000008000180e <i000000028a>:
    8000180e:	a1e1262f          	amomax.w	a2,t5,(sp)

0000000080001812 <i000000028b>:
    80001812:	bc92                	fsd	ft4,120(sp)

0000000080001814 <i000000028c>:
    80001814:	5731b617          	auipc	a2,0x5731b

0000000080001818 <i000000028d>:
    80001818:	82813283          	ld	t0,-2008(sp)

000000008000181c <i000000028e>:
    8000181c:	1804                	add	s1,sp,48

000000008000181e <i000000028f>:
    8000181e:	234c8553          	fsgnj.d	fa0,fs9,fs4

0000000080001822 <i0000000290>:
    80001822:	6129                	add	sp,sp,192

0000000080001824 <i0000000291>:
    80001824:	03fc663b          	remw	a2,s8,t6

0000000080001828 <i0000000292>:
    80001828:	6a6e                	ld	s4,216(sp)

000000008000182a <i0000000293>:
    8000182a:	ab211a23          	sh	s2,-1356(sp)

000000008000182e <i0000000294>:
    8000182e:	00771a33          	sll	s4,a4,t2

0000000080001832 <i0000000295>:
    80001832:	c01ca653          	fcvt.wu.s	a2,fs9,rdn

0000000080001836 <i0000000296>:
    80001836:	c2227a53          	fcvt.l.d	s4,ft4

000000008000183a <i0000000297>:
    8000183a:	42aa5a13          	sra	s4,s4,0x2a

000000008000183e <i0000000298>:
    8000183e:	e2030a53          	fmv.x.d	s4,ft6

0000000080001842 <i0000000299>:
    80001842:	e20e04d3          	fmv.x.d	s1,ft8

0000000080001846 <i000000029a>:
    80001846:	9652                	add	a2,a2,s4
    80001848:	4ca5                	li	s9,9
    8000184a:	4ea9                	li	t4,10
    8000184c:	000de117          	auipc	sp,0xde
    80001850:	7b410113          	add	sp,sp,1972 # 800e0000 <begin_signature>
    80001854:	633d                	lui	t1,0xf
    80001856:	7103031b          	addw	t1,t1,1808 # f710 <_tbss_end+0xf710>
    8000185a:	911a                	add	sp,sp,t1
    8000185c:	000de117          	auipc	sp,0xde
    80001860:	7a410113          	add	sp,sp,1956 # 800e0000 <begin_signature>
    80001864:	6315                	lui	t1,0x5
    80001866:	b203031b          	addw	t1,t1,-1248 # 4b20 <_tbss_end+0x4b20>
    8000186a:	911a                	add	sp,sp,t1
    8000186c:	000de117          	auipc	sp,0xde
    80001870:	79410113          	add	sp,sp,1940 # 800e0000 <begin_signature>
    80001874:	6329                	lui	t1,0xa
    80001876:	eb03031b          	addw	t1,t1,-336 # 9eb0 <_tbss_end+0x9eb0>
    8000187a:	911a                	add	sp,sp,t1
    8000187c:	b056                	fsd	fs5,32(sp)
    8000187e:	80f5                	srl	s1,s1,0x1d
    80001880:	c22274d3          	fcvt.l.d	s1,ft4
    80001884:	80d9                	srl	s1,s1,0x16
    80001886:	2726                	fld	fa4,72(sp)
    80001888:	d037cc53          	fcvt.s.lu	fs8,a5,rmm
    8000188c:	c63a                	sw	a4,12(sp)

000000008000188e <b000000029b>:
    8000188e:	00000033          	add	zero,zero,zero
    80001892:	059ec863          	blt	t4,s9,800018e2 <i00000002a4>
    80001896:	00000033          	add	zero,zero,zero
    8000189a:	e8813e03          	ld	t3,-376(sp)
    8000189e:	f20a09d3          	fmv.d.x	fs3,s4
    800018a2:	015131af          	amoadd.d	gp,s5,(sp)
    800018a6:	4742                	lw	a4,16(sp)
    800018a8:	c23cfa53          	fcvt.lu.d	s4,fs9
    800018ac:	0aa579d3          	fsub.d	fs3,fa0,fa0
    800018b0:	0078103b          	sllw	zero,a6,t2
    800018b4:	4ea9                	li	t4,10

00000000800018b6 <i000000029b>:
    800018b6:	e02a                	sd	a0,0(sp)

00000000800018b8 <i000000029c>:
    800018b8:	4525                	li	a0,9

00000000800018ba <i000000029d>:
    800018ba:	0ff0000f          	fence

00000000800018be <i000000029e>:
    800018be:	9a7e                	add	s4,s4,t6

00000000800018c0 <i000000029f>:
    800018c0:	e08124af          	amomaxu.w	s1,s0,(sp)

00000000800018c4 <i00000002a0>:
    800018c4:	c0350053          	fcvt.lu.s	zero,fa0,rne

00000000800018c8 <i00000002a1>:
    800018c8:	73412903          	lw	s2,1844(sp)
    800018cc:	000de117          	auipc	sp,0xde
    800018d0:	73410113          	add	sp,sp,1844 # 800e0000 <begin_signature>
    800018d4:	630d                	lui	t1,0x3
    800018d6:	7f03031b          	addw	t1,t1,2032 # 37f0 <_tbss_end+0x37f0>
    800018da:	911a                	add	sp,sp,t1

00000000800018dc <i00000002a2>:
    800018dc:	7a1e                	ld	s4,480(sp)

00000000800018de <i00000002a3>:
    800018de:	2b138dd3          	fmin.d	fs11,ft7,fa7

00000000800018e2 <i00000002a4>:
    800018e2:	c2077653          	fcvt.w.d	a2,fa4

00000000800018e6 <i00000002a5>:
    800018e6:	40ca04b3          	sub	s1,s4,a2

00000000800018ea <i00000002a6>:
    800018ea:	e68a3a13          	sltiu	s4,s4,-408

00000000800018ee <i00000002a7>:
    800018ee:	c02a4653          	fcvt.l.s	a2,fs4,rmm

00000000800018f2 <i00000002a8>:
    800018f2:	dc46                	sw	a7,56(sp)

00000000800018f4 <i00000002a9>:
    800018f4:	d225fbd3          	fcvt.d.l	fs7,a1

00000000800018f8 <i00000002aa>:
    800018f8:	284213d3          	fmax.s	ft7,ft4,ft4

00000000800018fc <i00000002ab>:
    800018fc:	02c4f43b          	remuw	s0,s1,a2

0000000080001900 <i00000002ac>:
    80001900:	c004aa53          	fcvt.w.s	s4,fs1,rdn

0000000080001904 <i00000002ad>:
    80001904:	a4dfe0ef          	jal	80000350 <func1>

0000000080001908 <i00000002ae>:
    80001908:	61215583          	lhu	a1,1554(sp)
    8000190c:	4ca9                	li	s9,10
    8000190e:	000de117          	auipc	sp,0xde
    80001912:	6f210113          	add	sp,sp,1778 # 800e0000 <begin_signature>
    80001916:	6319                	lui	t1,0x6
    80001918:	8103031b          	addw	t1,t1,-2032 # 5810 <_tbss_end+0x5810>
    8000191c:	911a                	add	sp,sp,t1
    8000191e:	a0a514d3          	flt.s	s1,fa0,fa0
    80001922:	0000100f          	fence.i
    80001926:	07fa                	sll	a5,a5,0x1e
    80001928:	40f12a2f          	amoor.w	s4,a5,(sp)
    8000192c:	03ad84b3          	mul	s1,s11,s10
    80001930:	8c213427          	fsd	ft2,-1848(sp)
    80001934:	4a114783          	lbu	a5,1185(sp)

0000000080001938 <b00000002af>:
    80001938:	019e8863          	beq	t4,s9,80001948 <b00000002af+0x10>
    8000193c:	00000c97          	auipc	s9,0x0
    80001940:	f8cc8c93          	add	s9,s9,-116 # 800018c8 <i00000002a1>
    80001944:	000c80e7          	jalr	s9
    80001948:	4ea9                	li	t4,10
    8000194a:	60f12baf          	amoand.w	s7,a5,(sp)
    8000194e:	08f137af          	amoswap.d	a5,a5,(sp)
    80001952:	8fd9                	or	a5,a5,a4
    80001954:	08f12e2f          	amoswap.w	t3,a5,(sp)
    80001958:	c22c7e53          	fcvt.l.d	t3,fs8
    8000195c:	e4d6                	sd	s5,72(sp)
    8000195e:	1761                	add	a4,a4,-8

0000000080001960 <i00000002af>:
    80001960:	00235073          	fsrmi	zero,6

0000000080001964 <i00000002b0>:
    80001964:	7662                	ld	a2,56(sp)
    80001966:	000de117          	auipc	sp,0xde
    8000196a:	69a10113          	add	sp,sp,1690 # 800e0000 <begin_signature>
    8000196e:	6311                	lui	t1,0x4
    80001970:	e983031b          	addw	t1,t1,-360 # 3e98 <_tbss_end+0x3e98>
    80001974:	911a                	add	sp,sp,t1

0000000080001976 <i00000002b1>:
    80001976:	24913823          	sd	s1,592(sp)

000000008000197a <i00000002b2>:
    8000197a:	9d7fe0ef          	jal	80000350 <func1>

000000008000197e <i00000002b3>:
    8000197e:	0ad8                	add	a4,sp,340

0000000080001980 <i00000002b4>:
    80001980:	8e013f03          	ld	t5,-1824(sp)

0000000080001984 <i00000002b5>:
    80001984:	20c127af          	amoxor.w	a5,a2,(sp)

0000000080001988 <i00000002b6>:
    80001988:	ce26                	sw	s1,28(sp)

000000008000198a <i00000002b7>:
    8000198a:	2181282f          	amoxor.w	a6,s8,(sp)

000000008000198e <i00000002b8>:
    8000198e:	40197c53          	fcvt.s.d	fs8,fs2

0000000080001992 <i00000002b9>:
    80001992:	42a2                	lw	t0,8(sp)

0000000080001994 <i00000002ba>:
    80001994:	0022d073          	fsrmi	zero,5
    80001998:	000de117          	auipc	sp,0xde
    8000199c:	66810113          	add	sp,sp,1640 # 800e0000 <begin_signature>
    800019a0:	6321                	lui	t1,0x8
    800019a2:	dd03031b          	addw	t1,t1,-560 # 7dd0 <_tbss_end+0x7dd0>
    800019a6:	911a                	add	sp,sp,t1

00000000800019a8 <i00000002bb>:
    800019a8:	7662                	ld	a2,56(sp)

00000000800019aa <i00000002bc>:
    800019aa:	7141                	add	sp,sp,-496

00000000800019ac <i00000002bd>:
    800019ac:	a1e1262f          	amomax.w	a2,t5,(sp)

00000000800019b0 <i00000002be>:
    800019b0:	c2d2                	sw	s4,68(sp)

00000000800019b2 <i00000002bf>:
    800019b2:	c69e                	sw	t2,76(sp)

00000000800019b4 <i00000002c0>:
    800019b4:	54a2                	lw	s1,40(sp)

00000000800019b6 <i00000002c1>:
    800019b6:	7109                	add	sp,sp,-384

00000000800019b8 <i00000002c2>:
    800019b8:	0344ba33          	mulhu	s4,s1,s4

00000000800019bc <i00000002c3>:
    800019bc:	403f563b          	sraw	a2,t5,gp
    800019c0:	000de117          	auipc	sp,0xde
    800019c4:	64010113          	add	sp,sp,1600 # 800e0000 <begin_signature>
    800019c8:	631d                	lui	t1,0x7
    800019ca:	2603031b          	addw	t1,t1,608 # 7260 <_tbss_end+0x7260>
    800019ce:	911a                	add	sp,sp,t1

00000000800019d0 <i00000002c4>:
    800019d0:	c0a6                	sw	s1,64(sp)
    800019d2:	a151222f          	amomax.w	tp,s5,(sp)
    800019d6:	c0be                	sw	a5,64(sp)
    800019d8:	a13a                	fsd	fa4,128(sp)
    800019da:	29812427          	fsw	fs8,648(sp)
    800019de:	00f137af          	amoadd.d	a5,a5,(sp)
    800019e2:	0000100f          	fence.i
    800019e6:	02f48933          	mul	s2,s1,a5

00000000800019ea <b00000002c5>:
    800019ea:	00000b97          	auipc	s7,0x0
    800019ee:	03cb8b93          	add	s7,s7,60 # 80001a26 <i00000002cb>
    800019f2:	000b8567          	jalr	a0,s7
    800019f6:	c23577d3          	fcvt.lu.d	a5,fa0
    800019fa:	4792                	lw	a5,4(sp)
    800019fc:	d5a15983          	lhu	s3,-678(sp)
    80001a00:	c23ef4d3          	fcvt.lu.d	s1,ft9
    80001a04:	4235                	li	tp,13
    80001a06:	f1611b23          	sh	s6,-234(sp)
    80001a0a:	c023fdd3          	fcvt.l.s	s11,ft7

0000000080001a0e <i00000002c5>:
    80001a0e:	20bbafd3          	fsgnjx.s	ft11,fs7,fa1

0000000080001a12 <i00000002c6>:
    80001a12:	d1f13023          	sd	t6,-768(sp)

0000000080001a16 <i00000002c7>:
    80001a16:	0badf553          	fsub.d	fa0,fs11,fs10

0000000080001a1a <i00000002c8>:
    80001a1a:	0144e5b3          	or	a1,s1,s4

0000000080001a1e <i00000002c9>:
    80001a1e:	7e467d17          	auipc	s10,0x7e467

0000000080001a22 <i00000002ca>:
    80001a22:	03259633          	mulh	a2,a1,s2

0000000080001a26 <i00000002cb>:
    80001a26:	0310                	add	a2,sp,384

0000000080001a28 <i00000002cc>:
    80001a28:	605135af          	amoand.d	a1,t0,(sp)

0000000080001a2c <i00000002cd>:
    80001a2c:	40da5613          	sra	a2,s4,0xd

0000000080001a30 <i00000002ce>:
    80001a30:	6582                	ld	a1,0(sp)

0000000080001a32 <i00000002cf>:
    80001a32:	0ff0000f          	fence

0000000080001a36 <i00000002d0>:
    80001a36:	8085                	srl	s1,s1,0x1

0000000080001a38 <i00000002d1>:
    80001a38:	3b797c4f          	fnmadd.d	fs8,fs2,fs7,ft7

0000000080001a3c <i00000002d2>:
    80001a3c:	01e4                	add	s1,sp,204
    80001a3e:	000de117          	auipc	sp,0xde
    80001a42:	5c210113          	add	sp,sp,1474 # 800e0000 <begin_signature>
    80001a46:	6339                	lui	t1,0xe
    80001a48:	d603031b          	addw	t1,t1,-672 # dd60 <_tbss_end+0xdd60>
    80001a4c:	911a                	add	sp,sp,t1

0000000080001a4e <i00000002d3>:
    80001a4e:	b82a                	fsd	fa0,48(sp)

0000000080001a50 <i00000002d4>:
    80001a50:	0000100f          	fence.i

0000000080001a54 <i00000002d5>:
    80001a54:	d21b0c53          	fcvt.d.wu	fs8,s6

0000000080001a58 <i00000002d6>:
    80001a58:	0094d6bb          	srlw	a3,s1,s1

0000000080001a5c <i00000002d7>:
    80001a5c:	d0104853          	fcvt.s.wu	fa6,zero,rmm
    80001a60:	48a5                	li	a7,9
    80001a62:	000de117          	auipc	sp,0xde
    80001a66:	59e10113          	add	sp,sp,1438 # 800e0000 <begin_signature>
    80001a6a:	6339                	lui	t1,0xe
    80001a6c:	3503031b          	addw	t1,t1,848 # e350 <_tbss_end+0xe350>
    80001a70:	911a                	add	sp,sp,t1
    80001a72:	c227fd53          	fcvt.l.d	s10,fa5
    80001a76:	a0422253          	feq.s	tp,ft4,ft4
    80001a7a:	c43e                	sw	a5,8(sp)
    80001a7c:	8c99                	sub	s1,s1,a4
    80001a7e:	0795                	add	a5,a5,5
    80001a80:	a2a524d3          	feq.d	s1,fa0,fa0
    80001a84:	81416b03          	lwu	s6,-2028(sp)

0000000080001a88 <b00000002d8>:
    80001a88:	00000033          	add	zero,zero,zero
    80001a8c:	fdd8d1e3          	bge	a7,t4,80001a4e <i00000002d3>
    80001a90:	00000033          	add	zero,zero,zero
    80001a94:	02e20fbb          	mulw	t6,tp,a4
    80001a98:	61512b2f          	amoand.w	s6,s5,(sp)
    80001a9c:	31ea                	fld	ft3,184(sp)
    80001a9e:	af67a713          	slti	a4,a5,-1290
    80001aa2:	1ac4                	add	s1,sp,372
    80001aa4:	41913caf          	amoor.d	s9,s9,(sp)
    80001aa8:	a8013a87          	fld	fs5,-1408(sp)
    80001aac:	4ea9                	li	t4,10

0000000080001aae <i00000002d8>:
    80001aae:	216c44b7          	lui	s1,0x216c4

0000000080001ab2 <i00000002d9>:
    80001ab2:	03e47a33          	remu	s4,s0,t5

0000000080001ab6 <i00000002da>:
    80001ab6:	8cd5                	or	s1,s1,a3

0000000080001ab8 <i00000002db>:
    80001ab8:	d01382d3          	fcvt.s.wu	ft5,t2,rne

0000000080001abc <i00000002dc>:
    80001abc:	9cb1                	addw	s1,s1,a2

0000000080001abe <i00000002dd>:
    80001abe:	dd990493          	add	s1,s2,-551 # 2ead4dd9 <_tbss_end+0x2ead4dd9>

0000000080001ac2 <i00000002de>:
    80001ac2:	0022d073          	fsrmi	zero,5

0000000080001ac6 <i00000002df>:
    80001ac6:	d026fcd3          	fcvt.s.l	fs9,a3

0000000080001aca <i00000002e0>:
    80001aca:	714d                	add	sp,sp,-336

0000000080001acc <i00000002e1>:
    80001acc:	02ca3ab3          	mulhu	s5,s4,a2

0000000080001ad0 <i00000002e2>:
    80001ad0:	407a5a13          	sra	s4,s4,0x7

0000000080001ad4 <i00000002e3>:
    80001ad4:	0941262f          	amoswap.w	a2,s4,(sp)

0000000080001ad8 <i00000002e4>:
    80001ad8:	224200d3          	fmv.d	ft1,ft4

0000000080001adc <i00000002e5>:
    80001adc:	00ca0f33          	add	t5,s4,a2

0000000080001ae0 <i00000002e6>:
    80001ae0:	0000100f          	fence.i

0000000080001ae4 <i00000002e7>:
    80001ae4:	0000100f          	fence.i

0000000080001ae8 <i00000002e8>:
    80001ae8:	0338f63b          	remuw	a2,a7,s3

0000000080001aec <i00000002e9>:
    80001aec:	00235073          	fsrmi	zero,6

0000000080001af0 <i00000002ea>:
    80001af0:	d038fc53          	fcvt.s.lu	fs8,a7

0000000080001af4 <i00000002eb>:
    80001af4:	c22276d3          	fcvt.l.d	a3,ft4

0000000080001af8 <i00000002ec>:
    80001af8:	c68e                	sw	gp,76(sp)
    80001afa:	000de117          	auipc	sp,0xde
    80001afe:	50610113          	add	sp,sp,1286 # 800e0000 <begin_signature>
    80001b02:	6321                	lui	t1,0x8
    80001b04:	aa83031b          	addw	t1,t1,-1368 # 7aa8 <_tbss_end+0x7aa8>
    80001b08:	911a                	add	sp,sp,t1
    80001b0a:	f4e2                	sd	s8,104(sp)
    80001b0c:	21a15783          	lhu	a5,538(sp)
    80001b10:	2181342f          	amoxor.d	s0,s8,(sp)
    80001b14:	a1913d2f          	amomax.d	s10,s9,(sp)
    80001b18:	bcaa                	fsd	fa0,120(sp)
    80001b1a:	8cc5                	or	s1,s1,s1
    80001b1c:	1a3c                	add	a5,sp,312

0000000080001b1e <b00000002ed>:
    80001b1e:	00000b17          	auipc	s6,0x0
    80001b22:	03cb0b13          	add	s6,s6,60 # 80001b5a <i00000002f4>
    80001b26:	000b0567          	jalr	a0,s6
    80001b2a:	8091                	srl	s1,s1,0x4
    80001b2c:	c0338453          	fcvt.lu.s	s0,ft7,rne
    80001b30:	3bb7f147          	fmsub.d	ft2,fa5,fs11,ft7
    80001b34:	00299a9b          	sllw	s5,s3,0x2
    80001b38:	02fa47bb          	divw	a5,s4,a5
    80001b3c:	0097f433          	and	s0,a5,s1
    80001b40:	0000100f          	fence.i

0000000080001b44 <i00000002ed>:
    80001b44:	1755                	add	a4,a4,-11

0000000080001b46 <i00000002ee>:
    80001b46:	2c4e                	fld	fs8,208(sp)

0000000080001b48 <i00000002ef>:
    80001b48:	c2257a53          	fcvt.l.d	s4,fa0

0000000080001b4c <i00000002f0>:
    80001b4c:	088124af          	amoswap.w	s1,s0,(sp)

0000000080001b50 <i00000002f1>:
    80001b50:	4091362f          	amoor.d	a2,s1,(sp)

0000000080001b54 <i00000002f2>:
    80001b54:	200124af          	amoxor.w	s1,zero,(sp)

0000000080001b58 <i00000002f3>:
    80001b58:	da26                	sw	s1,52(sp)

0000000080001b5a <i00000002f4>:
    80001b5a:	809134af          	amomin.d	s1,s1,(sp)

0000000080001b5e <i00000002f5>:
    80001b5e:	e136                	sd	a3,128(sp)

0000000080001b60 <i00000002f6>:
    80001b60:	81f13a2f          	amomin.d	s4,t6,(sp)

0000000080001b64 <i00000002f7>:
    80001b64:	9d85                	subw	a1,a1,s1

0000000080001b66 <i00000002f8>:
    80001b66:	c42e                	sw	a1,8(sp)

0000000080001b68 <i00000002f9>:
    80001b68:	e20f84d3          	fmv.x.d	s1,ft11

0000000080001b6c <i00000002fa>:
    80001b6c:	20619553          	fsgnjn.s	fa0,ft3,ft6

0000000080001b70 <i00000002fb>:
    80001b70:	201993d3          	fsgnjn.s	ft7,fs3,ft1

0000000080001b74 <i00000002fc>:
    80001b74:	5cf5                	li	s9,-3

0000000080001b76 <i00000002fd>:
    80001b76:	2a631c53          	fmax.d	fs8,ft6,ft6

0000000080001b7a <i00000002fe>:
    80001b7a:	5622                	lw	a2,40(sp)

0000000080001b7c <i00000002ff>:
    80001b7c:	c1413e2f          	amominu.d	t3,s4,(sp)
    80001b80:	4931                	li	s2,12
    80001b82:	4ea9                	li	t4,10
    80001b84:	0000100f          	fence.i
    80001b88:	8f1d                	sub	a4,a4,a5
    80001b8a:	029a07b3          	mul	a5,s4,s1
    80001b8e:	20912a2f          	amoxor.w	s4,s1,(sp)
    80001b92:	20e133af          	amoxor.d	t2,a4,(sp)
    80001b96:	2b016a03          	lwu	s4,688(sp)
    80001b9a:	41812a2f          	amoor.w	s4,s8,(sp)

0000000080001b9e <b0000000300>:
    80001b9e:	00000033          	add	zero,zero,zero
    80001ba2:	052ec663          	blt	t4,s2,80001bee <i000000030c>
    80001ba6:	00000033          	add	zero,zero,zero
    80001baa:	28318553          	fmin.s	fa0,ft3,ft3
    80001bae:	d9413c23          	sd	s4,-616(sp)
    80001bb2:	8f21                	xor	a4,a4,s0
    80001bb4:	e426                	sd	s1,8(sp)
    80001bb6:	02f4843b          	mulw	s0,s1,a5
    80001bba:	08e13a2f          	amoswap.d	s4,a4,(sp)
    80001bbe:	e0912a2f          	amomaxu.w	s4,s1,(sp)
    80001bc2:	4ea9                	li	t4,10

0000000080001bc4 <i0000000300>:
    80001bc4:	9c05                	subw	s0,s0,s1

0000000080001bc6 <i0000000301>:
    80001bc6:	18c12883          	lw	a7,396(sp)

0000000080001bca <i0000000302>:
    80001bca:	02a973b3          	remu	t2,s2,a0

0000000080001bce <i0000000303>:
    80001bce:	1aa57f53          	fdiv.d	ft10,fa0,fa0

0000000080001bd2 <i0000000304>:
    80001bd2:	a02a                	fsd	fa0,0(sp)

0000000080001bd4 <i0000000305>:
    80001bd4:	c2357b53          	fcvt.lu.d	s6,fa0

0000000080001bd8 <i0000000306>:
    80001bd8:	014a563b          	srlw	a2,s4,s4

0000000080001bdc <i0000000307>:
    80001bdc:	ced2                	sw	s4,92(sp)

0000000080001bde <i0000000308>:
    80001bde:	a14127af          	amomax.w	a5,s4,(sp)

0000000080001be2 <i0000000309>:
    80001be2:	d224f9d3          	fcvt.d.l	fs3,s1

0000000080001be6 <i000000030a>:
    80001be6:	02053633          	mulhu	a2,a0,zero

0000000080001bea <i000000030b>:
    80001bea:	1b110a23          	sb	a7,436(sp)

0000000080001bee <i000000030c>:
    80001bee:	5656                	lw	a2,116(sp)

0000000080001bf0 <i000000030d>:
    80001bf0:	01c9131b          	sllw	t1,s2,0x1c

0000000080001bf4 <i000000030e>:
    80001bf4:	a1b1362f          	amomax.d	a2,s11,(sp)

0000000080001bf8 <i000000030f>:
    80001bf8:	0ff0000f          	fence

0000000080001bfc <i0000000310>:
    80001bfc:	8ce5                	and	s1,s1,s1
    80001bfe:	000de117          	auipc	sp,0xde
    80001c02:	40210113          	add	sp,sp,1026 # 800e0000 <begin_signature>
    80001c06:	6315                	lui	t1,0x5
    80001c08:	bd03031b          	addw	t1,t1,-1072 # 4bd0 <_tbss_end+0x4bd0>
    80001c0c:	911a                	add	sp,sp,t1

0000000080001c0e <i0000000311>:
    80001c0e:	7a66                	ld	s4,120(sp)

0000000080001c10 <i0000000312>:
    80001c10:	32412283          	lw	t0,804(sp)
    80001c14:	49b1                	li	s3,12
    80001c16:	0e85                	add	t4,t4,1
    80001c18:	8f9d                	sub	a5,a5,a5
    80001c1a:	0ff0000f          	fence
    80001c1e:	c7611483          	lh	s1,-906(sp)
    80001c22:	8c41                	or	s0,s0,s0
    80001c24:	c22374d3          	fcvt.l.d	s1,ft6
    80001c28:	8f9d                	sub	a5,a5,a5
    80001c2a:	03c8d233          	divu	tp,a7,t3

0000000080001c2e <b0000000313>:
    80001c2e:	013e8863          	beq	t4,s3,80001c3e <b0000000313+0x10>
    80001c32:	00000997          	auipc	s3,0x0
    80001c36:	fa698993          	add	s3,s3,-90 # 80001bd8 <i0000000306>
    80001c3a:	000980e7          	jalr	s3
    80001c3e:	4ea9                	li	t4,10
    80001c40:	0000100f          	fence.i
    80001c44:	d0140153          	fcvt.s.wu	ft2,s0,rne
    80001c48:	08413faf          	amoswap.d	t6,tp,(sp)
    80001c4c:	02081933          	mulh	s2,a6,zero
    80001c50:	01213aaf          	amoadd.d	s5,s2,(sp)
    80001c54:	8cd9                	or	s1,s1,a4
    80001c56:	c0124953          	fcvt.wu.s	s2,ft4,rmm

0000000080001c5a <i0000000313>:
    80001c5a:	d03cab53          	fcvt.s.lu	fs6,s9,rdn

0000000080001c5e <i0000000314>:
    80001c5e:	7141                	add	sp,sp,-496

0000000080001c60 <i0000000315>:
    80001c60:	19e4                	add	s1,sp,252

0000000080001c62 <i0000000316>:
    80001c62:	29d299d3          	fmax.s	fs3,ft5,ft9

0000000080001c66 <i0000000317>:
    80001c66:	0068dc9b          	srlw	s9,a7,0x6

0000000080001c6a <i0000000318>:
    80001c6a:	8e85                	sub	a3,a3,s1

0000000080001c6c <i0000000319>:
    80001c6c:	0020d073          	fsrmi	zero,1

0000000080001c70 <i000000031a>:
    80001c70:	c23d7453          	fcvt.lu.d	s0,fs10

0000000080001c74 <i000000031b>:
    80001c74:	e20504d3          	fmv.x.d	s1,fa0

0000000080001c78 <i000000031c>:
    80001c78:	c83a                	sw	a4,16(sp)

0000000080001c7a <i000000031d>:
    80001c7a:	92013a03          	ld	s4,-1760(sp)

0000000080001c7e <i000000031e>:
    80001c7e:	3a013987          	fld	fs3,928(sp)

0000000080001c82 <i000000031f>:
    80001c82:	c0120a53          	fcvt.wu.s	s4,ft4,rne

0000000080001c86 <i0000000320>:
    80001c86:	0157d81b          	srlw	a6,a5,0x15

0000000080001c8a <i0000000321>:
    80001c8a:	a19124af          	amomax.w	s1,s9,(sp)

0000000080001c8e <i0000000322>:
    80001c8e:	029a44b3          	div	s1,s4,s1

0000000080001c92 <i0000000323>:
    80001c92:	63f13423          	sd	t6,1576(sp)

0000000080001c96 <i0000000324>:
    80001c96:	198c18d3          	fdiv.s	fa7,fs8,fs8,rtz

0000000080001c9a <i0000000325>:
    80001c9a:	c02c3a53          	fcvt.l.s	s4,fs8,rup

0000000080001c9e <i0000000326>:
    80001c9e:	0273ebb3          	rem	s7,t2,t2
    80001ca2:	000de117          	auipc	sp,0xde
    80001ca6:	35e10113          	add	sp,sp,862 # 800e0000 <begin_signature>
    80001caa:	6329                	lui	t1,0xa
    80001cac:	1d03031b          	addw	t1,t1,464 # a1d0 <_tbss_end+0xa1d0>
    80001cb0:	911a                	add	sp,sp,t1
    80001cb2:	000de117          	auipc	sp,0xde
    80001cb6:	34e10113          	add	sp,sp,846 # 800e0000 <begin_signature>
    80001cba:	630d                	lui	t1,0x3
    80001cbc:	ae03031b          	addw	t1,t1,-1312 # 2ae0 <_tbss_end+0x2ae0>
    80001cc0:	911a                	add	sp,sp,t1
    80001cc2:	000de117          	auipc	sp,0xde
    80001cc6:	33e10113          	add	sp,sp,830 # 800e0000 <begin_signature>
    80001cca:	6315                	lui	t1,0x5
    80001ccc:	f383031b          	addw	t1,t1,-200 # 4f38 <_tbss_end+0x4f38>
    80001cd0:	911a                	add	sp,sp,t1
    80001cd2:	f5012003          	lw	zero,-176(sp)
    80001cd6:	c02234d3          	fcvt.l.s	s1,ft4,rup
    80001cda:	a162                	fsd	fs8,128(sp)
    80001cdc:	420207d3          	fcvt.d.s	fa5,ft4
    80001ce0:	cea6                	sw	s1,92(sp)
    80001ce2:	033cd033          	divu	zero,s9,s3
    80001ce6:	0287db33          	divu	s6,a5,s0

0000000080001cea <b0000000327>:
    80001cea:	00000817          	auipc	a6,0x0
    80001cee:	06480813          	add	a6,a6,100 # 80001d4e <i0000000335>
    80001cf2:	00080567          	jalr	a0,a6
    80001cf6:	089127af          	amoswap.w	a5,s1,(sp)
    80001cfa:	0ff0000f          	fence
    80001cfe:	e00134af          	amomaxu.d	s1,zero,(sp)
    80001d02:	bce2                	fsd	fs8,120(sp)
    80001d04:	03bce7bb          	remw	a5,s9,s11
    80001d08:	133c                	add	a5,sp,424
    80001d0a:	0000100f          	fence.i

0000000080001d0e <i0000000327>:
    80001d0e:	71416a03          	lwu	s4,1812(sp)

0000000080001d12 <i0000000328>:
    80001d12:	e00094d3          	fclass.s	s1,ft1
    80001d16:	000de117          	auipc	sp,0xde
    80001d1a:	2ea10113          	add	sp,sp,746 # 800e0000 <begin_signature>
    80001d1e:	633d                	lui	t1,0xf
    80001d20:	b383031b          	addw	t1,t1,-1224 # eb38 <_tbss_end+0xeb38>
    80001d24:	911a                	add	sp,sp,t1

0000000080001d26 <i0000000329>:
    80001d26:	da3e                	sw	a5,52(sp)

0000000080001d28 <i000000032a>:
    80001d28:	032534b3          	mulhu	s1,a0,s2

0000000080001d2c <i000000032b>:
    80001d2c:	02831f33          	mulh	t5,t1,s0

0000000080001d30 <i000000032c>:
    80001d30:	d232                	sw	a2,36(sp)

0000000080001d32 <i000000032d>:
    80001d32:	e0020dd3          	fmv.x.w	s11,ft4

0000000080001d36 <i000000032e>:
    80001d36:	28a202d3          	fmin.s	ft5,ft4,fa0

0000000080001d3a <i000000032f>:
    80001d3a:	dfe14a83          	lbu	s5,-514(sp)

0000000080001d3e <i0000000330>:
    80001d3e:	f3ddfc43          	fmadd.d	fs8,fs11,ft9,ft10

0000000080001d42 <i0000000331>:
    80001d42:	26612227          	fsw	ft6,612(sp)

0000000080001d46 <i0000000332>:
    80001d46:	e1413c23          	sd	s4,-488(sp)

0000000080001d4a <i0000000333>:
    80001d4a:	84bd                	sra	s1,s1,0xf

0000000080001d4c <i0000000334>:
    80001d4c:	0404                	add	s1,sp,512

0000000080001d4e <i0000000335>:
    80001d4e:	0a016603          	lwu	a2,160(sp)

0000000080001d52 <i0000000336>:
    80001d52:	20313caf          	amoxor.d	s9,gp,(sp)

0000000080001d56 <i0000000337>:
    80001d56:	0000100f          	fence.i

0000000080001d5a <i0000000338>:
    80001d5a:	9a79                	and	a2,a2,-2

0000000080001d5c <i0000000339>:
    80001d5c:	9cb5                	addw	s1,s1,a3
    80001d5e:	4825                	li	a6,9
    80001d60:	4ea9                	li	t4,10
    80001d62:	401c7ad3          	fcvt.s.d	fs5,fs8
    80001d66:	b798c413          	xor	s0,a7,-1159
    80001d6a:	d02a3553          	fcvt.s.l	fa0,s4,rup
    80001d6e:	9792                	add	a5,a5,tp
    80001d70:	9f99                	subw	a5,a5,a4
    80001d72:	01f4d49b          	srlw	s1,s1,0x1f
    80001d76:	0000100f          	fence.i

0000000080001d7a <b000000033a>:
    80001d7a:	00000033          	add	zero,zero,zero
    80001d7e:	030ecb63          	blt	t4,a6,80001db4 <i0000000340>
    80001d82:	00000033          	add	zero,zero,zero
    80001d86:	014797b3          	sll	a5,a5,s4
    80001d8a:	8341                	srl	a4,a4,0x10
    80001d8c:	fa013783          	ld	a5,-96(sp)
    80001d90:	8fe1                	and	a5,a5,s0
    80001d92:	2aa202d3          	fmin.d	ft5,ft4,fa0
    80001d96:	f2078e53          	fmv.d.x	ft8,a5
    80001d9a:	0ff0000f          	fence
    80001d9e:	4ea9                	li	t4,10

0000000080001da0 <i000000033a>:
    80001da0:	0367ddbb          	divuw	s11,a5,s6

0000000080001da4 <i000000033b>:
    80001da4:	e141362f          	amomaxu.d	a2,s4,(sp)

0000000080001da8 <i000000033c>:
    80001da8:	da8fe0ef          	jal	80000350 <func1>

0000000080001dac <i000000033d>:
    80001dac:	a14138af          	amomax.d	a7,s4,(sp)

0000000080001db0 <i000000033e>:
    80001db0:	2502                	fld	fa0,0(sp)

0000000080001db2 <i000000033f>:
    80001db2:	2702                	fld	fa4,0(sp)

0000000080001db4 <i0000000340>:
    80001db4:	6b75                	lui	s6,0x1d

0000000080001db6 <i0000000341>:
    80001db6:	1ba4                	add	s1,sp,504

0000000080001db8 <i0000000342>:
    80001db8:	a1c134af          	amomax.d	s1,t3,(sp)

0000000080001dbc <i0000000343>:
    80001dbc:	44e2                	lw	s1,24(sp)
    80001dbe:	000de117          	auipc	sp,0xde
    80001dc2:	24210113          	add	sp,sp,578 # 800e0000 <begin_signature>
    80001dc6:	630d                	lui	t1,0x3
    80001dc8:	2341                	addw	t1,t1,16 # 3010 <_tbss_end+0x3010>
    80001dca:	911a                	add	sp,sp,t1

0000000080001dcc <i0000000344>:
    80001dcc:	4252                	lw	tp,20(sp)
    80001dce:	000de117          	auipc	sp,0xde
    80001dd2:	23210113          	add	sp,sp,562 # 800e0000 <begin_signature>
    80001dd6:	6321                	lui	t1,0x8
    80001dd8:	8083031b          	addw	t1,t1,-2040 # 7808 <_tbss_end+0x7808>
    80001ddc:	911a                	add	sp,sp,t1

0000000080001dde <i0000000345>:
    80001dde:	cf2101a3          	sb	s2,-797(sp)

0000000080001de2 <i0000000346>:
    80001de2:	1d416483          	lwu	s1,468(sp)

0000000080001de6 <i0000000347>:
    80001de6:	e20c04d3          	fmv.x.d	s1,fs8

0000000080001dea <i0000000348>:
    80001dea:	8c298e1b          	addw	t3,s3,-1854

0000000080001dee <i0000000349>:
    80001dee:	c9012983          	lw	s3,-880(sp)

0000000080001df2 <i000000034a>:
    80001df2:	c03c0f53          	fcvt.lu.s	t5,fs8,rne

0000000080001df6 <i000000034b>:
    80001df6:	d028cfd3          	fcvt.s.l	ft11,a7,rmm

0000000080001dfa <i000000034c>:
    80001dfa:	4442                	lw	s0,16(sp)

0000000080001dfc <i000000034d>:
    80001dfc:	07416483          	lwu	s1,116(sp)
    80001e00:	49b1                	li	s3,12
    80001e02:	4ea9                	li	t4,10
    80001e04:	cda4879b          	addw	a5,s1,-806 # 216c3cda <_tbss_end+0x216c3cda>
    80001e08:	c23df853          	fcvt.lu.d	a6,fs11
    80001e0c:	423b5493          	sra	s1,s6,0x23
    80001e10:	7b06                	ld	s6,96(sp)
    80001e12:	c9413823          	sd	s4,-880(sp)
    80001e16:	250a                	fld	fa0,128(sp)
    80001e18:	00fa17bb          	sllw	a5,s4,a5

0000000080001e1c <b000000034e>:
    80001e1c:	00000033          	add	zero,zero,zero
    80001e20:	033eca63          	blt	t4,s3,80001e54 <i0000000353>
    80001e24:	00000033          	add	zero,zero,zero
    80001e28:	8f39                	xor	a4,a4,a4
    80001e2a:	a0f13a2f          	amomax.d	s4,a5,(sp)
    80001e2e:	f8be                	sd	a5,112(sp)
    80001e30:	d027b553          	fcvt.s.l	fa0,a5,rup
    80001e34:	d0ba                	sw	a4,96(sp)
    80001e36:	0ff0000f          	fence
    80001e3a:	c213fa53          	fcvt.wu.d	s4,ft7
    80001e3e:	4ea9                	li	t4,10

0000000080001e40 <i000000034e>:
    80001e40:	12412a03          	lw	s4,292(sp)

0000000080001e44 <i000000034f>:
    80001e44:	41448a3b          	subw	s4,s1,s4

0000000080001e48 <i0000000350>:
    80001e48:	e2020f53          	fmv.x.d	t5,ft4

0000000080001e4c <i0000000351>:
    80001e4c:	c5013a03          	ld	s4,-944(sp)

0000000080001e50 <i0000000352>:
    80001e50:	e0913caf          	amomaxu.d	s9,s1,(sp)

0000000080001e54 <i0000000353>:
    80001e54:	9ca5                	addw	s1,s1,s1

0000000080001e56 <i0000000354>:
    80001e56:	4f816283          	lwu	t0,1272(sp)

0000000080001e5a <i0000000355>:
    80001e5a:	cf6fe0ef          	jal	80000350 <func1>

0000000080001e5e <i0000000356>:
    80001e5e:	02c674bb          	remuw	s1,a2,a2

0000000080001e62 <i0000000357>:
    80001e62:	070a                	sll	a4,a4,0x2

0000000080001e64 <i0000000358>:
    80001e64:	e26a                	sd	s10,256(sp)

0000000080001e66 <i0000000359>:
    80001e66:	4ab9                	li	s5,14

0000000080001e68 <i000000035a>:
    80001e68:	d22a7d53          	fcvt.d.l	fs10,s4

0000000080001e6c <i000000035b>:
    80001e6c:	64e1                	lui	s1,0x18

0000000080001e6e <i000000035c>:
    80001e6e:	0000100f          	fence.i

0000000080001e72 <i000000035d>:
    80001e72:	b4ae                	fsd	fa1,104(sp)

0000000080001e74 <i000000035e>:
    80001e74:	8d65                	and	a0,a0,s1

0000000080001e76 <i000000035f>:
    80001e76:	821d                	srl	a2,a2,0x7

0000000080001e78 <i0000000360>:
    80001e78:	9e31                	addw	a2,a2,a2

0000000080001e7a <i0000000361>:
    80001e7a:	04ae                	sll	s1,s1,0xb
    80001e7c:	4cb1                	li	s9,12
    80001e7e:	0e85                	add	t4,t4,1
    80001e80:	3481                	addw	s1,s1,-32 # 17fe0 <_tbss_end+0x17fe0>
    80001e82:	00847d33          	and	s10,s0,s0
    80001e86:	034a3ab3          	mulhu	s5,s4,s4
    80001e8a:	cebc0a1b          	addw	s4,s8,-789
    80001e8e:	01f8591b          	srlw	s2,a6,0x1f
    80001e92:	020e59b3          	divu	s3,t3,zero
    80001e96:	0ff0000f          	fence

0000000080001e9a <b0000000362>:
    80001e9a:	019e8863          	beq	t4,s9,80001eaa <b0000000362+0x10>
    80001e9e:	00000c97          	auipc	s9,0x0
    80001ea2:	fcec8c93          	add	s9,s9,-50 # 80001e6c <i000000035b>
    80001ea6:	000c8567          	jalr	a0,s9
    80001eaa:	4ea9                	li	t4,10
    80001eac:	d0298553          	fcvt.s.l	fa0,s3,rne
    80001eb0:	77013c03          	ld	s8,1904(sp)
    80001eb4:	d03e30d3          	fcvt.s.lu	ft1,t3,rup
    80001eb8:	02845a33          	divu	s4,s0,s0
    80001ebc:	cad6                	sw	s5,84(sp)
    80001ebe:	7762                	ld	a4,56(sp)
    80001ec0:	51416483          	lwu	s1,1300(sp)

0000000080001ec4 <i0000000362>:
    80001ec4:	02fcc93b          	divw	s2,s9,a5

0000000080001ec8 <i0000000363>:
    80001ec8:	4146063b          	subw	a2,a2,s4

0000000080001ecc <i0000000364>:
    80001ecc:	22260653          	fsgnj.d	fa2,fa2,ft2

0000000080001ed0 <i0000000365>:
    80001ed0:	07ee                	sll	a5,a5,0x1b

0000000080001ed2 <i0000000366>:
    80001ed2:	acaa                	fsd	fa0,88(sp)

0000000080001ed4 <i0000000367>:
    80001ed4:	f20a04d3          	fmv.d.x	fs1,s4

0000000080001ed8 <i0000000368>:
    80001ed8:	005133af          	amoadd.d	t2,t0,(sp)

0000000080001edc <i0000000369>:
    80001edc:	84ad                	sra	s1,s1,0xb

0000000080001ede <i000000036a>:
    80001ede:	c22e7653          	fcvt.l.d	a2,ft8
    80001ee2:	000de117          	auipc	sp,0xde
    80001ee6:	11e10113          	add	sp,sp,286 # 800e0000 <begin_signature>
    80001eea:	6321                	lui	t1,0x8
    80001eec:	fa83031b          	addw	t1,t1,-88 # 7fa8 <_tbss_end+0x7fa8>
    80001ef0:	911a                	add	sp,sp,t1

0000000080001ef2 <i000000036b>:
    80001ef2:	a41a                	fsd	ft6,8(sp)

0000000080001ef4 <i000000036c>:
    80001ef4:	02ca463b          	divw	a2,s4,a2

0000000080001ef8 <i000000036d>:
    80001ef8:	2131262f          	amoxor.w	a2,s3,(sp)

0000000080001efc <i000000036e>:
    80001efc:	f002                	sd	zero,32(sp)

0000000080001efe <i000000036f>:
    80001efe:	8999                	and	a1,a1,6

0000000080001f00 <i0000000370>:
    80001f00:	d23a7553          	fcvt.d.lu	fa0,s4

0000000080001f04 <i0000000371>:
    80001f04:	c4cfe0ef          	jal	80000350 <func1>

0000000080001f08 <i0000000372>:
    80001f08:	029a0a3b          	mulw	s4,s4,s1
    80001f0c:	000de117          	auipc	sp,0xde
    80001f10:	0f410113          	add	sp,sp,244 # 800e0000 <begin_signature>
    80001f14:	6309                	lui	t1,0x2
    80001f16:	6083031b          	addw	t1,t1,1544 # 2608 <_tbss_end+0x2608>
    80001f1a:	911a                	add	sp,sp,t1

0000000080001f1c <i0000000373>:
    80001f1c:	2502                	fld	fa0,0(sp)

0000000080001f1e <i0000000374>:
    80001f1e:	74c6                	ld	s1,112(sp)

0000000080001f20 <i0000000375>:
    80001f20:	9a26                	add	s4,s4,s1
    80001f22:	000de117          	auipc	sp,0xde
    80001f26:	0de10113          	add	sp,sp,222 # 800e0000 <begin_signature>
    80001f2a:	630d                	lui	t1,0x3
    80001f2c:	ae03031b          	addw	t1,t1,-1312 # 2ae0 <_tbss_end+0x2ae0>
    80001f30:	911a                	add	sp,sp,t1
    80001f32:	a0e13aaf          	amomax.d	s5,a4,(sp)
    80001f36:	03faf43b          	remuw	s0,s5,t6
    80001f3a:	0ff0000f          	fence
    80001f3e:	6c8a                	ld	s9,128(sp)
    80001f40:	c02c2c53          	fcvt.l.s	s8,fs8,rdn
    80001f44:	8d411383          	lh	t2,-1836(sp)
    80001f48:	64813823          	sd	s0,1616(sp)

0000000080001f4c <b0000000376>:
    80001f4c:	03e0006f          	j	80001f8a <i000000037f>
    80001f50:	009124af          	amoadd.w	s1,s1,(sp)
    80001f54:	2abd0a53          	fmin.d	fs4,fs10,fa1
    80001f58:	84f1                	sra	s1,s1,0x1c
    80001f5a:	024b54b3          	divu	s1,s6,tp
    80001f5e:	d2347c53          	fcvt.d.lu	fs8,s0
    80001f62:	9c05                	subw	s0,s0,s1
    80001f64:	0ff0000f          	fence

0000000080001f68 <i0000000376>:
    80001f68:	01e12a2f          	amoadd.w	s4,t5,(sp)

0000000080001f6c <i0000000377>:
    80001f6c:	00b4199b          	sllw	s3,s0,0xb

0000000080001f70 <i0000000378>:
    80001f70:	8a21                	and	a2,a2,8

0000000080001f72 <i0000000379>:
    80001f72:	c035b653          	fcvt.lu.s	a2,fa1,rup

0000000080001f76 <i000000037a>:
    80001f76:	d0248f53          	fcvt.s.l	ft10,s1,rne

0000000080001f7a <i000000037b>:
    80001f7a:	81412e2f          	amomin.w	t3,s4,(sp)

0000000080001f7e <i000000037c>:
    80001f7e:	93e13c27          	fsd	ft10,-1736(sp)

0000000080001f82 <i000000037d>:
    80001f82:	03306a3b          	remw	s4,zero,s3

0000000080001f86 <i000000037e>:
    80001f86:	8b35f24f          	fnmadd.d	ft4,fa1,fs3,fa7

0000000080001f8a <i000000037f>:
    80001f8a:	c0260cd3          	fcvt.l.s	s9,fa2,rne

0000000080001f8e <i0000000380>:
    80001f8e:	ac26                	fsd	fs1,24(sp)

0000000080001f90 <i0000000381>:
    80001f90:	c0278553          	fcvt.l.s	a0,fa5,rne

0000000080001f94 <i0000000382>:
    80001f94:	8826                	mv	a6,s1

0000000080001f96 <i0000000383>:
    80001f96:	41f9561b          	sraw	a2,s2,0x1f

0000000080001f9a <i0000000384>:
    80001f9a:	d03a3dd3          	fcvt.s.lu	fs11,s4,rup

0000000080001f9e <i0000000385>:
    80001f9e:	2542                	fld	fa0,16(sp)

0000000080001fa0 <i0000000386>:
    80001fa0:	362d                	addw	a2,a2,-21 # ffffffffd731c7ff <_end+0xffffffff57229efe>

0000000080001fa2 <i0000000387>:
    80001fa2:	d234fd53          	fcvt.d.lu	fs10,s1

0000000080001fa6 <i0000000388>:
    80001fa6:	baafe0ef          	jal	80000350 <func1>

0000000080001faa <i0000000389>:
    80001faa:	029a5b3b          	divuw	s6,s4,s1
    80001fae:	000de117          	auipc	sp,0xde
    80001fb2:	05210113          	add	sp,sp,82 # 800e0000 <begin_signature>
    80001fb6:	6331                	lui	t1,0xc
    80001fb8:	c803031b          	addw	t1,t1,-896 # bc80 <_tbss_end+0xbc80>
    80001fbc:	911a                	add	sp,sp,t1
    80001fbe:	200134af          	amoxor.d	s1,zero,(sp)
    80001fc2:	dc3a                	sw	a4,56(sp)
    80001fc4:	024b44bb          	divw	s1,s6,tp
    80001fc8:	a38c17d3          	flt.d	a5,fs8,fs8
    80001fcc:	d02a1053          	fcvt.s.l	ft0,s4,rtz
    80001fd0:	0000100f          	fence.i
    80001fd4:	8311                	srl	a4,a4,0x4

0000000080001fd6 <b000000038a>:
    80001fd6:	00000d97          	auipc	s11,0x0
    80001fda:	03ed8d93          	add	s11,s11,62 # 80002014 <i0000000394>
    80001fde:	000d8067          	jr	s11
    80001fe2:	c235fa53          	fcvt.lu.d	s4,fa1
    80001fe6:	0297a8b3          	mulhsu	a7,a5,s1
    80001fea:	0406                	sll	s0,s0,0x1
    80001fec:	c0ba                	sw	a4,64(sp)
    80001fee:	610d                	add	sp,sp,160
    80001ff0:	a116                	fsd	ft5,128(sp)
    80001ff2:	2422                	fld	fs0,8(sp)

0000000080001ff4 <i000000038a>:
    80001ff4:	9a2e                	add	s4,s4,a1

0000000080001ff6 <i000000038b>:
    80001ff6:	01ea161b          	sllw	a2,s4,0x1e

0000000080001ffa <i000000038c>:
    80001ffa:	0891362f          	amoswap.d	a2,s1,(sp)

0000000080001ffe <i000000038d>:
    80001ffe:	02ca66bb          	remw	a3,s4,a2

0000000080002002 <i000000038e>:
    80002002:	a4a6                	fsd	fs1,72(sp)

0000000080002004 <i000000038f>:
    80002004:	9e29                	addw	a2,a2,a0

0000000080002006 <i0000000390>:
    80002006:	c0b1252f          	amominu.w	a0,a1,(sp)

000000008000200a <i0000000391>:
    8000200a:	027af1bb          	remuw	gp,s5,t2

000000008000200e <i0000000392>:
    8000200e:	8441                	sra	s0,s0,0x10

0000000080002010 <i0000000393>:
    80002010:	f2068653          	fmv.d.x	fa2,a3

0000000080002014 <i0000000394>:
    80002014:	e432                	sd	a2,8(sp)

0000000080002016 <i0000000395>:
    80002016:	03754d3b          	divw	s10,a0,s7

000000008000201a <i0000000396>:
    8000201a:	c2057653          	fcvt.w.d	a2,fa0

000000008000201e <i0000000397>:
    8000201e:	e1e1262f          	amomaxu.w	a2,t5,(sp)

0000000080002022 <i0000000398>:
    80002022:	2282a253          	fsgnjx.d	ft4,ft5,fs0

0000000080002026 <i0000000399>:
    80002026:	02ad03bb          	mulw	t2,s10,a0

000000008000202a <i000000039a>:
    8000202a:	d22c7253          	fcvt.d.l	ft4,s8

000000008000202e <i000000039b>:
    8000202e:	094137af          	amoswap.d	a5,s4,(sp)

0000000080002032 <i000000039c>:
    80002032:	0389463b          	divw	a2,s2,s8
    80002036:	000de117          	auipc	sp,0xde
    8000203a:	fca10113          	add	sp,sp,-54 # 800e0000 <begin_signature>
    8000203e:	6321                	lui	t1,0x8
    80002040:	8c03031b          	addw	t1,t1,-1856 # 78c0 <_tbss_end+0x78c0>
    80002044:	911a                	add	sp,sp,t1
    80002046:	008a179b          	sllw	a5,s4,0x8
    8000204a:	e20b1d53          	fclass.d	s10,fs6
    8000204e:	a58cb493          	sltiu	s1,s9,-1448
    80002052:	c0394ad3          	fcvt.lu.s	s5,fs2,rmm
    80002056:	712d                	add	sp,sp,-288
    80002058:	81b13a2f          	amomin.d	s4,s11,(sp)
    8000205c:	8f8a6a13          	or	s4,s4,-1800

0000000080002060 <b000000039d>:
    80002060:	00000b17          	auipc	s6,0x0
    80002064:	04eb0b13          	add	s6,s6,78 # 800020ae <i00000003aa>
    80002068:	000b0067          	jr	s6
    8000206c:	e0416983          	lwu	s3,-508(sp)
    80002070:	c17137af          	amominu.d	a5,s7,(sp)
    80002074:	80ad                	srl	s1,s1,0xb
    80002076:	338e                	fld	ft7,224(sp)
    80002078:	6d4e                	ld	s10,208(sp)
    8000207a:	3c013483          	ld	s1,960(sp)
    8000207e:	0000100f          	fence.i

0000000080002082 <i000000039d>:
    80002082:	a3c77f4f          	fnmadd.d	ft10,fa4,ft8,fs4

0000000080002086 <i000000039e>:
    80002086:	0294893b          	mulw	s2,s1,s1

000000008000208a <i000000039f>:
    8000208a:	c22b7a53          	fcvt.l.d	s4,fs6

000000008000208e <i00000003a0>:
    8000208e:	c20c7a53          	fcvt.w.d	s4,fs8

0000000080002092 <i00000003a1>:
    80002092:	a1713aaf          	amomax.d	s5,s7,(sp)

0000000080002096 <i00000003a2>:
    80002096:	8085                	srl	s1,s1,0x1

0000000080002098 <i00000003a3>:
    80002098:	e20c0653          	fmv.x.d	a2,fs8

000000008000209c <i00000003a4>:
    8000209c:	b7848f9b          	addw	t6,s1,-1160

00000000800020a0 <i00000003a5>:
    800020a0:	8e71                	and	a2,a2,a2

00000000800020a2 <i00000003a6>:
    800020a2:	a0d1382f          	amomax.d	a6,a3,(sp)

00000000800020a6 <i00000003a7>:
    800020a6:	3679                	addw	a2,a2,-2

00000000800020a8 <i00000003a8>:
    800020a8:	614138af          	amoand.d	a7,s4,(sp)

00000000800020ac <i00000003a9>:
    800020ac:	f962                	sd	s8,176(sp)

00000000800020ae <i00000003aa>:
    800020ae:	21f124af          	amoxor.w	s1,t6,(sp)

00000000800020b2 <i00000003ab>:
    800020b2:	031a84bb          	mulw	s1,s5,a7

00000000800020b6 <i00000003ac>:
    800020b6:	e20a82d3          	fmv.x.d	t0,fs5

00000000800020ba <i00000003ad>:
    800020ba:	019137af          	amoadd.d	a5,s9,(sp)

00000000800020be <i00000003ae>:
    800020be:	2b820253          	fmin.d	ft4,ft4,fs8

00000000800020c2 <i00000003af>:
    800020c2:	73360f9b          	addw	t6,a2,1843
    800020c6:	4a31                	li	s4,12
    800020c8:	0e85                	add	t4,t4,1
    800020ca:	000de117          	auipc	sp,0xde
    800020ce:	f3610113          	add	sp,sp,-202 # 800e0000 <begin_signature>
    800020d2:	6331                	lui	t1,0xc
    800020d4:	9f03031b          	addw	t1,t1,-1552 # b9f0 <_tbss_end+0xb9f0>
    800020d8:	911a                	add	sp,sp,t1
    800020da:	039e0c33          	mul	s8,t3,s9
    800020de:	f6813483          	ld	s1,-152(sp)
    800020e2:	0831302f          	amoswap.d	zero,gp,(sp)
    800020e6:	e0be                	sd	a5,64(sp)
    800020e8:	0ff0000f          	fence
    800020ec:	413e5b13          	sra	s6,t3,0x13
    800020f0:	0000100f          	fence.i

00000000800020f4 <b00000003b0>:
    800020f4:	014e8463          	beq	t4,s4,800020fc <b00000003b0+0x8>
    800020f8:	fb7ff06f          	j	800020ae <i00000003aa>
    800020fc:	4ea9                	li	t4,10
    800020fe:	224c7243          	fmadd.d	ft4,fs8,ft4,ft4
    80002102:	a0f137af          	amomax.d	a5,a5,(sp)
    80002106:	8fd9                	or	a5,a5,a4
    80002108:	e0c0b24b          	fnmsub.s	ft4,ft1,fa2,ft8,rup
    8000210c:	2506                	fld	fa0,64(sp)
    8000210e:	77016483          	lwu	s1,1904(sp)
    80002112:	34c1                	addw	s1,s1,-16

0000000080002114 <i00000003b0>:
    80002114:	00205073          	fsrmi	zero,0

0000000080002118 <i00000003b1>:
    80002118:	c2377853          	fcvt.lu.d	a6,fa4

000000008000211c <i00000003b2>:
    8000211c:	02e8063b          	mulw	a2,a6,a4

0000000080002120 <i00000003b3>:
    80002120:	008a1e1b          	sllw	t3,s4,0x8

0000000080002124 <i00000003b4>:
    80002124:	80c134af          	amomin.d	s1,a2,(sp)

0000000080002128 <i00000003b5>:
    80002128:	edee                	sd	s11,216(sp)

000000008000212a <i00000003b6>:
    8000212a:	8535                	sra	a0,a0,0xd

000000008000212c <i00000003b7>:
    8000212c:	00561a13          	sll	s4,a2,0x5

0000000080002130 <i00000003b8>:
    80002130:	a09134af          	amomax.d	s1,s1,(sp)

0000000080002134 <i00000003b9>:
    80002134:	849d                	sra	s1,s1,0x7

0000000080002136 <i00000003ba>:
    80002136:	640a                	ld	s0,128(sp)

0000000080002138 <i00000003bb>:
    80002138:	05fa                	sll	a1,a1,0x1e

000000008000213a <i00000003bc>:
    8000213a:	6622                	ld	a2,8(sp)

000000008000213c <i00000003bd>:
    8000213c:	c22474d3          	fcvt.l.d	s1,fs0

0000000080002140 <i00000003be>:
    80002140:	0294d4bb          	divuw	s1,s1,s1

0000000080002144 <i00000003bf>:
    80002144:	608137af          	amoand.d	a5,s0,(sp)

0000000080002148 <i00000003c0>:
    80002148:	20c1332f          	amoxor.d	t1,a2,(sp)

000000008000214c <i00000003c1>:
    8000214c:	2a4c1b53          	fmax.d	fs6,fs8,ft4

0000000080002150 <i00000003c2>:
    80002150:	f8a6                	sd	s1,112(sp)

0000000080002152 <i00000003c3>:
    80002152:	9fefe0ef          	jal	80000350 <func1>

0000000080002156 <i00000003c4>:
    80002156:	9fa5                	addw	a5,a5,s1
    80002158:	03ab4a3b          	divw	s4,s6,s10
    8000215c:	83f9                	srl	a5,a5,0x1e
    8000215e:	c03faa53          	fcvt.lu.s	s4,ft11,rdn
    80002162:	43013783          	ld	a5,1072(sp)
    80002166:	c0a6                	sw	s1,64(sp)
    80002168:	61413aaf          	amoand.d	s5,s4,(sp)
    8000216c:	0000100f          	fence.i

0000000080002170 <b00000003c5>:
    80002170:	00000997          	auipc	s3,0x0
    80002174:	03a98993          	add	s3,s3,58 # 800021aa <i00000003cc>
    80002178:	000980e7          	jalr	s3
    8000217c:	a0ae                	fsd	fa1,64(sp)
    8000217e:	9fc13423          	sd	t3,-1560(sp)
    80002182:	9c01                	subw	s0,s0,s0
    80002184:	a091202f          	amomax.w	zero,s1,(sp)
    80002188:	e03e                	sd	a5,0(sp)
    8000218a:	0ff0000f          	fence
    8000218e:	01dbdc93          	srl	s9,s7,0x1d

0000000080002192 <i00000003c5>:
    80002192:	4022579b          	sraw	a5,tp,0x2

0000000080002196 <i00000003c6>:
    80002196:	e426                	sd	s1,8(sp)

0000000080002198 <i00000003c7>:
    80002198:	d238fc53          	fcvt.d.lu	fs8,a7

000000008000219c <i00000003c8>:
    8000219c:	d23ffc53          	fcvt.d.lu	fs8,t6

00000000800021a0 <i00000003c9>:
    800021a0:	34a1                	addw	s1,s1,-24

00000000800021a2 <i00000003ca>:
    800021a2:	e20e8553          	fmv.x.d	a0,ft9

00000000800021a6 <i00000003cb>:
    800021a6:	f20e0c53          	fmv.d.x	fs8,t3

00000000800021aa <i00000003cc>:
    800021aa:	8fbd                	xor	a5,a5,a5

00000000800021ac <i00000003cd>:
    800021ac:	0f56851b          	addw	a0,a3,245

00000000800021b0 <i00000003ce>:
    800021b0:	84f9                	sra	s1,s1,0x1e

00000000800021b2 <i00000003cf>:
    800021b2:	010d151b          	sllw	a0,s10,0x10

00000000800021b6 <i00000003d0>:
    800021b6:	9e25                	addw	a2,a2,s1

00000000800021b8 <i00000003d1>:
    800021b8:	4194da13          	sra	s4,s1,0x19

00000000800021bc <i00000003d2>:
    800021bc:	cc51881b          	addw	a6,gp,-827 # 1dcc5 <_tbss_end+0x1dcc5>

00000000800021c0 <i00000003d3>:
    800021c0:	9e31                	addw	a2,a2,a2

00000000800021c2 <i00000003d4>:
    800021c2:	04da                	sll	s1,s1,0x16

00000000800021c4 <i00000003d5>:
    800021c4:	9f25                	addw	a4,a4,s1

00000000800021c6 <i00000003d6>:
    800021c6:	24a5                	addw	s1,s1,9

00000000800021c8 <i00000003d7>:
    800021c8:	014a52bb          	srlw	t0,s4,s4
    800021cc:	4c31                	li	s8,12
    800021ce:	0e85                	add	t4,t4,1
    800021d0:	036dda33          	divu	s4,s11,s6
    800021d4:	67c2                	ld	a5,16(sp)
    800021d6:	6149                	add	sp,sp,144
    800021d8:	4742                	lw	a4,16(sp)
    800021da:	0347fa33          	remu	s4,a5,s4
    800021de:	9b2d                	and	a4,a4,-21
    800021e0:	a14284d3          	fle.s	s1,ft5,fs4

00000000800021e4 <b00000003d8>:
    800021e4:	018e8863          	beq	t4,s8,800021f4 <b00000003d8+0x10>
    800021e8:	00000c17          	auipc	s8,0x0
    800021ec:	fd8c0c13          	add	s8,s8,-40 # 800021c0 <i00000003d3>
    800021f0:	000c00e7          	jalr	s8
    800021f4:	4ea9                	li	t4,10
    800021f6:	f1be                	sd	a5,224(sp)
    800021f8:	1162bf97          	auipc	t6,0x1162b
    800021fc:	710d                	add	sp,sp,-352
    800021fe:	c29e                	sw	t2,68(sp)
    80002200:	016bcdb3          	xor	s11,s7,s6
    80002204:	9c99                	subw	s1,s1,a4
    80002206:	027a9813          	sll	a6,s5,0x27
    8000220a:	4185                	li	gp,1
    8000220c:	000f0f17          	auipc	t5,0xf0
    80002210:	de3f2a23          	sw	gp,-524(t5) # 800f2000 <tohost>
    80002214:	0000100f          	fence.i
    80002218:	00020fb7          	lui	t6,0x20
    8000221c:	000def17          	auipc	t5,0xde
    80002220:	de4f0f13          	add	t5,t5,-540 # 800e0000 <begin_signature>
    80002224:	01efa023          	sw	t5,0(t6) # 20000 <_tbss_end+0x20000>
    80002228:	000eef17          	auipc	t5,0xee
    8000222c:	dd8f0f13          	add	t5,t5,-552 # 800f0000 <end_signature>
    80002230:	01efa423          	sw	t5,8(t6)
    80002234:	01efa623          	sw	t5,12(t6)
	...

Disassembly of section .tohost:

00000000800f2000 <tohost>:
	...

00000000800f2040 <fromhost>:
	...

00000000800f2050 <ecause_num>:
	...
